ROM is 32768 bytes, 4 8k-pages, mapper 0
;Mappings:
; Page 4: 0
; Page 5: 2000
; Page 6: 4000
; Page 7: 6000
;Vectors:
; NMI:   8471
; Reset: 8000
; IRQ:   84FF
; Indirect jump at romptr=$4D0, JumpPointer=$0010
; Discovered a jump table at 569,56A (stepping 2, extent 0)
; Indirect jump at romptr=$1ECC, JumpPointer=$0010
; Discovered a jump table at 1E57,1E58 (stepping 2, extent 0)
; Discovered a data table at 1A37,1A38 (stepping 2, extent 0)
; Discovered a data table at 1A37,1A38 (stepping 2, extent 0)
; Discovered a data table at 1A37,1A38 (stepping 2, extent 0)
; Indirect jump at romptr=$247C, JumpPointer=$0010
; Discovered a jump table at 247F,2480 (stepping 2, extent 0)
; Indirect jump at romptr=$2D2B, JumpPointer=$0010
; Discovered a jump table at 2D2E,2D2F (stepping 2, extent 0)
; Possibly discovered a data table at 3F6 ($83F6) (page [8:0][A:1][C:2][E:3])
; Possibly discovered a data table at 3EC ($83EC) (page [8:0][A:1][C:2][E:3])
; Possibly discovered a data table at 692 ($8692) (page [8:0][A:1][C:2][E:3])
; Possibly discovered a data table at 14D8 ($94D8) (page [8:0][A:1][C:2][E:3])
; Possibly discovered a data table at 1A37 ($9A37) (page [8:0][A:1][C:2][E:3])
; Possibly discovered a data table at 1E57 ($9E57) (page [8:0][A:1][C:2][E:3])
; Possibly discovered a data table at 247F ($A47F) (page [8:0][A:1][C:2][E:3])
; Possibly discovered a data table at 2D2E ($AD2E) (page [8:0][A:1][C:2][E:3])
; Possibly discovered a data table at 4BA8 ($CBA8) (page [8:0][A:1][C:2][E:3])
; Possibly discovered a data table at 4BAA ($CBAA) (page [8:0][A:1][C:2][E:3])
_Reset	$8000  A9 00:       lda #$00			/* A(00)<0>X(un)Y(un)MAP[00:[00],01:[01],02:[02],03:[03],mmc:(un)]s(0)Z1S0*/
	$8002  8D 00 20:    sta $2000			/* A(00)<0>X(un)Y(un)MAP[00:[00],01:[01],02:[02],03:[03],mmc:(un)]s(0)Z1S0*/
	$8005  78:          sei 			/* A(00)<0>X(un)Y(un)MAP[00:[00],01:[01],02:[02],03:[03],mmc:(un)]s(0)Z1S0*/
	$8006  D8:          cld 			/* A(00)<0>X(un)Y(un)MAP[00:[00],01:[01],02:[02],03:[03],mmc:(un)]s(0)Z1S0*/
-	$8007  AD 02 20:    lda $2002			/* A(??)X(un)Y(un)MAP[00:[00],01:[01],02:[02],03:[03],mmc:(un)]s(0)Z?S?*/
	$800A  10 FB:       bpl -		; $8007			/* A(??)X(un)Y(un)MAP[00:[00],01:[01],02:[02],03:[03],mmc:(un)]s(0)Z?S?*/
	$800C  A9 00:       lda #$00			/* A(00)<C>X(un)Y(un)MAP[00:[00],01:[01],02:[02],03:[03],mmc:(un)]s(0)Z1S0*/
	$800E  8D 00 20:    sta $2000			/* A(00)<C>X(un)Y(un)MAP[00:[00],01:[01],02:[02],03:[03],mmc:(un)]s(0)Z1S0*/
                            ; Delay loop begin: 2 cycles (2.0 cycles per byte); ends at $12
	$8011  EA:          nop 			/* A(00)<C>X(un)Y(un)MAP[00:[00],01:[01],02:[02],03:[03],mmc:(un)]s(0)Z1S0*/
-                           ; End of delay loop (1 bytes)
	$8012  AD 02 20:    lda $2002			/* A(??)X(un)Y(un)MAP[00:[00],01:[01],02:[02],03:[03],mmc:(un)]s(0)Z?S?*/
	$8015  10 FB:       bpl -		; $8012			/* A(??)X(un)Y(un)MAP[00:[00],01:[01],02:[02],03:[03],mmc:(un)]s(0)Z?S?*/
	$8017  A2 FF:       ldx #$FF			/* A(??)X(FF)<17>Y(un)MAP[00:[00],01:[01],02:[02],03:[03],mmc:(un)]s(0)Z0S1*/
	$8019  9A:          txs 			/* A(??)X(FF)<17>Y(un)MAP[00:[00],01:[01],02:[02],03:[03],mmc:(un)]s(0)Z?S?*/
	$801A  E8:          inx 			/* A(??)X(??)Y(un)MAP[00:[00],01:[01],02:[02],03:[03],mmc:(un)]s(0)Z?S?*/
	$801B  8E 01 20:    stx $2001			/* A(??)X(??)Y(un)MAP[00:[00],01:[01],02:[02],03:[03],mmc:(un)]s(0)Z?S?*/
	$801E  86 F1:       stx $F1			/* A(??)X(??)Y(un)MAP[00:[00],01:[01],02:[02],03:[03],mmc:(un)]s(0)Z?S?*/
	$8020  8E 10 40:    stx $4010			/* A(??)X(??)Y(un)MAP[00:[00],01:[01],02:[02],03:[03],mmc:(un)]s(0)Z?S?*/
	$8023  86 32:       stx $32			/* A(??)X(??)Y(un)MAP[00:[00],01:[01],02:[02],03:[03],mmc:(un)]s(0)Z?S?*/
	$8025  86 EB:       stx $EB			/* A(??)X(??)Y(un)MAP[00:[00],01:[01],02:[02],03:[03],mmc:(un)]s(0)Z?S?*/
	$8027  86 33:       stx $33			/* A(??)X(??)Y(un)MAP[00:[00],01:[01],02:[02],03:[03],mmc:(un)]s(0)Z?S?*/
	$8029  A9 00:       lda #$00			/* A(00)<29>X(??)Y(un)MAP[00:[00],01:[01],02:[02],03:[03],mmc:(un)]s(0)Z1S0*/
	$802B  85 2A:       sta $2A			/* A(00)<29>X(??)Y(un)MAP[00:[00],01:[01],02:[02],03:[03],mmc:(un)]s(0)Z1S0*/
	$802D  85 29:       sta $29			/* A(00)<29>X(??)Y(un)MAP[00:[00],01:[01],02:[02],03:[03],mmc:(un)]s(0)Z1S0*/
	$802F  A9 40:       lda #$40			/* A(40)<2F>X(??)Y(un)MAP[00:[00],01:[01],02:[02],03:[03],mmc:(un)]s(0)Z0S0*/
	$8031  8D 17 40:    sta $4017			/* A(40)<2F>X(??)Y(un)MAP[00:[00],01:[01],02:[02],03:[03],mmc:(un)]s(0)Z0S0*/
	$8034  20 8D BE:    jsr _func_3E8D			/* A(??)X(??)Y(??)MAP[00:(??),01:(??),02:(??),03:(??),mmc:(un)]s(0)Z?S?*/
	$8037  20 2F 90:    jsr _func_102F			/* A(??)X(??)Y(??)MAP[00:(??),01:(??),02:(??),03:(??),mmc:(un)]s(0)Z?S?*/
_loc_003A
	$803A  20 FD 90:    jsr _func_10FD			/* A(??)X(??)Y(??)MAP[00:[00],01:[01],02:[02],03:[03],mmc:(un)]s(0)Z?S?*/
	$803D  A2 FF:       ldx #$FF			/* A(??)X(FF)<3D>Y(??)MAP[00:[00],01:[01],02:[02],03:[03],mmc:(un)]s(0)Z0S1*/
	$803F  86 31:       stx $31			/* A(??)X(FF)<3D>Y(??)MAP[00:[00],01:[01],02:[02],03:[03],mmc:(un)]s(0)Z0S1*/
	$8041  E8:          inx 			/* A(??)X(??)Y(??)MAP[00:[00],01:[01],02:[02],03:[03],mmc:(un)]s(0)Z?S?*/
	$8042  86 EE:       stx $EE			/* A(??)X(??)Y(??)MAP[00:[00],01:[01],02:[02],03:[03],mmc:(un)]s(0)Z?S?*/
	$8044  8E 00 20:    stx $2000			/* A(??)X(??)Y(??)MAP[00:[00],01:[01],02:[02],03:[03],mmc:(un)]s(0)Z?S?*/
	$8047  86 EF:       stx $EF			/* A(??)X(??)Y(??)MAP[00:[00],01:[01],02:[02],03:[03],mmc:(un)]s(0)Z?S?*/
	$8049  86 32:       stx $32			/* A(??)X(??)Y(??)MAP[00:[00],01:[01],02:[02],03:[03],mmc:(un)]s(0)Z?S?*/
	$804B  86 37:       stx $37			/* A(??)X(??)Y(??)MAP[00:[00],01:[01],02:[02],03:[03],mmc:(un)]s(0)Z?S?*/
	$804D  86 F4:       stx $F4			/* A(??)X(??)Y(??)MAP[00:[00],01:[01],02:[02],03:[03],mmc:(un)]s(0)Z?S?*/
	$804F  20 37 C3:    jsr _func_4337			/* A(??)X(??)Y(??)MAP[00:(??),01:(??),02:(??),03:(??),mmc:(un)]s(0)Z?S?*/
	$8052  20 FB 88:    jsr _func_08FB			/* A(??)X(??)Y(??)MAP[00:(??),01:(??),02:(??),03:(??),mmc:(un)]s(0)Z?S?*/
	$8055  A5 33:       lda $33			/* A(??)X(??)Y(??)MAP[00:[00],01:[01],02:[02],03:[03],mmc:(un)]s(0)Z?S?*/
	$8057  85 2E:       sta $2E			/* A(??)X(??)Y(??)MAP[00:[00],01:[01],02:[02],03:[03],mmc:(un)]s(0)Z?S?*/
	$8059  A9 00:       lda #$00			/* A(00)<59>X(??)Y(??)MAP[00:[00],01:[01],02:[02],03:[03],mmc:(un)]s(0)Z1S0*/
	$805B  85 33:       sta $33			/* A(00)<59>X(??)Y(??)MAP[00:[00],01:[01],02:[02],03:[03],mmc:(un)]s(0)Z1S0*/
	$805D  85 2D:       sta $2D			/* A(00)<59>X(??)Y(??)MAP[00:[00],01:[01],02:[02],03:[03],mmc:(un)]s(0)Z1S0*/
	$805F  20 7A 80:    jsr _func_007A			/* A(??)X(??)Y(??)MAP[00:(??),01:(??),02:(??),03:(??),mmc:(un)]s(0)Z?S?*/
	$8062  A5 2E:       lda $2E			/* A(??)X(??)Y(??)MAP[00:[00],01:[01],02:[02],03:[03],mmc:(un)]s(0)Z?S?*/
	$8064  85 33:       sta $33			/* A(??)X(??)Y(??)MAP[00:[00],01:[01],02:[02],03:[03],mmc:(un)]s(0)Z?S?*/
	$8066  4C 3A 80:    jmp _loc_003A			/* A(??)X(??)Y(??)MAP[00:[00],01:[01],02:[02],03:[03],mmc:(un)]s(0)Z?S?*/(barrier)
;------------------------------------------
_loc_0069
	$8069  20 8D BE:    jsr _func_3E8D			/* A(??)X(??)Y(??)MAP[00:(??),01:(??),02:(??),03:(??),mmc:(un)]s(0)Z?S?*/
	$806C  A9 00:       lda #$00			/* A(00)<6C>X(??)Y(??)MAP[00:[00],01:[01],02:[02],03:[03],mmc:(un)]s(0)Z1S0*/
	$806E  85 31:       sta $31			/* A(00)<6C>X(??)Y(??)MAP[00:[00],01:[01],02:[02],03:[03],mmc:(un)]s(0)Z1S0*/
	$8070  20 2F 90:    jsr _func_102F			/* A(??)X(??)Y(??)MAP[00:(??),01:(??),02:(??),03:(??),mmc:(un)]s(0)Z?S?*/
	$8073  A5 33:       lda $33			/* A(??)X(??)Y(??)MAP[00:[00],01:[01],02:[02],03:[03],mmc:(un)]s(0)Z?S?*/
	$8075  30 03:       bmi _func_007A			/* A(??)X(??)Y(??)MAP[00:[00],01:[01],02:[02],03:[03],mmc:(un)]s(0)Z?S?*/
	$8077  20 EF C8:    jsr _func_48EF			/* A(??)X(??)Y(??)MAP[00:(??),01:(??),02:(??),03:(??),mmc:(un)]s(0)Z?S?*/
_func_007A
	$807A  A9 10:       lda #$10			/* A(??)X(??)Y(??)MAP[00:[00],01:[01],02:[02],03:[03],mmc:(un)]s(0)Z?S?*/
	$807C  85 EE:       sta $EE			/* A(10)<7A>X(??)Y(??)MAP[00:[00],01:[01],02:[02],03:[03],mmc:(un)]s(0)Z0S0*/
	$807E  20 C8 88:    jsr _func_08C8			/* A(??)X(??)Y(??)MAP[00:(??),01:(??),02:(??),03:(??),mmc:(un)]s(0)Z?S?*/
	$8081  A9 00:       lda #$00			/* A(00)<81>X(??)Y(??)MAP[00:[00],01:[01],02:[02],03:[03],mmc:(un)]s(0)Z1S0*/
	$8083  85 2C:       sta $2C			/* A(00)<81>X(??)Y(??)MAP[00:[00],01:[01],02:[02],03:[03],mmc:(un)]s(0)Z1S0*/
	$8085  A5 33:       lda $33			/* A(??)X(??)Y(??)MAP[00:[00],01:[01],02:[02],03:[03],mmc:(un)]s(0)Z?S?*/
	$8087  10 04:       bpl _loc_008D			/* A(??)X(??)Y(??)MAP[00:[00],01:[01],02:[02],03:[03],mmc:(un)]s(0)Z?S?*/
	$8089  A9 00:       lda #$00			/* A(00)<89>X(??)Y(??)MAP[00:[00],01:[01],02:[02],03:[03],mmc:(un)]s(0)Z1S0*/
	$808B  85 2D:       sta $2D			/* A(00)<89>X(??)Y(??)MAP[00:[00],01:[01],02:[02],03:[03],mmc:(un)]s(0)Z1S0*/
_loc_008D
	$808D  20 8D BE:    jsr _func_3E8D			/* A(??)X(??)Y(??)MAP[00:[00],01:[01],02:[02],03:[03],mmc:(un)]s(0)Z?S?*/
	$8090  20 AD 83:    jsr _func_03AD			/* A(??)X(??)Y(??)MAP[00:(??),01:(??),02:(??),03:(??),mmc:(un)]s(0)Z?S?*/
	$8093  20 8B 99:    jsr _func_198B			/* A(??)X(??)Y(??)MAP[00:(??),01:(??),02:(??),03:(??),mmc:(un)]s(0)Z?S?*/
	$8096  20 00 8F:    jsr _func_0F00			/* A(??)X(??)Y(??)MAP[00:(??),01:(??),02:(??),03:(??),mmc:(un)]s(0)Z?S?*/
	$8099  20 FD 90:    jsr _func_10FD			/* A(??)X(??)Y(??)MAP[00:(??),01:(??),02:(??),03:(??),mmc:(un)]s(0)Z?S?*/
	$809C  A5 2C:       lda $2C			/* A(??)X(??)Y(??)MAP[00:[00],01:[01],02:[02],03:[03],mmc:(un)]s(0)Z?S?*/
	$809E  A4 33:       ldy $33			/* A(??)X(??)Y(??)MAP[00:[00],01:[01],02:[02],03:[03],mmc:(un)]s(0)Z?S?*/
	$80A0  30 02:       bmi +		; $80A4			/* A(??)X(??)Y(??)MAP[00:[00],01:[01],02:[02],03:[03],mmc:(un)]s(0)Z?S?*/
	$80A2  A5 2D:       lda $2D			/* A(??)X(??)Y(??)MAP[00:[00],01:[01],02:[02],03:[03],mmc:(un)]s(0)Z?S?*/
+	$80A4  6A:          ror a			/* A(??)X(??)Y(??)MAP[00:[00],01:[01],02:[02],03:[03],mmc:(un)]s(0)Z?S?*/
	$80A5  6A:          ror a			/* A(??)X(??)Y(??)MAP[00:[00],01:[01],02:[02],03:[03],mmc:(un)]s(0)Z?S?*/
	$80A6  49 80:       eor #$80			/* A(??)X(??)Y(??)MAP[00:[00],01:[01],02:[02],03:[03],mmc:(un)]s(0)Z?S?*/
	$80A8  29 80:       and #$80			/* A(??)X(??)Y(??)MAP[00:[00],01:[01],02:[02],03:[03],mmc:(un)]s(0)Z?S?*/
	$80AA  85 FC:       sta $FC			/* A(??)X(??)Y(??)MAP[00:[00],01:[01],02:[02],03:[03],mmc:(un)]s(0)Z?S?*/
----	$80AC  A5 FC:       lda $FC			/* A(??)X(??)Y(??)MAP[00:[00],01:[01],02:[02],03:[03],mmc:(un)]s(0)Z?S?*/
	$80AE  49 80:       eor #$80			/* A(??)X(??)Y(??)MAP[00:[00],01:[01],02:[02],03:[03],mmc:(un)]s(0)Z?S?*/
	$80B0  85 FC:       sta $FC			/* A(??)X(??)Y(??)MAP[00:[00],01:[01],02:[02],03:[03],mmc:(un)]s(0)Z?S?*/
	$80B2  20 FD 90:    jsr _func_10FD			/* A(??)X(??)Y(??)MAP[00:(??),01:(??),02:(??),03:(??),mmc:(un)]s(0)Z?S?*/
	$80B5  20 20 84:    jsr _func_0420			/* A(??)X(??)Y(??)MAP[00:(??),01:(??),02:(??),03:(??),mmc:(un)]s(0)Z?S?*/
	$80B8  A2 FF:       ldx #$FF			/* A(??)X(FF)<B8>Y(??)MAP[00:[00],01:[01],02:[02],03:[03],mmc:(un)]s(0)Z0S1*/
	$80BA  86 79:       stx $79			/* A(??)X(FF)<B8>Y(??)MAP[00:[00],01:[01],02:[02],03:[03],mmc:(un)]s(0)Z0S1*/
	$80BC  86 67:       stx $67			/* A(??)X(FF)<B8>Y(??)MAP[00:[00],01:[01],02:[02],03:[03],mmc:(un)]s(0)Z0S1*/
	$80BE  86 F7:       stx $F7			/* A(??)X(FF)<B8>Y(??)MAP[00:[00],01:[01],02:[02],03:[03],mmc:(un)]s(0)Z0S1*/
	$80C0  8E 98 03:    stx $0398			/* A(??)X(FF)<B8>Y(??)MAP[00:[00],01:[01],02:[02],03:[03],mmc:(un)]s(0)Z0S1*/
	$80C3  E8:          inx 			/* A(??)X(??)Y(??)MAP[00:[00],01:[01],02:[02],03:[03],mmc:(un)]s(0)Z?S?*/
	$80C4  86 68:       stx $68			/* A(??)X(??)Y(??)MAP[00:[00],01:[01],02:[02],03:[03],mmc:(un)]s(0)Z?S?*/
	$80C6  86 64:       stx $64			/* A(??)X(??)Y(??)MAP[00:[00],01:[01],02:[02],03:[03],mmc:(un)]s(0)Z?S?*/
	$80C8  86 65:       stx $65			/* A(??)X(??)Y(??)MAP[00:[00],01:[01],02:[02],03:[03],mmc:(un)]s(0)Z?S?*/
	$80CA  86 69:       stx $69			/* A(??)X(??)Y(??)MAP[00:[00],01:[01],02:[02],03:[03],mmc:(un)]s(0)Z?S?*/
	$80CC  86 6F:       stx $6F			/* A(??)X(??)Y(??)MAP[00:[00],01:[01],02:[02],03:[03],mmc:(un)]s(0)Z?S?*/
	$80CE  86 70:       stx $70			/* A(??)X(??)Y(??)MAP[00:[00],01:[01],02:[02],03:[03],mmc:(un)]s(0)Z?S?*/
	$80D0  86 82:       stx $82			/* A(??)X(??)Y(??)MAP[00:[00],01:[01],02:[02],03:[03],mmc:(un)]s(0)Z?S?*/
	$80D2  86 22:       stx $22			/* A(??)X(??)Y(??)MAP[00:[00],01:[01],02:[02],03:[03],mmc:(un)]s(0)Z?S?*/
	$80D4  86 35:       stx $35			/* A(??)X(??)Y(??)MAP[00:[00],01:[01],02:[02],03:[03],mmc:(un)]s(0)Z?S?*/
	$80D6  20 8D 90:    jsr _func_108D			/* A(??)X(??)Y(??)MAP[00:(??),01:(??),02:(??),03:(??),mmc:(un)]s(0)Z?S?*/
	$80D9  20 F1 8E:    jsr _func_0EF1			/* A(??)X(??)Y(??)MAP[00:(??),01:(??),02:(??),03:(??),mmc:(un)]s(0)Z?S?*/
	$80DC  A9 6C:       lda #$6C			/* A(6C)<DC>X(??)Y(??)MAP[00:[00],01:[01],02:[02],03:[03],mmc:(un)]s(0)Z0S0*/
	$80DE  85 4D:       sta $4D			/* A(6C)<DC>X(??)Y(??)MAP[00:[00],01:[01],02:[02],03:[03],mmc:(un)]s(0)Z0S0*/
	$80E0  A9 04:       lda #$04			/* A(04)<E0>X(??)Y(??)MAP[00:[00],01:[01],02:[02],03:[03],mmc:(un)]s(0)Z0S0*/
	$80E2  85 4E:       sta $4E			/* A(04)<E0>X(??)Y(??)MAP[00:[00],01:[01],02:[02],03:[03],mmc:(un)]s(0)Z0S0*/
	$80E4  A9 54:       lda #$54			/* A(54)<E4>X(??)Y(??)MAP[00:[00],01:[01],02:[02],03:[03],mmc:(un)]s(0)Z0S0*/
	$80E6  85 10:       sta $10			/* A(54)<E4>X(??)Y(??)MAP[00:[00],01:[01],02:[02],03:[03],mmc:(un)]s(0)Z0S0*/
	$80E8  A9 02:       lda #$02			/* A(02)<E8>X(??)Y(??)MAP[00:[00],01:[01],02:[02],03:[03],mmc:(un)]s(0)Z0S0*/
	$80EA  85 4F:       sta $4F			/* A(02)<E8>X(??)Y(??)MAP[00:[00],01:[01],02:[02],03:[03],mmc:(un)]s(0)Z0S0*/
	$80EC  A9 01:       lda #$01			/* A(01)<EC>X(??)Y(??)MAP[00:[00],01:[01],02:[02],03:[03],mmc:(un)]s(0)Z0S0*/
	$80EE  85 11:       sta $11			/* A(01)<EC>X(??)Y(??)MAP[00:[00],01:[01],02:[02],03:[03],mmc:(un)]s(0)Z0S0*/
	$80F0  20 D7 9D:    jsr _func_1DD7			/* A(??)X(??)Y(??)MAP[00:(??),01:(??),02:(??),03:(??),mmc:(un)]s(0)Z?S?*/
	$80F3  A5 12:       lda $12			/* A(??)X(??)Y(??)MAP[00:[00],01:[01],02:[02],03:[03],mmc:(un)]s(0)Z?S?*/
	$80F5  85 49:       sta $49			/* A(??)X(??)Y(??)MAP[00:[00],01:[01],02:[02],03:[03],mmc:(un)]s(0)Z?S?*/
	$80F7  A5 13:       lda $13			/* A(??)X(??)Y(??)MAP[00:[00],01:[01],02:[02],03:[03],mmc:(un)]s(0)Z?S?*/
	$80F9  85 4A:       sta $4A			/* A(??)X(??)Y(??)MAP[00:[00],01:[01],02:[02],03:[03],mmc:(un)]s(0)Z?S?*/
	$80FB  20 33 96:    jsr _func_1633			/* A(??)X(??)Y(??)MAP[00:(??),01:(??),02:(??),03:(??),mmc:(un)]s(0)Z?S?*/
	$80FE  A9 76:       lda #$76			/* A(76)<FE>X(??)Y(??)MAP[00:[00],01:[01],02:[02],03:[03],mmc:(un)]s(0)Z0S0*/
	$8100  8D 4D 07:    sta $074D			/* A(76)<FE>X(??)Y(??)MAP[00:[00],01:[01],02:[02],03:[03],mmc:(un)]s(0)Z0S0*/
	$8103  20 DD 82:    jsr _func_02DD			/* A(??)X(??)Y(??)MAP[00:(??),01:(??),02:(??),03:(??),mmc:(un)]s(0)Z?S?*/
	$8106  20 D6 85:    jsr _func_05D6			/* A(??)X(??)Y(??)MAP[00:(??),01:(??),02:(??),03:(??),mmc:(un)]s(0)Z?S?*/
	$8109  A9 00:       lda #$00			/* A(00)<109>X(??)Y(??)MAP[00:[00],01:[01],02:[02],03:[03],mmc:(un)]s(0)Z1S0*/
	$810B  85 66:       sta $66			/* A(00)<109>X(??)Y(??)MAP[00:[00],01:[01],02:[02],03:[03],mmc:(un)]s(0)Z1S0*/
	$810D  20 14 8B:    jsr _func_0B14			/* A(??)X(??)Y(??)MAP[00:(??),01:(??),02:(??),03:(??),mmc:(un)]s(0)Z?S?*/
	$8110  A9 0A:       lda #$0A			/* A(0A)<110>X(??)Y(??)MAP[00:[00],01:[01],02:[02],03:[03],mmc:(un)]s(0)Z0S0*/
	$8112  85 F4:       sta $F4			/* A(0A)<110>X(??)Y(??)MAP[00:[00],01:[01],02:[02],03:[03],mmc:(un)]s(0)Z0S0*/
	$8114  20 9A C0:    jsr _func_409A			/* A(??)X(??)Y(??)MAP[00:(??),01:(??),02:(??),03:(??),mmc:(un)]s(0)Z?S?*/
	$8117  20 AD 89:    jsr _func_09AD			/* A(??)X(??)Y(??)MAP[00:(??),01:(??),02:(??),03:(??),mmc:(un)]s(0)Z?S?*/
-	$811A  A5 D3:       lda $D3			/* A(??)X(??)Y(??)MAP[00:[00],01:[01],02:[02],03:[03],mmc:(un)]s(0)Z?S?*/
	$811C  C9 FF:       cmp #$FF			/* A(??)X(??)Y(??)MAP[00:[00],01:[01],02:[02],03:[03],mmc:(un)]s(0)Z?S?*/
	$811E  D0 FA:       bne -		; $811A			/* A(??)X(??)Y(??)MAP[00:[00],01:[01],02:[02],03:[03],mmc:(un)]s(0)Z?S?*/
	$8120  20 B7 89:    jsr _func_09B7			/* A(??)X(??)Y(??)MAP[00:(??),01:(??),02:(??),03:(??),mmc:(un)]s(0)Z?S?*/
	$8123  A2 00:       ldx #$00			/* A(??)X(00)<123>Y(??)MAP[00:[00],01:[01],02:[02],03:[03],mmc:(un)]s(0)Z1S0*/
	$8125  86 5F:       stx $5F			/* A(??)X(00)<123>Y(??)MAP[00:[00],01:[01],02:[02],03:[03],mmc:(un)]s(0)Z1S0*/
	$8127  E8:          inx 			/* A(??)X(??)Y(??)MAP[00:[00],01:[01],02:[02],03:[03],mmc:(un)]s(0)Z?S?*/
	$8128  86 F4:       stx $F4			/* A(??)X(??)Y(??)MAP[00:[00],01:[01],02:[02],03:[03],mmc:(un)]s(0)Z?S?*/
	$812A  20 AD 89:    jsr _func_09AD			/* A(??)X(??)Y(??)MAP[00:(??),01:(??),02:(??),03:(??),mmc:(un)]s(0)Z?S?*/
-	$812D  20 4A 8F:    jsr _func_0F4A			/* A(??)X(??)Y(??)MAP[00:[00],01:[01],02:[02],03:[03],mmc:(un)]s(0)Z?S?*/
	$8130  20 18 A3:    jsr _func_2318			/* A(??)X(??)Y(??)MAP[00:(??),01:(??),02:(??),03:(??),mmc:(un)]s(0)Z?S?*/
	$8133  20 58 C5:    jsr _func_4558			/* A(??)X(??)Y(??)MAP[00:(??),01:(??),02:(??),03:(??),mmc:(un)]s(0)Z?S?*/
	$8136  A5 5F:       lda $5F			/* A(??)X(??)Y(??)MAP[00:[00],01:[01],02:[02],03:[03],mmc:(un)]s(0)Z?S?*/
	$8138  F0 F3:       beq -		; $812D			/* A(??)X(??)Y(??)MAP[00:[00],01:[01],02:[02],03:[03],mmc:(un)]s(0)Z?S?*/
	$813A  20 B7 89:    jsr _func_09B7			/* A(??)X(??)Y(??)MAP[00:(??),01:(??),02:(??),03:(??),mmc:(un)]s(0)Z?S?*/
	$813D  20 E2 8D:    jsr _func_0DE2			/* A(??)X(??)Y(??)MAP[00:(??),01:(??),02:(??),03:(??),mmc:(un)]s(0)Z?S?*/
	$8140  A5 5F:       lda $5F			/* A(??)X(??)Y(??)MAP[00:[00],01:[01],02:[02],03:[03],mmc:(un)]s(0)Z?S?*/
	$8142  29 20:       and #$20			/* A(??)X(??)Y(??)MAP[00:[00],01:[01],02:[02],03:[03],mmc:(un)]s(0)Z?S?*/
	$8144  F0 03:       beq +		; $8149			/* A(??)X(??)Y(??)MAP[00:[00],01:[01],02:[02],03:[03],mmc:(un)]s(0)Z?S?*/
	$8146  4C 33 82:    jmp _loc_0233			/* A(??)X(??)Y(??)MAP[00:[00],01:[01],02:[02],03:[03],mmc:(un)]s(0)Z?S?*/(barrier)

+	$8149  20 79 91:    jsr _func_1179			/* A(??)X(??)Y(??)MAP[00:[00],01:[01],02:[02],03:[03],mmc:(un)]s(0)Z?S?*/
	$814C  90 03:       bcc +		; $8151			/* A(??)X(??)Y(??)MAP[00:[00],01:[01],02:[02],03:[03],mmc:(un)]s(0)Z?S?*/
	$814E  4C 28 82:    jmp ++++		; $8228			/* A(??)X(??)Y(??)MAP[00:[00],01:[01],02:[02],03:[03],mmc:(un)]s(0)Z?S?*/(barrier)

+	$8151  20 AA 82:    jsr _func_02AA			/* A(??)X(??)Y(??)MAP[00:[00],01:[01],02:[02],03:[03],mmc:(un)]s(0)Z?S?*/
	$8154  20 14 8B:    jsr _func_0B14			/* A(??)X(??)Y(??)MAP[00:(??),01:(??),02:(??),03:(??),mmc:(un)]s(0)Z?S?*/
	$8157  4C 5D 81:    jmp +		; $815D			/* A(??)X(??)Y(??)MAP[00:[00],01:[01],02:[02],03:[03],mmc:(un)]s(0)Z?S?*/(barrier)

---	$815A  20 AA 82:    jsr _func_02AA			/* A(??)X(??)Y(??)MAP[00:(??),01:(??),02:(??),03:(??),mmc:(un)]s(0)Z?S?*/
+	$815D  20 F1 8E:    jsr _func_0EF1			/* A(00)<219>X(??)Y(??)MAP[00:[00],01:[01],02:[02],03:[03],mmc:(un)]s(0)Z?S?*/
	$8160  20 20 84:    jsr _func_0420			/* A(??)X(??)Y(??)MAP[00:(??),01:(??),02:(??),03:(??),mmc:(un)]s(0)Z?S?*/
	$8163  A2 FF:       ldx #$FF			/* A(??)X(FF)<163>Y(??)MAP[00:[00],01:[01],02:[02],03:[03],mmc:(un)]s(0)Z0S1*/
	$8165  86 68:       stx $68			/* A(??)X(FF)<163>Y(??)MAP[00:[00],01:[01],02:[02],03:[03],mmc:(un)]s(0)Z0S1*/
	$8167  86 6C:       stx $6C			/* A(??)X(FF)<163>Y(??)MAP[00:[00],01:[01],02:[02],03:[03],mmc:(un)]s(0)Z0S1*/
	$8169  86 21:       stx $21			/* A(??)X(FF)<163>Y(??)MAP[00:[00],01:[01],02:[02],03:[03],mmc:(un)]s(0)Z0S1*/
	$816B  86 79:       stx $79			/* A(??)X(FF)<163>Y(??)MAP[00:[00],01:[01],02:[02],03:[03],mmc:(un)]s(0)Z0S1*/
	$816D  86 F7:       stx $F7			/* A(??)X(FF)<163>Y(??)MAP[00:[00],01:[01],02:[02],03:[03],mmc:(un)]s(0)Z0S1*/
	$816F  8E 98 03:    stx $0398			/* A(??)X(FF)<163>Y(??)MAP[00:[00],01:[01],02:[02],03:[03],mmc:(un)]s(0)Z0S1*/
	$8172  E8:          inx 			/* A(??)X(??)Y(??)MAP[00:[00],01:[01],02:[02],03:[03],mmc:(un)]s(0)Z?S?*/
	$8173  86 69:       stx $69			/* A(??)X(??)Y(??)MAP[00:[00],01:[01],02:[02],03:[03],mmc:(un)]s(0)Z?S?*/
	$8175  86 82:       stx $82			/* A(??)X(??)Y(??)MAP[00:[00],01:[01],02:[02],03:[03],mmc:(un)]s(0)Z?S?*/
	$8177  A5 35:       lda $35			/* A(??)X(??)Y(??)MAP[00:[00],01:[01],02:[02],03:[03],mmc:(un)]s(0)Z?S?*/
	$8179  10 06:       bpl +		; $8181			/* A(??)X(??)Y(??)MAP[00:[00],01:[01],02:[02],03:[03],mmc:(un)]s(0)Z?S?*/
	$817B  20 B8 8B:    jsr _func_0BB8			/* A(??)X(??)Y(??)MAP[00:(??),01:(??),02:(??),03:(??),mmc:(un)]s(0)Z?S?*/
	$817E  20 14 8B:    jsr _func_0B14			/* A(??)X(??)Y(??)MAP[00:(??),01:(??),02:(??),03:(??),mmc:(un)]s(0)Z?S?*/
+	$8181  A9 00:       lda #$00			/* A(??)X(??)Y(??)MAP[00:[00],01:[01],02:[02],03:[03],mmc:(un)]s(0)Z?S?*/
	$8183  85 35:       sta $35			/* A(00)<181>X(??)Y(??)MAP[00:[00],01:[01],02:[02],03:[03],mmc:(un)]s(0)Z1S0*/
	$8185  20 FD 90:    jsr _func_10FD			/* A(??)X(??)Y(??)MAP[00:(??),01:(??),02:(??),03:(??),mmc:(un)]s(0)Z?S?*/
	$8188  A5 5F:       lda $5F			/* A(??)X(??)Y(??)MAP[00:[00],01:[01],02:[02],03:[03],mmc:(un)]s(0)Z?S?*/
	$818A  29 08:       and #$08			/* A(??)X(??)Y(??)MAP[00:[00],01:[01],02:[02],03:[03],mmc:(un)]s(0)Z?S?*/
	$818C  F0 06:       beq +		; $8194			/* A(??)X(??)Y(??)MAP[00:[00],01:[01],02:[02],03:[03],mmc:(un)]s(0)Z?S?*/
	$818E  20 8E 8B:    jsr _func_0B8E			/* A(??)X(??)Y(??)MAP[00:(??),01:(??),02:(??),03:(??),mmc:(un)]s(0)Z?S?*/
	$8191  4C A2 81:    jmp ++		; $81A2			/* A(??)X(??)Y(??)MAP[00:[00],01:[01],02:[02],03:[03],mmc:(un)]s(0)Z?S?*/(barrier)

+	$8194  A5 62:       lda $62			/* A(??)X(??)Y(??)MAP[00:[00],01:[01],02:[02],03:[03],mmc:(un)]s(0)Z?S?*/
	$8196  C9 04:       cmp #$04			/* A(??)X(??)Y(??)MAP[00:[00],01:[01],02:[02],03:[03],mmc:(un)]s(0)Z?S?*/
	$8198  90 0B:       bcc +++		; $81A5			/* A(??)X(??)Y(??)MAP[00:[00],01:[01],02:[02],03:[03],mmc:(un)]s(0)Z?S?*/
	$819A  20 28 8D:    jsr _func_0D28			/* A(??)X(??)Y(??)MAP[00:(??),01:(??),02:(??),03:(??),mmc:(un)]s(0)Z?S?*/
	$819D  90 06:       bcc +++		; $81A5			/* A(??)X(??)Y(??)MAP[00:[00],01:[01],02:[02],03:[03],mmc:(un)]s(0)Z?S?*/
	$819F  20 73 8B:    jsr _func_0B73			/* A(??)X(??)Y(??)MAP[00:(??),01:(??),02:(??),03:(??),mmc:(un)]s(0)Z?S?*/
++	$81A2  20 14 8B:    jsr _func_0B14			/* A(??)X(??)Y(??)MAP[00:[00],01:[01],02:[02],03:[03],mmc:(un)]s(0)Z?S?*/
+++	$81A5  20 5B 8B:    jsr _func_0B5B			/* A(??)X(??)Y(??)MAP[00:[00],01:[01],02:[02],03:[03],mmc:(un)]s(0)Z?S?*/
	$81A8  20 8F 96:    jsr _func_168F			/* A(??)X(??)Y(??)MAP[00:(??),01:(??),02:(??),03:(??),mmc:(un)]s(0)Z?S?*/
	$81AB  20 47 8C:    jsr _func_0C47			/* A(??)X(??)Y(??)MAP[00:(??),01:(??),02:(??),03:(??),mmc:(un)]s(0)Z?S?*/
	$81AE  20 FD 90:    jsr _func_10FD			/* A(??)X(??)Y(??)MAP[00:(??),01:(??),02:(??),03:(??),mmc:(un)]s(0)Z?S?*/
	$81B1  A9 06:       lda #$06			/* A(06)<1B1>X(??)Y(??)MAP[00:[00],01:[01],02:[02],03:[03],mmc:(un)]s(0)Z0S0*/
	$81B3  85 F4:       sta $F4			/* A(06)<1B1>X(??)Y(??)MAP[00:[00],01:[01],02:[02],03:[03],mmc:(un)]s(0)Z0S0*/
	$81B5  A9 00:       lda #$00			/* A(00)<1B5>X(??)Y(??)MAP[00:[00],01:[01],02:[02],03:[03],mmc:(un)]s(0)Z1S0*/
	$81B7  85 5F:       sta $5F			/* A(00)<1B5>X(??)Y(??)MAP[00:[00],01:[01],02:[02],03:[03],mmc:(un)]s(0)Z1S0*/
	$81B9  85 67:       sta $67			/* A(00)<1B5>X(??)Y(??)MAP[00:[00],01:[01],02:[02],03:[03],mmc:(un)]s(0)Z1S0*/
	$81BB  20 AD 89:    jsr _func_09AD			/* A(??)X(??)Y(??)MAP[00:(??),01:(??),02:(??),03:(??),mmc:(un)]s(0)Z?S?*/
-	$81BE  A5 5F:       lda $5F			/* A(??)X(??)Y(??)MAP[00:[00],01:[01],02:[02],03:[03],mmc:(un)]s(0)Z?S?*/
	$81C0  F0 FC:       beq -		; $81BE			/* A(??)X(??)Y(??)MAP[00:[00],01:[01],02:[02],03:[03],mmc:(un)]s(0)Z?S?*/
	$81C2  20 B7 89:    jsr _func_09B7			/* A(??)X(??)Y(??)MAP[00:(??),01:(??),02:(??),03:(??),mmc:(un)]s(0)Z?S?*/
	$81C5  20 99 89:    jsr _func_0999			/* A(??)X(??)Y(??)MAP[00:(??),01:(??),02:(??),03:(??),mmc:(un)]s(0)Z?S?*/
	$81C8  20 38 A0:    jsr _func_2038			/* A(??)X(??)Y(??)MAP[00:(??),01:(??),02:(??),03:(??),mmc:(un)]s(0)Z?S?*/
	$81CB  20 FD 90:    jsr _func_10FD			/* A(??)X(??)Y(??)MAP[00:(??),01:(??),02:(??),03:(??),mmc:(un)]s(0)Z?S?*/
	$81CE  20 AD AF:    jsr _func_2FAD			/* A(??)X(??)Y(??)MAP[00:(??),01:(??),02:(??),03:(??),mmc:(un)]s(0)Z?S?*/
	$81D1  A9 80:       lda #$80			/* A(80)<1D1>X(??)Y(??)MAP[00:[00],01:[01],02:[02],03:[03],mmc:(un)]s(0)Z0S1*/
	$81D3  85 22:       sta $22			/* A(80)<1D1>X(??)Y(??)MAP[00:[00],01:[01],02:[02],03:[03],mmc:(un)]s(0)Z0S1*/
	$81D5  A9 00:       lda #$00			/* A(00)<1D5>X(??)Y(??)MAP[00:[00],01:[01],02:[02],03:[03],mmc:(un)]s(0)Z1S0*/
	$81D7  85 F4:       sta $F4			/* A(00)<1D5>X(??)Y(??)MAP[00:[00],01:[01],02:[02],03:[03],mmc:(un)]s(0)Z1S0*/
	$81D9  85 5F:       sta $5F			/* A(00)<1D5>X(??)Y(??)MAP[00:[00],01:[01],02:[02],03:[03],mmc:(un)]s(0)Z1S0*/
	$81DB  20 3F B0:    jsr _func_303F			/* A(??)X(??)Y(??)MAP[00:(??),01:(??),02:(??),03:(??),mmc:(un)]s(0)Z?S?*/
	$81DE  20 88 C0:    jsr _func_4088			/* A(??)X(??)Y(??)MAP[00:(??),01:(??),02:(??),03:(??),mmc:(un)]s(0)Z?S?*/
	$81E1  20 AD 89:    jsr _func_09AD			/* A(??)X(??)Y(??)MAP[00:(??),01:(??),02:(??),03:(??),mmc:(un)]s(0)Z?S?*/
-	$81E4  20 18 A3:    jsr _func_2318			/* A(??)X(??)Y(??)MAP[00:[00],01:[01],02:[02],03:[03],mmc:(un)]s(0)Z?S?*/
	$81E7  20 58 C5:    jsr _func_4558			/* A(??)X(??)Y(??)MAP[00:(??),01:(??),02:(??),03:(??),mmc:(un)]s(0)Z?S?*/
	$81EA  A5 D3:       lda $D3			/* A(??)X(??)Y(??)MAP[00:[00],01:[01],02:[02],03:[03],mmc:(un)]s(0)Z?S?*/
	$81EC  C9 FF:       cmp #$FF			/* A(??)X(??)Y(??)MAP[00:[00],01:[01],02:[02],03:[03],mmc:(un)]s(0)Z?S?*/
	$81EE  D0 F4:       bne -		; $81E4			/* A(??)X(??)Y(??)MAP[00:[00],01:[01],02:[02],03:[03],mmc:(un)]s(0)Z?S?*/
	$81F0  AD 18 03:    lda $0318			/* A(??)X(??)Y(??)MAP[00:[00],01:[01],02:[02],03:[03],mmc:(un)]s(0)Z?S?*/
	$81F3  29 0F:       and #$0F			/* A(??)X(??)Y(??)MAP[00:[00],01:[01],02:[02],03:[03],mmc:(un)]s(0)Z?S?*/
	$81F5  8D 18 03:    sta $0318			/* A(??)X(??)Y(??)MAP[00:[00],01:[01],02:[02],03:[03],mmc:(un)]s(0)Z?S?*/
	$81F8  A9 FF:       lda #$FF			/* A(FF)<1F8>X(??)Y(??)MAP[00:[00],01:[01],02:[02],03:[03],mmc:(un)]s(0)Z0S1*/
	$81FA  85 22:       sta $22			/* A(FF)<1F8>X(??)Y(??)MAP[00:[00],01:[01],02:[02],03:[03],mmc:(un)]s(0)Z0S1*/
-	$81FC  20 4A 8F:    jsr _func_0F4A			/* A(??)X(??)Y(??)MAP[00:[00],01:[01],02:[02],03:[03],mmc:(un)]s(0)Z?S?*/
	$81FF  20 18 A3:    jsr _func_2318			/* A(??)X(??)Y(??)MAP[00:(??),01:(??),02:(??),03:(??),mmc:(un)]s(0)Z?S?*/
	$8202  20 58 C5:    jsr _func_4558			/* A(??)X(??)Y(??)MAP[00:(??),01:(??),02:(??),03:(??),mmc:(un)]s(0)Z?S?*/
	$8205  A5 5F:       lda $5F			/* A(??)X(??)Y(??)MAP[00:[00],01:[01],02:[02],03:[03],mmc:(un)]s(0)Z?S?*/
	$8207  29 E8:       and #$E8			/* A(??)X(??)Y(??)MAP[00:[00],01:[01],02:[02],03:[03],mmc:(un)]s(0)Z?S?*/
	$8209  F0 F1:       beq -		; $81FC			/* A(??)X(??)Y(??)MAP[00:[00],01:[01],02:[02],03:[03],mmc:(un)]s(0)Z?S?*/
	$820B  20 B7 89:    jsr _func_09B7			/* A(??)X(??)Y(??)MAP[00:(??),01:(??),02:(??),03:(??),mmc:(un)]s(0)Z?S?*/
	$820E  20 E2 8D:    jsr _func_0DE2			/* A(??)X(??)Y(??)MAP[00:(??),01:(??),02:(??),03:(??),mmc:(un)]s(0)Z?S?*/
	$8211  A5 5F:       lda $5F			/* A(??)X(??)Y(??)MAP[00:[00],01:[01],02:[02],03:[03],mmc:(un)]s(0)Z?S?*/
	$8213  29 20:       and #$20			/* A(??)X(??)Y(??)MAP[00:[00],01:[01],02:[02],03:[03],mmc:(un)]s(0)Z?S?*/
	$8215  D0 1C:       bne _loc_0233			/* A(??)X(??)Y(??)MAP[00:[00],01:[01],02:[02],03:[03],mmc:(un)]s(0)Z?S?*/
	$8217  E6 62:       inc $62			/* A(??)X(??)Y(??)MAP[00:[00],01:[01],02:[02],03:[03],mmc:(un)]s(0)Z?S?*/
--	$8219  A9 00:       lda #$00			/* A(??)X(??)Y(??)MAP[00:[00],01:[01],02:[02],03:[03],mmc:(un)]s(0)Z?S?*/
	$821B  85 EF:       sta $EF			/* A(00)<219>X(??)Y(??)MAP[00:[00],01:[01],02:[02],03:[03],mmc:(un)]s(0)Z1S0*/
	$821D  8D 01 20:    sta $2001			/* A(00)<219>X(??)Y(??)MAP[00:[00],01:[01],02:[02],03:[03],mmc:(un)]s(0)Z1S0*/
_loc_0220
	$8220  20 79 91:    jsr _func_1179			/* A(20)<4923>X(??)Y(??)MAP[00:[00],01:[01],02:[02],03:[03],mmc:(un)]s(0)Z0S0*/
	$8223  B0 03:       bcs ++++		; $8228			/* A(00)<219>X(??)Y(??)MAP[00:[00],01:[01],02:[02],03:[03],mmc:(un)]s(0)Z?S?*/
	$8225  4C 5A 81:    jmp ---		; $815A			/* A(00)<219>X(??)Y(??)MAP[00:[00],01:[01],02:[02],03:[03],mmc:(un)]s(0)Z?S?*/(barrier)

++++	$8228  A5 31:       lda $31			/* A(00)<219>X(??)Y(??)MAP[00:[00],01:[01],02:[02],03:[03],mmc:(un)]s(0)Z?S?*/
	$822A  10 01:       bpl +		; $822D			/* A(??)X(??)Y(??)MAP[00:[00],01:[01],02:[02],03:[03],mmc:(un)]s(0)Z?S?*/
	$822C  60:          rts 			/* A(??)X(??)Y(??)MAP[00:[00],01:[01],02:[02],03:[03],mmc:(un)]s(0)Z?S?*/(barrier)

+	$822D  20 99 83:    jsr _func_0399			/* A(??)X(??)Y(??)MAP[00:(??),01:(??),02:(??),03:(??),mmc:(un)]s(0)Z?S?*/
	$8230  4C 3A 80:    jmp _loc_003A			/* A(??)X(??)Y(??)MAP[00:[00],01:[01],02:[02],03:[03],mmc:(un)]s(0)Z?S?*/(barrier)
;------------------------------------------
_loc_0233
	$8233  A9 80:       lda #$80			/* A(??)X(??)Y(??)MAP[00:[00],01:[01],02:[02],03:[03],mmc:(un)]s(0)Z?S?*/
	$8235  85 70:       sta $70			/* A(80)<233>X(??)Y(??)MAP[00:[00],01:[01],02:[02],03:[03],mmc:(un)]s(0)Z0S1*/
	$8237  85 35:       sta $35			/* A(80)<233>X(??)Y(??)MAP[00:[00],01:[01],02:[02],03:[03],mmc:(un)]s(0)Z0S1*/
	$8239  A9 00:       lda #$00			/* A(00)<239>X(??)Y(??)MAP[00:[00],01:[01],02:[02],03:[03],mmc:(un)]s(0)Z1S0*/
	$823B  8D 95 03:    sta $0395			/* A(00)<239>X(??)Y(??)MAP[00:[00],01:[01],02:[02],03:[03],mmc:(un)]s(0)Z1S0*/
	$823E  8D 96 03:    sta $0396			/* A(00)<239>X(??)Y(??)MAP[00:[00],01:[01],02:[02],03:[03],mmc:(un)]s(0)Z1S0*/
	$8241  A9 FF:       lda #$FF			/* A(FF)<241>X(??)Y(??)MAP[00:[00],01:[01],02:[02],03:[03],mmc:(un)]s(0)Z0S1*/
	$8243  85 68:       sta $68			/* A(FF)<241>X(??)Y(??)MAP[00:[00],01:[01],02:[02],03:[03],mmc:(un)]s(0)Z0S1*/
	$8245  20 F1 8E:    jsr _func_0EF1			/* A(??)X(??)Y(??)MAP[00:(??),01:(??),02:(??),03:(??),mmc:(un)]s(0)Z?S?*/
	$8248  20 8F 96:    jsr _func_168F			/* A(??)X(??)Y(??)MAP[00:(??),01:(??),02:(??),03:(??),mmc:(un)]s(0)Z?S?*/
	$824B  A9 F0:       lda #$F0			/* A(F0)<24B>X(??)Y(??)MAP[00:[00],01:[01],02:[02],03:[03],mmc:(un)]s(0)Z0S1*/
	$824D  8D 50 07:    sta $0750			/* A(F0)<24B>X(??)Y(??)MAP[00:[00],01:[01],02:[02],03:[03],mmc:(un)]s(0)Z0S1*/
	$8250  A9 00:       lda #$00			/* A(00)<250>X(??)Y(??)MAP[00:[00],01:[01],02:[02],03:[03],mmc:(un)]s(0)Z1S0*/
	$8252  85 5F:       sta $5F			/* A(00)<250>X(??)Y(??)MAP[00:[00],01:[01],02:[02],03:[03],mmc:(un)]s(0)Z1S0*/
	$8254  85 67:       sta $67			/* A(00)<250>X(??)Y(??)MAP[00:[00],01:[01],02:[02],03:[03],mmc:(un)]s(0)Z1S0*/
	$8256  85 6F:       sta $6F			/* A(00)<250>X(??)Y(??)MAP[00:[00],01:[01],02:[02],03:[03],mmc:(un)]s(0)Z1S0*/
	$8258  85 F4:       sta $F4			/* A(00)<250>X(??)Y(??)MAP[00:[00],01:[01],02:[02],03:[03],mmc:(un)]s(0)Z1S0*/
	$825A  85 82:       sta $82			/* A(00)<250>X(??)Y(??)MAP[00:[00],01:[01],02:[02],03:[03],mmc:(un)]s(0)Z1S0*/
	$825C  20 99 89:    jsr _func_0999			/* A(??)X(??)Y(??)MAP[00:(??),01:(??),02:(??),03:(??),mmc:(un)]s(0)Z?S?*/
	$825F  20 38 A0:    jsr _func_2038			/* A(??)X(??)Y(??)MAP[00:(??),01:(??),02:(??),03:(??),mmc:(un)]s(0)Z?S?*/
	$8262  20 AD AF:    jsr _func_2FAD			/* A(??)X(??)Y(??)MAP[00:(??),01:(??),02:(??),03:(??),mmc:(un)]s(0)Z?S?*/
	$8265  20 FD 90:    jsr _func_10FD			/* A(??)X(??)Y(??)MAP[00:(??),01:(??),02:(??),03:(??),mmc:(un)]s(0)Z?S?*/
	$8268  20 3F B0:    jsr _func_303F			/* A(??)X(??)Y(??)MAP[00:(??),01:(??),02:(??),03:(??),mmc:(un)]s(0)Z?S?*/
	$826B  20 88 C0:    jsr _func_4088			/* A(??)X(??)Y(??)MAP[00:(??),01:(??),02:(??),03:(??),mmc:(un)]s(0)Z?S?*/
	$826E  A9 FF:       lda #$FF			/* A(FF)<26E>X(??)Y(??)MAP[00:[00],01:[01],02:[02],03:[03],mmc:(un)]s(0)Z0S1*/
	$8270  85 22:       sta $22			/* A(FF)<26E>X(??)Y(??)MAP[00:[00],01:[01],02:[02],03:[03],mmc:(un)]s(0)Z0S1*/
	$8272  20 AD 89:    jsr _func_09AD			/* A(??)X(??)Y(??)MAP[00:(??),01:(??),02:(??),03:(??),mmc:(un)]s(0)Z?S?*/
-	$8275  20 18 A3:    jsr _func_2318			/* A(??)X(??)Y(??)MAP[00:[00],01:[01],02:[02],03:[03],mmc:(un)]s(0)Z?S?*/
	$8278  20 58 C5:    jsr _func_4558			/* A(??)X(??)Y(??)MAP[00:(??),01:(??),02:(??),03:(??),mmc:(un)]s(0)Z?S?*/
	$827B  A5 D3:       lda $D3			/* A(??)X(??)Y(??)MAP[00:[00],01:[01],02:[02],03:[03],mmc:(un)]s(0)Z?S?*/
	$827D  C9 FF:       cmp #$FF			/* A(??)X(??)Y(??)MAP[00:[00],01:[01],02:[02],03:[03],mmc:(un)]s(0)Z?S?*/
	$827F  D0 F4:       bne -		; $8275			/* A(??)X(??)Y(??)MAP[00:[00],01:[01],02:[02],03:[03],mmc:(un)]s(0)Z?S?*/
	$8281  AD 18 03:    lda $0318			/* A(??)X(??)Y(??)MAP[00:[00],01:[01],02:[02],03:[03],mmc:(un)]s(0)Z?S?*/
	$8284  29 0F:       and #$0F			/* A(??)X(??)Y(??)MAP[00:[00],01:[01],02:[02],03:[03],mmc:(un)]s(0)Z?S?*/
	$8286  8D 18 03:    sta $0318			/* A(??)X(??)Y(??)MAP[00:[00],01:[01],02:[02],03:[03],mmc:(un)]s(0)Z?S?*/
-	$8289  20 4A 8F:    jsr _func_0F4A			/* A(??)X(??)Y(??)MAP[00:[00],01:[01],02:[02],03:[03],mmc:(un)]s(0)Z?S?*/
	$828C  20 18 A3:    jsr _func_2318			/* A(??)X(??)Y(??)MAP[00:(??),01:(??),02:(??),03:(??),mmc:(un)]s(0)Z?S?*/
	$828F  20 58 C5:    jsr _func_4558			/* A(??)X(??)Y(??)MAP[00:(??),01:(??),02:(??),03:(??),mmc:(un)]s(0)Z?S?*/
	$8292  A5 5F:       lda $5F			/* A(??)X(??)Y(??)MAP[00:[00],01:[01],02:[02],03:[03],mmc:(un)]s(0)Z?S?*/
	$8294  29 E8:       and #$E8			/* A(??)X(??)Y(??)MAP[00:[00],01:[01],02:[02],03:[03],mmc:(un)]s(0)Z?S?*/
	$8296  F0 F1:       beq -		; $8289			/* A(??)X(??)Y(??)MAP[00:[00],01:[01],02:[02],03:[03],mmc:(un)]s(0)Z?S?*/
	$8298  20 B7 89:    jsr _func_09B7			/* A(??)X(??)Y(??)MAP[00:(??),01:(??),02:(??),03:(??),mmc:(un)]s(0)Z?S?*/
	$829B  20 E2 8D:    jsr _func_0DE2			/* A(??)X(??)Y(??)MAP[00:(??),01:(??),02:(??),03:(??),mmc:(un)]s(0)Z?S?*/
	$829E  A5 23:       lda $23			/* A(??)X(??)Y(??)MAP[00:[00],01:[01],02:[02],03:[03],mmc:(un)]s(0)Z?S?*/
	$82A0  05 24:       ora $24			/* A(??)X(??)Y(??)MAP[00:[00],01:[01],02:[02],03:[03],mmc:(un)]s(0)Z?S?*/
	$82A2  D0 03:       bne +		; $82A7 -> $80AC			/* A(??)X(??)Y(??)MAP[00:[00],01:[01],02:[02],03:[03],mmc:(un)]s(0)Z?S?*/
	$82A4  4C 19 82:    jmp --		; $8219			/* A(??)X(??)Y(??)MAP[00:[00],01:[01],02:[02],03:[03],mmc:(un)]s(0)Z?S?*/(barrier)

+	$82A7  4C AC 80:    jmp ----		; $80AC			/* A(??)X(??)Y(??)MAP[00:[00],01:[01],02:[02],03:[03],mmc:(un)]s(0)Z?S?*/(barrier)
;------------------------------------------
_func_02AA
	$82AA  A5 4E:       lda $4E			/* A(??)X(??)Y(??)MAP[00:[00],01:[01],02:[02],03:[03],mmc:(un)]s(0)Z?S?*/
	$82AC  18:          clc 			/* A(??)X(??)Y(??)MAP[00:[00],01:[01],02:[02],03:[03],mmc:(un)]s(0)Z?S?*/
	$82AD  69 18:       adc #$18			/* A(??)X(??)Y(??)MAP[00:[00],01:[01],02:[02],03:[03],mmc:(un)]s(0)Z?S?*/
	$82AF  85 60:       sta $60			/* A(??)X(??)Y(??)MAP[00:[00],01:[01],02:[02],03:[03],mmc:(un)]s(0)Z?S?*/
	$82B1  A5 4F:       lda $4F			/* A(??)X(??)Y(??)MAP[00:[00],01:[01],02:[02],03:[03],mmc:(un)]s(0)Z?S?*/
	$82B3  69 00:       adc #$00			/* A(??)X(??)Y(??)MAP[00:[00],01:[01],02:[02],03:[03],mmc:(un)]s(0)Z?S?*/
	$82B5  85 61:       sta $61			/* A(??)X(??)Y(??)MAP[00:[00],01:[01],02:[02],03:[03],mmc:(un)]s(0)Z?S?*/
	$82B7  60:          rts 			/* A(??)X(??)Y(??)MAP[00:[00],01:[01],02:[02],03:[03],mmc:(un)]s(0)Z?S?*/(barrier)

-	$82B8  A9 79:       lda #<_data_0379			/* A(79)<2B8>X(??)Y(??)MAP[00:[00],01:[01],02:[02],03:[03],mmc:(un)]s(0)Z0S0*/
	$82BA  85 12:       sta $12			/* A(79)<2B8>X(??)Y(??)MAP[00:[00],01:[01],02:[02],03:[03],mmc:(un)]s(0)Z0S0*/
	$82BC  A9 83:       lda #>_data_0379			/* A(83)<2BC>X(??)Y(??)MAP[00:[00],01:[01],02:[02],03:[03],mmc:(un)]s(0)Z0S1*/
	$82BE  85 13:       sta $13			/* A(83)<2BC>X(??)Y(??)MAP[00:[00],01:[01],02:[02],03:[03],mmc:(un)]s(0)Z0S1*/
	$82C0  A5 2C:       lda $2C			/* A(??)X(??)Y(??)MAP[00:[00],01:[01],02:[02],03:[03],mmc:(un)]s(0)Z?S?*/
	$82C2  4A:          lsr a			/* A(??)X(??)Y(??)MAP[00:[00],01:[01],02:[02],03:[03],mmc:(un)]s(0)Z?S?*/
	$82C3  90 0D:       bcc +		; $82D2			/* A(??)X(??)Y(??)MAP[00:[00],01:[01],02:[02],03:[03],mmc:(un)]s(0)Z?S?*/
	$82C5  A5 12:       lda $12			/* A(??)X(??)Y(??)MAP[00:[00],01:[01],02:[02],03:[03],mmc:(un)]s(0)Z?S?*/
	$82C7  18:          clc 			/* A(??)X(??)Y(??)MAP[00:[00],01:[01],02:[02],03:[03],mmc:(un)]s(0)Z?S?*/
	$82C8  69 0B:       adc #$0B			/* A(??)X(??)Y(??)MAP[00:[00],01:[01],02:[02],03:[03],mmc:(un)]s(0)Z?S?*/
	$82CA  85 12:       sta $12			/* A(??)X(??)Y(??)MAP[00:[00],01:[01],02:[02],03:[03],mmc:(un)]s(0)Z?S?*/
	$82CC  A5 13:       lda $13			/* A(??)X(??)Y(??)MAP[00:[00],01:[01],02:[02],03:[03],mmc:(un)]s(0)Z?S?*/
	$82CE  69 00:       adc #$00			/* A(??)X(??)Y(??)MAP[00:[00],01:[01],02:[02],03:[03],mmc:(un)]s(0)Z?S?*/
	$82D0  85 13:       sta $13			/* A(??)X(??)Y(??)MAP[00:[00],01:[01],02:[02],03:[03],mmc:(un)]s(0)Z?S?*/
+	$82D2  A9 48:       lda #$48			/* A(??)X(??)Y(??)MAP[00:[00],01:[01],02:[02],03:[03],mmc:(un)]s(0)Z?S?*/
	$82D4  85 10:       sta $10			/* A(48)<2D2>X(??)Y(??)MAP[00:[00],01:[01],02:[02],03:[03],mmc:(un)]s(0)Z0S0*/
	$82D6  A9 2B:       lda #$2B			/* A(2B)<2D6>X(??)Y(??)MAP[00:[00],01:[01],02:[02],03:[03],mmc:(un)]s(0)Z0S0*/
	$82D8  85 11:       sta $11			/* A(2B)<2D6>X(??)Y(??)MAP[00:[00],01:[01],02:[02],03:[03],mmc:(un)]s(0)Z0S0*/
	$82DA  4C 52 91:    jmp _func_1152			/* A(2B)<2D6>X(??)Y(??)MAP[00:[00],01:[01],02:[02],03:[03],mmc:(un)]s(0)Z0S0*/(barrier)
;------------------------------------------
_func_02DD
	$82DD  A5 33:       lda $33			/* A(2B)<2D6>X(??)Y(??)MAP[00:[00],01:[01],02:[02],03:[03],mmc:(un)]s(0)Z0S0*/
	$82DF  30 D7:       bmi -		; $82B8			/* A(??)X(??)Y(??)MAP[00:[00],01:[01],02:[02],03:[03],mmc:(un)]s(0)Z?S?*/
	$82E1  A5 2D:       lda $2D			/* A(??)X(??)Y(??)MAP[00:[00],01:[01],02:[02],03:[03],mmc:(un)]s(0)Z?S?*/
	$82E3  C9 08:       cmp #$08			/* A(??)X(??)Y(??)MAP[00:[00],01:[01],02:[02],03:[03],mmc:(un)]s(0)Z?S?*/
	$82E5  90 02:       bcc +		; $82E9			/* A(??)X(??)Y(??)MAP[00:[00],01:[01],02:[02],03:[03],mmc:(un)]s(0)Z?S?*/
	$82E7  A9 08:       lda #$08			/* A(08)<2E7>X(??)Y(??)MAP[00:[00],01:[01],02:[02],03:[03],mmc:(un)]s(0)Z0S0*/
+	$82E9  29 FE:       and #$FE			/* A(08)<2E7>X(??)Y(??)MAP[00:[00],01:[01],02:[02],03:[03],mmc:(un)]s(0)Z0S0*/
	$82EB  0A:          asl a			/* A(??)X(??)Y(??)MAP[00:[00],01:[01],02:[02],03:[03],mmc:(un)]s(0)Z?S?*/
	$82EC  0A:          asl a			/* A(??)X(??)Y(??)MAP[00:[00],01:[01],02:[02],03:[03],mmc:(un)]s(0)Z?S?*/
	$82ED  0A:          asl a			/* A(??)X(??)Y(??)MAP[00:[00],01:[01],02:[02],03:[03],mmc:(un)]s(0)Z?S?*/
	$82EE  18:          clc 			/* A(??)X(??)Y(??)MAP[00:[00],01:[01],02:[02],03:[03],mmc:(un)]s(0)Z?S?*/
	$82EF  69 29:       adc #$29			/* A(??)X(??)Y(??)MAP[00:[00],01:[01],02:[02],03:[03],mmc:(un)]s(0)Z?S?*/
	$82F1  85 12:       sta $12			/* A(??)X(??)Y(??)MAP[00:[00],01:[01],02:[02],03:[03],mmc:(un)]s(0)Z?S?*/
	$82F3  A9 00:       lda #$00			/* A(00)<2F3>X(??)Y(??)MAP[00:[00],01:[01],02:[02],03:[03],mmc:(un)]s(0)Z1S0*/
	$82F5  69 83:       adc #$83			/* A(??)X(??)Y(??)MAP[00:[00],01:[01],02:[02],03:[03],mmc:(un)]s(0)Z?S?*/
	$82F7  85 13:       sta $13			/* A(??)X(??)Y(??)MAP[00:[00],01:[01],02:[02],03:[03],mmc:(un)]s(0)Z?S?*/
	$82F9  A9 08:       lda #$08			/* A(08)<2F9>X(??)Y(??)MAP[00:[00],01:[01],02:[02],03:[03],mmc:(un)]s(0)Z0S0*/
	$82FB  85 10:       sta $10			/* A(08)<2F9>X(??)Y(??)MAP[00:[00],01:[01],02:[02],03:[03],mmc:(un)]s(0)Z0S0*/
	$82FD  A9 2B:       lda #$2B			/* A(2B)<2FD>X(??)Y(??)MAP[00:[00],01:[01],02:[02],03:[03],mmc:(un)]s(0)Z0S0*/
	$82FF  85 11:       sta $11			/* A(2B)<2FD>X(??)Y(??)MAP[00:[00],01:[01],02:[02],03:[03],mmc:(un)]s(0)Z0S0*/
	$8301  20 52 91:    jsr _func_1152			/* A(??)X(??)Y(??)MAP[00:(??),01:(??),02:(??),03:(??),mmc:(un)]s(0)Z?S?*/
	$8304  A9 79:       lda #<_data_0379			/* A(79)<304>X(??)Y(??)MAP[00:[00],01:[01],02:[02],03:[03],mmc:(un)]s(0)Z0S0*/
	$8306  85 12:       sta $12			/* A(79)<304>X(??)Y(??)MAP[00:[00],01:[01],02:[02],03:[03],mmc:(un)]s(0)Z0S0*/
	$8308  A9 83:       lda #>_data_0379			/* A(83)<308>X(??)Y(??)MAP[00:[00],01:[01],02:[02],03:[03],mmc:(un)]s(0)Z0S1*/
	$830A  85 13:       sta $13			/* A(83)<308>X(??)Y(??)MAP[00:[00],01:[01],02:[02],03:[03],mmc:(un)]s(0)Z0S1*/
	$830C  A5 2D:       lda $2D			/* A(??)X(??)Y(??)MAP[00:[00],01:[01],02:[02],03:[03],mmc:(un)]s(0)Z?S?*/
	$830E  4A:          lsr a			/* A(??)X(??)Y(??)MAP[00:[00],01:[01],02:[02],03:[03],mmc:(un)]s(0)Z?S?*/
	$830F  90 0D:       bcc +		; $831E			/* A(??)X(??)Y(??)MAP[00:[00],01:[01],02:[02],03:[03],mmc:(un)]s(0)Z?S?*/
	$8311  A5 12:       lda $12			/* A(??)X(??)Y(??)MAP[00:[00],01:[01],02:[02],03:[03],mmc:(un)]s(0)Z?S?*/
	$8313  18:          clc 			/* A(??)X(??)Y(??)MAP[00:[00],01:[01],02:[02],03:[03],mmc:(un)]s(0)Z?S?*/
	$8314  69 0B:       adc #$0B			/* A(??)X(??)Y(??)MAP[00:[00],01:[01],02:[02],03:[03],mmc:(un)]s(0)Z?S?*/
	$8316  85 12:       sta $12			/* A(??)X(??)Y(??)MAP[00:[00],01:[01],02:[02],03:[03],mmc:(un)]s(0)Z?S?*/
	$8318  A5 13:       lda $13			/* A(??)X(??)Y(??)MAP[00:[00],01:[01],02:[02],03:[03],mmc:(un)]s(0)Z?S?*/
	$831A  69 00:       adc #$00			/* A(??)X(??)Y(??)MAP[00:[00],01:[01],02:[02],03:[03],mmc:(un)]s(0)Z?S?*/
	$831C  85 13:       sta $13			/* A(??)X(??)Y(??)MAP[00:[00],01:[01],02:[02],03:[03],mmc:(un)]s(0)Z?S?*/
+	$831E  A9 48:       lda #$48			/* A(??)X(??)Y(??)MAP[00:[00],01:[01],02:[02],03:[03],mmc:(un)]s(0)Z?S?*/
	$8320  85 10:       sta $10			/* A(48)<31E>X(??)Y(??)MAP[00:[00],01:[01],02:[02],03:[03],mmc:(un)]s(0)Z0S0*/
	$8322  A9 2B:       lda #$2B			/* A(2B)<322>X(??)Y(??)MAP[00:[00],01:[01],02:[02],03:[03],mmc:(un)]s(0)Z0S0*/
	$8324  85 11:       sta $11			/* A(2B)<322>X(??)Y(??)MAP[00:[00],01:[01],02:[02],03:[03],mmc:(un)]s(0)Z0S0*/
	$8326  4C 52 91:    jmp _func_1152			/* A(2B)<322>X(??)Y(??)MAP[00:[00],01:[01],02:[02],03:[03],mmc:(un)]s(0)Z0S0*/(barrier)

	$8329               .byte $11,$12,$10,$11,$30,$1C,$0C,$11,$18,$18,$15,$FF,$FF,$FF,$FF,$FF
	$8339               .byte $30,$30,$0C,$18,$15,$15,$0E,$10,$0E,$30,$30,$FF,$FF,$FF,$FF,$FF
	$8349               .byte $19,$1B,$18,$0F,$0E,$1C,$1C,$12,$18,$17,$0A,$15,$FF,$FF,$FF,$FF
	$8359               .byte $30,$30,$19,$15,$0A,$22,$18,$0F,$0F,$30,$30,$FF,$FF,$FF,$FF,$FF
	$8369               .byte $1C,$1E,$19,$0E,$1B,$30,$0B,$18,$20,$15,$30,$FF,$FF,$FF,$FF,$FF
_data_0379
	$8379               .byte $0F,$12,$1B,$1C,$1D,$30,$11,$0A,$15,$0F,$FF,$1C,$0E,$0C,$18,$17
	$8389               .byte $0D,$30,$11,$0A,$15,$0F,$FF
_func_0390
	$8390  A9 00:       lda #$00			/* A(??)X(??)Y(??)MAP[00:[00],01:[01],02:[02],03:[03],mmc:(un)]s(0)Z?S?*/
	$8392  85 EF:       sta $EF			/* A(00)<390>X(??)Y(??)MAP[00:[00],01:[01],02:[02],03:[03],mmc:(un)]s(0)Z1S0*/
	$8394  85 49:       sta $49			/* A(00)<390>X(??)Y(??)MAP[00:[00],01:[01],02:[02],03:[03],mmc:(un)]s(0)Z1S0*/
	$8396  85 4A:       sta $4A			/* A(00)<390>X(??)Y(??)MAP[00:[00],01:[01],02:[02],03:[03],mmc:(un)]s(0)Z1S0*/
	$8398  60:          rts 			/* A(00)<390>X(??)Y(??)MAP[00:[00],01:[01],02:[02],03:[03],mmc:(un)]s(0)Z1S0*/(barrier)
;------------------------------------------
_func_0399
	$8399  20 90 83:    jsr _func_0390			/* A(??)X(??)Y(??)MAP[00:(??),01:(??),02:(??),03:(??),mmc:(un)]s(0)Z?S?*/
	$839C  20 FD 90:    jsr _func_10FD			/* A(??)X(??)Y(??)MAP[00:(??),01:(??),02:(??),03:(??),mmc:(un)]s(0)Z?S?*/
	$839F  20 C4 8E:    jsr _func_0EC4			/* A(??)X(??)Y(??)MAP[00:(??),01:(??),02:(??),03:(??),mmc:(un)]s(0)Z?S?*/
	$83A2  20 F1 8E:    jsr _func_0EF1			/* A(??)X(??)Y(??)MAP[00:(??),01:(??),02:(??),03:(??),mmc:(un)]s(0)Z?S?*/
	$83A5  A9 0F:       lda #$0F			/* A(0F)<3A5>X(??)Y(??)MAP[00:[00],01:[01],02:[02],03:[03],mmc:(un)]s(0)Z0S0*/
	$83A7  20 65 94:    jsr _func_1465			/* A(??)X(??)Y(??)MAP[00:(??),01:(??),02:(??),03:(??),mmc:(un)]s(0)Z?S?*/
	$83AA  4C 72 93:    jmp _loc_1372			/* A(0F)<3A5>X(??)Y(??)MAP[00:[00],01:[01],02:[02],03:[03],mmc:(un)]s(0)Z?S?*/(barrier)
;------------------------------------------
_func_03AD
	$83AD  A5 2D:       lda $2D			/* A(0F)<3A5>X(??)Y(??)MAP[00:[00],01:[01],02:[02],03:[03],mmc:(un)]s(0)Z?S?*/
	$83AF  C9 0A:       cmp #$0A			/* A(??)X(??)Y(??)MAP[00:[00],01:[01],02:[02],03:[03],mmc:(un)]s(0)Z?S?*/
	$83B1  90 02:       bcc +		; $83B5			/* A(??)X(??)Y(??)MAP[00:[00],01:[01],02:[02],03:[03],mmc:(un)]s(0)Z?S?*/
	$83B3  A9 09:       lda #$09			/* A(09)<3B3>X(??)Y(??)MAP[00:[00],01:[01],02:[02],03:[03],mmc:(un)]s(0)Z0S0*/
+	$83B5  48:          pha 			/* A(09)<3B3>X(??)Y(??)MAP[00:[00],01:[01],02:[02],03:[03],mmc:(un)]s(0)Z0S0*/
	$83B6  0A:           asl a			/* A(??)X(??)Y(??)MAP[00:[00],01:[01],02:[02],03:[03],mmc:(un)]s(1)Z?S?*/
	$83B7  A8:           tay 			/* A(??)X(??)Y(??)MAP[00:[00],01:[01],02:[02],03:[03],mmc:(un)]s(1)Z?S?*/
	$83B8  24 31:        bit $31			/* A(??)X(??)Y(??)MAP[00:[00],01:[01],02:[02],03:[03],mmc:(un)]s(1)Z?S?*/
	$83BA  10 04:        bpl +		; $83C0			/* A(??)X(??)Y(??)MAP[00:[00],01:[01],02:[02],03:[03],mmc:(un)]s(1)Z?S?*/
	$83BC  A0 14:        ldy #$14			/* A(??)X(??)Y(14)<3BC>MAP[00:[00],01:[01],02:[02],03:[03],mmc:(un)]s(1)Z0S0*/
	$83BE  D0 06:        bne ++		; $83C6			/* A(??)X(??)Y(14)<3BC>MAP[00:[00],01:[01],02:[02],03:[03],mmc:(un)]s(1)Z0S0*/(barrier)

+	$83C0  24 33:        bit $33			/* A(??)X(??)Y(14)<3BC>MAP[00:[00],01:[01],02:[02],03:[03],mmc:(un)]s(1)Z0S0*/
	$83C2  10 02:        bpl ++		; $83C6			/* A(??)X(??)Y(??)MAP[00:[00],01:[01],02:[02],03:[03],mmc:(un)]s(0)Z?S?*/
	$83C4  A0 0C:        ldy #$0C			/* A(??)X(??)Y(0C)<3C4>MAP[00:[00],01:[01],02:[02],03:[03],mmc:(un)]s(0)Z0S0*/
++	$83C6  B9 F6 83:     lda _DataPointerTable_03F6,y			/* A$03F6,y<3C6>X(??)Y(??)MAP[00:[00],01:[01],02:[02],03:[03],mmc:(un)]s(0)Z0S0*/
	$83C9  85 23:        sta $23			/* A$03F6,y<3C6>X(??)Y(??)MAP[00:[00],01:[01],02:[02],03:[03],mmc:(un)]s(0)Z?S?*/
	$83CB  B9 F7 83:     lda _DataPointerTable_03F6+1,y			/* A$03F7,y<3CB>X(??)Y(??)MAP[00:[00],01:[01],02:[02],03:[03],mmc:(un)]s(0)Z?S?*/
	$83CE  85 24:        sta $24			/* A$03F7,y<3CB>X(??)Y(??)MAP[00:[00],01:[01],02:[02],03:[03],mmc:(un)]s(0)Z?S?*/
	$83D0  68:          pla 			/* A(??)X(??)Y(??)MAP[00:[00],01:[01],02:[02],03:[03],mmc:(un)]s(0)Z?S?*/
	$83D1  48:          pha 			/* A(??)X(??)Y(??)MAP[00:[00],01:[01],02:[02],03:[03],mmc:(un)]s(1)Z?S?*/
	$83D2  29 0E:        and #$0E			/* A(??)X(??)Y(??)MAP[00:[00],01:[01],02:[02],03:[03],mmc:(un)]s(1)Z?S?*/
	$83D4  A8:           tay 			/* A(??)X(??)Y(??)MAP[00:[00],01:[01],02:[02],03:[03],mmc:(un)]s(1)Z?S?*/
	$83D5  B9 EC 83:     lda _DataPointerTable_03EC,y			/* A$03EC,y<3D5>X(??)Y(??)MAP[00:[00],01:[01],02:[02],03:[03],mmc:(un)]s(1)Z?S?*/
	$83D8  85 BD:        sta $BD			/* A$03EC,y<3D5>X(??)Y(??)MAP[00:[00],01:[01],02:[02],03:[03],mmc:(un)]s(1)Z?S?*/
	$83DA  B9 ED 83:     lda _DataPointerTable_03EC+1,y			/* A$03ED,y<3DA>X(??)Y(??)MAP[00:[00],01:[01],02:[02],03:[03],mmc:(un)]s(1)Z?S?*/
	$83DD  85 BE:        sta $BE			/* A$03ED,y<3DA>X(??)Y(??)MAP[00:[00],01:[01],02:[02],03:[03],mmc:(un)]s(1)Z?S?*/
	$83DF  68:          pla 			/* A(??)X(??)Y(??)MAP[00:[00],01:[01],02:[02],03:[03],mmc:(un)]s(0)Z?S?*/
	$83E0  A8:          tay 			/* A(??)X(??)Y(??)MAP[00:[00],01:[01],02:[02],03:[03],mmc:(un)]s(0)Z?S?*/
	$83E1  B9 0C 84:    lda _DataPointerTableLo_040C,y			/* A$040C,y<3E1>X(??)Y(??)MAP[00:[00],01:[01],02:[02],03:[03],mmc:(un)]s(0)Z?S?*/
	$83E4  85 F5:       sta $F5			/* A$040C,y<3E1>X(??)Y(??)MAP[00:[00],01:[01],02:[02],03:[03],mmc:(un)]s(0)Z?S?*/
	$83E6  B9 14 84:    lda _DataPointerTableHi_040C,y			/* A$0414,y<3E6>X(??)Y(??)MAP[00:[00],01:[01],02:[02],03:[03],mmc:(un)]s(0)Z?S?*/
	$83E9  85 F6:       sta $F6			/* A$0414,y<3E6>X(??)Y(??)MAP[00:[00],01:[01],02:[02],03:[03],mmc:(un)]s(0)Z?S?*/
	$83EB  60:          rts 			/* A$0414,y<3E6>X(??)Y(??)MAP[00:[00],01:[01],02:[02],03:[03],mmc:(un)]s(0)Z?S?*/(barrier)
;------------------------------------------
_DataPointerTable_03EC
	$83EC  17 10:       .word ($1017) ;1017 (0) ([8:0][A:1][C:2][E:3])
	$83EE  28 0F:       .word ($0F28) ;F28 (0) ([8:0][A:1][C:2][E:3])
	$83F0  16 0F:       .word ($0F16) ;F16 (0) ([8:0][A:1][C:2][E:3])
	$83F2  0F 12:       .word ($120F) ;120F (0) ([8:0][A:1][C:2][E:3])
	$83F4  25 13:       .word ($1325) ;1325 (0) ([8:0][A:1][C:2][E:3])
_DataPointerTable_03F6
	$83F6  00 1E:       .word ($1E00) ;1E00 (0) ([8:0][A:1][C:2][E:3])
	$83F8  00 1E:       .word ($1E00) ;1E00 (0) ([8:0][A:1][C:2][E:3])
	$83FA  00 1E:       .word ($1E00) ;1E00 (0) ([8:0][A:1][C:2][E:3])
	$83FC  00 1E:       .word ($1E00) ;1E00 (0) ([8:0][A:1][C:2][E:3])
	$83FE  00 1E:       .word ($1E00) ;1E00 (0) ([8:0][A:1][C:2][E:3])
	$8400  00 1E:       .word ($1E00) ;1E00 (0) ([8:0][A:1][C:2][E:3])
	$8402  00 1E:       .word ($1E00) ;1E00 (0) ([8:0][A:1][C:2][E:3])
	$8404  00 1E:       .word ($1E00) ;1E00 (0) ([8:0][A:1][C:2][E:3])
	$8406  00 1E:       .word ($1E00) ;1E00 (0) ([8:0][A:1][C:2][E:3])
	$8408  00 1E:       .word ($1E00) ;1E00 (0) ([8:0][A:1][C:2][E:3])
	$840A  00 01:       .word ($0100) ;100 (0) ([8:0][A:1][C:2][E:3])
_DataPointerTableLo_040C
	$840C  0F:          .byte < ($0D0F)
	$840D  0D:          .byte < ($0B0D)
	$840E  0B:          .byte < ($0A0B)
	$840F  09:          .byte < ($0809)
	$8410               .byte $07,$05,$03,$01
_DataPointerTableHi_040C
	$8414  0D:          .byte > ($0D0F)
	$8415  0B:          .byte > ($0B0D)
	$8416  0A:          .byte > ($0A0B)
	$8417  08:          .byte > ($0809)
	$8418               .byte $07,$06,$06,$04,$04,$02,$02,$01
_func_0420
	$8420  A0 00:       ldy #$00			/* A(??)X(??)Y(00)<420>MAP[00:[00],01:[01],02:[02],03:[03],mmc:(un)]s(0)Z?S?*/
	$8422  A9 00:       lda #$00			/* A(00)<422>X(??)Y(00)<420>MAP[00:[00],01:[01],02:[02],03:[03],mmc:(un)]s(0)Z1S0*/
-	$8424  99 00 06:    sta $0600,y			/* A(00)<422>X(??)Y(00)<420>MAP[00:[00],01:[01],02:[02],03:[03],mmc:(un)]s(0)Z?S?*/
	$8427  C8:          iny 			/* A(??)X(??)Y(??)MAP[00:[00],01:[01],02:[02],03:[03],mmc:(un)]s(0)Z?S?*/
	$8428  D0 FA:       bne -		; $8424			/* A(??)X(??)Y(??)MAP[00:[00],01:[01],02:[02],03:[03],mmc:(un)]s(0)Z?S?*/
	$842A  60:          rts 			/* A(??)X(??)Y(??)MAP[00:[00],01:[01],02:[02],03:[03],mmc:(un)]s(0)Z?S?*/(barrier)
;------------------------------------------
_loc_042B
	$842B  A9 00:       lda #$00			/* A(00)<42B>X(??)Y(??)MAP[00:[00],01:[01],02:[02],03:[03],mmc:(un)]s(0)Z1S0*/
	$842D  85 F3:       sta $F3			/* A(00)<42B>X(??)Y(??)MAP[00:[00],01:[01],02:[02],03:[03],mmc:(un)]s(0)Z1S0*/
	$842F  85 F2:       sta $F2			/* A(00)<42B>X(??)Y(??)MAP[00:[00],01:[01],02:[02],03:[03],mmc:(un)]s(0)Z1S0*/
	$8431  A5 EE:       lda $EE			/* A(??)X(??)Y(??)MAP[00:[00],01:[01],02:[02],03:[03],mmc:(un)]s(0)Z?S?*/
	$8433  29 FD:       and #$FD			/* A(??)X(??)Y(??)MAP[00:[00],01:[01],02:[02],03:[03],mmc:(un)]s(0)Z?S?*/
	$8435  85 EE:       sta $EE			/* A(??)X(??)Y(??)MAP[00:[00],01:[01],02:[02],03:[03],mmc:(un)]s(0)Z?S?*/
	$8437  A5 F4:       lda $F4			/* A(??)X(??)Y(??)MAP[00:[00],01:[01],02:[02],03:[03],mmc:(un)]s(0)Z?S?*/
	$8439  F0 06:       beq +		; $8441			/* A(??)X(??)Y(??)MAP[00:[00],01:[01],02:[02],03:[03],mmc:(un)]s(0)Z?S?*/
	$843B  20 37 CB:    jsr _func_4B37			/* A(??)X(??)Y(??)MAP[00:(??),01:(??),02:(??),03:(??),mmc:(un)]s(0)Z?S?*/
	$843E  4C 44 84:    jmp ++		; $8444			/* A(??)X(??)Y(??)MAP[00:[00],01:[01],02:[02],03:[03],mmc:(un)]s(0)Z?S?*/(barrier)

+	$8441  20 53 89:    jsr _func_0953			/* A(??)X(??)Y(??)MAP[00:[00],01:[01],02:[02],03:[03],mmc:(un)]s(0)Z?S?*/
++	$8444  20 FD 90:    jsr _func_10FD			/* A(??)X(??)Y(??)MAP[00:[00],01:[01],02:[02],03:[03],mmc:(un)]s(0)Z?S?*/
	$8447  4C F6 84:    jmp JumpTableEntry_04F6			/* A(??)X(??)Y(??)MAP[00:[00],01:[01],02:[02],03:[03],mmc:(un)]s(0)Z?S?*/(barrier)
;------------------------------------------
JumpTableEntry_044A
	$844A  20 CE AE:    jsr _func_2ECE			/* A(??)X(??)Y(??)MAP[00:(??),01:(??),02:(??),03:(??),mmc:(un)]s(0)Z?S?*/
	$844D  4C 53 84:    jmp JumpTableEntry_0453			/* A(??)X(??)Y(??)MAP[00:[00],01:[01],02:[02],03:[03],mmc:(un)]s(0)Z?S?*/(barrier)
;------------------------------------------
JumpTableEntry_0450
	$8450  20 7B 94:    jsr _func_147B			/* A(??)X(??)Y(??)MAP[00:(??),01:(??),02:(??),03:(??),mmc:(un)]s(0)Z?S?*/
JumpTableEntry_0453
	$8453  20 86 95:    jsr _func_1586			/* A(??)X(??)Y(??)MAP[00:[00],01:[01],02:[02],03:[03],mmc:(un)]s(0)Z?S?*/
---	$8456  A5 F4:       lda $F4			/* A(??)X(??)Y(??)MAP[00:[00],01:[01],02:[02],03:[03],mmc:(un)]s(0)Z?S?*/
	$8458  C9 05:       cmp #$05			/* A(??)X(??)Y(??)MAP[00:[00],01:[01],02:[02],03:[03],mmc:(un)]s(0)Z?S?*/
	$845A  F0 12:       beq +		; $846E -> _loc_04F3			/* A(??)X(??)Y(??)MAP[00:[00],01:[01],02:[02],03:[03],mmc:(un)]s(0)Z?S?*/
	$845C  C9 06:       cmp #$06			/* A(??)X(??)Y(??)MAP[00:[00],01:[01],02:[02],03:[03],mmc:(un)]s(0)Z?S?*/
	$845E  F0 0E:       beq +		; $846E -> _loc_04F3			/* A(??)X(??)Y(??)MAP[00:[00],01:[01],02:[02],03:[03],mmc:(un)]s(0)Z?S?*/
	$8460  A2 F8:       ldx #$F8			/* A(??)X(F8)<460>Y(??)MAP[00:[00],01:[01],02:[02],03:[03],mmc:(un)]s(0)Z0S1*/
	$8462  A9 11:       lda #$11			/* A(11)<462>X(F8)<460>Y(??)MAP[00:[00],01:[01],02:[02],03:[03],mmc:(un)]s(0)Z0S0*/
-	$8464  48:          pha 			/* A(11)<462>X(F8)<460>Y(??)MAP[00:[00],01:[01],02:[02],03:[03],mmc:(un)]s(0)Z?S?*/
	$8465  20 B0 85:     jsr _func_05B0			/* A(??)X(??)Y(??)MAP[00:(??),01:(??),02:(??),03:(??),mmc:(un)]s(1)Z?S?*/
	$8468  68:          pla 			/* A(??)X(F8)<460>Y(??)MAP[00:[00],01:[01],02:[02],03:[03],mmc:(un)]s(0)Z?S?*/
	$8469  38:          sec 			/* A(??)X(F8)<460>Y(??)MAP[00:[00],01:[01],02:[02],03:[03],mmc:(un)]s(0)Z?S?*/
	$846A  E9 01:       sbc #$01			/* A(??)X(F8)<460>Y(??)MAP[00:[00],01:[01],02:[02],03:[03],mmc:(un)]s(0)Z?S?*/
	$846C  10 F6:       bpl -		; $8464			/* A(??)X(F8)<460>Y(??)MAP[00:[00],01:[01],02:[02],03:[03],mmc:(un)]s(0)Z?S?*/
+	$846E  4C F3 84:    jmp _loc_04F3			/* A(??)X(F8)<460>Y(??)MAP[00:[00],01:[01],02:[02],03:[03],mmc:(un)]s(0)Z?S?*/(barrier)
;------------------------------------------
_NMI	$8471  48:          pha 			/* A(??)X(??)Y(??)MAP[00:[00],01:[01],02:[02],03:[03],mmc:(un)]s(0)Z?S?*/
	$8472  8A:           txa 			/* A(un)X(un)Y(un)MAP[00:[00],01:[01],02:[02],03:[03],mmc:(un)]s(1)Z*S**/
	$8473  48:           pha 			/* A(un)X(un)Y(un)MAP[00:[00],01:[01],02:[02],03:[03],mmc:(un)]s(2)Z*S**/
	$8474  98:            tya 			/* A(un)X(un)Y(un)MAP[00:[00],01:[01],02:[02],03:[03],mmc:(un)]s(2)Z*S**/
	$8475  48:            pha 			/* A(un)X(un)Y(un)MAP[00:[00],01:[01],02:[02],03:[03],mmc:(un)]s(3)Z*S**/
	$8476  A9 00:          lda #$00			/* A(00)<476>X(un)Y(un)MAP[00:[00],01:[01],02:[02],03:[03],mmc:(un)]s(3)Z1S0*/
	$8478  8D 03 20:       sta $2003			/* A(00)<476>X(un)Y(un)MAP[00:[00],01:[01],02:[02],03:[03],mmc:(un)]s(3)Z1S0*/
	$847B  A9 07:          lda #$07			/* A(07)<47B>X(un)Y(un)MAP[00:[00],01:[01],02:[02],03:[03],mmc:(un)]s(3)Z0S0*/
	$847D  8D 14 40:       sta $4014			/* A(07)<47B>X(un)Y(un)MAP[00:[00],01:[01],02:[02],03:[03],mmc:(un)]s(3)Z0S0*/
                               ; Delay loop begin: 6 cycles (2.0 cycles per byte); ends at $483
	$8480  EA:             nop 			/* A(07)<47B>X(un)Y(un)MAP[00:[00],01:[01],02:[02],03:[03],mmc:(un)]s(3)Z0S0*/
	$8481  EA:             nop 			/* A(07)<47B>X(un)Y(un)MAP[00:[00],01:[01],02:[02],03:[03],mmc:(un)]s(3)Z0S0*/
	$8482  EA:             nop 			/* A(07)<47B>X(un)Y(un)MAP[00:[00],01:[01],02:[02],03:[03],mmc:(un)]s(3)Z0S0*/
                               ; End of delay loop (3 bytes)
	$8483  A5 37:          lda $37			/* A(??)X(un)Y(un)MAP[00:[00],01:[01],02:[02],03:[03],mmc:(un)]s(3)Z?S?*/
	$8485  10 03:          bpl +		; $848A			/* A(??)X(un)Y(un)MAP[00:[00],01:[01],02:[02],03:[03],mmc:(un)]s(3)Z?S?*/
	$8487  4C FA 84:       jmp ++		; $84FA			/* A(??)X(un)Y(un)MAP[00:[00],01:[01],02:[02],03:[03],mmc:(un)]s(3)Z?S?*/(barrier)

+	$848A  20 DF 94:       jsr _func_14DF			/* A(??)X(un)Y(un)MAP[00:[00],01:[01],02:[02],03:[03],mmc:(un)]s(3)Z?S?*/
	$848D  E6 1F:          inc $1F			/* A(??)X(??)Y(??)MAP[00:[00],01:[01],02:[02],03:[03],mmc:(un)]s(0)Z?S?*/
	$848F  D0 02:          bne +		; $8493			/* A(??)X(??)Y(??)MAP[00:[00],01:[01],02:[02],03:[03],mmc:(un)]s(0)Z?S?*/
	$8491  E6 20:          inc $20			/* A(??)X(??)Y(??)MAP[00:[00],01:[01],02:[02],03:[03],mmc:(un)]s(0)Z?S?*/
+	$8493  20 36 8E:       jsr _func_0E36			/* A(??)X(??)Y(??)MAP[00:[00],01:[01],02:[02],03:[03],mmc:(un)]s(0)Z?S?*/
	$8496  20 F3 C5:       jsr _func_45F3			/* A(??)X(??)Y(??)MAP[00:(??),01:(??),02:(??),03:(??),mmc:(un)]s(0)Z?S?*/
	$8499  20 A3 BE:       jsr _func_3EA3			/* A(??)X(??)Y(??)MAP[00:(??),01:(??),02:(??),03:(??),mmc:(un)]s(0)Z?S?*/
	$849C  C6 37:          dec $37			/* A(??)X(??)Y(??)MAP[00:[00],01:[01],02:[02],03:[03],mmc:(un)]s(0)Z?S?*/
	$849E  24 34:          bit $34			/* A(??)X(??)Y(??)MAP[00:[00],01:[01],02:[02],03:[03],mmc:(un)]s(0)Z?S?*/
	$84A0  10 03:          bpl +		; $84A5			/* A(??)X(??)Y(??)MAP[00:[00],01:[01],02:[02],03:[03],mmc:(un)]s(0)Z?S?*/
	$84A2  4C 2B 84:       jmp _loc_042B			/* A(??)X(??)Y(??)MAP[00:[00],01:[01],02:[02],03:[03],mmc:(un)]s(0)Z?S?*/(barrier)

+	$84A5  50 03:          bvc +		; $84AA			/* A(??)X(??)Y(??)MAP[00:[00],01:[01],02:[02],03:[03],mmc:(un)]s(0)Z?S?*/
	$84A7  4C 56 84:       jmp ---		; $8456			/* A(??)X(??)Y(??)MAP[00:[00],01:[01],02:[02],03:[03],mmc:(un)]s(0)Z?S?*/(barrier)

+	$84AA  E6 21:          inc $21			/* A(??)X(??)Y(??)MAP[00:[00],01:[01],02:[02],03:[03],mmc:(un)]s(0)Z?S?*/
	$84AC  E6 1D:          inc $1D			/* A(??)X(??)Y(??)MAP[00:[00],01:[01],02:[02],03:[03],mmc:(un)]s(0)Z?S?*/
	$84AE  D0 02:          bne +		; $84B2			/* A(??)X(??)Y(??)MAP[00:[00],01:[01],02:[02],03:[03],mmc:(un)]s(0)Z?S?*/
	$84B0  E6 1E:          inc $1E			/* A(??)X(??)Y(??)MAP[00:[00],01:[01],02:[02],03:[03],mmc:(un)]s(0)Z?S?*/
+	$84B2  A9 00:          lda #$00			/* A(??)X(??)Y(??)MAP[00:[00],01:[01],02:[02],03:[03],mmc:(un)]s(0)Z?S?*/
	$84B4  8D 9A 03:       sta $039A			/* A(00)<4B2>X(??)Y(??)MAP[00:[00],01:[01],02:[02],03:[03],mmc:(un)]s(0)Z1S0*/
	$84B7  8D 9B 03:       sta $039B			/* A(00)<4B2>X(??)Y(??)MAP[00:[00],01:[01],02:[02],03:[03],mmc:(un)]s(0)Z1S0*/
	$84BA  20 FD 90:       jsr _func_10FD			/* A(??)X(??)Y(??)MAP[00:(??),01:(??),02:(??),03:(??),mmc:(un)]s(0)Z?S?*/
	$84BD  20 8D 88:       jsr _func_088D			/* A(??)X(??)Y(??)MAP[00:(??),01:(??),02:(??),03:(??),mmc:(un)]s(0)Z?S?*/
	$84C0  A5 F4:          lda $F4			/* A(??)X(??)Y(??)MAP[00:[00],01:[01],02:[02],03:[03],mmc:(un)]s(0)Z?S?*/
	$84C2  29 1F:          and #$1F			/* A(??)X(??)Y(??)MAP[00:[00],01:[01],02:[02],03:[03],mmc:(un)]s(0)Z?S?*/
	$84C4  0A:             asl a			/* A(??)X(??)Y(??)MAP[00:[00],01:[01],02:[02],03:[03],mmc:(un)]s(0)Z?S?*/
	$84C5  AA:             tax 			/* A(??)X(??)Y(??)MAP[00:[00],01:[01],02:[02],03:[03],mmc:(un)]s(0)Z?S?*/
	$84C6  BD 69 85:       lda _JumpPointerTable_0569,x			/* A$0569,x<4C6>X(??)Y(??)MAP[00:[00],01:[01],02:[02],03:[03],mmc:(un)]s(0)Z?S?*/
	$84C9  85 10:          sta $10			/* A$0569,x<4C6>X(??)Y(??)MAP[00:[00],01:[01],02:[02],03:[03],mmc:(un)]s(0)Z?S?*/
	$84CB  BD 6A 85:       lda _JumpPointerTable_0569+1,x			/* A$056A,x<4CB>X(??)Y(??)MAP[00:[00],01:[01],02:[02],03:[03],mmc:(un)]s(0)Z?S?*/
	$84CE  85 11:          sta $11			/* A$056A,x<4CB>X(??)Y(??)MAP[00:[00],01:[01],02:[02],03:[03],mmc:(un)]s(0)Z?S?*/
	$84D0  6C 10 00:       jmp ($0010)			/* A$056A,x<4CB>X(??)Y(??)MAP[00:[00],01:[01],02:[02],03:[03],mmc:(un)]s(0)Z?S?*/
JumpTableEntry_04D3
	$84D3  20 2C B6:    jsr _func_362C			/* A(??)X(??)Y(??)MAP[00:(??),01:(??),02:(??),03:(??),mmc:(un)]s(0)Z?S?*/
--	$84D6  A2 F8:       ldx #$F8			/* A(??)X(??)Y(??)MAP[00:[00],01:[01],02:[02],03:[03],mmc:(un)]s(0)Z?S?*/
-	$84D8  20 77 9E:    jsr _func_1E77			/* A(??)X(F8)<4D6>Y(??)MAP[00:[00],01:[01],02:[02],03:[03],mmc:(un)]s(0)Z?S?*/
	$84DB  E0 88:       cpx #$88			/* A(??)X(F8)<4D6>Y(??)MAP[00:[00],01:[01],02:[02],03:[03],mmc:(un)]s(0)Z?S?*/
	$84DD  90 F9:       bcc -		; $84D8			/* A(??)X(F8)<4D6>Y(??)MAP[00:[00],01:[01],02:[02],03:[03],mmc:(un)]s(0)Z?S?*/
_loc_04DF
	$84DF  20 7B 94:    jsr _func_147B			/* A(??)X(??)Y(??)MAP[00:[00],01:[01],02:[02],03:[03],mmc:(un)]s(0)Z?S?*/
	$84E2  20 86 95:    jsr _func_1586			/* A(??)X(??)Y(??)MAP[00:(??),01:(??),02:(??),03:(??),mmc:(un)]s(0)Z?S?*/
	$84E5  20 A3 B8:    jsr _func_38A3			/* A(??)X(??)Y(??)MAP[00:(??),01:(??),02:(??),03:(??),mmc:(un)]s(0)Z?S?*/
	$84E8  20 7F 85:    jsr _func_057F			/* A(??)X(??)Y(??)MAP[00:(??),01:(??),02:(??),03:(??),mmc:(un)]s(0)Z?S?*/
	$84EB  AD 98 03:    lda $0398			/* A(??)X(F8)<4D6>Y(??)MAP[00:[00],01:[01],02:[02],03:[03],mmc:(un)]s(0)Z?S?*/
	$84EE  30 03:       bmi _loc_04F3			/* A(??)X(F8)<4D6>Y(??)MAP[00:[00],01:[01],02:[02],03:[03],mmc:(un)]s(0)Z?S?*/
	$84F0  CE 98 03:    dec $0398			/* A(??)X(F8)<4D6>Y(??)MAP[00:[00],01:[01],02:[02],03:[03],mmc:(un)]s(0)Z?S?*/
_loc_04F3
	$84F3  20 00 85:    jsr _func_0500			/* A(??)X(F8)<4D6>Y(??)MAP[00:[00],01:[01],02:[02],03:[03],mmc:(un)]s(0)Z?S?*/
JumpTableEntry_04F6
	$84F6  A9 00:       lda #$00			/* A(FF)<7E0>X(??)Y(??)MAP[00:[00],01:[01],02:[02],03:[03],mmc:(un)]s(0)Z0S1*/
	$84F8  85 37:       sta $37			/* A(00)<4F6>X(??)Y(??)MAP[00:[00],01:[01],02:[02],03:[03],mmc:(un)]s(0)Z1S0*/
++	$84FA  68:          pla 			/* A(00)<4F6>X(??)Y(??)MAP[00:[00],01:[01],02:[02],03:[03],mmc:(un)]s(0)Z1S0*/
	$84FB  A8:          tay 			/* A(??)X(un)Y(??)MAP[00:[00],01:[01],02:[02],03:[03],mmc:(un)]s(0)Z?S?*/
	$84FC  68:          pla 			/* A(??)X(un)Y(??)MAP[00:[00],01:[01],02:[02],03:[03],mmc:(un)]s(0)Z?S?*/
	$84FD  AA:          tax 			/* A(??)X(??)Y(??)MAP[00:[00],01:[01],02:[02],03:[03],mmc:(un)]s(0)Z?S?*/
	$84FE  68:          pla 			/* A(??)X(??)Y(??)MAP[00:[00],01:[01],02:[02],03:[03],mmc:(un)]s(0)Z?S?*/
_IRQ	$84FF  40:          rti 			/* A(??)X(??)Y(??)MAP[00:[00],01:[01],02:[02],03:[03],mmc:(un)]s(0)Z?S?*/(barrier)
;------------------------------------------
_func_0500
	$8500  A5 EB:       lda $EB			/* A(??)X(??)Y(??)MAP[00:[00],01:[01],02:[02],03:[03],mmc:(un)]s(0)Z?S?*/
	$8502  29 08:       and #$08			/* A(??)X(??)Y(??)MAP[00:[00],01:[01],02:[02],03:[03],mmc:(un)]s(0)Z?S?*/
	$8504  F0 34:       beq ++		; $853A -> rts			/* A(??)X(??)Y(??)MAP[00:[00],01:[01],02:[02],03:[03],mmc:(un)]s(0)Z?S?*/
	$8506  45 ED:       eor $ED			/* A(??)X(??)Y(??)MAP[00:[00],01:[01],02:[02],03:[03],mmc:(un)]s(0)Z?S?*/
	$8508  29 08:       and #$08			/* A(??)X(??)Y(??)MAP[00:[00],01:[01],02:[02],03:[03],mmc:(un)]s(0)Z?S?*/
	$850A  F0 2E:       beq ++		; $853A -> rts			/* A(??)X(??)Y(??)MAP[00:[00],01:[01],02:[02],03:[03],mmc:(un)]s(0)Z?S?*/
	$850C  A5 31:       lda $31			/* A(??)X(??)Y(??)MAP[00:[00],01:[01],02:[02],03:[03],mmc:(un)]s(0)Z?S?*/
	$850E  10 0E:       bpl +		; $851E			/* A(??)X(??)Y(??)MAP[00:[00],01:[01],02:[02],03:[03],mmc:(un)]s(0)Z?S?*/
	$8510  A9 00:       lda #$00			/* A(00)<510>X(??)Y(??)MAP[00:[00],01:[01],02:[02],03:[03],mmc:(un)]s(0)Z1S0*/
	$8512  85 EF:       sta $EF			/* A(00)<510>X(??)Y(??)MAP[00:[00],01:[01],02:[02],03:[03],mmc:(un)]s(0)Z1S0*/
	$8514  A2 FF:       ldx #$FF			/* A(00)<510>X(FF)<514>Y(??)MAP[00:[00],01:[01],02:[02],03:[03],mmc:(un)]s(0)Z0S1*/
	$8516  9A:          txs 			/* A(00)<510>X(FF)<514>Y(??)MAP[00:[00],01:[01],02:[02],03:[03],mmc:(un)]s(0)Z?S?*/
	$8517  A5 2E:       lda $2E			/* A(??)X(FF)<514>Y(??)MAP[00:[00],01:[01],02:[02],03:[03],mmc:(un)]s(0)Z?S?*/
	$8519  85 33:       sta $33			/* A(??)X(FF)<514>Y(??)MAP[00:[00],01:[01],02:[02],03:[03],mmc:(un)]s(0)Z?S?*/
	$851B  4C 3A 80:    jmp _loc_003A			/* A(??)X(FF)<514>Y(??)MAP[00:[00],01:[01],02:[02],03:[03],mmc:(un)]s(0)Z?S?*/(barrier)

+	$851E  24 36:       bit $36			/* A(??)X(FF)<514>Y(??)MAP[00:[00],01:[01],02:[02],03:[03],mmc:(un)]s(0)Z?S?*/
	$8520  70 0F:       bvs +		; $8531			/* A(??)X(??)Y(??)MAP[00:[00],01:[01],02:[02],03:[03],mmc:(un)]s(0)Z?S?*/
	$8522  A9 40:       lda #$40			/* A(40)<522>X(??)Y(??)MAP[00:[00],01:[01],02:[02],03:[03],mmc:(un)]s(0)Z0S0*/
	$8524  85 36:       sta $36			/* A(40)<522>X(??)Y(??)MAP[00:[00],01:[01],02:[02],03:[03],mmc:(un)]s(0)Z0S0*/
	$8526  85 34:       sta $34			/* A(40)<522>X(??)Y(??)MAP[00:[00],01:[01],02:[02],03:[03],mmc:(un)]s(0)Z0S0*/
	$8528  20 49 85:    jsr _func_0549			/* A(??)X(??)Y(??)MAP[00:(??),01:(??),02:(??),03:(??),mmc:(un)]s(0)Z?S?*/
	$852B  20 8D BE:    jsr _func_3E8D			/* A(??)X(??)Y(??)MAP[00:(??),01:(??),02:(??),03:(??),mmc:(un)]s(0)Z?S?*/
	$852E  4C 33 C1:    jmp _loc_4133			/* A(40)<522>X(??)Y(??)MAP[00:[00],01:[01],02:[02],03:[03],mmc:(un)]s(0)Z?S?*/(barrier)

+	$8531  A9 00:       lda #$00			/* A(??)X(??)Y(??)MAP[00:[00],01:[01],02:[02],03:[03],mmc:(un)]s(0)Z?S?*/
	$8533  85 36:       sta $36			/* A(00)<531>X(??)Y(??)MAP[00:[00],01:[01],02:[02],03:[03],mmc:(un)]s(0)Z1S0*/
	$8535  85 34:       sta $34			/* A(00)<531>X(??)Y(??)MAP[00:[00],01:[01],02:[02],03:[03],mmc:(un)]s(0)Z1S0*/
	$8537  20 3B 85:    jsr _func_053B			/* A(??)X(??)Y(??)MAP[00:(??),01:(??),02:(??),03:(??),mmc:(un)]s(0)Z?S?*/
++	$853A  60:          rts 			/* A(00)<531>X(??)Y(??)MAP[00:[00],01:[01],02:[02],03:[03],mmc:(un)]s(0)Z?S?*/(barrier)
;------------------------------------------
_func_053B
	$853B  A2 10:       ldx #$10			/* A(00)<531>X(10)<53B>Y(??)MAP[00:[00],01:[01],02:[02],03:[03],mmc:(un)]s(0)Z0S0*/
-	$853D  A9 F0:       lda #$F0			/* A(F0)<53D>X(10)<53B>Y(??)MAP[00:[00],01:[01],02:[02],03:[03],mmc:(un)]s(0)Z?S?*/
	$853F  9D 60 07:    sta $0760,x			/* A(F0)<53D>X(10)<53B>Y(??)MAP[00:[00],01:[01],02:[02],03:[03],mmc:(un)]s(0)Z0S1*/
	$8542  CA:          dex 			/* A(F0)<53D>X(??)Y(??)MAP[00:[00],01:[01],02:[02],03:[03],mmc:(un)]s(0)Z?S?*/
	$8543  CA:          dex 			/* A(F0)<53D>X(??)Y(??)MAP[00:[00],01:[01],02:[02],03:[03],mmc:(un)]s(0)Z?S?*/
	$8544  CA:          dex 			/* A(F0)<53D>X(??)Y(??)MAP[00:[00],01:[01],02:[02],03:[03],mmc:(un)]s(0)Z?S?*/
	$8545  CA:          dex 			/* A(F0)<53D>X(??)Y(??)MAP[00:[00],01:[01],02:[02],03:[03],mmc:(un)]s(0)Z?S?*/
	$8546  10 F5:       bpl -		; $853D			/* A(F0)<53D>X(??)Y(??)MAP[00:[00],01:[01],02:[02],03:[03],mmc:(un)]s(0)Z?S?*/
	$8548  60:          rts 			/* A(F0)<53D>X(??)Y(??)MAP[00:[00],01:[01],02:[02],03:[03],mmc:(un)]s(0)Z?S?*/(barrier)
;------------------------------------------
_func_0549
	$8549  A2 13:       ldx #$13			/* A(40)<522>X(13)<549>Y(??)MAP[00:[00],01:[01],02:[02],03:[03],mmc:(un)]s(0)Z0S0*/
-	$854B  BD 55 85:    lda _data_0555_indexed,x			/* A$0555,x<54B>X(13)<549>Y(??)MAP[00:[00],01:[01],02:[02],03:[03],mmc:(un)]s(0)Z?S?*/
	$854E  9D 60 07:    sta $0760,x			/* A$0555,x<54B>X(13)<549>Y(??)MAP[00:[00],01:[01],02:[02],03:[03],mmc:(un)]s(0)Z?S?*/
	$8551  CA:          dex 			/* A$0555,x<54B>X(??)Y(??)MAP[00:[00],01:[01],02:[02],03:[03],mmc:(un)]s(0)Z?S?*/
	$8552  10 F7:       bpl -		; $854B			/* A$0555,x<54B>X(??)Y(??)MAP[00:[00],01:[01],02:[02],03:[03],mmc:(un)]s(0)Z?S?*/
	$8554  60:          rts 			/* A$0555,x<54B>X(??)Y(??)MAP[00:[00],01:[01],02:[02],03:[03],mmc:(un)]s(0)Z?S?*/(barrier)
;------------------------------------------
_data_0555_indexed
	$8555               .byte $28,$19,$01,$58,$28,$0A,$01,$60,$28,$1E,$01,$68,$28,$1C,$01,$70
	$8565               .byte $28,$0E,$01,$78
_JumpPointerTable_0569
	$8569  D3 84:       .word (JumpTableEntry_04D3) ;84D3 (4D3) ()
	$856B  E5 86:       .word (JumpTableEntry_06E5) ;86E5 (6E5) ()
	$856D  3D 87:       .word (JumpTableEntry_073D) ;873D (73D) ()
	$856F  9E 87:       .word (JumpTableEntry_079E) ;879E (79E) ()
	$8571  D3 84:       .word (JumpTableEntry_04D3) ;84D3 (4D3) ()
	$8573  F6 84:       .word (JumpTableEntry_04F6) ;84F6 (4F6) ()
	$8575  CF 87:       .word (JumpTableEntry_07CF) ;87CF (7CF) ()
	$8577  E7 87:       .word (JumpTableEntry_07E7) ;87E7 (7E7) ()
	$8579  53 84:       .word (JumpTableEntry_0453) ;8453 (453) ()
	$857B  4A 84:       .word (JumpTableEntry_044A) ;844A (44A) ()
	$857D  50 84:       .word (JumpTableEntry_0450) ;8450 (450) ()
_func_057F
	$857F  A5 82:       lda $82			/* A(83)<829>X(??)Y(??)MAP[00:[00],01:[01],02:[02],03:[03],mmc:(un)]s(0)Z?S?*/
	$8581  F0 07:       beq +		; $858A			/* A(??)X(F8)<4D6>Y(??)MAP[00:[00],01:[01],02:[02],03:[03],mmc:(un)]s(0)Z?S?*/
	$8583  C6 82:       dec $82			/* A(??)X(F8)<4D6>Y(??)MAP[00:[00],01:[01],02:[02],03:[03],mmc:(un)]s(0)Z?S?*/
	$8585  D0 03:       bne +		; $858A			/* A(??)X(F8)<4D6>Y(??)MAP[00:[00],01:[01],02:[02],03:[03],mmc:(un)]s(0)Z?S?*/
	$8587  20 C8 A9:    jsr _func_29C8			/* A(??)X(??)Y(??)MAP[00:(??),01:(??),02:(??),03:(??),mmc:(un)]s(0)Z?S?*/
+	$858A  A5 24:       lda $24			/* A(??)X(F8)<4D6>Y(??)MAP[00:[00],01:[01],02:[02],03:[03],mmc:(un)]s(0)Z?S?*/
	$858C  10 07:       bpl +		; $8595			/* A(??)X(F8)<4D6>Y(??)MAP[00:[00],01:[01],02:[02],03:[03],mmc:(un)]s(0)Z?S?*/
-	$858E  A9 00:       lda #$00			/* A(??)X(F8)<4D6>Y(??)MAP[00:[00],01:[01],02:[02],03:[03],mmc:(un)]s(0)Z?S?*/
	$8590  85 23:       sta $23			/* A(00)<58E>X(F8)<4D6>Y(??)MAP[00:[00],01:[01],02:[02],03:[03],mmc:(un)]s(0)Z1S0*/
	$8592  85 24:       sta $24			/* A(00)<58E>X(F8)<4D6>Y(??)MAP[00:[00],01:[01],02:[02],03:[03],mmc:(un)]s(0)Z1S0*/
	$8594  60:          rts 			/* A(00)<58E>X(F8)<4D6>Y(??)MAP[00:[00],01:[01],02:[02],03:[03],mmc:(un)]s(0)Z1S0*/(barrier)

+	$8595  05 23:       ora $23			/* A(??)X(F8)<4D6>Y(??)MAP[00:[00],01:[01],02:[02],03:[03],mmc:(un)]s(0)Z?S?*/
	$8597  F0 16:       beq +		; $85AF -> rts			/* A(??)X(F8)<4D6>Y(??)MAP[00:[00],01:[01],02:[02],03:[03],mmc:(un)]s(0)Z?S?*/
	$8599  A5 22:       lda $22			/* A(??)X(F8)<4D6>Y(??)MAP[00:[00],01:[01],02:[02],03:[03],mmc:(un)]s(0)Z?S?*/
	$859B  10 12:       bpl +		; $85AF -> rts			/* A(??)X(F8)<4D6>Y(??)MAP[00:[00],01:[01],02:[02],03:[03],mmc:(un)]s(0)Z?S?*/
	$859D  A5 1D:       lda $1D			/* A(??)X(F8)<4D6>Y(??)MAP[00:[00],01:[01],02:[02],03:[03],mmc:(un)]s(0)Z?S?*/
	$859F  29 0F:       and #$0F			/* A(??)X(F8)<4D6>Y(??)MAP[00:[00],01:[01],02:[02],03:[03],mmc:(un)]s(0)Z?S?*/
	$85A1  D0 0C:       bne +		; $85AF -> rts			/* A(??)X(F8)<4D6>Y(??)MAP[00:[00],01:[01],02:[02],03:[03],mmc:(un)]s(0)Z?S?*/
	$85A3  C6 23:       dec $23			/* A(??)X(F8)<4D6>Y(??)MAP[00:[00],01:[01],02:[02],03:[03],mmc:(un)]s(0)Z?S?*/
	$85A5  10 08:       bpl +		; $85AF -> rts			/* A(??)X(F8)<4D6>Y(??)MAP[00:[00],01:[01],02:[02],03:[03],mmc:(un)]s(0)Z?S?*/
	$85A7  A9 3B:       lda #$3B			/* A(3B)<5A7>X(F8)<4D6>Y(??)MAP[00:[00],01:[01],02:[02],03:[03],mmc:(un)]s(0)Z0S0*/
	$85A9  85 23:       sta $23			/* A(3B)<5A7>X(F8)<4D6>Y(??)MAP[00:[00],01:[01],02:[02],03:[03],mmc:(un)]s(0)Z0S0*/
	$85AB  C6 24:       dec $24			/* A(??)X(F8)<4D6>Y(??)MAP[00:[00],01:[01],02:[02],03:[03],mmc:(un)]s(0)Z?S?*/
	$85AD  30 DF:       bmi -		; $858E			/* A(??)X(F8)<4D6>Y(??)MAP[00:[00],01:[01],02:[02],03:[03],mmc:(un)]s(0)Z?S?*/
+	$85AF  60:          rts 			/* A(??)X(F8)<4D6>Y(??)MAP[00:[00],01:[01],02:[02],03:[03],mmc:(un)]s(0)Z?S?*/(barrier)
;------------------------------------------
_func_05B0
	$85B0  8A:          txa 			/* A(F8)<5B0>X(F8)<460>Y(??)MAP[00:[00],01:[01],02:[02],03:[03],mmc:(un)]s(1)Z0S1*/
	$85B1  18:          clc 			/* A(F8)<5B0>X(F8)<460>Y(??)MAP[00:[00],01:[01],02:[02],03:[03],mmc:(un)]s(1)Z0S1*/
	$85B2  69 08:       adc #$08			/* A(??)X(F8)<460>Y(??)MAP[00:[00],01:[01],02:[02],03:[03],mmc:(un)]s(1)Z?S?*/
	$85B4  AA:          tax 			/* A(??)X(??)Y(??)MAP[00:[00],01:[01],02:[02],03:[03],mmc:(un)]s(1)Z?S?*/
	$85B5  86 58:       stx $58			/* A(??)X(??)Y(??)MAP[00:[00],01:[01],02:[02],03:[03],mmc:(un)]s(1)Z?S?*/
	$85B7  A9 01:       lda #$01			/* A(01)<5B7>X(??)Y(??)MAP[00:[00],01:[01],02:[02],03:[03],mmc:(un)]s(1)Z0S0*/
	$85B9  E0 48:       cpx #$48			/* A(01)<5B7>X(??)Y(??)MAP[00:[00],01:[01],02:[02],03:[03],mmc:(un)]s(1)Z?S?*/
	$85BB  90 02:       bcc +		; $85BF			/* A(01)<5B7>X(??)Y(??)MAP[00:[00],01:[01],02:[02],03:[03],mmc:(un)]s(1)Z?S?*/
	$85BD  A9 21:       lda #$21			/* A(21)<5BD>X(??)Y(??)MAP[00:[00],01:[01],02:[02],03:[03],mmc:(un)]s(1)Z0S0*/
+	$85BF  85 13:       sta $13			/* A(??)X(??)Y(??)MAP[00:[00],01:[01],02:[02],03:[03],mmc:(un)]s(1)Z0S0*/
	$85C1  BD 00 03:    lda $0300,x			/* A(??)X(??)Y(??)MAP[00:[00],01:[01],02:[02],03:[03],mmc:(un)]s(0)Z?S?*/
	$85C4  29 1F:       and #$1F			/* A(??)X(??)Y(??)MAP[00:[00],01:[01],02:[02],03:[03],mmc:(un)]s(0)Z?S?*/
	$85C6  C9 01:       cmp #$01			/* A(??)X(??)Y(??)MAP[00:[00],01:[01],02:[02],03:[03],mmc:(un)]s(0)Z?S?*/
	$85C8  D0 04:       bne +		; $85CE			/* A(??)X(??)Y(??)MAP[00:[00],01:[01],02:[02],03:[03],mmc:(un)]s(0)Z?S?*/
	$85CA  A9 31:       lda #$31			/* A(31)<5CA>X(??)Y(??)MAP[00:[00],01:[01],02:[02],03:[03],mmc:(un)]s(0)Z0S0*/
	$85CC  85 13:       sta $13			/* A(31)<5CA>X(??)Y(??)MAP[00:[00],01:[01],02:[02],03:[03],mmc:(un)]s(0)Z0S0*/
+	$85CE  BD 07 03:    lda $0307,x			/* A(31)<5CA>X(??)Y(??)MAP[00:[00],01:[01],02:[02],03:[03],mmc:(un)]s(0)Z0S0*/
	$85D1  85 12:       sta $12			/* A(??)X(??)Y(??)MAP[00:[00],01:[01],02:[02],03:[03],mmc:(un)]s(0)Z?S?*/
	$85D3  4C CF 9E:    jmp _func_1ECF			/* A(??)X(??)Y(??)MAP[00:[00],01:[01],02:[02],03:[03],mmc:(un)]s(0)Z?S?*/(barrier)
;------------------------------------------
_func_05D6
	$85D6  A9 00:       lda #$00			/* A(00)<5D6>X(??)Y(??)MAP[00:[00],01:[01],02:[02],03:[03],mmc:(un)]s(0)Z1S0*/
	$85D8  85 10:       sta $10			/* A(00)<5D6>X(??)Y(??)MAP[00:[00],01:[01],02:[02],03:[03],mmc:(un)]s(0)Z1S0*/
	$85DA  85 11:       sta $11			/* A(00)<5D6>X(??)Y(??)MAP[00:[00],01:[01],02:[02],03:[03],mmc:(un)]s(0)Z1S0*/
	$85DC  A5 FC:       lda $FC			/* A(??)X(??)Y(??)MAP[00:[00],01:[01],02:[02],03:[03],mmc:(un)]s(0)Z?S?*/
	$85DE  10 04:       bpl +		; $85E4			/* A(??)X(??)Y(??)MAP[00:[00],01:[01],02:[02],03:[03],mmc:(un)]s(0)Z?S?*/
	$85E0  A9 00:       lda #$00			/* A(00)<5E0>X(??)Y(??)MAP[00:[00],01:[01],02:[02],03:[03],mmc:(un)]s(0)Z1S0*/
	$85E2  F0 08:       beq ++		; $85EC			/* A(00)<5E0>X(??)Y(??)MAP[00:[00],01:[01],02:[02],03:[03],mmc:(un)]s(0)Z1S0*/(barrier)

+	$85E4  A5 2D:       lda $2D			/* A(00)<5E0>X(??)Y(??)MAP[00:[00],01:[01],02:[02],03:[03],mmc:(un)]s(0)Z1S0*/
	$85E6  C9 05:       cmp #$05			/* A(??)X(??)Y(??)MAP[00:[00],01:[01],02:[02],03:[03],mmc:(un)]s(0)Z?S?*/
	$85E8  90 02:       bcc ++		; $85EC			/* A(??)X(??)Y(??)MAP[00:[00],01:[01],02:[02],03:[03],mmc:(un)]s(0)Z?S?*/
	$85EA  A9 05:       lda #$05			/* A(05)<5EA>X(??)Y(??)MAP[00:[00],01:[01],02:[02],03:[03],mmc:(un)]s(0)Z0S0*/
++	$85EC  29 07:       and #$07			/* A(??)X(??)Y(??)MAP[00:[00],01:[01],02:[02],03:[03],mmc:(un)]s(0)Z?S0*/
	$85EE  A8:          tay 			/* A(??)X(??)Y(??)MAP[00:[00],01:[01],02:[02],03:[03],mmc:(un)]s(0)Z?S?*/
-	$85EF  88:          dey 			/* A(??)X(??)Y(??)MAP[00:[00],01:[01],02:[02],03:[03],mmc:(un)]s(0)Z?S?*/
	$85F0  30 10:       bmi +		; $8602			/* A(??)X(??)Y(??)MAP[00:[00],01:[01],02:[02],03:[03],mmc:(un)]s(0)Z?S?*/
	$85F2  A5 10:       lda $10			/* A(??)X(??)Y(??)MAP[00:[00],01:[01],02:[02],03:[03],mmc:(un)]s(0)Z?S?*/
	$85F4  18:          clc 			/* A(??)X(??)Y(??)MAP[00:[00],01:[01],02:[02],03:[03],mmc:(un)]s(0)Z?S?*/
	$85F5  69 28:       adc #$28			/* A(??)X(??)Y(??)MAP[00:[00],01:[01],02:[02],03:[03],mmc:(un)]s(0)Z?S?*/
	$85F7  85 10:       sta $10			/* A(??)X(??)Y(??)MAP[00:[00],01:[01],02:[02],03:[03],mmc:(un)]s(0)Z?S?*/
	$85F9  A5 11:       lda $11			/* A(??)X(??)Y(??)MAP[00:[00],01:[01],02:[02],03:[03],mmc:(un)]s(0)Z?S?*/
	$85FB  69 00:       adc #$00			/* A(??)X(??)Y(??)MAP[00:[00],01:[01],02:[02],03:[03],mmc:(un)]s(0)Z?S?*/
	$85FD  85 11:       sta $11			/* A(??)X(??)Y(??)MAP[00:[00],01:[01],02:[02],03:[03],mmc:(un)]s(0)Z?S?*/
	$85FF  4C EF 85:    jmp -		; $85EF			/* A(??)X(??)Y(??)MAP[00:[00],01:[01],02:[02],03:[03],mmc:(un)]s(0)Z?S?*/(barrier)

+	$8602  A2 00:       ldx #$00			/* A(??)X(??)Y(??)MAP[00:[00],01:[01],02:[02],03:[03],mmc:(un)]s(0)Z?S?*/
-	$8604  A9 00:       lda #$00			/* A(00)<604>X(00)<602>Y(??)MAP[00:[00],01:[01],02:[02],03:[03],mmc:(un)]s(0)Z?S?*/
	$8606  9D 00 03:    sta $0300,x			/* A(00)<604>X(00)<602>Y(??)MAP[00:[00],01:[01],02:[02],03:[03],mmc:(un)]s(0)Z1S0*/
	$8609  E8:          inx 			/* A(00)<604>X(??)Y(??)MAP[00:[00],01:[01],02:[02],03:[03],mmc:(un)]s(0)Z?S?*/
	$860A  E0 90:       cpx #$90			/* A(00)<604>X(??)Y(??)MAP[00:[00],01:[01],02:[02],03:[03],mmc:(un)]s(0)Z?S?*/
	$860C  90 F6:       bcc -		; $8604			/* A(00)<604>X(??)Y(??)MAP[00:[00],01:[01],02:[02],03:[03],mmc:(un)]s(0)Z?S?*/
	$860E  A2 00:       ldx #$00			/* A(00)<604>X(00)<60E>Y(??)MAP[00:[00],01:[01],02:[02],03:[03],mmc:(un)]s(0)Z1S0*/
	$8610  A0 00:       ldy #$00			/* A(00)<604>X(00)<60E>Y(00)<610>MAP[00:[00],01:[01],02:[02],03:[03],mmc:(un)]s(0)Z1S0*/
-	$8612  B9 91 86:    lda _data_0691_indexed,y			/* A$0691,y<612>X(00)<60E>Y(00)<610>MAP[00:[00],01:[01],02:[02],03:[03],mmc:(un)]s(0)Z?S?*/
	$8615  9D 00 03:    sta $0300,x			/* A$0691,y<612>X(00)<60E>Y(00)<610>MAP[00:[00],01:[01],02:[02],03:[03],mmc:(un)]s(0)Z?S?*/
	$8618  A9 25:       lda #$25			/* A(25)<618>X(00)<60E>Y(00)<610>MAP[00:[00],01:[01],02:[02],03:[03],mmc:(un)]s(0)Z0S0*/
	$861A  9D 01 03:    sta $0301,x			/* A(25)<618>X(00)<60E>Y(00)<610>MAP[00:[00],01:[01],02:[02],03:[03],mmc:(un)]s(0)Z0S0*/
	$861D  B9 92 86:    lda _DataPointerTable_0692,y			/* A$0692,y<61D>X(00)<60E>Y(00)<610>MAP[00:[00],01:[01],02:[02],03:[03],mmc:(un)]s(0)Z?S?*/
	$8620  9D 04 03:    sta $0304,x			/* A$0692,y<61D>X(00)<60E>Y(00)<610>MAP[00:[00],01:[01],02:[02],03:[03],mmc:(un)]s(0)Z?S?*/
	$8623  B9 93 86:    lda _DataPointerTable_0692+1,y			/* A$0693,y<623>X(00)<60E>Y(00)<610>MAP[00:[00],01:[01],02:[02],03:[03],mmc:(un)]s(0)Z?S?*/
	$8626  9D 05 03:    sta $0305,x			/* A$0693,y<623>X(00)<60E>Y(00)<610>MAP[00:[00],01:[01],02:[02],03:[03],mmc:(un)]s(0)Z?S?*/
	$8629  B9 94 86:    lda _data_0694_indexed,y			/* A$0694,y<629>X(00)<60E>Y(00)<610>MAP[00:[00],01:[01],02:[02],03:[03],mmc:(un)]s(0)Z?S?*/
	$862C  9D 06 03:    sta $0306,x			/* A$0694,y<629>X(00)<60E>Y(00)<610>MAP[00:[00],01:[01],02:[02],03:[03],mmc:(un)]s(0)Z?S?*/
	$862F  E0 48:       cpx #$48			/* A$0694,y<629>X(00)<60E>Y(00)<610>MAP[00:[00],01:[01],02:[02],03:[03],mmc:(un)]s(0)Z?S?*/
	$8631  B0 11:       bcs +		; $8644			/* A$0694,y<629>X(00)<60E>Y(00)<610>MAP[00:[00],01:[01],02:[02],03:[03],mmc:(un)]s(0)Z?S?*/
	$8633  BD 05 03:    lda $0305,x			/* A(??)X(00)<60E>Y(00)<610>MAP[00:[00],01:[01],02:[02],03:[03],mmc:(un)]s(0)Z?S?*/
	$8636  18:          clc 			/* A(??)X(00)<60E>Y(00)<610>MAP[00:[00],01:[01],02:[02],03:[03],mmc:(un)]s(0)Z?S?*/
	$8637  65 10:       adc $10			/* A(??)X(00)<60E>Y(00)<610>MAP[00:[00],01:[01],02:[02],03:[03],mmc:(un)]s(0)Z?S?*/
	$8639  9D 05 03:    sta $0305,x			/* A(??)X(00)<60E>Y(00)<610>MAP[00:[00],01:[01],02:[02],03:[03],mmc:(un)]s(0)Z?S?*/
	$863C  BD 06 03:    lda $0306,x			/* A(??)X(00)<60E>Y(00)<610>MAP[00:[00],01:[01],02:[02],03:[03],mmc:(un)]s(0)Z?S?*/
	$863F  65 11:       adc $11			/* A(??)X(00)<60E>Y(00)<610>MAP[00:[00],01:[01],02:[02],03:[03],mmc:(un)]s(0)Z?S?*/
	$8641  9D 06 03:    sta $0306,x			/* A(??)X(00)<60E>Y(00)<610>MAP[00:[00],01:[01],02:[02],03:[03],mmc:(un)]s(0)Z?S?*/
+	$8644  C8:          iny 			/* A(??)X(00)<60E>Y(00)<610>MAP[00:[00],01:[01],02:[02],03:[03],mmc:(un)]s(0)Z?S?*/
	$8645  C8:          iny 			/* A(??)X(00)<60E>Y(??)MAP[00:[00],01:[01],02:[02],03:[03],mmc:(un)]s(0)Z?S?*/
	$8646  C8:          iny 			/* A(??)X(00)<60E>Y(??)MAP[00:[00],01:[01],02:[02],03:[03],mmc:(un)]s(0)Z?S?*/
	$8647  C8:          iny 			/* A(??)X(00)<60E>Y(??)MAP[00:[00],01:[01],02:[02],03:[03],mmc:(un)]s(0)Z?S?*/
	$8648  8A:          txa 			/* A(00)<648>X(00)<60E>Y(??)MAP[00:[00],01:[01],02:[02],03:[03],mmc:(un)]s(0)Z1S0*/
	$8649  18:          clc 			/* A(00)<648>X(00)<60E>Y(??)MAP[00:[00],01:[01],02:[02],03:[03],mmc:(un)]s(0)Z1S0*/
	$864A  69 08:       adc #$08			/* A(??)X(00)<60E>Y(??)MAP[00:[00],01:[01],02:[02],03:[03],mmc:(un)]s(0)Z?S?*/
	$864C  AA:          tax 			/* A(??)X(??)Y(??)MAP[00:[00],01:[01],02:[02],03:[03],mmc:(un)]s(0)Z?S?*/
	$864D  C9 90:       cmp #$90			/* A(??)X(??)Y(??)MAP[00:[00],01:[01],02:[02],03:[03],mmc:(un)]s(0)Z?S?*/
	$864F  90 C1:       bcc -		; $8612			/* A(??)X(??)Y(??)MAP[00:[00],01:[01],02:[02],03:[03],mmc:(un)]s(0)Z?S?*/
	$8651  A9 6C:       lda #$6C			/* A(6C)<651>X(??)Y(??)MAP[00:[00],01:[01],02:[02],03:[03],mmc:(un)]s(0)Z0S0*/
	$8653  85 4D:       sta $4D			/* A(6C)<651>X(??)Y(??)MAP[00:[00],01:[01],02:[02],03:[03],mmc:(un)]s(0)Z0S0*/
	$8655  A9 04:       lda #$04			/* A(04)<655>X(??)Y(??)MAP[00:[00],01:[01],02:[02],03:[03],mmc:(un)]s(0)Z0S0*/
	$8657  85 4E:       sta $4E			/* A(04)<655>X(??)Y(??)MAP[00:[00],01:[01],02:[02],03:[03],mmc:(un)]s(0)Z0S0*/
	$8659  A9 02:       lda #$02			/* A(02)<659>X(??)Y(??)MAP[00:[00],01:[01],02:[02],03:[03],mmc:(un)]s(0)Z0S0*/
	$865B  85 4F:       sta $4F			/* A(02)<659>X(??)Y(??)MAP[00:[00],01:[01],02:[02],03:[03],mmc:(un)]s(0)Z0S0*/
	$865D  A2 0B:       ldx #$0B			/* A(02)<659>X(0B)<65D>Y(??)MAP[00:[00],01:[01],02:[02],03:[03],mmc:(un)]s(0)Z0S0*/
-	$865F  BD D9 86:    lda _data_06D9_indexed,x			/* A$06D9,x<65F>X(0B)<65D>Y(??)MAP[00:[00],01:[01],02:[02],03:[03],mmc:(un)]s(0)Z?S?*/
	$8662  9D C4 07:    sta $07C4,x			/* A$06D9,x<65F>X(0B)<65D>Y(??)MAP[00:[00],01:[01],02:[02],03:[03],mmc:(un)]s(0)Z?S?*/
	$8665  CA:          dex 			/* A$06D9,x<65F>X(??)Y(??)MAP[00:[00],01:[01],02:[02],03:[03],mmc:(un)]s(0)Z?S?*/
	$8666  E0 08:       cpx #$08			/* A$06D9,x<65F>X(??)Y(??)MAP[00:[00],01:[01],02:[02],03:[03],mmc:(un)]s(0)Z?S?*/
	$8668  B0 F5:       bcs -		; $865F			/* A$06D9,x<65F>X(??)Y(??)MAP[00:[00],01:[01],02:[02],03:[03],mmc:(un)]s(0)Z?S?*/
-	$866A  BD D9 86:    lda _data_06D9_indexed,x			/* A$06D9,x<66A>X(??)Y(??)MAP[00:[00],01:[01],02:[02],03:[03],mmc:(un)]s(0)Z?S?*/
	$866D  9D 00 07:    sta $0700,x			/* A$06D9,x<66A>X(??)Y(??)MAP[00:[00],01:[01],02:[02],03:[03],mmc:(un)]s(0)Z?S?*/
	$8670  CA:          dex 			/* A$06D9,x<66A>X(??)Y(??)MAP[00:[00],01:[01],02:[02],03:[03],mmc:(un)]s(0)Z?S?*/
	$8671  10 F7:       bpl -		; $866A			/* A$06D9,x<66A>X(??)Y(??)MAP[00:[00],01:[01],02:[02],03:[03],mmc:(un)]s(0)Z?S?*/
	$8673  A9 B0:       lda #$B0			/* A(B0)<673>X(??)Y(??)MAP[00:[00],01:[01],02:[02],03:[03],mmc:(un)]s(0)Z0S1*/
	$8675  85 50:       sta $50			/* A(B0)<673>X(??)Y(??)MAP[00:[00],01:[01],02:[02],03:[03],mmc:(un)]s(0)Z0S1*/
	$8677  AD 05 03:    lda $0305			/* A(??)X(??)Y(??)MAP[00:[00],01:[01],02:[02],03:[03],mmc:(un)]s(0)Z?S?*/
	$867A  38:          sec 			/* A(??)X(??)Y(??)MAP[00:[00],01:[01],02:[02],03:[03],mmc:(un)]s(0)Z?S?*/
	$867B  E9 04:       sbc #$04			/* A(??)X(??)Y(??)MAP[00:[00],01:[01],02:[02],03:[03],mmc:(un)]s(0)Z?S?*/
	$867D  85 6A:       sta $6A			/* A(??)X(??)Y(??)MAP[00:[00],01:[01],02:[02],03:[03],mmc:(un)]s(0)Z?S?*/
	$867F  AD 06 03:    lda $0306			/* A(??)X(??)Y(??)MAP[00:[00],01:[01],02:[02],03:[03],mmc:(un)]s(0)Z?S?*/
	$8682  E9 00:       sbc #$00			/* A(??)X(??)Y(??)MAP[00:[00],01:[01],02:[02],03:[03],mmc:(un)]s(0)Z?S?*/
	$8684  85 6B:       sta $6B			/* A(??)X(??)Y(??)MAP[00:[00],01:[01],02:[02],03:[03],mmc:(un)]s(0)Z?S?*/
	$8686  A5 0F:       lda $0F			/* A(??)X(??)Y(??)MAP[00:[00],01:[01],02:[02],03:[03],mmc:(un)]s(0)Z?S?*/
	$8688  29 40:       and #$40			/* A(??)X(??)Y(??)MAP[00:[00],01:[01],02:[02],03:[03],mmc:(un)]s(0)Z?S?*/
	$868A  D0 02:       bne +		; $868E			/* A(??)X(??)Y(??)MAP[00:[00],01:[01],02:[02],03:[03],mmc:(un)]s(0)Z?S?*/
	$868C  A9 80:       lda #$80			/* A(80)<68C>X(??)Y(??)MAP[00:[00],01:[01],02:[02],03:[03],mmc:(un)]s(0)Z0S1*/
+	$868E  85 FB:       sta $FB			/* A(80)<68C>X(??)Y(??)MAP[00:[00],01:[01],02:[02],03:[03],mmc:(un)]s(0)Z0S1*/
	$8690  60:          rts 			/* A(??)X(??)Y(??)MAP[00:[00],01:[01],02:[02],03:[03],mmc:(un)]s(0)Z?S?*/(barrier)
;------------------------------------------
_data_0691_indexed
	$8691               .byte $01
_DataPointerTable_0692
	$8692  6C F4:       .word (DataTableEntry_746C) ;F46C (746C) ([8:0][A:1][C:2][E:3])
_data_0694_indexed
	$8694  02 03:       .word ($0302) ;302 (0) ([8:0][A:1][C:2][E:3])
	$8696  5C D4:       .word (DataTableEntry_545C) ;D45C (545C) ([8:0][A:1][C:2][E:3])
	$8698  02 03:       .word ($0302) ;302 (0) ([8:0][A:1][C:2][E:3])
	$869A  6C D4:       .word (DataTableEntry_546C) ;D46C (546C) ([8:0][A:1][C:2][E:3])
	$869C  02 03:       .word ($0302) ;302 (0) ([8:0][A:1][C:2][E:3])
	$869E  7C D4:       .word (DataTableEntry_547C) ;D47C (547C) ([8:0][A:1][C:2][E:3])
	$86A0  02 03:       .word ($0302) ;302 (0) ([8:0][A:1][C:2][E:3])
	$86A2  5C EC:       .word (DataTableEntry_6C5C) ;EC5C (6C5C) ([8:0][A:1][C:2][E:3])
	$86A4  02 03:       .word ($0302) ;302 (0) ([8:0][A:1][C:2][E:3])
	$86A6  7C EC:       .word (DataTableEntry_6C7C) ;EC7C (6C7C) ([8:0][A:1][C:2][E:3])
	$86A8  02 03:       .word ($0302) ;302 (0) ([8:0][A:1][C:2][E:3])
	$86AA  5C 04:       .word ($045C) ;45C (0) ([8:0][A:1][C:2][E:3])
	$86AC  03 03:       .word ($0303) ;303 (0) ([8:0][A:1][C:2][E:3])
	$86AE  6C 0C:       .word ($0C6C) ;C6C (0) ([8:0][A:1][C:2][E:3])
	$86B0  03 03:       .word ($0303) ;303 (0) ([8:0][A:1][C:2][E:3])
	$86B2  7C 04:       .word ($047C) ;47C (0) ([8:0][A:1][C:2][E:3])
	$86B4  03 06:       .word ($0603) ;603 (0) ([8:0][A:1][C:2][E:3])
	$86B6  6F E0:       .word (DataTableEntry_606F) ;E06F (606F) ([8:0][A:1][C:2][E:3])
	$86B8  01 06:       .word ($0601) ;601 (0) ([8:0][A:1][C:2][E:3])
	$86BA  4C E0:       .word (DataTableEntry_604C) ;E04C (604C) ([8:0][A:1][C:2][E:3])
	$86BC  01 06:       .word ($0601) ;601 (0) ([8:0][A:1][C:2][E:3])
	$86BE  5C E0:       .word (DataTableEntry_605C) ;E05C (605C) ([8:0][A:1][C:2][E:3])
	$86C0  01 06:       .word ($0601) ;601 (0) ([8:0][A:1][C:2][E:3])
	$86C2  7C E0:       .word (DataTableEntry_607C) ;E07C (607C) ([8:0][A:1][C:2][E:3])
	$86C4  01 06:       .word ($0601) ;601 (0) ([8:0][A:1][C:2][E:3])
	$86C6  8C E0:       .word (DataTableEntry_608C) ;E08C (608C) ([8:0][A:1][C:2][E:3])
	$86C8  01 06:       .word ($0601) ;601 (0) ([8:0][A:1][C:2][E:3])
	$86CA  4C 00:       .word ($4C) ;4C (0) ([8:0][A:1][C:2][E:3])
	$86CC  01 06:       .word ($0601) ;601 (0) ([8:0][A:1][C:2][E:3])
	$86CE  6C 00:       .word ($6C) ;6C (0) ([8:0][A:1][C:2][E:3])
	$86D0  01 06:       .word ($0601) ;601 (0) ([8:0][A:1][C:2][E:3])
	$86D2  8C 00:       .word ($8C) ;8C (0) ([8:0][A:1][C:2][E:3])
	$86D4  01 C6:       .word (DataTableEntry_4601) ;C601 (4601) ([8:0][A:1][C:2][E:3])
	$86D6  8C 20:       .word ($208C) ;208C (0) ([8:0][A:1][C:2][E:3])
	$86D8  00 AC:       .word (DataTableEntry_2C00) ;AC00 (2C00) ([8:0][A:1][C:2][E:3])
	$86DA  BE 01:       .word ($01BE) ;1BE (0) ([8:0][A:1][C:2][E:3])
	$86DC  68 F0:       .word (DataTableEntry_7068) ;F068 (7068) ([8:0][A:1][C:2][E:3])
	$86DE  C2 01:       .word ($01C2) ;1C2 (0) ([8:0][A:1][C:2][E:3])
	$86E0  68 AF:       .word (DataTableEntry_2F68) ;AF68 (2F68) ([8:0][A:1][C:2][E:3])
	$86E2  C1 01:       .word ($01C1) ;1C1 (0) ([8:0][A:1][C:2][E:3])
	$86E4               .byte $68
JumpTableEntry_06E5
	$86E5  A5 1D:       lda $1D			/* A(??)X(un)Y(un)MAP[00:[00],01:[01],02:[02],03:[03],mmc:(un)]s(0)Z?S?*/
	$86E7  29 03:       and #$03			/* A(??)X(un)Y(un)MAP[00:[00],01:[01],02:[02],03:[03],mmc:(un)]s(0)Z?S?*/
	$86E9  D0 08:       bne +		; $86F3			/* A(??)X(un)Y(un)MAP[00:[00],01:[01],02:[02],03:[03],mmc:(un)]s(0)Z?S?*/
	$86EB  EE 4D 03:    inc $034D			/* A(??)X(un)Y(un)MAP[00:[00],01:[01],02:[02],03:[03],mmc:(un)]s(0)Z?S?*/
	$86EE  D0 03:       bne +		; $86F3			/* A(??)X(un)Y(un)MAP[00:[00],01:[01],02:[02],03:[03],mmc:(un)]s(0)Z?S?*/
	$86F0  EE 4E 03:    inc $034E			/* A(??)X(un)Y(un)MAP[00:[00],01:[01],02:[02],03:[03],mmc:(un)]s(0)Z?S?*/
+	$86F3  AD 4D 03:    lda $034D			/* A(??)X(un)Y(un)MAP[00:[00],01:[01],02:[02],03:[03],mmc:(un)]s(0)Z?S?*/
	$86F6  38:          sec 			/* A(??)X(un)Y(un)MAP[00:[00],01:[01],02:[02],03:[03],mmc:(un)]s(0)Z?S?*/
	$86F7  E9 FE:       sbc #$FE			/* A(??)X(un)Y(un)MAP[00:[00],01:[01],02:[02],03:[03],mmc:(un)]s(0)Z?S?*/
	$86F9  AD 4E 03:    lda $034E			/* A(??)X(un)Y(un)MAP[00:[00],01:[01],02:[02],03:[03],mmc:(un)]s(0)Z?S?*/
	$86FC  E9 01:       sbc #$01			/* A(??)X(un)Y(un)MAP[00:[00],01:[01],02:[02],03:[03],mmc:(un)]s(0)Z?S?*/
	$86FE  90 0B:       bcc +		; $870B			/* A(??)X(un)Y(un)MAP[00:[00],01:[01],02:[02],03:[03],mmc:(un)]s(0)Z?S?*/
	$8700  E6 F4:       inc $F4			/* A(??)X(un)Y(un)MAP[00:[00],01:[01],02:[02],03:[03],mmc:(un)]s(0)Z?S?*/
	$8702  A9 18:       lda #$18			/* A(18)<702>X(un)Y(un)MAP[00:[00],01:[01],02:[02],03:[03],mmc:(un)]s(0)Z0S0*/
	$8704  8D 4A 03:    sta $034A			/* A(18)<702>X(un)Y(un)MAP[00:[00],01:[01],02:[02],03:[03],mmc:(un)]s(0)Z0S0*/
	$8707  A9 0C:       lda #$0C			/* A(0C)<707>X(un)Y(un)MAP[00:[00],01:[01],02:[02],03:[03],mmc:(un)]s(0)Z0S0*/
	$8709  85 4C:       sta $4C			/* A(0C)<707>X(un)Y(un)MAP[00:[00],01:[01],02:[02],03:[03],mmc:(un)]s(0)Z0S0*/
+	$870B  A2 F8:       ldx #$F8			/* A(0C)<707>X(F8)<70B>Y(un)MAP[00:[00],01:[01],02:[02],03:[03],mmc:(un)]s(0)Z0S?*/
-	$870D  8A:          txa 			/* A(??)X(F8)<70B>Y(??)MAP[00:[00],01:[01],02:[02],03:[03],mmc:(un)]s(0)Z?S?*/
	$870E  18:          clc 			/* A(F8)<70D>X(F8)<70B>Y(un)MAP[00:[00],01:[01],02:[02],03:[03],mmc:(un)]s(0)Z0S1*/
	$870F  69 08:       adc #$08			/* A(??)X(F8)<70B>Y(un)MAP[00:[00],01:[01],02:[02],03:[03],mmc:(un)]s(0)Z?S?*/
	$8711  AA:          tax 			/* A(??)X(??)Y(un)MAP[00:[00],01:[01],02:[02],03:[03],mmc:(un)]s(0)Z?S?*/
	$8712  86 58:       stx $58			/* A(??)X(??)Y(un)MAP[00:[00],01:[01],02:[02],03:[03],mmc:(un)]s(0)Z?S?*/
	$8714  A9 01:       lda #$01			/* A(01)<714>X(??)Y(un)MAP[00:[00],01:[01],02:[02],03:[03],mmc:(un)]s(0)Z0S0*/
	$8716  85 12:       sta $12			/* A(01)<714>X(??)Y(un)MAP[00:[00],01:[01],02:[02],03:[03],mmc:(un)]s(0)Z0S0*/
	$8718  A9 01:       lda #$01			/* A(01)<718>X(??)Y(un)MAP[00:[00],01:[01],02:[02],03:[03],mmc:(un)]s(0)Z0S0*/
	$871A  85 13:       sta $13			/* A(01)<718>X(??)Y(un)MAP[00:[00],01:[01],02:[02],03:[03],mmc:(un)]s(0)Z0S0*/
	$871C  BD 00 03:    lda $0300,x			/* A(??)X(??)Y(un)MAP[00:[00],01:[01],02:[02],03:[03],mmc:(un)]s(0)Z?S?*/
	$871F  C9 06:       cmp #$06			/* A(??)X(??)Y(un)MAP[00:[00],01:[01],02:[02],03:[03],mmc:(un)]s(0)Z?S?*/
	$8721  D0 10:       bne +		; $8733			/* A(??)X(??)Y(un)MAP[00:[00],01:[01],02:[02],03:[03],mmc:(un)]s(0)Z?S?*/
	$8723  A9 0C:       lda #$0C			/* A(0C)<723>X(??)Y(un)MAP[00:[00],01:[01],02:[02],03:[03],mmc:(un)]s(0)Z0S0*/
	$8725  85 12:       sta $12			/* A(0C)<723>X(??)Y(un)MAP[00:[00],01:[01],02:[02],03:[03],mmc:(un)]s(0)Z0S0*/
	$8727  A9 21:       lda #$21			/* A(21)<727>X(??)Y(un)MAP[00:[00],01:[01],02:[02],03:[03],mmc:(un)]s(0)Z0S0*/
	$8729  85 13:       sta $13			/* A(21)<727>X(??)Y(un)MAP[00:[00],01:[01],02:[02],03:[03],mmc:(un)]s(0)Z0S0*/
	$872B  E0 48:       cpx #$48			/* A(21)<727>X(??)Y(un)MAP[00:[00],01:[01],02:[02],03:[03],mmc:(un)]s(0)Z?S?*/
	$872D  D0 04:       bne +		; $8733			/* A(21)<727>X(??)Y(un)MAP[00:[00],01:[01],02:[02],03:[03],mmc:(un)]s(0)Z?S?*/
	$872F  A9 88:       lda #$88			/* A(88)<72F>X(??)Y(un)MAP[00:[00],01:[01],02:[02],03:[03],mmc:(un)]s(0)Z0S1*/
	$8731  85 12:       sta $12			/* A(88)<72F>X(??)Y(un)MAP[00:[00],01:[01],02:[02],03:[03],mmc:(un)]s(0)Z0S1*/
+	$8733  20 CF 9E:    jsr _func_1ECF			/* A(??)X(??)Y(un)MAP[00:[00],01:[01],02:[02],03:[03],mmc:(un)]s(0)Z0S1*/
	$8736  E0 88:       cpx #$88			/* A(??)X(??)Y(??)MAP[00:[00],01:[01],02:[02],03:[03],mmc:(un)]s(0)Z?S?*/
	$8738  90 D3:       bcc -		; $870D			/* A(??)X(??)Y(??)MAP[00:[00],01:[01],02:[02],03:[03],mmc:(un)]s(0)Z?S?*/
	$873A  4C DF 84:    jmp _loc_04DF			/* A(??)X(??)Y(??)MAP[00:[00],01:[01],02:[02],03:[03],mmc:(un)]s(0)Z?S?*/(barrier)
;------------------------------------------
JumpTableEntry_073D
	$873D  A2 48:       ldx #$48			/* A(??)X(48)<73D>Y(??)MAP[00:[00],01:[01],02:[02],03:[03],mmc:(un)]s(0)Z0S0*/
	$873F  86 58:       stx $58			/* A(??)X(48)<73D>Y(??)MAP[00:[00],01:[01],02:[02],03:[03],mmc:(un)]s(0)Z0S0*/
	$8741  DE 02 03:    dec $0302,x			/* A(??)X(48)<73D>Y(??)MAP[00:[00],01:[01],02:[02],03:[03],mmc:(un)]s(0)Z?S?*/
	$8744  10 05:       bpl +		; $874B			/* A(??)X(48)<73D>Y(??)MAP[00:[00],01:[01],02:[02],03:[03],mmc:(un)]s(0)Z?S?*/
	$8746  E6 F4:       inc $F4			/* A(??)X(48)<73D>Y(??)MAP[00:[00],01:[01],02:[02],03:[03],mmc:(un)]s(0)Z?S?*/
	$8748  20 61 C1:    jsr _func_4161			/* A(??)X(??)Y(??)MAP[00:(??),01:(??),02:(??),03:(??),mmc:(un)]s(0)Z?S?*/
+	$874B  BD 02 03:    lda $0302,x			/* A(??)X(48)<73D>Y(??)MAP[00:[00],01:[01],02:[02],03:[03],mmc:(un)]s(0)Z?S?*/
	$874E  C9 10:       cmp #$10			/* A(??)X(48)<73D>Y(??)MAP[00:[00],01:[01],02:[02],03:[03],mmc:(un)]s(0)Z?S?*/
	$8750  B0 28:       bcs ++++		; $877A			/* A(??)X(48)<73D>Y(??)MAP[00:[00],01:[01],02:[02],03:[03],mmc:(un)]s(0)Z?S?*/
	$8752  C9 0F:       cmp #$0F			/* A(??)X(48)<73D>Y(??)MAP[00:[00],01:[01],02:[02],03:[03],mmc:(un)]s(0)Z?S?*/
	$8754  D0 18:       bne +++		; $876E			/* A(??)X(48)<73D>Y(??)MAP[00:[00],01:[01],02:[02],03:[03],mmc:(un)]s(0)Z?S?*/
	$8756  A5 33:       lda $33			/* A(??)X(48)<73D>Y(??)MAP[00:[00],01:[01],02:[02],03:[03],mmc:(un)]s(0)Z?S?*/
	$8758  30 04:       bmi +		; $875E			/* A(??)X(48)<73D>Y(??)MAP[00:[00],01:[01],02:[02],03:[03],mmc:(un)]s(0)Z?S?*/
	$875A  A5 FC:       lda $FC			/* A(??)X(48)<73D>Y(??)MAP[00:[00],01:[01],02:[02],03:[03],mmc:(un)]s(0)Z?S?*/
	$875C  10 09:       bpl ++		; $8767			/* A(??)X(48)<73D>Y(??)MAP[00:[00],01:[01],02:[02],03:[03],mmc:(un)]s(0)Z?S?*/
+	$875E  A9 0D:       lda #$0D			/* A(??)X(48)<73D>Y(??)MAP[00:[00],01:[01],02:[02],03:[03],mmc:(un)]s(0)Z?S?*/
	$8760  8D 48 03:    sta $0348			/* A(0D)<75E>X(48)<73D>Y(??)MAP[00:[00],01:[01],02:[02],03:[03],mmc:(un)]s(0)Z0S0*/
	$8763  A9 48:       lda #$48			/* A(48)<763>X(48)<73D>Y(??)MAP[00:[00],01:[01],02:[02],03:[03],mmc:(un)]s(0)Z0S0*/
	$8765  85 79:       sta $79			/* A(48)<763>X(48)<73D>Y(??)MAP[00:[00],01:[01],02:[02],03:[03],mmc:(un)]s(0)Z0S0*/
++	$8767  20 06 C1:    jsr _func_4106			/* A(??)X(48)<73D>Y(??)MAP[00:[00],01:[01],02:[02],03:[03],mmc:(un)]s(0)Z?S?*/
	$876A  A9 80:       lda #$80			/* A(80)<76A>X(48)<73D>Y(??)MAP[00:[00],01:[01],02:[02],03:[03],mmc:(un)]s(0)Z0S1*/
	$876C  85 22:       sta $22			/* A(80)<76A>X(48)<73D>Y(??)MAP[00:[00],01:[01],02:[02],03:[03],mmc:(un)]s(0)Z0S1*/
+++	$876E  20 D7 B6:    jsr _func_36D7			/* A(80)<76A>X(48)<73D>Y(??)MAP[00:[00],01:[01],02:[02],03:[03],mmc:(un)]s(0)Z0S1*/
	$8771  CE CC 07:    dec $07CC			/* A(??)X(48)<73D>Y(??)MAP[00:[00],01:[01],02:[02],03:[03],mmc:(un)]s(0)Z?S?*/
	$8774  A9 69:       lda #$69			/* A(69)<774>X(48)<73D>Y(??)MAP[00:[00],01:[01],02:[02],03:[03],mmc:(un)]s(0)Z0S0*/
	$8776  85 12:       sta $12			/* A(69)<774>X(48)<73D>Y(??)MAP[00:[00],01:[01],02:[02],03:[03],mmc:(un)]s(0)Z0S0*/
	$8778  D0 04:       bne _loc_077E			/* A(69)<774>X(48)<73D>Y(??)MAP[00:[00],01:[01],02:[02],03:[03],mmc:(un)]s(0)Z0S0*/(barrier)

++++	$877A  A9 68:       lda #$68			/* A(??)X(48)<73D>Y(??)MAP[00:[00],01:[01],02:[02],03:[03],mmc:(un)]s(0)Z0S0*/
	$877C  85 12:       sta $12			/* A(68)<77A>X(48)<73D>Y(??)MAP[00:[00],01:[01],02:[02],03:[03],mmc:(un)]s(0)Z0S0*/
_loc_077E
	$877E  A9 21:       lda #$21			/* A(??)X(48)<73D>Y(??)MAP[00:[00],01:[01],02:[02],03:[03],mmc:(un)]s(0)Z0S0*/
	$8780  85 13:       sta $13			/* A(21)<77E>X(48)<73D>Y(??)MAP[00:[00],01:[01],02:[02],03:[03],mmc:(un)]s(0)Z0S0*/
	$8782  20 CF 9E:    jsr _func_1ECF			/* A(??)X(??)Y(??)MAP[00:(??),01:(??),02:(??),03:(??),mmc:(un)]s(0)Z?S?*/
-	$8785  8A:          txa 			/* A(??)X(48)<73D>Y(??)MAP[00:[00],01:[01],02:[02],03:[03],mmc:(un)]s(0)Z?S?*/
	$8786  18:          clc 			/* A(48)<785>X(48)<73D>Y(??)MAP[00:[00],01:[01],02:[02],03:[03],mmc:(un)]s(0)Z0S0*/
	$8787  69 08:       adc #$08			/* A(??)X(48)<73D>Y(??)MAP[00:[00],01:[01],02:[02],03:[03],mmc:(un)]s(0)Z?S?*/
	$8789  AA:          tax 			/* A(??)X(??)Y(??)MAP[00:[00],01:[01],02:[02],03:[03],mmc:(un)]s(0)Z?S?*/
	$878A  86 58:       stx $58			/* A(??)X(??)Y(??)MAP[00:[00],01:[01],02:[02],03:[03],mmc:(un)]s(0)Z?S?*/
	$878C  A9 88:       lda #$88			/* A(88)<78C>X(??)Y(??)MAP[00:[00],01:[01],02:[02],03:[03],mmc:(un)]s(0)Z0S1*/
	$878E  85 12:       sta $12			/* A(88)<78C>X(??)Y(??)MAP[00:[00],01:[01],02:[02],03:[03],mmc:(un)]s(0)Z0S1*/
	$8790  A9 21:       lda #$21			/* A(21)<790>X(??)Y(??)MAP[00:[00],01:[01],02:[02],03:[03],mmc:(un)]s(0)Z0S0*/
	$8792  85 13:       sta $13			/* A(21)<790>X(??)Y(??)MAP[00:[00],01:[01],02:[02],03:[03],mmc:(un)]s(0)Z0S0*/
	$8794  20 CF 9E:    jsr _func_1ECF			/* A(??)X(??)Y(??)MAP[00:(??),01:(??),02:(??),03:(??),mmc:(un)]s(0)Z?S?*/
	$8797  E0 88:       cpx #$88			/* A(21)<790>X(??)Y(??)MAP[00:[00],01:[01],02:[02],03:[03],mmc:(un)]s(0)Z?S?*/
	$8799  90 EA:       bcc -		; $8785			/* A(21)<790>X(??)Y(??)MAP[00:[00],01:[01],02:[02],03:[03],mmc:(un)]s(0)Z?S?*/
	$879B  4C DF 84:    jmp _loc_04DF			/* A(21)<790>X(??)Y(??)MAP[00:[00],01:[01],02:[02],03:[03],mmc:(un)]s(0)Z?S?*/(barrier)
;------------------------------------------
JumpTableEntry_079E
	$879E  20 39 88:    jsr _func_0839			/* A(??)X(??)Y(??)MAP[00:(??),01:(??),02:(??),03:(??),mmc:(un)]s(0)Z?S?*/
	$87A1  A5 4E:       lda $4E			/* A(??)X(??)Y(??)MAP[00:[00],01:[01],02:[02],03:[03],mmc:(un)]s(0)Z?S?*/
	$87A3  38:          sec 			/* A(??)X(??)Y(??)MAP[00:[00],01:[01],02:[02],03:[03],mmc:(un)]s(0)Z?S?*/
	$87A4  E5 6A:       sbc $6A			/* A(??)X(??)Y(??)MAP[00:[00],01:[01],02:[02],03:[03],mmc:(un)]s(0)Z?S?*/
	$87A6  A5 4F:       lda $4F			/* A(??)X(??)Y(??)MAP[00:[00],01:[01],02:[02],03:[03],mmc:(un)]s(0)Z?S?*/
	$87A8  E5 6B:       sbc $6B			/* A(??)X(??)Y(??)MAP[00:[00],01:[01],02:[02],03:[03],mmc:(un)]s(0)Z?S?*/
	$87AA  90 07:       bcc +		; $87B3			/* A(??)X(??)Y(??)MAP[00:[00],01:[01],02:[02],03:[03],mmc:(un)]s(0)Z?S?*/
	$87AC  E6 F4:       inc $F4			/* A(??)X(??)Y(??)MAP[00:[00],01:[01],02:[02],03:[03],mmc:(un)]s(0)Z?S?*/
	$87AE  A9 F0:       lda #$F0			/* A(F0)<7AE>X(??)Y(??)MAP[00:[00],01:[01],02:[02],03:[03],mmc:(un)]s(0)Z0S1*/
	$87B0  8D 00 07:    sta $0700			/* A(F0)<7AE>X(??)Y(??)MAP[00:[00],01:[01],02:[02],03:[03],mmc:(un)]s(0)Z0S1*/
+	$87B3  20 D7 B6:    jsr _func_36D7			/* A(F0)<7AE>X(??)Y(??)MAP[00:[00],01:[01],02:[02],03:[03],mmc:(un)]s(0)Z0S1*/
	$87B6  A9 00:       lda #$00			/* A(00)<7B6>X(??)Y(??)MAP[00:[00],01:[01],02:[02],03:[03],mmc:(un)]s(0)Z1S0*/
	$87B8  8D 9A 03:    sta $039A			/* A(00)<7B6>X(??)Y(??)MAP[00:[00],01:[01],02:[02],03:[03],mmc:(un)]s(0)Z1S0*/
	$87BB  8D 9B 03:    sta $039B			/* A(00)<7B6>X(??)Y(??)MAP[00:[00],01:[01],02:[02],03:[03],mmc:(un)]s(0)Z1S0*/
	$87BE  AD CC 07:    lda $07CC			/* A(??)X(??)Y(??)MAP[00:[00],01:[01],02:[02],03:[03],mmc:(un)]s(0)Z?S?*/
	$87C1  C9 F0:       cmp #$F0			/* A(??)X(??)Y(??)MAP[00:[00],01:[01],02:[02],03:[03],mmc:(un)]s(0)Z?S?*/
	$87C3  90 04:       bcc +		; $87C9			/* A(??)X(??)Y(??)MAP[00:[00],01:[01],02:[02],03:[03],mmc:(un)]s(0)Z?S?*/
	$87C5  C9 F8:       cmp #$F8			/* A(??)X(??)Y(??)MAP[00:[00],01:[01],02:[02],03:[03],mmc:(un)]s(0)Z?S?*/
	$87C7  90 03:       bcc ++		; $87CC -> $84D6			/* A(??)X(??)Y(??)MAP[00:[00],01:[01],02:[02],03:[03],mmc:(un)]s(0)Z?S?*/
+	$87C9  CE CC 07:    dec $07CC			/* A(??)X(??)Y(??)MAP[00:[00],01:[01],02:[02],03:[03],mmc:(un)]s(0)Z?S?*/
++	$87CC  4C D6 84:    jmp --		; $84D6			/* A(??)X(??)Y(??)MAP[00:[00],01:[01],02:[02],03:[03],mmc:(un)]s(0)Z?S?*/(barrier)
;------------------------------------------
JumpTableEntry_07CF
	$87CF  A5 4E:       lda $4E			/* A(??)X(??)Y(??)MAP[00:[00],01:[01],02:[02],03:[03],mmc:(un)]s(0)Z?S?*/
	$87D1  38:          sec 			/* A(??)X(??)Y(??)MAP[00:[00],01:[01],02:[02],03:[03],mmc:(un)]s(0)Z?S?*/
	$87D2  E5 60:       sbc $60			/* A(??)X(??)Y(??)MAP[00:[00],01:[01],02:[02],03:[03],mmc:(un)]s(0)Z?S?*/
	$87D4  A5 4F:       lda $4F			/* A(??)X(??)Y(??)MAP[00:[00],01:[01],02:[02],03:[03],mmc:(un)]s(0)Z?S?*/
	$87D6  E5 61:       sbc $61			/* A(??)X(??)Y(??)MAP[00:[00],01:[01],02:[02],03:[03],mmc:(un)]s(0)Z?S?*/
	$87D8  B0 06:       bcs +		; $87E0			/* A(??)X(??)Y(??)MAP[00:[00],01:[01],02:[02],03:[03],mmc:(un)]s(0)Z?S?*/
	$87DA  20 D7 B6:    jsr _func_36D7			/* A(??)X(??)Y(??)MAP[00:(??),01:(??),02:(??),03:(??),mmc:(un)]s(0)Z?S?*/
	$87DD  4C DF 84:    jmp _loc_04DF			/* A(??)X(??)Y(??)MAP[00:[00],01:[01],02:[02],03:[03],mmc:(un)]s(0)Z?S?*/(barrier)

+	$87E0  A9 FF:       lda #$FF			/* A(??)X(??)Y(??)MAP[00:[00],01:[01],02:[02],03:[03],mmc:(un)]s(0)Z?S?*/
	$87E2  85 5F:       sta $5F			/* A(FF)<7E0>X(??)Y(??)MAP[00:[00],01:[01],02:[02],03:[03],mmc:(un)]s(0)Z0S1*/
	$87E4  4C F6 84:    jmp JumpTableEntry_04F6			/* A(FF)<7E0>X(??)Y(??)MAP[00:[00],01:[01],02:[02],03:[03],mmc:(un)]s(0)Z0S1*/(barrier)
;------------------------------------------
JumpTableEntry_07E7
	$87E7  CE 93 03:    dec $0393			/* A(??)X(??)Y(??)MAP[00:[00],01:[01],02:[02],03:[03],mmc:(un)]s(0)Z?S?*/
	$87EA  10 06:       bpl +		; $87F2			/* A(??)X(??)Y(??)MAP[00:[00],01:[01],02:[02],03:[03],mmc:(un)]s(0)Z?S?*/
	$87EC  A5 5F:       lda $5F			/* A(??)X(??)Y(??)MAP[00:[00],01:[01],02:[02],03:[03],mmc:(un)]s(0)Z?S?*/
	$87EE  09 10:       ora #$10			/* A(??)X(??)Y(??)MAP[00:[00],01:[01],02:[02],03:[03],mmc:(un)]s(0)Z?S?*/
	$87F0  85 5F:       sta $5F			/* A(??)X(??)Y(??)MAP[00:[00],01:[01],02:[02],03:[03],mmc:(un)]s(0)Z?S?*/
+	$87F2  A2 90:       ldx #$90			/* A(??)X(??)Y(??)MAP[00:[00],01:[01],02:[02],03:[03],mmc:(un)]s(0)Z?S?*/
	$87F4  8E 90 03:    stx $0390			/* A(??)X(90)<7F2>Y(??)MAP[00:[00],01:[01],02:[02],03:[03],mmc:(un)]s(0)Z0S1*/
	$87F7  A5 1D:       lda $1D			/* A(??)X(90)<7F2>Y(??)MAP[00:[00],01:[01],02:[02],03:[03],mmc:(un)]s(0)Z?S?*/
	$87F9  29 01:       and #$01			/* A(??)X(90)<7F2>Y(??)MAP[00:[00],01:[01],02:[02],03:[03],mmc:(un)]s(0)Z?S?*/
	$87FB  D0 11:       bne +		; $880E			/* A(??)X(90)<7F2>Y(??)MAP[00:[00],01:[01],02:[02],03:[03],mmc:(un)]s(0)Z?S?*/
	$87FD  EE 91 03:    inc $0391			/* A(??)X(90)<7F2>Y(??)MAP[00:[00],01:[01],02:[02],03:[03],mmc:(un)]s(0)Z?S?*/
	$8800  EE 92 03:    inc $0392			/* A(??)X(90)<7F2>Y(??)MAP[00:[00],01:[01],02:[02],03:[03],mmc:(un)]s(0)Z?S?*/
	$8803  AD 94 03:    lda $0394			/* A(??)X(90)<7F2>Y(??)MAP[00:[00],01:[01],02:[02],03:[03],mmc:(un)]s(0)Z?S?*/
	$8806  10 06:       bpl +		; $880E			/* A(??)X(90)<7F2>Y(??)MAP[00:[00],01:[01],02:[02],03:[03],mmc:(un)]s(0)Z?S?*/
	$8808  CE 92 03:    dec $0392			/* A(??)X(90)<7F2>Y(??)MAP[00:[00],01:[01],02:[02],03:[03],mmc:(un)]s(0)Z?S?*/
	$880B  CE 92 03:    dec $0392			/* A(??)X(90)<7F2>Y(??)MAP[00:[00],01:[01],02:[02],03:[03],mmc:(un)]s(0)Z?S?*/
+	$880E  AD 91 03:    lda $0391			/* A(??)X(90)<7F2>Y(??)MAP[00:[00],01:[01],02:[02],03:[03],mmc:(un)]s(0)Z?S?*/
	$8811  85 11:       sta $11			/* A(??)X(90)<7F2>Y(??)MAP[00:[00],01:[01],02:[02],03:[03],mmc:(un)]s(0)Z?S?*/
	$8813  AD 92 03:    lda $0392			/* A(??)X(90)<7F2>Y(??)MAP[00:[00],01:[01],02:[02],03:[03],mmc:(un)]s(0)Z?S?*/
	$8816  85 10:       sta $10			/* A(??)X(90)<7F2>Y(??)MAP[00:[00],01:[01],02:[02],03:[03],mmc:(un)]s(0)Z?S?*/
	$8818  A9 C4:       lda #>_data_4491			/* A(C4)<818>X(90)<7F2>Y(??)MAP[00:[00],01:[01],02:[02],03:[03],mmc:(un)]s(0)Z0S1*/
	$881A  85 14:       sta $14			/* A(C4)<818>X(90)<7F2>Y(??)MAP[00:[00],01:[01],02:[02],03:[03],mmc:(un)]s(0)Z0S1*/
	$881C  A9 91:       lda #<_data_4491			/* A(91)<81C>X(90)<7F2>Y(??)MAP[00:[00],01:[01],02:[02],03:[03],mmc:(un)]s(0)Z0S1*/
	$881E  85 13:       sta $13			/* A(91)<81C>X(90)<7F2>Y(??)MAP[00:[00],01:[01],02:[02],03:[03],mmc:(un)]s(0)Z0S1*/
	$8820  AD 94 03:    lda $0394			/* A(??)X(90)<7F2>Y(??)MAP[00:[00],01:[01],02:[02],03:[03],mmc:(un)]s(0)Z?S?*/
	$8823  10 04:       bpl +		; $8829			/* A(??)X(90)<7F2>Y(??)MAP[00:[00],01:[01],02:[02],03:[03],mmc:(un)]s(0)Z?S?*/
	$8825  A9 82:       lda #$82			/* A(82)<825>X(90)<7F2>Y(??)MAP[00:[00],01:[01],02:[02],03:[03],mmc:(un)]s(0)Z0S1*/
	$8827  D0 02:       bne ++		; $882B			/* A(82)<825>X(90)<7F2>Y(??)MAP[00:[00],01:[01],02:[02],03:[03],mmc:(un)]s(0)Z0S1*/(barrier)

+	$8829  A9 83:       lda #$83			/* A(??)X(90)<7F2>Y(??)MAP[00:[00],01:[01],02:[02],03:[03],mmc:(un)]s(0)Z0S1*/
++	$882B  85 12:       sta $12			/* A(??)X(90)<7F2>Y(??)MAP[00:[00],01:[01],02:[02],03:[03],mmc:(un)]s(0)Z0S1*/
	$882D  20 02 9F:    jsr _func_1F02			/* A(??)X(??)Y(??)MAP[00:(??),01:(??),02:(??),03:(??),mmc:(un)]s(0)Z?S?*/
	$8830  20 86 95:    jsr _func_1586			/* A(??)X(??)Y(??)MAP[00:(??),01:(??),02:(??),03:(??),mmc:(un)]s(0)Z?S?*/
	$8833  20 7F 85:    jsr _func_057F			/* A(??)X(??)Y(??)MAP[00:(??),01:(??),02:(??),03:(??),mmc:(un)]s(0)Z?S?*/
	$8836  4C 56 84:    jmp ---		; $8456			/* A(83)<829>X(90)<7F2>Y(??)MAP[00:[00],01:[01],02:[02],03:[03],mmc:(un)]s(0)Z?S?*/(barrier)
;------------------------------------------
_func_0839
	$8839  A5 4E:       lda $4E			/* A(83)<829>X(90)<7F2>Y(??)MAP[00:[00],01:[01],02:[02],03:[03],mmc:(un)]s(0)Z?S?*/
	$883B  38:          sec 			/* A(??)X(??)Y(??)MAP[00:[00],01:[01],02:[02],03:[03],mmc:(un)]s(0)Z?S?*/
	$883C  E9 04:       sbc #$04			/* A(??)X(??)Y(??)MAP[00:[00],01:[01],02:[02],03:[03],mmc:(un)]s(0)Z?S?*/
	$883E  85 10:       sta $10			/* A(??)X(??)Y(??)MAP[00:[00],01:[01],02:[02],03:[03],mmc:(un)]s(0)Z?S?*/
	$8840  A5 4F:       lda $4F			/* A(??)X(??)Y(??)MAP[00:[00],01:[01],02:[02],03:[03],mmc:(un)]s(0)Z?S?*/
	$8842  E9 02:       sbc #$02			/* A(??)X(??)Y(??)MAP[00:[00],01:[01],02:[02],03:[03],mmc:(un)]s(0)Z?S?*/
	$8844  D0 20:       bne ++		; $8866			/* A(??)X(??)Y(??)MAP[00:[00],01:[01],02:[02],03:[03],mmc:(un)]s(0)Z?S?*/
	$8846  A5 10:       lda $10			/* A(??)X(??)Y(??)MAP[00:[00],01:[01],02:[02],03:[03],mmc:(un)]s(0)Z?S?*/
	$8848  C9 30:       cmp #$30			/* A(??)X(??)Y(??)MAP[00:[00],01:[01],02:[02],03:[03],mmc:(un)]s(0)Z?S?*/
	$884A  B0 1A:       bcs ++		; $8866			/* A(??)X(??)Y(??)MAP[00:[00],01:[01],02:[02],03:[03],mmc:(un)]s(0)Z?S?*/
	$884C  C9 10:       cmp #$10			/* A(??)X(??)Y(??)MAP[00:[00],01:[01],02:[02],03:[03],mmc:(un)]s(0)Z?S?*/
	$884E  B0 06:       bcs +		; $8856			/* A(??)X(??)Y(??)MAP[00:[00],01:[01],02:[02],03:[03],mmc:(un)]s(0)Z?S?*/
--	$8850  A9 BE:       lda #$BE			/* A(??)X(??)Y(??)MAP[00:[00],01:[01],02:[02],03:[03],mmc:(un)]s(0)Z?S?*/
	$8852  8D 01 07:    sta $0701			/* A(BE)<850>X(??)Y(??)MAP[00:[00],01:[01],02:[02],03:[03],mmc:(un)]s(0)Z0S1*/
	$8855  60:          rts 			/* A(BE)<850>X(??)Y(??)MAP[00:[00],01:[01],02:[02],03:[03],mmc:(un)]s(0)Z0S1*/(barrier)

+ -	$8856  A9 AC:       lda #<_data_3FAC_indexed			/* A(??)X(??)Y(??)MAP[00:[00],01:[01],02:[02],03:[03],mmc:(un)]s(0)Z?S?*/
	$8858  8D 00 07:    sta $0700			/* A(AC)<856>X(??)Y(??)MAP[00:[00],01:[01],02:[02],03:[03],mmc:(un)]s(0)Z0S1*/
	$885B  A9 BF:       lda #>_data_3FAC_indexed			/* A(BF)<85B>X(??)Y(??)MAP[00:[00],01:[01],02:[02],03:[03],mmc:(un)]s(0)Z0S1*/
	$885D  8D 01 07:    sta $0701			/* A(BF)<85B>X(??)Y(??)MAP[00:[00],01:[01],02:[02],03:[03],mmc:(un)]s(0)Z0S1*/
	$8860  A9 F0:       lda #$F0			/* A(F0)<860>X(??)Y(??)MAP[00:[00],01:[01],02:[02],03:[03],mmc:(un)]s(0)Z0S1*/
	$8862  8D 04 07:    sta $0704			/* A(F0)<860>X(??)Y(??)MAP[00:[00],01:[01],02:[02],03:[03],mmc:(un)]s(0)Z0S1*/
	$8865  60:          rts 			/* A(F0)<860>X(??)Y(??)MAP[00:[00],01:[01],02:[02],03:[03],mmc:(un)]s(0)Z0S1*/(barrier)

++	$8866  A5 6A:       lda $6A			/* A(??)X(??)Y(??)MAP[00:[00],01:[01],02:[02],03:[03],mmc:(un)]s(0)Z?S?*/
	$8868  38:          sec 			/* A(??)X(??)Y(??)MAP[00:[00],01:[01],02:[02],03:[03],mmc:(un)]s(0)Z?S?*/
	$8869  E5 4E:       sbc $4E			/* A(??)X(??)Y(??)MAP[00:[00],01:[01],02:[02],03:[03],mmc:(un)]s(0)Z?S?*/
	$886B  85 10:       sta $10			/* A(??)X(??)Y(??)MAP[00:[00],01:[01],02:[02],03:[03],mmc:(un)]s(0)Z?S?*/
	$886D  A5 6B:       lda $6B			/* A(??)X(??)Y(??)MAP[00:[00],01:[01],02:[02],03:[03],mmc:(un)]s(0)Z?S?*/
	$886F  E5 4F:       sbc $4F			/* A(??)X(??)Y(??)MAP[00:[00],01:[01],02:[02],03:[03],mmc:(un)]s(0)Z?S?*/
	$8871  D0 0A:       bne +		; $887D			/* A(??)X(??)Y(??)MAP[00:[00],01:[01],02:[02],03:[03],mmc:(un)]s(0)Z?S?*/
	$8873  A5 10:       lda $10			/* A(??)X(??)Y(??)MAP[00:[00],01:[01],02:[02],03:[03],mmc:(un)]s(0)Z?S?*/
	$8875  C9 10:       cmp #$10			/* A(??)X(??)Y(??)MAP[00:[00],01:[01],02:[02],03:[03],mmc:(un)]s(0)Z?S?*/
	$8877  90 D7:       bcc --		; $8850			/* A(??)X(??)Y(??)MAP[00:[00],01:[01],02:[02],03:[03],mmc:(un)]s(0)Z?S?*/
	$8879  C9 20:       cmp #$20			/* A(??)X(??)Y(??)MAP[00:[00],01:[01],02:[02],03:[03],mmc:(un)]s(0)Z?S?*/
	$887B  90 D9:       bcc -		; $8856			/* A(??)X(??)Y(??)MAP[00:[00],01:[01],02:[02],03:[03],mmc:(un)]s(0)Z?S?*/
+	$887D  A9 A8:       lda #<_loc_40A8			/* A(??)X(??)Y(??)MAP[00:[00],01:[01],02:[02],03:[03],mmc:(un)]s(0)Z?S?*/
	$887F  8D 00 07:    sta $0700			/* A(A8)<87D>X(??)Y(??)MAP[00:[00],01:[01],02:[02],03:[03],mmc:(un)]s(0)Z0S1*/
	$8882  A9 C0:       lda #>_loc_40A8			/* A(C0)<882>X(??)Y(??)MAP[00:[00],01:[01],02:[02],03:[03],mmc:(un)]s(0)Z0S1*/
	$8884  8D 01 07:    sta $0701			/* A(C0)<882>X(??)Y(??)MAP[00:[00],01:[01],02:[02],03:[03],mmc:(un)]s(0)Z0S1*/
	$8887  A9 B0:       lda #$B0			/* A(B0)<887>X(??)Y(??)MAP[00:[00],01:[01],02:[02],03:[03],mmc:(un)]s(0)Z0S1*/
	$8889  8D 04 07:    sta $0704			/* A(B0)<887>X(??)Y(??)MAP[00:[00],01:[01],02:[02],03:[03],mmc:(un)]s(0)Z0S1*/
	$888C  60:          rts 			/* A(B0)<887>X(??)Y(??)MAP[00:[00],01:[01],02:[02],03:[03],mmc:(un)]s(0)Z0S1*/(barrier)
;------------------------------------------
_func_088D
	$888D  A5 6C:       lda $6C			/* A(??)X(??)Y(??)MAP[00:[00],01:[01],02:[02],03:[03],mmc:(un)]s(0)Z?S?*/
	$888F  30 0F:       bmi +		; $88A0 -> rts			/* A(??)X(??)Y(??)MAP[00:[00],01:[01],02:[02],03:[03],mmc:(un)]s(0)Z?S?*/
	$8891  C6 6C:       dec $6C			/* A(??)X(??)Y(??)MAP[00:[00],01:[01],02:[02],03:[03],mmc:(un)]s(0)Z?S?*/
	$8893  10 0B:       bpl +		; $88A0 -> rts			/* A(??)X(??)Y(??)MAP[00:[00],01:[01],02:[02],03:[03],mmc:(un)]s(0)Z?S?*/
	$8895  A9 F0:       lda #$F0			/* A(F0)<895>X(??)Y(??)MAP[00:[00],01:[01],02:[02],03:[03],mmc:(un)]s(0)Z0S1*/
	$8897  8D D0 07:    sta $07D0			/* A(F0)<895>X(??)Y(??)MAP[00:[00],01:[01],02:[02],03:[03],mmc:(un)]s(0)Z0S1*/
	$889A  8D D4 07:    sta $07D4			/* A(F0)<895>X(??)Y(??)MAP[00:[00],01:[01],02:[02],03:[03],mmc:(un)]s(0)Z0S1*/
	$889D  8D D8 07:    sta $07D8			/* A(F0)<895>X(??)Y(??)MAP[00:[00],01:[01],02:[02],03:[03],mmc:(un)]s(0)Z0S1*/
+	$88A0  60:          rts 			/* A(F0)<895>X(??)Y(??)MAP[00:[00],01:[01],02:[02],03:[03],mmc:(un)]s(0)Z0S1*/(barrier)
;------------------------------------------
_func_08A1
	$88A1  A8:          tay 			/* A(??)X(??)Y(??)MAP[00:[00],01:[01],02:[02],03:[03],mmc:(un)]s(0)Z?S?*/
	$88A2  A5 31:       lda $31			/* A(??)X(??)Y(03)<8A1>MAP[00:[00],01:[01],02:[02],03:[03],mmc:(un)]s(0)Z?S?*/
	$88A4  30 1A:       bmi ++		; $88C0 -> rts			/* A(??)X(??)Y(03)<8A1>MAP[00:[00],01:[01],02:[02],03:[03],mmc:(un)]s(0)Z?S?*/
	$88A6  A5 FC:       lda $FC			/* A(??)X(??)Y(03)<8A1>MAP[00:[00],01:[01],02:[02],03:[03],mmc:(un)]s(0)Z?S?*/
	$88A8  30 0B:       bmi +		; $88B5			/* A(??)X(??)Y(03)<8A1>MAP[00:[00],01:[01],02:[02],03:[03],mmc:(un)]s(0)Z?S?*/
	$88AA  B9 C1 88:    lda _data_08C1_indexed,y			/* A$08C1,y<8AA>X(??)Y(03)<8A1>MAP[00:[00],01:[01],02:[02],03:[03],mmc:(un)]s(0)Z?S?*/
	$88AD  18:          clc 			/* A$08C1,y<8AA>X(??)Y(03)<8A1>MAP[00:[00],01:[01],02:[02],03:[03],mmc:(un)]s(0)Z?S?*/
	$88AE  65 25:       adc $25			/* A(??)X(??)Y(03)<8A1>MAP[00:[00],01:[01],02:[02],03:[03],mmc:(un)]s(0)Z?S?*/
	$88B0  85 25:       sta $25			/* A(??)X(??)Y(03)<8A1>MAP[00:[00],01:[01],02:[02],03:[03],mmc:(un)]s(0)Z?S?*/
	$88B2  4C FC 8F:    jmp _func_0FFC			/* A(??)X(??)Y(03)<8A1>MAP[00:[00],01:[01],02:[02],03:[03],mmc:(un)]s(0)Z?S?*/(barrier)

+	$88B5  B9 C1 88:    lda _data_08C1_indexed,y			/* A$08C1,y<8B5>X(??)Y(03)<8A1>MAP[00:[00],01:[01],02:[02],03:[03],mmc:(un)]s(0)Z?S?*/
	$88B8  18:          clc 			/* A$08C1,y<8B5>X(??)Y(03)<8A1>MAP[00:[00],01:[01],02:[02],03:[03],mmc:(un)]s(0)Z?S?*/
	$88B9  65 27:       adc $27			/* A(??)X(??)Y(03)<8A1>MAP[00:[00],01:[01],02:[02],03:[03],mmc:(un)]s(0)Z?S?*/
	$88BB  85 27:       sta $27			/* A(??)X(??)Y(03)<8A1>MAP[00:[00],01:[01],02:[02],03:[03],mmc:(un)]s(0)Z?S?*/
	$88BD  4C FC 8F:    jmp _func_0FFC			/* A(??)X(??)Y(03)<8A1>MAP[00:[00],01:[01],02:[02],03:[03],mmc:(un)]s(0)Z?S?*/(barrier)

++	$88C0  60:          rts 			/* A(??)X(??)Y(03)<8A1>MAP[00:[00],01:[01],02:[02],03:[03],mmc:(un)]s(0)Z?S?*/(barrier)
;------------------------------------------
_data_08C1_indexed
	$88C1               .byte $01,$01,$02,$03,$04,$05,$06
_func_08C8
	$88C8  A2 1F:       ldx #$1F			/* A(10)<7A>X(1F)<8C8>Y(??)MAP[00:[00],01:[01],02:[02],03:[03],mmc:(un)]s(0)Z0S0*/
-	$88CA  BD D3 88:    lda _data_08D3_indexed,x			/* A$08D3,x<8CA>X(1F)<8C8>Y(??)MAP[00:[00],01:[01],02:[02],03:[03],mmc:(un)]s(0)Z?S?*/
	$88CD  95 A3:       sta $A3,x			/* A$08D3,x<8CA>X(1F)<8C8>Y(??)MAP[00:[00],01:[01],02:[02],03:[03],mmc:(un)]s(0)Z?S?*/
	$88CF  CA:          dex 			/* A$08D3,x<8CA>X(??)Y(??)MAP[00:[00],01:[01],02:[02],03:[03],mmc:(un)]s(0)Z?S?*/
	$88D0  10 F8:       bpl -		; $88CA			/* A$08D3,x<8CA>X(??)Y(??)MAP[00:[00],01:[01],02:[02],03:[03],mmc:(un)]s(0)Z?S?*/
	$88D2  60:          rts 			/* A$08D3,x<8CA>X(??)Y(??)MAP[00:[00],01:[01],02:[02],03:[03],mmc:(un)]s(0)Z?S?*/(barrier)
;------------------------------------------
_data_08D3_indexed
	$88D3               .byte $1A,$06,$0F,$20,$1A,$22,$28,$20,$1A,$0F,$20,$16,$1A,$12,$1C,$20
	$88E3               .byte $1A,$27,$12,$16,$1A,$26,$0F,$20,$1A,$27,$16,$0F,$1A,$27,$3B,$15
---	$88F3  20 B7 89:    jsr _func_09B7			/* A(??)X(??)Y(??)MAP[00:(??),01:(??),02:(??),03:(??),mmc:(un)]s(0)Z?S?*/
	$88F6  A9 00:       lda #$00			/* A(00)<8F6>X(??)Y(??)MAP[00:[00],01:[01],02:[02],03:[03],mmc:(un)]s(0)Z1S0*/
	$88F8  85 34:       sta $34			/* A(00)<8F6>X(??)Y(??)MAP[00:[00],01:[01],02:[02],03:[03],mmc:(un)]s(0)Z1S0*/
	$88FA  60:          rts 			/* A(00)<8F6>X(??)Y(??)MAP[00:[00],01:[01],02:[02],03:[03],mmc:(un)]s(0)Z1S0*/(barrier)
;------------------------------------------
_func_08FB
	$88FB  A9 80:       lda #$80			/* A(80)<8FB>X(??)Y(??)MAP[00:[00],01:[01],02:[02],03:[03],mmc:(un)]s(0)Z0S1*/
	$88FD  85 34:       sta $34			/* A(80)<8FB>X(??)Y(??)MAP[00:[00],01:[01],02:[02],03:[03],mmc:(un)]s(0)Z0S1*/
	$88FF  20 AD 89:    jsr _func_09AD			/* A(??)X(??)Y(??)MAP[00:(??),01:(??),02:(??),03:(??),mmc:(un)]s(0)Z?S?*/
--	$8902  A5 EB:       lda $EB			/* A(??)X(??)Y(??)MAP[00:[00],01:[01],02:[02],03:[03],mmc:(un)]s(0)Z?S?*/
	$8904  29 0C:       and #$0C			/* A(??)X(??)Y(??)MAP[00:[00],01:[01],02:[02],03:[03],mmc:(un)]s(0)Z?S?*/
	$8906  D0 FA:       bne --		; $8902			/* A(??)X(??)Y(??)MAP[00:[00],01:[01],02:[02],03:[03],mmc:(un)]s(0)Z?S?*/
	$8908  A9 00:       lda #$00			/* A(00)<908>X(??)Y(??)MAP[00:[00],01:[01],02:[02],03:[03],mmc:(un)]s(0)Z1S0*/
	$890A  85 20:       sta $20			/* A(00)<908>X(??)Y(??)MAP[00:[00],01:[01],02:[02],03:[03],mmc:(un)]s(0)Z1S0*/
	$890C  A9 40:       lda #$40			/* A(40)<90C>X(??)Y(??)MAP[00:[00],01:[01],02:[02],03:[03],mmc:(un)]s(0)Z0S0*/
	$890E  85 1F:       sta $1F			/* A(40)<90C>X(??)Y(??)MAP[00:[00],01:[01],02:[02],03:[03],mmc:(un)]s(0)Z0S0*/
-	$8910  A5 20:       lda $20			/* A(??)X(??)Y(??)MAP[00:[00],01:[01],02:[02],03:[03],mmc:(un)]s(0)Z?S?*/
	$8912  C9 02:       cmp #$02			/* A(??)X(??)Y(??)MAP[00:[00],01:[01],02:[02],03:[03],mmc:(un)]s(0)Z?S?*/
	$8914  B0 DD:       bcs ---		; $88F3			/* A(??)X(??)Y(??)MAP[00:[00],01:[01],02:[02],03:[03],mmc:(un)]s(0)Z?S?*/
	$8916  A5 EB:       lda $EB			/* A(??)X(??)Y(??)MAP[00:[00],01:[01],02:[02],03:[03],mmc:(un)]s(0)Z?S?*/
	$8918  48:          pha 			/* A(??)X(??)Y(??)MAP[00:[00],01:[01],02:[02],03:[03],mmc:(un)]s(1)Z?S?*/
	$8919  29 08:        and #$08			/* A(??)X(??)Y(??)MAP[00:[00],01:[01],02:[02],03:[03],mmc:(un)]s(1)Z?S?*/
	$891B  D0 29:        bne ++		; $8946			/* A(??)X(??)Y(??)MAP[00:[00],01:[01],02:[02],03:[03],mmc:(un)]s(1)Z?S?*/
	$891D  68:          pla 			/* A(??)X(??)Y(??)MAP[00:[00],01:[01],02:[02],03:[03],mmc:(un)]s(0)Z?S?*/
	$891E  29 04:       and #$04			/* A(??)X(??)Y(??)MAP[00:[00],01:[01],02:[02],03:[03],mmc:(un)]s(0)Z?S?*/
	$8920  F0 09:       beq +		; $892B			/* A(??)X(??)Y(??)MAP[00:[00],01:[01],02:[02],03:[03],mmc:(un)]s(0)Z?S?*/
	$8922  A5 33:       lda $33			/* A(??)X(??)Y(??)MAP[00:[00],01:[01],02:[02],03:[03],mmc:(un)]s(0)Z?S?*/
	$8924  49 80:       eor #$80			/* A(??)X(??)Y(??)MAP[00:[00],01:[01],02:[02],03:[03],mmc:(un)]s(0)Z?S?*/
	$8926  85 33:       sta $33			/* A(??)X(??)Y(??)MAP[00:[00],01:[01],02:[02],03:[03],mmc:(un)]s(0)Z?S?*/
	$8928  4C 02 89:    jmp --		; $8902			/* A(??)X(??)Y(??)MAP[00:[00],01:[01],02:[02],03:[03],mmc:(un)]s(0)Z?S?*/(barrier)

+	$892B  A5 EB:       lda $EB			/* A(??)X(??)Y(??)MAP[00:[00],01:[01],02:[02],03:[03],mmc:(un)]s(0)Z?S?*/
	$892D  29 30:       and #$30			/* A(??)X(??)Y(??)MAP[00:[00],01:[01],02:[02],03:[03],mmc:(un)]s(0)Z?S?*/
	$892F  F0 DF:       beq -		; $8910			/* A(??)X(??)Y(??)MAP[00:[00],01:[01],02:[02],03:[03],mmc:(un)]s(0)Z?S?*/
	$8931  29 20:       and #$20			/* A(??)X(??)Y(??)MAP[00:[00],01:[01],02:[02],03:[03],mmc:(un)]s(0)Z?S?*/
	$8933  F0 08:       beq +		; $893D			/* A(??)X(??)Y(??)MAP[00:[00],01:[01],02:[02],03:[03],mmc:(un)]s(0)Z?S?*/
	$8935  A5 33:       lda $33			/* A(??)X(??)Y(??)MAP[00:[00],01:[01],02:[02],03:[03],mmc:(un)]s(0)Z?S?*/
	$8937  09 80:       ora #$80			/* A(??)X(??)Y(??)MAP[00:[00],01:[01],02:[02],03:[03],mmc:(un)]s(0)Z?S?*/
	$8939  85 33:       sta $33			/* A(??)X(??)Y(??)MAP[00:[00],01:[01],02:[02],03:[03],mmc:(un)]s(0)Z?S?*/
	$893B  D0 C5:       bne --		; $8902			/* A(??)X(??)Y(??)MAP[00:[00],01:[01],02:[02],03:[03],mmc:(un)]s(0)Z?S?*/
+	$893D  A5 33:       lda $33			/* A(??)X(??)Y(??)MAP[00:[00],01:[01],02:[02],03:[03],mmc:(un)]s(0)Z?S?*/
	$893F  29 7F:       and #$7F			/* A(??)X(??)Y(??)MAP[00:[00],01:[01],02:[02],03:[03],mmc:(un)]s(0)Z?S?*/
	$8941  85 33:       sta $33			/* A(??)X(??)Y(??)MAP[00:[00],01:[01],02:[02],03:[03],mmc:(un)]s(0)Z?S?*/
	$8943  4C 02 89:    jmp --		; $8902			/* A(??)X(??)Y(??)MAP[00:[00],01:[01],02:[02],03:[03],mmc:(un)]s(0)Z?S?*/(barrier)

++	$8946  68:          pla 			/* A(??)X(??)Y(??)MAP[00:[00],01:[01],02:[02],03:[03],mmc:(un)]s(0)Z?S?*/
	$8947  20 B7 89:    jsr _func_09B7			/* A(??)X(??)Y(??)MAP[00:(??),01:(??),02:(??),03:(??),mmc:(un)]s(0)Z?S?*/
	$894A  A9 00:       lda #$00			/* A(00)<94A>X(??)Y(??)MAP[00:[00],01:[01],02:[02],03:[03],mmc:(un)]s(0)Z1S0*/
	$894C  85 34:       sta $34			/* A(00)<94A>X(??)Y(??)MAP[00:[00],01:[01],02:[02],03:[03],mmc:(un)]s(0)Z1S0*/
	$894E  68:          pla 			/* A(??)X(??)Y(??)MAP[00:[00],01:[01],02:[02],03:[03],mmc:(un)]s(0)Z?S?*/
	$894F  68:          pla 			/* A(??)X(??)Y(??)MAP[00:[00],01:[01],02:[02],03:[03],mmc:(un)]s(0)Z?S?*/
	$8950  4C 69 80:    jmp _loc_0069			/* A(??)X(??)Y(??)MAP[00:[00],01:[01],02:[02],03:[03],mmc:(un)]s(0)Z?S?*/(barrier)
;------------------------------------------
_func_0953
	$8953  A9 00:       lda #$00			/* A(00)<953>X(??)Y(??)MAP[00:[00],01:[01],02:[02],03:[03],mmc:(un)]s(0)Z?S?*/
	$8955  8D 01 20:    sta $2001			/* A(00)<953>X(??)Y(??)MAP[00:[00],01:[01],02:[02],03:[03],mmc:(un)]s(0)Z1S0*/
	$8958  AD 02 20:    lda $2002			/* A(??)X(??)Y(??)MAP[00:[00],01:[01],02:[02],03:[03],mmc:(un)]s(0)Z?S?*/
	$895B  A5 33:       lda $33			/* A(??)X(??)Y(??)MAP[00:[00],01:[01],02:[02],03:[03],mmc:(un)]s(0)Z?S?*/
	$895D  10 1A:       bpl +		; $8979			/* A(??)X(??)Y(??)MAP[00:[00],01:[01],02:[02],03:[03],mmc:(un)]s(0)Z?S?*/
	$895F  A9 22:       lda #$22			/* A(22)<95F>X(??)Y(??)MAP[00:[00],01:[01],02:[02],03:[03],mmc:(un)]s(0)Z0S0*/
	$8961  A0 4A:       ldy #$4A			/* A(22)<95F>X(??)Y(4A)<961>MAP[00:[00],01:[01],02:[02],03:[03],mmc:(un)]s(0)Z0S0*/
	$8963  20 74 94:    jsr _func_1474			/* A(??)X(??)Y(??)MAP[00:(??),01:(??),02:(??),03:(??),mmc:(un)]s(0)Z?S?*/
	$8966  A9 30:       lda #$30			/* A(30)<966>X(??)Y(4A)<961>MAP[00:[00],01:[01],02:[02],03:[03],mmc:(un)]s(0)Z0S0*/
	$8968  8D 07 20:    sta $2007			/* A(30)<966>X(??)Y(4A)<961>MAP[00:[00],01:[01],02:[02],03:[03],mmc:(un)]s(0)Z0S0*/
	$896B  A9 22:       lda #$22			/* A(22)<96B>X(??)Y(4A)<961>MAP[00:[00],01:[01],02:[02],03:[03],mmc:(un)]s(0)Z0S0*/
	$896D  A0 8A:       ldy #$8A			/* A(22)<96B>X(??)Y(8A)<96D>MAP[00:[00],01:[01],02:[02],03:[03],mmc:(un)]s(0)Z0S1*/
	$896F  20 74 94:    jsr _func_1474			/* A(??)X(??)Y(??)MAP[00:(??),01:(??),02:(??),03:(??),mmc:(un)]s(0)Z?S?*/
	$8972  A9 BF:       lda #$BF			/* A(BF)<972>X(??)Y(8A)<96D>MAP[00:[00],01:[01],02:[02],03:[03],mmc:(un)]s(0)Z0S1*/
	$8974  8D 07 20:    sta $2007			/* A(BF)<972>X(??)Y(8A)<96D>MAP[00:[00],01:[01],02:[02],03:[03],mmc:(un)]s(0)Z0S1*/
	$8977  D0 18:       bne ++		; $8991			/* A(BF)<972>X(??)Y(8A)<96D>MAP[00:[00],01:[01],02:[02],03:[03],mmc:(un)]s(0)Z0S1*/(barrier)

+	$8979  A9 22:       lda #$22			/* A(??)X(??)Y(8A)<96D>MAP[00:[00],01:[01],02:[02],03:[03],mmc:(un)]s(0)Z0S?*/
	$897B  A0 4A:       ldy #$4A			/* A(22)<979>X(??)Y(4A)<97B>MAP[00:[00],01:[01],02:[02],03:[03],mmc:(un)]s(0)Z0S0*/
	$897D  20 74 94:    jsr _func_1474			/* A(??)X(??)Y(??)MAP[00:(??),01:(??),02:(??),03:(??),mmc:(un)]s(0)Z?S?*/
	$8980  A9 BF:       lda #$BF			/* A(BF)<980>X(??)Y(4A)<97B>MAP[00:[00],01:[01],02:[02],03:[03],mmc:(un)]s(0)Z0S1*/
	$8982  8D 07 20:    sta $2007			/* A(BF)<980>X(??)Y(4A)<97B>MAP[00:[00],01:[01],02:[02],03:[03],mmc:(un)]s(0)Z0S1*/
	$8985  A9 22:       lda #$22			/* A(22)<985>X(??)Y(4A)<97B>MAP[00:[00],01:[01],02:[02],03:[03],mmc:(un)]s(0)Z0S0*/
	$8987  A0 8A:       ldy #$8A			/* A(22)<985>X(??)Y(8A)<987>MAP[00:[00],01:[01],02:[02],03:[03],mmc:(un)]s(0)Z0S1*/
	$8989  20 74 94:    jsr _func_1474			/* A(??)X(??)Y(??)MAP[00:(??),01:(??),02:(??),03:(??),mmc:(un)]s(0)Z?S?*/
	$898C  A9 30:       lda #$30			/* A(30)<98C>X(??)Y(8A)<987>MAP[00:[00],01:[01],02:[02],03:[03],mmc:(un)]s(0)Z0S0*/
	$898E  8D 07 20:    sta $2007			/* A(30)<98C>X(??)Y(8A)<987>MAP[00:[00],01:[01],02:[02],03:[03],mmc:(un)]s(0)Z0S0*/
++	$8991  A9 1E:       lda #$1E			/* A(??)X(??)Y(8A)<987>MAP[00:[00],01:[01],02:[02],03:[03],mmc:(un)]s(0)Z0S?*/
	$8993  8D 01 20:    sta $2001			/* A(1E)<991>X(??)Y(8A)<987>MAP[00:[00],01:[01],02:[02],03:[03],mmc:(un)]s(0)Z0S0*/
	$8996  4C 37 8F:    jmp _func_0F37			/* A(1E)<991>X(??)Y(8A)<987>MAP[00:[00],01:[01],02:[02],03:[03],mmc:(un)]s(0)Z0S0*/(barrier)
;------------------------------------------
_func_0999
	$8999  A5 4D:       lda $4D			/* A(??)X(??)Y(??)MAP[00:[00],01:[01],02:[02],03:[03],mmc:(un)]s(0)Z?S?*/
	$899B  C9 44:       cmp #$44			/* A(??)X(??)Y(??)MAP[00:[00],01:[01],02:[02],03:[03],mmc:(un)]s(0)Z?S?*/
	$899D  90 05:       bcc +		; $89A4			/* A(??)X(??)Y(??)MAP[00:[00],01:[01],02:[02],03:[03],mmc:(un)]s(0)Z?S?*/
	$899F  C9 95:       cmp #$95			/* A(??)X(??)Y(??)MAP[00:[00],01:[01],02:[02],03:[03],mmc:(un)]s(0)Z?S?*/
	$89A1  B0 05:       bcs ++		; $89A8			/* A(??)X(??)Y(??)MAP[00:[00],01:[01],02:[02],03:[03],mmc:(un)]s(0)Z?S?*/
	$89A3  60:          rts 			/* A(??)X(??)Y(??)MAP[00:[00],01:[01],02:[02],03:[03],mmc:(un)]s(0)Z?S?*/(barrier)

+	$89A4  A9 45:       lda #$45			/* A(45)<9A4>X(??)Y(??)MAP[00:[00],01:[01],02:[02],03:[03],mmc:(un)]s(0)Z0S0*/
	$89A6  D0 02:       bne +++		; $89AA			/* A(45)<9A4>X(??)Y(??)MAP[00:[00],01:[01],02:[02],03:[03],mmc:(un)]s(0)Z0S0*/(barrier)

++	$89A8  A9 94:       lda #$94			/* A(94)<9A8>X(??)Y(??)MAP[00:[00],01:[01],02:[02],03:[03],mmc:(un)]s(0)Z0S1*/
+++	$89AA  85 4D:       sta $4D			/* A(??)X(??)Y(??)MAP[00:[00],01:[01],02:[02],03:[03],mmc:(un)]s(0)Z0S?*/
	$89AC  60:          rts 			/* A(45)<9A4>X(??)Y(??)MAP[00:[00],01:[01],02:[02],03:[03],mmc:(un)]s(0)Z0S0*/(barrier)
;------------------------------------------
_func_09AD
	$89AD  A5 EE:       lda $EE			/* A(00)<1D5>X(??)Y(??)MAP[00:[00],01:[01],02:[02],03:[03],mmc:(un)]s(0)Z?S?*/
	$89AF  09 80:       ora #$80			/* A(??)X(??)Y(??)MAP[00:[00],01:[01],02:[02],03:[03],mmc:(un)]s(0)Z?S?*/
	$89B1  85 EE:       sta $EE			/* A(??)X(??)Y(??)MAP[00:[00],01:[01],02:[02],03:[03],mmc:(un)]s(0)Z?S?*/
	$89B3  8D 00 20:    sta $2000			/* A(??)X(??)Y(??)MAP[00:[00],01:[01],02:[02],03:[03],mmc:(un)]s(0)Z?S?*/
	$89B6  60:          rts 			/* A(??)X(??)Y(??)MAP[00:[00],01:[01],02:[02],03:[03],mmc:(un)]s(0)Z?S?*/(barrier)
;------------------------------------------
_func_09B7
	$89B7  A5 EE:       lda $EE			/* A(??)X(??)Y(??)MAP[00:[00],01:[01],02:[02],03:[03],mmc:(un)]s(0)Z?S?*/
	$89B9  29 7F:       and #$7F			/* A(??)X(??)Y(??)MAP[00:[00],01:[01],02:[02],03:[03],mmc:(un)]s(0)Z?S?*/
	$89BB  8D 00 20:    sta $2000			/* A(??)X(??)Y(??)MAP[00:[00],01:[01],02:[02],03:[03],mmc:(un)]s(0)Z?S?*/
	$89BE  85 EE:       sta $EE			/* A(??)X(??)Y(??)MAP[00:[00],01:[01],02:[02],03:[03],mmc:(un)]s(0)Z?S?*/
	$89C0  60:          rts 			/* A(??)X(??)Y(??)MAP[00:[00],01:[01],02:[02],03:[03],mmc:(un)]s(0)Z?S?*/(barrier)
;------------------------------------------
_func_09C1
	$89C1  A9 C0:       lda #>_data_4010			/* A(C0)<9C1>X(??)Y(??)MAP[00:[00],01:[01],02:[02],03:[03],mmc:(un)]s(0)Z0S1*/
	$89C3  8D 92 03:    sta $0392			/* A(C0)<9C1>X(??)Y(??)MAP[00:[00],01:[01],02:[02],03:[03],mmc:(un)]s(0)Z0S1*/
	$89C6  A9 10:       lda #<_data_4010			/* A(10)<9C6>X(??)Y(??)MAP[00:[00],01:[01],02:[02],03:[03],mmc:(un)]s(0)Z0S0*/
	$89C8  8D 91 03:    sta $0391			/* A(10)<9C6>X(??)Y(??)MAP[00:[00],01:[01],02:[02],03:[03],mmc:(un)]s(0)Z0S0*/
	$89CB  A9 70:       lda #<_data_7F70			/* A(70)<9CB>X(??)Y(??)MAP[00:[00],01:[01],02:[02],03:[03],mmc:(un)]s(0)Z0S0*/
	$89CD  8D 93 03:    sta $0393			/* A(70)<9CB>X(??)Y(??)MAP[00:[00],01:[01],02:[02],03:[03],mmc:(un)]s(0)Z0S0*/
	$89D0  A9 FF:       lda #>_data_7F70			/* A(FF)<9D0>X(??)Y(??)MAP[00:[00],01:[01],02:[02],03:[03],mmc:(un)]s(0)Z0S1*/
	$89D2  8D 94 03:    sta $0394			/* A(FF)<9D0>X(??)Y(??)MAP[00:[00],01:[01],02:[02],03:[03],mmc:(un)]s(0)Z0S1*/
	$89D5  A5 5F:       lda $5F			/* A(??)X(??)Y(??)MAP[00:[00],01:[01],02:[02],03:[03],mmc:(un)]s(0)Z?S?*/
	$89D7  29 40:       and #$40			/* A(??)X(??)Y(??)MAP[00:[00],01:[01],02:[02],03:[03],mmc:(un)]s(0)Z?S?*/
	$89D9  F0 0B:       beq +		; $89E6			/* A(??)X(??)Y(??)MAP[00:[00],01:[01],02:[02],03:[03],mmc:(un)]s(0)Z?S?*/
	$89DB  20 8D BE:    jsr _func_3E8D			/* A(??)X(??)Y(??)MAP[00:(??),01:(??),02:(??),03:(??),mmc:(un)]s(0)Z?S?*/
	$89DE  A9 08:       lda #$08			/* A(08)<9DE>X(??)Y(??)MAP[00:[00],01:[01],02:[02],03:[03],mmc:(un)]s(0)Z0S0*/
	$89E0  8D 92 03:    sta $0392			/* A(08)<9DE>X(??)Y(??)MAP[00:[00],01:[01],02:[02],03:[03],mmc:(un)]s(0)Z0S0*/
	$89E3  8D 94 03:    sta $0394			/* A(08)<9DE>X(??)Y(??)MAP[00:[00],01:[01],02:[02],03:[03],mmc:(un)]s(0)Z0S0*/
+	$89E6  A9 07:       lda #$07			/* A(??)X(??)Y(??)MAP[00:[00],01:[01],02:[02],03:[03],mmc:(un)]s(0)Z0S0*/
	$89E8  85 F4:       sta $F4			/* A(07)<9E6>X(??)Y(??)MAP[00:[00],01:[01],02:[02],03:[03],mmc:(un)]s(0)Z0S0*/
	$89EA  20 AD 89:    jsr _func_09AD			/* A(??)X(??)Y(??)MAP[00:(??),01:(??),02:(??),03:(??),mmc:(un)]s(0)Z?S?*/
-	$89ED  A5 5F:       lda $5F			/* A(??)X(??)Y(??)MAP[00:[00],01:[01],02:[02],03:[03],mmc:(un)]s(0)Z?S?*/
	$89EF  29 10:       and #$10			/* A(??)X(??)Y(??)MAP[00:[00],01:[01],02:[02],03:[03],mmc:(un)]s(0)Z?S?*/
	$89F1  F0 FA:       beq -		; $89ED			/* A(??)X(??)Y(??)MAP[00:[00],01:[01],02:[02],03:[03],mmc:(un)]s(0)Z?S?*/
	$89F3  20 B7 89:    jsr _func_09B7			/* A(??)X(??)Y(??)MAP[00:(??),01:(??),02:(??),03:(??),mmc:(un)]s(0)Z?S?*/
	$89F6  20 31 8D:    jsr _func_0D31			/* A(??)X(??)Y(??)MAP[00:(??),01:(??),02:(??),03:(??),mmc:(un)]s(0)Z?S?*/
	$89F9  20 D5 C0:    jsr _func_40D5			/* A(??)X(??)Y(??)MAP[00:(??),01:(??),02:(??),03:(??),mmc:(un)]s(0)Z?S?*/
	$89FC  A9 00:       lda #$00			/* A(00)<9FC>X(??)Y(??)MAP[00:[00],01:[01],02:[02],03:[03],mmc:(un)]s(0)Z1S0*/
	$89FE  20 95 8A:    jsr _func_0A95			/* A(??)X(??)Y(??)MAP[00:(??),01:(??),02:(??),03:(??),mmc:(un)]s(0)Z?S?*/
	$8A01  A0 08:       ldy #$08			/* A(00)<9FC>X(??)Y(08)<A01>MAP[00:[00],01:[01],02:[02],03:[03],mmc:(un)]s(0)Z0S0*/
	$8A03  A5 5F:       lda $5F			/* A(??)X(??)Y(08)<A01>MAP[00:[00],01:[01],02:[02],03:[03],mmc:(un)]s(0)Z?S?*/
	$8A05  29 20:       and #$20			/* A(??)X(??)Y(08)<A01>MAP[00:[00],01:[01],02:[02],03:[03],mmc:(un)]s(0)Z?S?*/
	$8A07  F0 08:       beq +		; $8A11			/* A(??)X(??)Y(08)<A01>MAP[00:[00],01:[01],02:[02],03:[03],mmc:(un)]s(0)Z?S?*/
	$8A09  20 C3 C0:    jsr _func_40C3			/* A(??)X(??)Y(??)MAP[00:(??),01:(??),02:(??),03:(??),mmc:(un)]s(0)Z?S?*/
	$8A0C  20 61 C1:    jsr _func_4161			/* A(??)X(??)Y(??)MAP[00:(??),01:(??),02:(??),03:(??),mmc:(un)]s(0)Z?S?*/
	$8A0F  A0 09:       ldy #$09			/* A(??)X(??)Y(09)<A0F>MAP[00:[00],01:[01],02:[02],03:[03],mmc:(un)]s(0)Z0S0*/
+	$8A11  84 F4:       sty $F4			/* A(??)X(??)Y(??)MAP[00:[00],01:[01],02:[02],03:[03],mmc:(un)]s(0)Z0S0*/
	$8A13  A9 06:       lda #$06			/* A(06)<A13>X(??)Y(08)<A01>MAP[00:[00],01:[01],02:[02],03:[03],mmc:(un)]s(0)Z0S0*/
	$8A15  85 F1:       sta $F1			/* A(06)<A13>X(??)Y(08)<A01>MAP[00:[00],01:[01],02:[02],03:[03],mmc:(un)]s(0)Z0S0*/
	$8A17  A9 80:       lda #$80			/* A(80)<A17>X(??)Y(08)<A01>MAP[00:[00],01:[01],02:[02],03:[03],mmc:(un)]s(0)Z0S1*/
	$8A19  85 21:       sta $21			/* A(80)<A17>X(??)Y(08)<A01>MAP[00:[00],01:[01],02:[02],03:[03],mmc:(un)]s(0)Z0S1*/
	$8A1B  20 AD 89:    jsr _func_09AD			/* A(??)X(??)Y(??)MAP[00:(??),01:(??),02:(??),03:(??),mmc:(un)]s(0)Z?S?*/
-	$8A1E  A5 21:       lda $21			/* A(??)X(??)Y(08)<A01>MAP[00:[00],01:[01],02:[02],03:[03],mmc:(un)]s(0)Z?S?*/
	$8A20  D0 FC:       bne -		; $8A1E			/* A(??)X(??)Y(08)<A01>MAP[00:[00],01:[01],02:[02],03:[03],mmc:(un)]s(0)Z?S?*/
	$8A22  20 B7 89:    jsr _func_09B7			/* A(??)X(??)Y(??)MAP[00:(??),01:(??),02:(??),03:(??),mmc:(un)]s(0)Z?S?*/
	$8A25  20 28 8D:    jsr _func_0D28			/* A(??)X(??)Y(??)MAP[00:(??),01:(??),02:(??),03:(??),mmc:(un)]s(0)Z?S?*/
	$8A28  A5 23:       lda $23			/* A(??)X(??)Y(08)<A01>MAP[00:[00],01:[01],02:[02],03:[03],mmc:(un)]s(0)Z?S?*/
	$8A2A  05 24:       ora $24			/* A(??)X(??)Y(08)<A01>MAP[00:[00],01:[01],02:[02],03:[03],mmc:(un)]s(0)Z?S?*/
	$8A2C  D0 27:       bne ++		; $8A55			/* A(??)X(??)Y(08)<A01>MAP[00:[00],01:[01],02:[02],03:[03],mmc:(un)]s(0)Z?S?*/
	$8A2E  A5 F4:       lda $F4			/* A(??)X(??)Y(08)<A01>MAP[00:[00],01:[01],02:[02],03:[03],mmc:(un)]s(0)Z?S?*/
	$8A30  C9 09:       cmp #$09			/* A(??)X(??)Y(08)<A01>MAP[00:[00],01:[01],02:[02],03:[03],mmc:(un)]s(0)Z?S?*/
	$8A32  F0 0A:       beq +		; $8A3E			/* A(??)X(??)Y(08)<A01>MAP[00:[00],01:[01],02:[02],03:[03],mmc:(un)]s(0)Z?S?*/
	$8A34  A5 70:       lda $70			/* A(??)X(??)Y(08)<A01>MAP[00:[00],01:[01],02:[02],03:[03],mmc:(un)]s(0)Z?S?*/
	$8A36  30 06:       bmi +		; $8A3E			/* A(??)X(??)Y(08)<A01>MAP[00:[00],01:[01],02:[02],03:[03],mmc:(un)]s(0)Z?S?*/
	$8A38  20 26 C1:    jsr _func_4126			/* A(??)X(??)Y(??)MAP[00:(??),01:(??),02:(??),03:(??),mmc:(un)]s(0)Z?S?*/
	$8A3B  20 73 8D:    jsr _func_0D73			/* A(??)X(??)Y(??)MAP[00:(??),01:(??),02:(??),03:(??),mmc:(un)]s(0)Z?S?*/
+	$8A3E  A9 18:       lda #$18			/* A(??)X(??)Y(08)<A01>MAP[00:[00],01:[01],02:[02],03:[03],mmc:(un)]s(0)Z?S?*/
	$8A40  20 95 8A:    jsr _func_0A95			/* A(??)X(??)Y(??)MAP[00:(??),01:(??),02:(??),03:(??),mmc:(un)]s(0)Z?S?*/
	$8A43  A9 08:       lda #$08			/* A(08)<A43>X(??)Y(08)<A01>MAP[00:[00],01:[01],02:[02],03:[03],mmc:(un)]s(0)Z0S0*/
	$8A45  85 F4:       sta $F4			/* A(08)<A43>X(??)Y(08)<A01>MAP[00:[00],01:[01],02:[02],03:[03],mmc:(un)]s(0)Z0S0*/
	$8A47  A9 80:       lda #$80			/* A(80)<A47>X(??)Y(08)<A01>MAP[00:[00],01:[01],02:[02],03:[03],mmc:(un)]s(0)Z0S1*/
	$8A49  85 21:       sta $21			/* A(80)<A47>X(??)Y(08)<A01>MAP[00:[00],01:[01],02:[02],03:[03],mmc:(un)]s(0)Z0S1*/
	$8A4B  20 AD 89:    jsr _func_09AD			/* A(??)X(??)Y(??)MAP[00:(??),01:(??),02:(??),03:(??),mmc:(un)]s(0)Z?S?*/
-	$8A4E  A5 21:       lda $21			/* A(??)X(??)Y(08)<A01>MAP[00:[00],01:[01],02:[02],03:[03],mmc:(un)]s(0)Z?S?*/
	$8A50  D0 FC:       bne -		; $8A4E			/* A(??)X(??)Y(08)<A01>MAP[00:[00],01:[01],02:[02],03:[03],mmc:(un)]s(0)Z?S?*/
	$8A52  4C B7 89:    jmp _func_09B7			/* A(??)X(??)Y(08)<A01>MAP[00:[00],01:[01],02:[02],03:[03],mmc:(un)]s(0)Z?S?*/(barrier)

++	$8A55  20 28 8D:    jsr _func_0D28			/* A(??)X(??)Y(08)<A01>MAP[00:[00],01:[01],02:[02],03:[03],mmc:(un)]s(0)Z?S?*/
	$8A58  B0 32:       bcs +		; $8A8C -> rts			/* A(??)X(??)Y(08)<A01>MAP[00:[00],01:[01],02:[02],03:[03],mmc:(un)]s(0)Z?S?*/
	$8A5A  A5 70:       lda $70			/* A(??)X(??)Y(08)<A01>MAP[00:[00],01:[01],02:[02],03:[03],mmc:(un)]s(0)Z?S?*/
	$8A5C  30 2E:       bmi +		; $8A8C -> rts			/* A(??)X(??)Y(08)<A01>MAP[00:[00],01:[01],02:[02],03:[03],mmc:(un)]s(0)Z?S?*/
	$8A5E  A5 35:       lda $35			/* A(??)X(??)Y(08)<A01>MAP[00:[00],01:[01],02:[02],03:[03],mmc:(un)]s(0)Z?S?*/
	$8A60  30 2A:       bmi +		; $8A8C -> rts			/* A(??)X(??)Y(08)<A01>MAP[00:[00],01:[01],02:[02],03:[03],mmc:(un)]s(0)Z?S?*/
	$8A62  20 76 C0:    jsr _func_4076			/* A(??)X(??)Y(??)MAP[00:(??),01:(??),02:(??),03:(??),mmc:(un)]s(0)Z?S?*/
	$8A65  20 61 C1:    jsr _func_4161			/* A(??)X(??)Y(??)MAP[00:(??),01:(??),02:(??),03:(??),mmc:(un)]s(0)Z?S?*/
	$8A68  A0 DC:       ldy #$DC			/* A(??)X(??)Y(DC)<A68>MAP[00:[00],01:[01],02:[02],03:[03],mmc:(un)]s(0)Z0S1*/
	$8A6A  A9 50:       lda #$50			/* A(50)<A6A>X(??)Y(DC)<A68>MAP[00:[00],01:[01],02:[02],03:[03],mmc:(un)]s(0)Z0S0*/
	$8A6C  85 2F:       sta $2F			/* A(50)<A6A>X(??)Y(DC)<A68>MAP[00:[00],01:[01],02:[02],03:[03],mmc:(un)]s(0)Z0S0*/
	$8A6E  A9 0E:       lda #$0E			/* A(0E)<A6E>X(??)Y(DC)<A68>MAP[00:[00],01:[01],02:[02],03:[03],mmc:(un)]s(0)Z0S0*/
	$8A70  85 10:       sta $10			/* A(0E)<A6E>X(??)Y(DC)<A68>MAP[00:[00],01:[01],02:[02],03:[03],mmc:(un)]s(0)Z0S0*/
	$8A72  A9 48:       lda #$48			/* A(48)<A72>X(??)Y(DC)<A68>MAP[00:[00],01:[01],02:[02],03:[03],mmc:(un)]s(0)Z0S0*/
	$8A74  A2 07:       ldx #$07			/* A(48)<A72>X(07)<A74>Y(DC)<A68>MAP[00:[00],01:[01],02:[02],03:[03],mmc:(un)]s(0)Z0S0*/
	$8A76  20 D3 92:    jsr _func_12D3			/* A(??)X(??)Y(??)MAP[00:(??),01:(??),02:(??),03:(??),mmc:(un)]s(0)Z?S?*/
	$8A79  A9 30:       lda #$30			/* A(30)<A79>X(07)<A74>Y(DC)<A68>MAP[00:[00],01:[01],02:[02],03:[03],mmc:(un)]s(0)Z0S0*/
	$8A7B  20 95 8A:    jsr _func_0A95			/* A(??)X(??)Y(??)MAP[00:(??),01:(??),02:(??),03:(??),mmc:(un)]s(0)Z?S?*/
	$8A7E  A9 80:       lda #$80			/* A(80)<A7E>X(07)<A74>Y(DC)<A68>MAP[00:[00],01:[01],02:[02],03:[03],mmc:(un)]s(0)Z0S1*/
	$8A80  85 21:       sta $21			/* A(80)<A7E>X(07)<A74>Y(DC)<A68>MAP[00:[00],01:[01],02:[02],03:[03],mmc:(un)]s(0)Z0S1*/
	$8A82  20 AD 89:    jsr _func_09AD			/* A(??)X(??)Y(??)MAP[00:(??),01:(??),02:(??),03:(??),mmc:(un)]s(0)Z?S?*/
-	$8A85  A5 21:       lda $21			/* A(??)X(07)<A74>Y(DC)<A68>MAP[00:[00],01:[01],02:[02],03:[03],mmc:(un)]s(0)Z?S?*/
	$8A87  D0 FC:       bne -		; $8A85			/* A(??)X(07)<A74>Y(DC)<A68>MAP[00:[00],01:[01],02:[02],03:[03],mmc:(un)]s(0)Z?S?*/
	$8A89  20 B7 89:    jsr _func_09B7			/* A(??)X(??)Y(??)MAP[00:(??),01:(??),02:(??),03:(??),mmc:(un)]s(0)Z?S?*/
+	$8A8C  60:          rts 			/* A(??)X(07)<A74>Y(??)MAP[00:[00],01:[01],02:[02],03:[03],mmc:(un)]s(0)Z?S?*/(barrier)

	$8A8D               .byte $E8,$03,$58,$02,$90,$01,$C8,$00
_func_0A95
	$8A95  AE 94 03:    ldx $0394			/* A(18)<A3E>X(??)Y(??)MAP[00:[00],01:[01],02:[02],03:[03],mmc:(un)]s(0)Z?S?*/
	$8A98  30 03:       bmi +		; $8A9D			/* A(00)<9FC>X(??)Y(??)MAP[00:[00],01:[01],02:[02],03:[03],mmc:(un)]s(0)Z?S?*/
	$8A9A  18:          clc 			/* A(00)<9FC>X(??)Y(??)MAP[00:[00],01:[01],02:[02],03:[03],mmc:(un)]s(0)Z?S?*/
	$8A9B  69 0C:       adc #$0C			/* A(??)X(??)Y(??)MAP[00:[00],01:[01],02:[02],03:[03],mmc:(un)]s(0)Z?S?*/
+	$8A9D  AA:          tax 			/* A(00)<9FC>X(00)<A9D>Y(??)MAP[00:[00],01:[01],02:[02],03:[03],mmc:(un)]s(0)Z?S?*/
	$8A9E  A0 00:       ldy #$00			/* A(00)<9FC>X(00)<A9D>Y(00)<A9E>MAP[00:[00],01:[01],02:[02],03:[03],mmc:(un)]s(0)Z1S0*/
-	$8AA0  BD CC 8A:    lda _data_0ACC_indexed,x			/* A$0ACC,x<AA0>X(00)<A9D>Y(00)<A9E>MAP[00:[00],01:[01],02:[02],03:[03],mmc:(un)]s(0)Z?S?*/
	$8AA3  18:          clc 			/* A$0ACC,x<AA0>X(00)<A9D>Y(00)<A9E>MAP[00:[00],01:[01],02:[02],03:[03],mmc:(un)]s(0)Z?S?*/
	$8AA4  6D 91 03:    adc $0391			/* A(??)X(00)<A9D>Y(00)<A9E>MAP[00:[00],01:[01],02:[02],03:[03],mmc:(un)]s(0)Z?S?*/
	$8AA7  99 C4 07:    sta $07C4,y			/* A(??)X(00)<A9D>Y(00)<A9E>MAP[00:[00],01:[01],02:[02],03:[03],mmc:(un)]s(0)Z?S?*/
	$8AAA  BD CD 8A:    lda _data_0ACD_indexed,x			/* A$0ACD,x<AAA>X(00)<A9D>Y(00)<A9E>MAP[00:[00],01:[01],02:[02],03:[03],mmc:(un)]s(0)Z?S?*/
	$8AAD  99 C5 07:    sta $07C5,y			/* A$0ACD,x<AAA>X(00)<A9D>Y(00)<A9E>MAP[00:[00],01:[01],02:[02],03:[03],mmc:(un)]s(0)Z?S?*/
	$8AB0  BD CE 8A:    lda _data_0ACE_indexed,x			/* A$0ACE,x<AB0>X(00)<A9D>Y(00)<A9E>MAP[00:[00],01:[01],02:[02],03:[03],mmc:(un)]s(0)Z?S?*/
	$8AB3  99 C6 07:    sta $07C6,y			/* A$0ACE,x<AB0>X(00)<A9D>Y(00)<A9E>MAP[00:[00],01:[01],02:[02],03:[03],mmc:(un)]s(0)Z?S?*/
	$8AB6  BD CF 8A:    lda _data_0ACF_indexed,x			/* A$0ACF,x<AB6>X(00)<A9D>Y(00)<A9E>MAP[00:[00],01:[01],02:[02],03:[03],mmc:(un)]s(0)Z?S?*/
	$8AB9  18:          clc 			/* A$0ACF,x<AB6>X(00)<A9D>Y(00)<A9E>MAP[00:[00],01:[01],02:[02],03:[03],mmc:(un)]s(0)Z?S?*/
	$8ABA  6D 92 03:    adc $0392			/* A(??)X(00)<A9D>Y(00)<A9E>MAP[00:[00],01:[01],02:[02],03:[03],mmc:(un)]s(0)Z?S?*/
	$8ABD  99 C7 07:    sta $07C7,y			/* A(??)X(00)<A9D>Y(00)<A9E>MAP[00:[00],01:[01],02:[02],03:[03],mmc:(un)]s(0)Z?S?*/
	$8AC0  20 F3 AA:    jsr _func_2AF3			/* A(??)X(??)Y(??)MAP[00:(??),01:(??),02:(??),03:(??),mmc:(un)]s(0)Z?S?*/
	$8AC3  E8:          inx 			/* A(??)X(??)Y(00)<A9E>MAP[00:[00],01:[01],02:[02],03:[03],mmc:(un)]s(0)Z?S?*/
	$8AC4  E8:          inx 			/* A(??)X(??)Y(00)<A9E>MAP[00:[00],01:[01],02:[02],03:[03],mmc:(un)]s(0)Z?S?*/
	$8AC5  E8:          inx 			/* A(??)X(??)Y(00)<A9E>MAP[00:[00],01:[01],02:[02],03:[03],mmc:(un)]s(0)Z?S?*/
	$8AC6  E8:          inx 			/* A(??)X(??)Y(00)<A9E>MAP[00:[00],01:[01],02:[02],03:[03],mmc:(un)]s(0)Z?S?*/
	$8AC7  C0 0C:       cpy #$0C			/* A(??)X(??)Y(00)<A9E>MAP[00:[00],01:[01],02:[02],03:[03],mmc:(un)]s(0)Z?S?*/
	$8AC9  90 D5:       bcc -		; $8AA0			/* A(??)X(??)Y(00)<A9E>MAP[00:[00],01:[01],02:[02],03:[03],mmc:(un)]s(0)Z?S?*/
	$8ACB  60:          rts 			/* A(??)X(??)Y(00)<A9E>MAP[00:[00],01:[01],02:[02],03:[03],mmc:(un)]s(0)Z?S?*/(barrier)
;------------------------------------------
_data_0ACC_indexed
	$8ACC               .byte $F0
_data_0ACD_indexed
	$8ACD               .byte $B4
_data_0ACE_indexed
	$8ACE               .byte $01
_data_0ACF_indexed
	$8ACF               .byte $FC,$F8,$B5,$01,$FC,$00,$B6,$01,$FC,$F0,$B4,$41,$FC,$F8,$B5,$41
	$8ADF               .byte $FC,$00,$B6,$41,$FC,$F0,$B7,$01,$FC,$F8,$B8,$01,$FC,$00,$B6,$01
	$8AEF               .byte $FC,$F0,$B7,$41,$FC,$F8,$B8,$41,$FC,$00,$B6,$41,$FC,$F8,$B9,$01
	$8AFF               .byte $F4,$F8,$BA,$01,$FC,$00,$BB,$01,$FC,$F8,$B9,$41,$04,$F8,$BA,$41
	$8B0F               .byte $FC,$00,$BB,$41,$FC
_func_0B14
	$8B14  A9 00:       lda #$00			/* A(??)X(??)Y(??)MAP[00:[00],01:[01],02:[02],03:[03],mmc:(un)]s(0)Z?S?*/
	$8B16  85 62:       sta $62			/* A(00)<B14>X(??)Y(??)MAP[00:[00],01:[01],02:[02],03:[03],mmc:(un)]s(0)Z1S0*/
	$8B18  A9 10:       lda #$10			/* A(10)<B18>X(??)Y(??)MAP[00:[00],01:[01],02:[02],03:[03],mmc:(un)]s(0)Z0S0*/
	$8B1A  85 63:       sta $63			/* A(10)<B18>X(??)Y(??)MAP[00:[00],01:[01],02:[02],03:[03],mmc:(un)]s(0)Z0S0*/
	$8B1C  A5 60:       lda $60			/* A(??)X(??)Y(??)MAP[00:[00],01:[01],02:[02],03:[03],mmc:(un)]s(0)Z?S?*/
	$8B1E  38:          sec 			/* A(??)X(??)Y(??)MAP[00:[00],01:[01],02:[02],03:[03],mmc:(un)]s(0)Z?S?*/
	$8B1F  E9 68:       sbc #$68			/* A(??)X(??)Y(??)MAP[00:[00],01:[01],02:[02],03:[03],mmc:(un)]s(0)Z?S?*/
	$8B21  85 64:       sta $64			/* A(??)X(??)Y(??)MAP[00:[00],01:[01],02:[02],03:[03],mmc:(un)]s(0)Z?S?*/
	$8B23  A5 61:       lda $61			/* A(??)X(??)Y(??)MAP[00:[00],01:[01],02:[02],03:[03],mmc:(un)]s(0)Z?S?*/
	$8B25  E9 00:       sbc #$00			/* A(??)X(??)Y(??)MAP[00:[00],01:[01],02:[02],03:[03],mmc:(un)]s(0)Z?S?*/
	$8B27  85 65:       sta $65			/* A(??)X(??)Y(??)MAP[00:[00],01:[01],02:[02],03:[03],mmc:(un)]s(0)Z?S?*/
	$8B29  A9 98:       lda #$98			/* A(98)<B29>X(??)Y(??)MAP[00:[00],01:[01],02:[02],03:[03],mmc:(un)]s(0)Z0S1*/
	$8B2B  38:          sec 			/* A(98)<B29>X(??)Y(??)MAP[00:[00],01:[01],02:[02],03:[03],mmc:(un)]s(0)Z0S1*/
	$8B2C  E5 64:       sbc $64			/* A(??)X(??)Y(??)MAP[00:[00],01:[01],02:[02],03:[03],mmc:(un)]s(0)Z?S?*/
	$8B2E  A9 03:       lda #$03			/* A(03)<B2E>X(??)Y(??)MAP[00:[00],01:[01],02:[02],03:[03],mmc:(un)]s(0)Z0S0*/
	$8B30  E5 65:       sbc $65			/* A(??)X(??)Y(??)MAP[00:[00],01:[01],02:[02],03:[03],mmc:(un)]s(0)Z?S?*/
	$8B32  B0 09:       bcs +		; $8B3D			/* A(??)X(??)Y(??)MAP[00:[00],01:[01],02:[02],03:[03],mmc:(un)]s(0)Z?S?*/
	$8B34  A9 98:       lda #$98			/* A(98)<B34>X(??)Y(??)MAP[00:[00],01:[01],02:[02],03:[03],mmc:(un)]s(0)Z0S1*/
	$8B36  85 64:       sta $64			/* A(98)<B34>X(??)Y(??)MAP[00:[00],01:[01],02:[02],03:[03],mmc:(un)]s(0)Z0S1*/
	$8B38  A9 03:       lda #$03			/* A(03)<B38>X(??)Y(??)MAP[00:[00],01:[01],02:[02],03:[03],mmc:(un)]s(0)Z0S0*/
	$8B3A  85 65:       sta $65			/* A(03)<B38>X(??)Y(??)MAP[00:[00],01:[01],02:[02],03:[03],mmc:(un)]s(0)Z0S0*/
	$8B3C  60:          rts 			/* A(03)<B38>X(??)Y(??)MAP[00:[00],01:[01],02:[02],03:[03],mmc:(un)]s(0)Z0S0*/(barrier)

+	$8B3D  A5 64:       lda $64			/* A(??)X(??)Y(??)MAP[00:[00],01:[01],02:[02],03:[03],mmc:(un)]s(0)Z?S?*/
	$8B3F  38:          sec 			/* A(??)X(??)Y(??)MAP[00:[00],01:[01],02:[02],03:[03],mmc:(un)]s(0)Z?S?*/
	$8B40  E9 B8:       sbc #$B8			/* A(??)X(??)Y(??)MAP[00:[00],01:[01],02:[02],03:[03],mmc:(un)]s(0)Z?S?*/
	$8B42  A5 65:       lda $65			/* A(??)X(??)Y(??)MAP[00:[00],01:[01],02:[02],03:[03],mmc:(un)]s(0)Z?S?*/
	$8B44  E9 00:       sbc #$00			/* A(??)X(??)Y(??)MAP[00:[00],01:[01],02:[02],03:[03],mmc:(un)]s(0)Z?S?*/
	$8B46  B0 12:       bcs +		; $8B5A -> rts			/* A(??)X(??)Y(??)MAP[00:[00],01:[01],02:[02],03:[03],mmc:(un)]s(0)Z?S?*/
	$8B48  A9 B8:       lda #$B8			/* A(B8)<B48>X(??)Y(??)MAP[00:[00],01:[01],02:[02],03:[03],mmc:(un)]s(0)Z0S1*/
	$8B4A  85 64:       sta $64			/* A(B8)<B48>X(??)Y(??)MAP[00:[00],01:[01],02:[02],03:[03],mmc:(un)]s(0)Z0S1*/
	$8B4C  A9 00:       lda #$00			/* A(00)<B4C>X(??)Y(??)MAP[00:[00],01:[01],02:[02],03:[03],mmc:(un)]s(0)Z1S0*/
	$8B4E  85 65:       sta $65			/* A(00)<B4C>X(??)Y(??)MAP[00:[00],01:[01],02:[02],03:[03],mmc:(un)]s(0)Z1S0*/
	$8B50  A5 4E:       lda $4E			/* A(??)X(??)Y(??)MAP[00:[00],01:[01],02:[02],03:[03],mmc:(un)]s(0)Z?S?*/
	$8B52  38:          sec 			/* A(??)X(??)Y(??)MAP[00:[00],01:[01],02:[02],03:[03],mmc:(un)]s(0)Z?S?*/
	$8B53  E5 64:       sbc $64			/* A(??)X(??)Y(??)MAP[00:[00],01:[01],02:[02],03:[03],mmc:(un)]s(0)Z?S?*/
	$8B55  4A:          lsr a			/* A(??)X(??)Y(??)MAP[00:[00],01:[01],02:[02],03:[03],mmc:(un)]s(0)Z?S?*/
	$8B56  4A:          lsr a			/* A(??)X(??)Y(??)MAP[00:[00],01:[01],02:[02],03:[03],mmc:(un)]s(0)Z?S?*/
	$8B57  4A:          lsr a			/* A(??)X(??)Y(??)MAP[00:[00],01:[01],02:[02],03:[03],mmc:(un)]s(0)Z?S?*/
	$8B58  85 63:       sta $63			/* A(??)X(??)Y(??)MAP[00:[00],01:[01],02:[02],03:[03],mmc:(un)]s(0)Z?S?*/
+	$8B5A  60:          rts 			/* A(??)X(??)Y(??)MAP[00:[00],01:[01],02:[02],03:[03],mmc:(un)]s(0)Z?S?*/(barrier)
;------------------------------------------
_func_0B5B
	$8B5B  A5 62:       lda $62			/* A(??)X(??)Y(??)MAP[00:[00],01:[01],02:[02],03:[03],mmc:(un)]s(0)Z?S?*/
	$8B5D  F0 10:       beq +		; $8B6F -> rts			/* A(??)X(??)Y(??)MAP[00:[00],01:[01],02:[02],03:[03],mmc:(un)]s(0)Z?S?*/
	$8B5F  20 A4 8C:    jsr _func_0CA4			/* A(??)X(??)Y(??)MAP[00:(??),01:(??),02:(??),03:(??),mmc:(un)]s(0)Z?S?*/
	$8B62  90 0C:       bcc ++		; $8B70 -> _func_0B14			/* A(??)X(??)Y(??)MAP[00:[00],01:[01],02:[02],03:[03],mmc:(un)]s(0)Z?S?*/
	$8B64  A9 00:       lda #$00			/* A(00)<B64>X(??)Y(??)MAP[00:[00],01:[01],02:[02],03:[03],mmc:(un)]s(0)Z1S0*/
	$8B66  85 11:       sta $11			/* A(00)<B64>X(??)Y(??)MAP[00:[00],01:[01],02:[02],03:[03],mmc:(un)]s(0)Z1S0*/
	$8B68  20 62 8F:    jsr _func_0F62			/* A(??)X(??)Y(??)MAP[00:(??),01:(??),02:(??),03:(??),mmc:(un)]s(0)Z?S?*/
	$8B6B  A5 14:       lda $14			/* A(??)X(??)Y(??)MAP[00:[00],01:[01],02:[02],03:[03],mmc:(un)]s(0)Z?S?*/
	$8B6D  85 63:       sta $63			/* A(??)X(??)Y(??)MAP[00:[00],01:[01],02:[02],03:[03],mmc:(un)]s(0)Z?S?*/
+	$8B6F  60:          rts 			/* A(??)X(??)Y(??)MAP[00:[00],01:[01],02:[02],03:[03],mmc:(un)]s(0)Z?S?*/(barrier)

++	$8B70  4C 14 8B:    jmp _func_0B14			/* A(??)X(??)Y(??)MAP[00:[00],01:[01],02:[02],03:[03],mmc:(un)]s(0)Z?S?*/(barrier)
;------------------------------------------
_func_0B73
	$8B73  A5 50:       lda $50			/* A(??)X(??)Y(??)MAP[00:[00],01:[01],02:[02],03:[03],mmc:(un)]s(0)Z?S?*/
	$8B75  C9 A0:       cmp #$A0			/* A(??)X(??)Y(??)MAP[00:[00],01:[01],02:[02],03:[03],mmc:(un)]s(0)Z?S?*/
	$8B77  90 2D:       bcc +		; $8BA6			/* A(??)X(??)Y(??)MAP[00:[00],01:[01],02:[02],03:[03],mmc:(un)]s(0)Z?S?*/
	$8B79  A9 60:       lda #$60			/* A(60)<B79>X(??)Y(??)MAP[00:[00],01:[01],02:[02],03:[03],mmc:(un)]s(0)Z0S0*/
	$8B7B  85 12:       sta $12			/* A(60)<B79>X(??)Y(??)MAP[00:[00],01:[01],02:[02],03:[03],mmc:(un)]s(0)Z0S0*/
	$8B7D  20 C2 8C:    jsr _func_0CC2			/* A(??)X(??)Y(??)MAP[00:(??),01:(??),02:(??),03:(??),mmc:(un)]s(0)Z?S?*/
	$8B80  A9 ED:       lda #<_data_0CED			/* A(ED)<B80>X(??)Y(??)MAP[00:[00],01:[01],02:[02],03:[03],mmc:(un)]s(0)Z0S1*/
	$8B82  85 12:       sta $12			/* A(ED)<B80>X(??)Y(??)MAP[00:[00],01:[01],02:[02],03:[03],mmc:(un)]s(0)Z0S1*/
	$8B84  A9 8C:       lda #>_data_0CED			/* A(8C)<B84>X(??)Y(??)MAP[00:[00],01:[01],02:[02],03:[03],mmc:(un)]s(0)Z0S1*/
	$8B86  85 13:       sta $13			/* A(8C)<B84>X(??)Y(??)MAP[00:[00],01:[01],02:[02],03:[03],mmc:(un)]s(0)Z0S1*/
	$8B88  20 52 91:    jsr _func_1152			/* A(??)X(??)Y(??)MAP[00:(??),01:(??),02:(??),03:(??),mmc:(un)]s(0)Z?S?*/
	$8B8B  4C A6 8B:    jmp +		; $8BA6			/* A(8C)<B84>X(??)Y(??)MAP[00:[00],01:[01],02:[02],03:[03],mmc:(un)]s(0)Z?S?*/(barrier)
;------------------------------------------
_func_0B8E
	$8B8E  A5 50:       lda $50			/* A(8C)<B84>X(??)Y(??)MAP[00:[00],01:[01],02:[02],03:[03],mmc:(un)]s(0)Z?S?*/
	$8B90  C9 A0:       cmp #$A0			/* A(??)X(??)Y(??)MAP[00:[00],01:[01],02:[02],03:[03],mmc:(un)]s(0)Z?S?*/
	$8B92  90 12:       bcc +		; $8BA6			/* A(??)X(??)Y(??)MAP[00:[00],01:[01],02:[02],03:[03],mmc:(un)]s(0)Z?S?*/
	$8B94  A9 60:       lda #$60			/* A(60)<B94>X(??)Y(??)MAP[00:[00],01:[01],02:[02],03:[03],mmc:(un)]s(0)Z0S0*/
	$8B96  85 12:       sta $12			/* A(60)<B94>X(??)Y(??)MAP[00:[00],01:[01],02:[02],03:[03],mmc:(un)]s(0)Z0S0*/
	$8B98  20 C2 8C:    jsr _func_0CC2			/* A(??)X(??)Y(??)MAP[00:(??),01:(??),02:(??),03:(??),mmc:(un)]s(0)Z?S?*/
	$8B9B  A9 0A:       lda #<_data_0D0A			/* A(0A)<B9B>X(??)Y(??)MAP[00:[00],01:[01],02:[02],03:[03],mmc:(un)]s(0)Z0S0*/
	$8B9D  85 12:       sta $12			/* A(0A)<B9B>X(??)Y(??)MAP[00:[00],01:[01],02:[02],03:[03],mmc:(un)]s(0)Z0S0*/
	$8B9F  A9 8D:       lda #>_data_0D0A			/* A(8D)<B9F>X(??)Y(??)MAP[00:[00],01:[01],02:[02],03:[03],mmc:(un)]s(0)Z0S1*/
	$8BA1  85 13:       sta $13			/* A(8D)<B9F>X(??)Y(??)MAP[00:[00],01:[01],02:[02],03:[03],mmc:(un)]s(0)Z0S1*/
	$8BA3  20 52 91:    jsr _func_1152			/* A(??)X(??)Y(??)MAP[00:(??),01:(??),02:(??),03:(??),mmc:(un)]s(0)Z?S?*/
+	$8BA6  A9 05:       lda #$05			/* A(??)X(??)Y(??)MAP[00:[00],01:[01],02:[02],03:[03],mmc:(un)]s(0)Z?S?*/
	$8BA8  85 F4:       sta $F4			/* A(05)<BA6>X(??)Y(??)MAP[00:[00],01:[01],02:[02],03:[03],mmc:(un)]s(0)Z0S0*/
	$8BAA  A9 C0:       lda #$C0			/* A(C0)<BAA>X(??)Y(??)MAP[00:[00],01:[01],02:[02],03:[03],mmc:(un)]s(0)Z0S1*/
	$8BAC  85 21:       sta $21			/* A(C0)<BAA>X(??)Y(??)MAP[00:[00],01:[01],02:[02],03:[03],mmc:(un)]s(0)Z0S1*/
	$8BAE  20 AD 89:    jsr _func_09AD			/* A(??)X(??)Y(??)MAP[00:(??),01:(??),02:(??),03:(??),mmc:(un)]s(0)Z?S?*/
-	$8BB1  A5 21:       lda $21			/* A(??)X(??)Y(??)MAP[00:[00],01:[01],02:[02],03:[03],mmc:(un)]s(0)Z?S?*/
	$8BB3  D0 FC:       bne -		; $8BB1			/* A(??)X(??)Y(??)MAP[00:[00],01:[01],02:[02],03:[03],mmc:(un)]s(0)Z?S?*/
	$8BB5  20 B7 89:    jsr _func_09B7			/* A(??)X(??)Y(??)MAP[00:(??),01:(??),02:(??),03:(??),mmc:(un)]s(0)Z?S?*/
_func_0BB8
	$8BB8  A5 FC:       lda $FC			/* A(??)X(??)Y(??)MAP[00:[00],01:[01],02:[02],03:[03],mmc:(un)]s(0)Z?S?*/
	$8BBA  49 80:       eor #$80			/* A(??)X(??)Y(??)MAP[00:[00],01:[01],02:[02],03:[03],mmc:(un)]s(0)Z?S?*/
	$8BBC  85 FC:       sta $FC			/* A(??)X(??)Y(??)MAP[00:[00],01:[01],02:[02],03:[03],mmc:(un)]s(0)Z?S?*/
	$8BBE  A9 D8:       lda #$D8			/* A(D8)<BBE>X(??)Y(??)MAP[00:[00],01:[01],02:[02],03:[03],mmc:(un)]s(0)Z0S1*/
	$8BC0  38:          sec 			/* A(D8)<BBE>X(??)Y(??)MAP[00:[00],01:[01],02:[02],03:[03],mmc:(un)]s(0)Z0S1*/
	$8BC1  E5 4D:       sbc $4D			/* A(??)X(??)Y(??)MAP[00:[00],01:[01],02:[02],03:[03],mmc:(un)]s(0)Z?S?*/
	$8BC3  85 4D:       sta $4D			/* A(??)X(??)Y(??)MAP[00:[00],01:[01],02:[02],03:[03],mmc:(un)]s(0)Z?S?*/
	$8BC5  A9 A8:       lda #$A8			/* A(A8)<BC5>X(??)Y(??)MAP[00:[00],01:[01],02:[02],03:[03],mmc:(un)]s(0)Z0S1*/
	$8BC7  38:          sec 			/* A(A8)<BC5>X(??)Y(??)MAP[00:[00],01:[01],02:[02],03:[03],mmc:(un)]s(0)Z0S1*/
	$8BC8  E5 4E:       sbc $4E			/* A(??)X(??)Y(??)MAP[00:[00],01:[01],02:[02],03:[03],mmc:(un)]s(0)Z?S?*/
	$8BCA  85 4E:       sta $4E			/* A(??)X(??)Y(??)MAP[00:[00],01:[01],02:[02],03:[03],mmc:(un)]s(0)Z?S?*/
	$8BCC  85 60:       sta $60			/* A(??)X(??)Y(??)MAP[00:[00],01:[01],02:[02],03:[03],mmc:(un)]s(0)Z?S?*/
	$8BCE  A9 04:       lda #$04			/* A(04)<BCE>X(??)Y(??)MAP[00:[00],01:[01],02:[02],03:[03],mmc:(un)]s(0)Z0S0*/
	$8BD0  E5 4F:       sbc $4F			/* A(??)X(??)Y(??)MAP[00:[00],01:[01],02:[02],03:[03],mmc:(un)]s(0)Z?S?*/
	$8BD2  85 4F:       sta $4F			/* A(??)X(??)Y(??)MAP[00:[00],01:[01],02:[02],03:[03],mmc:(un)]s(0)Z?S?*/
	$8BD4  85 61:       sta $61			/* A(??)X(??)Y(??)MAP[00:[00],01:[01],02:[02],03:[03],mmc:(un)]s(0)Z?S?*/
	$8BD6  A5 4E:       lda $4E			/* A(??)X(??)Y(??)MAP[00:[00],01:[01],02:[02],03:[03],mmc:(un)]s(0)Z?S?*/
	$8BD8  38:          sec 			/* A(??)X(??)Y(??)MAP[00:[00],01:[01],02:[02],03:[03],mmc:(un)]s(0)Z?S?*/
	$8BD9  E9 B8:       sbc #$B8			/* A(??)X(??)Y(??)MAP[00:[00],01:[01],02:[02],03:[03],mmc:(un)]s(0)Z?S?*/
	$8BDB  85 10:       sta $10			/* A(??)X(??)Y(??)MAP[00:[00],01:[01],02:[02],03:[03],mmc:(un)]s(0)Z?S?*/
	$8BDD  A5 4F:       lda $4F			/* A(??)X(??)Y(??)MAP[00:[00],01:[01],02:[02],03:[03],mmc:(un)]s(0)Z?S?*/
	$8BDF  E9 00:       sbc #$00			/* A(??)X(??)Y(??)MAP[00:[00],01:[01],02:[02],03:[03],mmc:(un)]s(0)Z?S?*/
	$8BE1  85 11:       sta $11			/* A(??)X(??)Y(??)MAP[00:[00],01:[01],02:[02],03:[03],mmc:(un)]s(0)Z?S?*/
	$8BE3  A5 10:       lda $10			/* A(??)X(??)Y(??)MAP[00:[00],01:[01],02:[02],03:[03],mmc:(un)]s(0)Z?S?*/
	$8BE5  38:          sec 			/* A(??)X(??)Y(??)MAP[00:[00],01:[01],02:[02],03:[03],mmc:(un)]s(0)Z?S?*/
	$8BE6  E9 68:       sbc #$68			/* A(??)X(??)Y(??)MAP[00:[00],01:[01],02:[02],03:[03],mmc:(un)]s(0)Z?S?*/
	$8BE8  A5 11:       lda $11			/* A(??)X(??)Y(??)MAP[00:[00],01:[01],02:[02],03:[03],mmc:(un)]s(0)Z?S?*/
	$8BEA  E9 00:       sbc #$00			/* A(??)X(??)Y(??)MAP[00:[00],01:[01],02:[02],03:[03],mmc:(un)]s(0)Z?S?*/
	$8BEC  B0 08:       bcs +		; $8BF6			/* A(??)X(??)Y(??)MAP[00:[00],01:[01],02:[02],03:[03],mmc:(un)]s(0)Z?S?*/
	$8BEE  A9 68:       lda #$68			/* A(68)<BEE>X(??)Y(??)MAP[00:[00],01:[01],02:[02],03:[03],mmc:(un)]s(0)Z0S0*/
	$8BF0  85 10:       sta $10			/* A(68)<BEE>X(??)Y(??)MAP[00:[00],01:[01],02:[02],03:[03],mmc:(un)]s(0)Z0S0*/
	$8BF2  A9 00:       lda #$00			/* A(00)<BF2>X(??)Y(??)MAP[00:[00],01:[01],02:[02],03:[03],mmc:(un)]s(0)Z1S0*/
	$8BF4  85 11:       sta $11			/* A(00)<BF2>X(??)Y(??)MAP[00:[00],01:[01],02:[02],03:[03],mmc:(un)]s(0)Z1S0*/
+	$8BF6  20 D7 9D:    jsr _func_1DD7			/* A(00)<BF2>X(??)Y(??)MAP[00:[00],01:[01],02:[02],03:[03],mmc:(un)]s(0)Z1S0*/
	$8BF9  A5 12:       lda $12			/* A(??)X(??)Y(??)MAP[00:[00],01:[01],02:[02],03:[03],mmc:(un)]s(0)Z?S?*/
	$8BFB  85 49:       sta $49			/* A(??)X(??)Y(??)MAP[00:[00],01:[01],02:[02],03:[03],mmc:(un)]s(0)Z?S?*/
	$8BFD  A5 13:       lda $13			/* A(??)X(??)Y(??)MAP[00:[00],01:[01],02:[02],03:[03],mmc:(un)]s(0)Z?S?*/
	$8BFF  85 4A:       sta $4A			/* A(??)X(??)Y(??)MAP[00:[00],01:[01],02:[02],03:[03],mmc:(un)]s(0)Z?S?*/
	$8C01  A5 4E:       lda $4E			/* A(??)X(??)Y(??)MAP[00:[00],01:[01],02:[02],03:[03],mmc:(un)]s(0)Z?S?*/
	$8C03  29 07:       and #$07			/* A(??)X(??)Y(??)MAP[00:[00],01:[01],02:[02],03:[03],mmc:(un)]s(0)Z?S?*/
	$8C05  C9 04:       cmp #$04			/* A(??)X(??)Y(??)MAP[00:[00],01:[01],02:[02],03:[03],mmc:(un)]s(0)Z?S?*/
	$8C07  D0 10:       bne +		; $8C19			/* A(??)X(??)Y(??)MAP[00:[00],01:[01],02:[02],03:[03],mmc:(un)]s(0)Z?S?*/
	$8C09  A5 4E:       lda $4E			/* A(??)X(??)Y(??)MAP[00:[00],01:[01],02:[02],03:[03],mmc:(un)]s(0)Z?S?*/
	$8C0B  38:          sec 			/* A(??)X(??)Y(??)MAP[00:[00],01:[01],02:[02],03:[03],mmc:(un)]s(0)Z?S?*/
	$8C0C  E9 01:       sbc #$01			/* A(??)X(??)Y(??)MAP[00:[00],01:[01],02:[02],03:[03],mmc:(un)]s(0)Z?S?*/
	$8C0E  85 4E:       sta $4E			/* A(??)X(??)Y(??)MAP[00:[00],01:[01],02:[02],03:[03],mmc:(un)]s(0)Z?S?*/
	$8C10  A5 4F:       lda $4F			/* A(??)X(??)Y(??)MAP[00:[00],01:[01],02:[02],03:[03],mmc:(un)]s(0)Z?S?*/
	$8C12  E9 00:       sbc #$00			/* A(??)X(??)Y(??)MAP[00:[00],01:[01],02:[02],03:[03],mmc:(un)]s(0)Z?S?*/
	$8C14  85 4F:       sta $4F			/* A(??)X(??)Y(??)MAP[00:[00],01:[01],02:[02],03:[03],mmc:(un)]s(0)Z?S?*/
	$8C16  4C 2A 8C:    jmp ++		; $8C2A			/* A(??)X(??)Y(??)MAP[00:[00],01:[01],02:[02],03:[03],mmc:(un)]s(0)Z?S?*/(barrier)

+	$8C19  C9 05:       cmp #$05			/* A(??)X(??)Y(??)MAP[00:[00],01:[01],02:[02],03:[03],mmc:(un)]s(0)Z?S?*/
	$8C1B  D0 0D:       bne ++		; $8C2A			/* A(??)X(??)Y(??)MAP[00:[00],01:[01],02:[02],03:[03],mmc:(un)]s(0)Z?S?*/
	$8C1D  A5 4E:       lda $4E			/* A(??)X(??)Y(??)MAP[00:[00],01:[01],02:[02],03:[03],mmc:(un)]s(0)Z?S?*/
	$8C1F  38:          sec 			/* A(??)X(??)Y(??)MAP[00:[00],01:[01],02:[02],03:[03],mmc:(un)]s(0)Z?S?*/
	$8C20  E9 02:       sbc #$02			/* A(??)X(??)Y(??)MAP[00:[00],01:[01],02:[02],03:[03],mmc:(un)]s(0)Z?S?*/
	$8C22  85 4E:       sta $4E			/* A(??)X(??)Y(??)MAP[00:[00],01:[01],02:[02],03:[03],mmc:(un)]s(0)Z?S?*/
	$8C24  A5 4F:       lda $4F			/* A(??)X(??)Y(??)MAP[00:[00],01:[01],02:[02],03:[03],mmc:(un)]s(0)Z?S?*/
	$8C26  E9 00:       sbc #$00			/* A(??)X(??)Y(??)MAP[00:[00],01:[01],02:[02],03:[03],mmc:(un)]s(0)Z?S?*/
	$8C28  85 4F:       sta $4F			/* A(??)X(??)Y(??)MAP[00:[00],01:[01],02:[02],03:[03],mmc:(un)]s(0)Z?S?*/
++	$8C2A  20 33 96:    jsr _func_1633			/* A(??)X(??)Y(??)MAP[00:[00],01:[01],02:[02],03:[03],mmc:(un)]s(0)Z?S?*/
	$8C2D  20 AA 82:    jsr _func_02AA			/* A(??)X(??)Y(??)MAP[00:(??),01:(??),02:(??),03:(??),mmc:(un)]s(0)Z?S?*/
_func_0C30
	$8C30  A5 4E:       lda $4E			/* A(??)X(??)Y(??)MAP[00:[00],01:[01],02:[02],03:[03],mmc:(un)]s(0)Z?S?*/
	$8C32  38:          sec 			/* A(??)X(??)Y(??)MAP[00:[00],01:[01],02:[02],03:[03],mmc:(un)]s(0)Z?S?*/
	$8C33  E9 18:       sbc #$18			/* A(??)X(??)Y(??)MAP[00:[00],01:[01],02:[02],03:[03],mmc:(un)]s(0)Z?S?*/
	$8C35  A5 4F:       lda $4F			/* A(??)X(??)Y(??)MAP[00:[00],01:[01],02:[02],03:[03],mmc:(un)]s(0)Z?S?*/
	$8C37  E9 01:       sbc #$01			/* A(??)X(??)Y(??)MAP[00:[00],01:[01],02:[02],03:[03],mmc:(un)]s(0)Z?S?*/
	$8C39  B0 07:       bcs +		; $8C42			/* A(??)X(??)Y(??)MAP[00:[00],01:[01],02:[02],03:[03],mmc:(un)]s(0)Z?S?*/
	$8C3B  A5 4E:       lda $4E			/* A(??)X(??)Y(??)MAP[00:[00],01:[01],02:[02],03:[03],mmc:(un)]s(0)Z?S?*/
	$8C3D  38:          sec 			/* A(??)X(??)Y(??)MAP[00:[00],01:[01],02:[02],03:[03],mmc:(un)]s(0)Z?S?*/
	$8C3E  E9 68:       sbc #$68			/* A(??)X(??)Y(??)MAP[00:[00],01:[01],02:[02],03:[03],mmc:(un)]s(0)Z?S?*/
	$8C40  D0 02:       bne ++		; $8C44			/* A(??)X(??)Y(??)MAP[00:[00],01:[01],02:[02],03:[03],mmc:(un)]s(0)Z?S?*/
+	$8C42  A9 B0:       lda #$B0			/* A(??)X(??)Y(??)MAP[00:[00],01:[01],02:[02],03:[03],mmc:(un)]s(0)Z?S?*/
++	$8C44  85 50:       sta $50			/* A(??)X(??)Y(??)MAP[00:[00],01:[01],02:[02],03:[03],mmc:(un)]s(0)Z?S?*/
	$8C46  60:          rts 			/* A(B0)<C42>X(??)Y(??)MAP[00:[00],01:[01],02:[02],03:[03],mmc:(un)]s(0)Z0S1*/(barrier)
;------------------------------------------
_func_0C47
	$8C47  A5 60:       lda $60			/* A(??)X(??)Y(??)MAP[00:[00],01:[01],02:[02],03:[03],mmc:(un)]s(0)Z?S?*/
	$8C49  38:          sec 			/* A(??)X(??)Y(??)MAP[00:[00],01:[01],02:[02],03:[03],mmc:(un)]s(0)Z?S?*/
	$8C4A  E9 FC:       sbc #$FC			/* A(??)X(??)Y(??)MAP[00:[00],01:[01],02:[02],03:[03],mmc:(un)]s(0)Z?S?*/
	$8C4C  A5 61:       lda $61			/* A(??)X(??)Y(??)MAP[00:[00],01:[01],02:[02],03:[03],mmc:(un)]s(0)Z?S?*/
	$8C4E  E9 03:       sbc #$03			/* A(??)X(??)Y(??)MAP[00:[00],01:[01],02:[02],03:[03],mmc:(un)]s(0)Z?S?*/
	$8C50  90 08:       bcc +		; $8C5A -> rts			/* A(??)X(??)Y(??)MAP[00:[00],01:[01],02:[02],03:[03],mmc:(un)]s(0)Z?S?*/
	$8C52  A9 03:       lda #$03			/* A(03)<C52>X(??)Y(??)MAP[00:[00],01:[01],02:[02],03:[03],mmc:(un)]s(0)Z0S0*/
	$8C54  85 61:       sta $61			/* A(03)<C52>X(??)Y(??)MAP[00:[00],01:[01],02:[02],03:[03],mmc:(un)]s(0)Z0S0*/
	$8C56  A9 FC:       lda #$FC			/* A(FC)<C56>X(??)Y(??)MAP[00:[00],01:[01],02:[02],03:[03],mmc:(un)]s(0)Z0S1*/
	$8C58  85 60:       sta $60			/* A(FC)<C56>X(??)Y(??)MAP[00:[00],01:[01],02:[02],03:[03],mmc:(un)]s(0)Z0S1*/
+	$8C5A  60:          rts 			/* A(FC)<C56>X(??)Y(??)MAP[00:[00],01:[01],02:[02],03:[03],mmc:(un)]s(0)Z0S1*/(barrier)

	$8C5B               .byte $A2,$1B,$BD,$88,$8C,$9D,$D0,$07,$CA,$10,$F7,$A5,$63,$48,$4A,$4A
	$8C6B               .byte $4A,$4A,$F0,$03,$8D,$D9,$07,$68,$29,$0F,$8D,$DD,$07,$60,$A0,$00
	$8C7B               .byte $A9,$F0,$99,$D0,$07,$20,$F3,$AA,$C0,$1C,$90,$F6,$60,$C0,$27,$01
	$8C8B               .byte $50,$C0,$28,$01,$58,$C0,$FF,$01,$60,$C0,$FF,$01,$68,$C0,$29,$01
	$8C9B               .byte $70,$C0,$2A,$01,$78,$C0,$2B,$01,$80
_func_0CA4
	$8CA4  A5 6D:       lda $6D			/* A(??)X(??)Y(??)MAP[00:[00],01:[01],02:[02],03:[03],mmc:(un)]s(0)Z?S?*/
	$8CA6  38:          sec 			/* A(??)X(??)Y(08)<A01>MAP[00:[00],01:[01],02:[02],03:[03],mmc:(un)]s(0)Z?S?*/
	$8CA7  E5 64:       sbc $64			/* A(??)X(??)Y(08)<A01>MAP[00:[00],01:[01],02:[02],03:[03],mmc:(un)]s(0)Z?S?*/
	$8CA9  85 10:       sta $10			/* A(??)X(??)Y(08)<A01>MAP[00:[00],01:[01],02:[02],03:[03],mmc:(un)]s(0)Z?S?*/
	$8CAB  A5 6E:       lda $6E			/* A(??)X(??)Y(08)<A01>MAP[00:[00],01:[01],02:[02],03:[03],mmc:(un)]s(0)Z?S?*/
	$8CAD  E5 65:       sbc $65			/* A(??)X(??)Y(08)<A01>MAP[00:[00],01:[01],02:[02],03:[03],mmc:(un)]s(0)Z?S?*/
	$8CAF  90 0F:       bcc +		; $8CC0			/* A(??)X(??)Y(08)<A01>MAP[00:[00],01:[01],02:[02],03:[03],mmc:(un)]s(0)Z?S?*/
	$8CB1  4A:          lsr a			/* A(??)X(??)Y(08)<A01>MAP[00:[00],01:[01],02:[02],03:[03],mmc:(un)]s(0)Z?S?*/
	$8CB2  66 10:       ror $10			/* A(??)X(??)Y(08)<A01>MAP[00:[00],01:[01],02:[02],03:[03],mmc:(un)]s(0)Z?S?*/
	$8CB4  4A:          lsr a			/* A(??)X(??)Y(08)<A01>MAP[00:[00],01:[01],02:[02],03:[03],mmc:(un)]s(0)Z?S?*/
	$8CB5  66 10:       ror $10			/* A(??)X(??)Y(08)<A01>MAP[00:[00],01:[01],02:[02],03:[03],mmc:(un)]s(0)Z?S?*/
	$8CB7  4A:          lsr a			/* A(??)X(??)Y(08)<A01>MAP[00:[00],01:[01],02:[02],03:[03],mmc:(un)]s(0)Z?S?*/
	$8CB8  66 10:       ror $10			/* A(??)X(??)Y(08)<A01>MAP[00:[00],01:[01],02:[02],03:[03],mmc:(un)]s(0)Z?S?*/
	$8CBA  05 10:       ora $10			/* A(??)X(??)Y(08)<A01>MAP[00:[00],01:[01],02:[02],03:[03],mmc:(un)]s(0)Z?S?*/
	$8CBC  F0 02:       beq +		; $8CC0			/* A(??)X(??)Y(08)<A01>MAP[00:[00],01:[01],02:[02],03:[03],mmc:(un)]s(0)Z?S?*/
	$8CBE  38:          sec 			/* A(??)X(??)Y(08)<A01>MAP[00:[00],01:[01],02:[02],03:[03],mmc:(un)]s(0)Z?S?*/
	$8CBF  60:          rts 			/* A(??)X(??)Y(08)<A01>MAP[00:[00],01:[01],02:[02],03:[03],mmc:(un)]s(0)Z?S?*/(barrier)

+	$8CC0  18:          clc 			/* A(??)X(??)Y(08)<A01>MAP[00:[00],01:[01],02:[02],03:[03],mmc:(un)]s(0)Z?S?*/
	$8CC1  60:          rts 			/* A(??)X(??)Y(08)<A01>MAP[00:[00],01:[01],02:[02],03:[03],mmc:(un)]s(0)Z?S?*/(barrier)
;------------------------------------------
_func_0CC2
	$8CC2  A5 4E:       lda $4E			/* A(60)<B79>X(??)Y(??)MAP[00:[00],01:[01],02:[02],03:[03],mmc:(un)]s(0)Z?S?*/
	$8CC4  38:          sec 			/* A(??)X(??)Y(??)MAP[00:[00],01:[01],02:[02],03:[03],mmc:(un)]s(0)Z?S?*/
	$8CC5  E5 12:       sbc $12			/* A(??)X(??)Y(??)MAP[00:[00],01:[01],02:[02],03:[03],mmc:(un)]s(0)Z?S?*/
	$8CC7  85 10:       sta $10			/* A(??)X(??)Y(??)MAP[00:[00],01:[01],02:[02],03:[03],mmc:(un)]s(0)Z?S?*/
	$8CC9  A5 4F:       lda $4F			/* A(??)X(??)Y(??)MAP[00:[00],01:[01],02:[02],03:[03],mmc:(un)]s(0)Z?S?*/
	$8CCB  E9 00:       sbc #$00			/* A(??)X(??)Y(??)MAP[00:[00],01:[01],02:[02],03:[03],mmc:(un)]s(0)Z?S?*/
	$8CCD  85 11:       sta $11			/* A(??)X(??)Y(??)MAP[00:[00],01:[01],02:[02],03:[03],mmc:(un)]s(0)Z?S?*/
	$8CCF  20 D7 9D:    jsr _func_1DD7			/* A(??)X(??)Y(??)MAP[00:(??),01:(??),02:(??),03:(??),mmc:(un)]s(0)Z?S?*/
	$8CD2  A5 12:       lda $12			/* A(??)X(??)Y(??)MAP[00:[00],01:[01],02:[02],03:[03],mmc:(un)]s(0)Z?S?*/
	$8CD4  85 10:       sta $10			/* A(??)X(??)Y(??)MAP[00:[00],01:[01],02:[02],03:[03],mmc:(un)]s(0)Z?S?*/
	$8CD6  A5 13:       lda $13			/* A(??)X(??)Y(??)MAP[00:[00],01:[01],02:[02],03:[03],mmc:(un)]s(0)Z?S?*/
	$8CD8  85 11:       sta $11			/* A(??)X(??)Y(??)MAP[00:[00],01:[01],02:[02],03:[03],mmc:(un)]s(0)Z?S?*/
	$8CDA  20 E0 99:    jsr _func_19E0			/* A(??)X(??)Y(??)MAP[00:(??),01:(??),02:(??),03:(??),mmc:(un)]s(0)Z?S?*/
	$8CDD  A5 12:       lda $12			/* A(??)X(??)Y(??)MAP[00:[00],01:[01],02:[02],03:[03],mmc:(un)]s(0)Z?S?*/
	$8CDF  18:          clc 			/* A(??)X(??)Y(??)MAP[00:[00],01:[01],02:[02],03:[03],mmc:(un)]s(0)Z?S?*/
	$8CE0  69 06:       adc #$06			/* A(??)X(??)Y(??)MAP[00:[00],01:[01],02:[02],03:[03],mmc:(un)]s(0)Z?S?*/
	$8CE2  85 10:       sta $10			/* A(??)X(??)Y(??)MAP[00:[00],01:[01],02:[02],03:[03],mmc:(un)]s(0)Z?S?*/
	$8CE4  A5 13:       lda $13			/* A(??)X(??)Y(??)MAP[00:[00],01:[01],02:[02],03:[03],mmc:(un)]s(0)Z?S?*/
	$8CE6  85 11:       sta $11			/* A(??)X(??)Y(??)MAP[00:[00],01:[01],02:[02],03:[03],mmc:(un)]s(0)Z?S?*/
	$8CE8  60:          rts 			/* A(??)X(??)Y(??)MAP[00:[00],01:[01],02:[02],03:[03],mmc:(un)]s(0)Z?S?*/(barrier)

	$8CE9               .byte $A9,$FF,$D0,$F9
_data_0CED
	$8CED               .byte $30,$17,$18,$1D,$30,$01,$00,$30,$22,$0A,$1B,$0D,$1C,$FF,$30,$01
	$8CFD               .byte $00,$30,$22,$0A,$1B,$0D,$1C,$30,$0B,$0A,$0C,$14,$FF
_data_0D0A
	$8D0A               .byte $19,$0A,$1C,$1C,$30,$12,$17,$1D,$0E,$1B,$0C,$0E,$19,$1D,$FF,$30
	$8D1A               .byte $02,$00,$30,$22,$0A,$1B,$0D,$1C,$30,$0B,$0A,$0C,$14,$FF
_func_0D28
	$8D28  A5 68:       lda $68			/* A(??)X(??)Y(??)MAP[00:[00],01:[01],02:[02],03:[03],mmc:(un)]s(0)Z?S?*/
	$8D2A  F0 03:       beq +		; $8D2F			/* A(??)X(??)Y(08)<A01>MAP[00:[00],01:[01],02:[02],03:[03],mmc:(un)]s(0)Z?S?*/
	$8D2C  4C A4 8C:    jmp _func_0CA4			/* A(??)X(??)Y(08)<A01>MAP[00:[00],01:[01],02:[02],03:[03],mmc:(un)]s(0)Z?S?*/(barrier)

+	$8D2F  38:          sec 			/* A(??)X(??)Y(08)<A01>MAP[00:[00],01:[01],02:[02],03:[03],mmc:(un)]s(0)Z?S?*/
	$8D30  60:          rts 			/* A(??)X(??)Y(08)<A01>MAP[00:[00],01:[01],02:[02],03:[03],mmc:(un)]s(0)Z?S?*/(barrier)
;------------------------------------------
_func_0D31
	$8D31  A5 35:       lda $35			/* A(??)X(??)Y(??)MAP[00:[00],01:[01],02:[02],03:[03],mmc:(un)]s(0)Z?S?*/
	$8D33  10 0E:       bpl +		; $8D43			/* A(??)X(??)Y(??)MAP[00:[00],01:[01],02:[02],03:[03],mmc:(un)]s(0)Z?S?*/
	$8D35  AD 95 03:    lda $0395			/* A(??)X(??)Y(??)MAP[00:[00],01:[01],02:[02],03:[03],mmc:(un)]s(0)Z?S?*/
	$8D38  38:          sec 			/* A(??)X(??)Y(??)MAP[00:[00],01:[01],02:[02],03:[03],mmc:(un)]s(0)Z?S?*/
	$8D39  E9 E8:       sbc #$E8			/* A(??)X(??)Y(??)MAP[00:[00],01:[01],02:[02],03:[03],mmc:(un)]s(0)Z?S?*/
	$8D3B  AD 96 03:    lda $0396			/* A(??)X(??)Y(??)MAP[00:[00],01:[01],02:[02],03:[03],mmc:(un)]s(0)Z?S?*/
	$8D3E  E9 03:       sbc #$03			/* A(??)X(??)Y(??)MAP[00:[00],01:[01],02:[02],03:[03],mmc:(un)]s(0)Z?S?*/
	$8D40  B0 0C:       bcs ++		; $8D4E			/* A(??)X(??)Y(??)MAP[00:[00],01:[01],02:[02],03:[03],mmc:(un)]s(0)Z?S?*/
	$8D42  60:          rts 			/* A(??)X(??)Y(??)MAP[00:[00],01:[01],02:[02],03:[03],mmc:(un)]s(0)Z?S?*/(barrier)

+	$8D43  A5 4E:       lda $4E			/* A(??)X(??)Y(??)MAP[00:[00],01:[01],02:[02],03:[03],mmc:(un)]s(0)Z?S?*/
	$8D45  38:          sec 			/* A(??)X(??)Y(??)MAP[00:[00],01:[01],02:[02],03:[03],mmc:(un)]s(0)Z?S?*/
	$8D46  E9 E8:       sbc #$E8			/* A(??)X(??)Y(??)MAP[00:[00],01:[01],02:[02],03:[03],mmc:(un)]s(0)Z?S?*/
	$8D48  A5 4F:       lda $4F			/* A(??)X(??)Y(??)MAP[00:[00],01:[01],02:[02],03:[03],mmc:(un)]s(0)Z?S?*/
	$8D4A  E9 03:       sbc #$03			/* A(??)X(??)Y(??)MAP[00:[00],01:[01],02:[02],03:[03],mmc:(un)]s(0)Z?S?*/
	$8D4C  90 24:       bcc +++		; $8D72 -> rts			/* A(??)X(??)Y(??)MAP[00:[00],01:[01],02:[02],03:[03],mmc:(un)]s(0)Z?S?*/
++	$8D4E  A5 31:       lda $31			/* A(??)X(??)Y(??)MAP[00:[00],01:[01],02:[02],03:[03],mmc:(un)]s(0)Z?S?*/
	$8D50  30 20:       bmi +++		; $8D72 -> rts			/* A(??)X(??)Y(??)MAP[00:[00],01:[01],02:[02],03:[03],mmc:(un)]s(0)Z?S?*/
	$8D52  A5 FC:       lda $FC			/* A(??)X(??)Y(??)MAP[00:[00],01:[01],02:[02],03:[03],mmc:(un)]s(0)Z?S?*/
	$8D54  10 0A:       bpl +		; $8D60			/* A(??)X(??)Y(??)MAP[00:[00],01:[01],02:[02],03:[03],mmc:(un)]s(0)Z?S?*/
	$8D56  A5 25:       lda $25			/* A(??)X(??)Y(??)MAP[00:[00],01:[01],02:[02],03:[03],mmc:(un)]s(0)Z?S?*/
	$8D58  18:          clc 			/* A(??)X(??)Y(??)MAP[00:[00],01:[01],02:[02],03:[03],mmc:(un)]s(0)Z?S?*/
	$8D59  69 02:       adc #$02			/* A(??)X(??)Y(??)MAP[00:[00],01:[01],02:[02],03:[03],mmc:(un)]s(0)Z?S?*/
	$8D5B  85 25:       sta $25			/* A(??)X(??)Y(??)MAP[00:[00],01:[01],02:[02],03:[03],mmc:(un)]s(0)Z?S?*/
	$8D5D  4C 67 8D:    jmp ++		; $8D67			/* A(??)X(??)Y(??)MAP[00:[00],01:[01],02:[02],03:[03],mmc:(un)]s(0)Z?S?*/(barrier)

+	$8D60  A5 27:       lda $27			/* A(??)X(??)Y(??)MAP[00:[00],01:[01],02:[02],03:[03],mmc:(un)]s(0)Z?S?*/
	$8D62  18:          clc 			/* A(??)X(??)Y(??)MAP[00:[00],01:[01],02:[02],03:[03],mmc:(un)]s(0)Z?S?*/
	$8D63  69 02:       adc #$02			/* A(??)X(??)Y(??)MAP[00:[00],01:[01],02:[02],03:[03],mmc:(un)]s(0)Z?S?*/
	$8D65  85 27:       sta $27			/* A(??)X(??)Y(??)MAP[00:[00],01:[01],02:[02],03:[03],mmc:(un)]s(0)Z?S?*/
++	$8D67  A9 80:       lda #$80			/* A(??)X(??)Y(??)MAP[00:[00],01:[01],02:[02],03:[03],mmc:(un)]s(0)Z?S?*/
	$8D69  8D 97 03:    sta $0397			/* A(80)<D67>X(??)Y(??)MAP[00:[00],01:[01],02:[02],03:[03],mmc:(un)]s(0)Z0S1*/
	$8D6C  A5 5F:       lda $5F			/* A(??)X(??)Y(??)MAP[00:[00],01:[01],02:[02],03:[03],mmc:(un)]s(0)Z?S?*/
	$8D6E  09 02:       ora #$02			/* A(??)X(??)Y(??)MAP[00:[00],01:[01],02:[02],03:[03],mmc:(un)]s(0)Z?S?*/
	$8D70  85 5F:       sta $5F			/* A(??)X(??)Y(??)MAP[00:[00],01:[01],02:[02],03:[03],mmc:(un)]s(0)Z?S?*/
+++	$8D72  60:          rts 			/* A(??)X(??)Y(??)MAP[00:[00],01:[01],02:[02],03:[03],mmc:(un)]s(0)Z?S?*/(barrier)
;------------------------------------------
_func_0D73
	$8D73  A0 00:       ldy #$00			/* A(??)X(??)Y(00)<D73>MAP[00:[00],01:[01],02:[02],03:[03],mmc:(un)]s(0)Z1S0*/
-	$8D75  A9 00:       lda #$00			/* A(00)<D75>X(??)Y(00)<D73>MAP[00:[00],01:[01],02:[02],03:[03],mmc:(un)]s(0)Z?S?*/
	$8D77  99 06 03:    sta $0306,y			/* A(00)<D75>X(??)Y(00)<D73>MAP[00:[00],01:[01],02:[02],03:[03],mmc:(un)]s(0)Z1S0*/
	$8D7A  A9 20:       lda #$20			/* A(20)<D7A>X(??)Y(00)<D73>MAP[00:[00],01:[01],02:[02],03:[03],mmc:(un)]s(0)Z0S0*/
	$8D7C  99 05 03:    sta $0305,y			/* A(20)<D7A>X(??)Y(00)<D73>MAP[00:[00],01:[01],02:[02],03:[03],mmc:(un)]s(0)Z0S0*/
	$8D7F  98:          tya 			/* A(00)<D7F>X(??)Y(00)<D73>MAP[00:[00],01:[01],02:[02],03:[03],mmc:(un)]s(0)Z1S0*/
	$8D80  18:          clc 			/* A(00)<D7F>X(??)Y(00)<D73>MAP[00:[00],01:[01],02:[02],03:[03],mmc:(un)]s(0)Z1S0*/
	$8D81  69 08:       adc #$08			/* A(??)X(??)Y(00)<D73>MAP[00:[00],01:[01],02:[02],03:[03],mmc:(un)]s(0)Z?S?*/
	$8D83  A8:          tay 			/* A(??)X(??)Y(??)MAP[00:[00],01:[01],02:[02],03:[03],mmc:(un)]s(0)Z?S?*/
	$8D84  C9 90:       cmp #$90			/* A(??)X(??)Y(??)MAP[00:[00],01:[01],02:[02],03:[03],mmc:(un)]s(0)Z?S?*/
	$8D86  90 ED:       bcc -		; $8D75			/* A(??)X(??)Y(??)MAP[00:[00],01:[01],02:[02],03:[03],mmc:(un)]s(0)Z?S?*/
	$8D88  A9 00:       lda #$00			/* A(00)<D88>X(??)Y(??)MAP[00:[00],01:[01],02:[02],03:[03],mmc:(un)]s(0)Z1S0*/
	$8D8A  8D 01 20:    sta $2001			/* A(00)<D88>X(??)Y(??)MAP[00:[00],01:[01],02:[02],03:[03],mmc:(un)]s(0)Z1S0*/
	$8D8D  A5 4E:       lda $4E			/* A(??)X(??)Y(??)MAP[00:[00],01:[01],02:[02],03:[03],mmc:(un)]s(0)Z?S?*/
	$8D8F  38:          sec 			/* A(??)X(??)Y(??)MAP[00:[00],01:[01],02:[02],03:[03],mmc:(un)]s(0)Z?S?*/
	$8D90  E9 30:       sbc #$30			/* A(??)X(??)Y(??)MAP[00:[00],01:[01],02:[02],03:[03],mmc:(un)]s(0)Z?S?*/
	$8D92  85 10:       sta $10			/* A(??)X(??)Y(??)MAP[00:[00],01:[01],02:[02],03:[03],mmc:(un)]s(0)Z?S?*/
	$8D94  A5 4F:       lda $4F			/* A(??)X(??)Y(??)MAP[00:[00],01:[01],02:[02],03:[03],mmc:(un)]s(0)Z?S?*/
	$8D96  E9 00:       sbc #$00			/* A(??)X(??)Y(??)MAP[00:[00],01:[01],02:[02],03:[03],mmc:(un)]s(0)Z?S?*/
	$8D98  85 11:       sta $11			/* A(??)X(??)Y(??)MAP[00:[00],01:[01],02:[02],03:[03],mmc:(un)]s(0)Z?S?*/
	$8D9A  20 D7 9D:    jsr _func_1DD7			/* A(??)X(??)Y(??)MAP[00:(??),01:(??),02:(??),03:(??),mmc:(un)]s(0)Z?S?*/
	$8D9D  A5 12:       lda $12			/* A(??)X(??)Y(??)MAP[00:[00],01:[01],02:[02],03:[03],mmc:(un)]s(0)Z?S?*/
	$8D9F  85 10:       sta $10			/* A(??)X(??)Y(??)MAP[00:[00],01:[01],02:[02],03:[03],mmc:(un)]s(0)Z?S?*/
	$8DA1  A5 13:       lda $13			/* A(??)X(??)Y(??)MAP[00:[00],01:[01],02:[02],03:[03],mmc:(un)]s(0)Z?S?*/
	$8DA3  85 11:       sta $11			/* A(??)X(??)Y(??)MAP[00:[00],01:[01],02:[02],03:[03],mmc:(un)]s(0)Z?S?*/
	$8DA5  20 E0 99:    jsr _func_19E0			/* A(??)X(??)Y(??)MAP[00:(??),01:(??),02:(??),03:(??),mmc:(un)]s(0)Z?S?*/
	$8DA8  A5 12:       lda $12			/* A(??)X(??)Y(??)MAP[00:[00],01:[01],02:[02],03:[03],mmc:(un)]s(0)Z?S?*/
	$8DAA  18:          clc 			/* A(??)X(??)Y(??)MAP[00:[00],01:[01],02:[02],03:[03],mmc:(un)]s(0)Z?S?*/
	$8DAB  69 06:       adc #$06			/* A(??)X(??)Y(??)MAP[00:[00],01:[01],02:[02],03:[03],mmc:(un)]s(0)Z?S?*/
	$8DAD  A8:          tay 			/* A(??)X(??)Y(??)MAP[00:[00],01:[01],02:[02],03:[03],mmc:(un)]s(0)Z?S?*/
	$8DAE  A5 13:       lda $13			/* A(??)X(??)Y(??)MAP[00:[00],01:[01],02:[02],03:[03],mmc:(un)]s(0)Z?S?*/
	$8DB0  20 74 94:    jsr _func_1474			/* A(??)X(??)Y(??)MAP[00:(??),01:(??),02:(??),03:(??),mmc:(un)]s(0)Z?S?*/
	$8DB3  A5 33:       lda $33			/* A(??)X(??)Y(??)MAP[00:[00],01:[01],02:[02],03:[03],mmc:(un)]s(0)Z?S?*/
	$8DB5  30 05:       bmi +		; $8DBC			/* A(??)X(??)Y(??)MAP[00:[00],01:[01],02:[02],03:[03],mmc:(un)]s(0)Z?S?*/
	$8DB7  A5 2D:       lda $2D			/* A(??)X(??)Y(??)MAP[00:[00],01:[01],02:[02],03:[03],mmc:(un)]s(0)Z?S?*/
	$8DB9  4C BE 8D:    jmp ++		; $8DBE			/* A(??)X(??)Y(??)MAP[00:[00],01:[01],02:[02],03:[03],mmc:(un)]s(0)Z?S?*/(barrier)

+	$8DBC  A5 2C:       lda $2C			/* A(??)X(??)Y(??)MAP[00:[00],01:[01],02:[02],03:[03],mmc:(un)]s(0)Z?S?*/
++	$8DBE  29 01:       and #$01			/* A(??)X(??)Y(??)MAP[00:[00],01:[01],02:[02],03:[03],mmc:(un)]s(0)Z?S?*/
	$8DC0  A8:          tay 			/* A(??)X(??)Y(??)MAP[00:[00],01:[01],02:[02],03:[03],mmc:(un)]s(0)Z?S?*/
	$8DC1  C8:          iny 			/* A(??)X(??)Y(??)MAP[00:[00],01:[01],02:[02],03:[03],mmc:(un)]s(0)Z?S?*/
	$8DC2  8C 07 20:    sty $2007			/* A(??)X(??)Y(??)MAP[00:[00],01:[01],02:[02],03:[03],mmc:(un)]s(0)Z?S?*/
	$8DC5  A0 00:       ldy #$00			/* A(??)X(??)Y(00)<DC5>MAP[00:[00],01:[01],02:[02],03:[03],mmc:(un)]s(0)Z1S0*/
-	$8DC7  B9 D5 8D:    lda _data_0DD5_indexed,y			/* A$0DD5,y<DC7>X(??)Y(00)<DC5>MAP[00:[00],01:[01],02:[02],03:[03],mmc:(un)]s(0)Z?S?*/
	$8DCA  8D 07 20:    sta $2007			/* A$0DD5,y<DC7>X(??)Y(00)<DC5>MAP[00:[00],01:[01],02:[02],03:[03],mmc:(un)]s(0)Z?S?*/
	$8DCD  C8:          iny 			/* A(??)X(??)Y(??)MAP[00:[00],01:[01],02:[02],03:[03],mmc:(un)]s(0)Z?S?*/
	$8DCE  C0 0D:       cpy #$0D			/* A(??)X(??)Y(??)MAP[00:[00],01:[01],02:[02],03:[03],mmc:(un)]s(0)Z?S?*/
	$8DD0  90 F5:       bcc -		; $8DC7			/* A(??)X(??)Y(??)MAP[00:[00],01:[01],02:[02],03:[03],mmc:(un)]s(0)Z?S?*/
	$8DD2  4C 37 8F:    jmp _func_0F37			/* A(??)X(??)Y(??)MAP[00:[00],01:[01],02:[02],03:[03],mmc:(un)]s(0)Z?S?*/(barrier)
;------------------------------------------
_data_0DD5_indexed
	$8DD5               .byte $30,$11,$0A,$15,$0F,$30,$1D,$12,$16,$0E,$30,$1E,$19
_func_0DE2
	$8DE2  A9 00:       lda #$00			/* A(??)X(??)Y(??)MAP[00:[00],01:[01],02:[02],03:[03],mmc:(un)]s(0)Z?S?*/
	$8DE4  8D 97 03:    sta $0397			/* A(00)<DE2>X(??)Y(??)MAP[00:[00],01:[01],02:[02],03:[03],mmc:(un)]s(0)Z1S0*/
	$8DE7  20 C1 89:    jsr _func_09C1			/* A(??)X(??)Y(??)MAP[00:(??),01:(??),02:(??),03:(??),mmc:(un)]s(0)Z?S?*/
	$8DEA  A5 35:       lda $35			/* A(??)X(??)Y(??)MAP[00:[00],01:[01],02:[02],03:[03],mmc:(un)]s(0)Z?S?*/
	$8DEC  10 0D:       bpl +		; $8DFB			/* A(??)X(??)Y(??)MAP[00:[00],01:[01],02:[02],03:[03],mmc:(un)]s(0)Z?S?*/
	$8DEE  AD 95 03:    lda $0395			/* A(??)X(??)Y(??)MAP[00:[00],01:[01],02:[02],03:[03],mmc:(un)]s(0)Z?S?*/
	$8DF1  38:          sec 			/* A(??)X(??)Y(??)MAP[00:[00],01:[01],02:[02],03:[03],mmc:(un)]s(0)Z?S?*/
	$8DF2  E9 E8:       sbc #$E8			/* A(??)X(??)Y(??)MAP[00:[00],01:[01],02:[02],03:[03],mmc:(un)]s(0)Z?S?*/
	$8DF4  AD 96 03:    lda $0396			/* A(??)X(??)Y(??)MAP[00:[00],01:[01],02:[02],03:[03],mmc:(un)]s(0)Z?S?*/
	$8DF7  E9 03:       sbc #$03			/* A(??)X(??)Y(??)MAP[00:[00],01:[01],02:[02],03:[03],mmc:(un)]s(0)Z?S?*/
	$8DF9  B0 22:       bcs ++		; $8E1D			/* A(??)X(??)Y(??)MAP[00:[00],01:[01],02:[02],03:[03],mmc:(un)]s(0)Z?S?*/
+	$8DFB  A5 4E:       lda $4E			/* A(??)X(??)Y(??)MAP[00:[00],01:[01],02:[02],03:[03],mmc:(un)]s(0)Z?S?*/
	$8DFD  38:          sec 			/* A(??)X(??)Y(??)MAP[00:[00],01:[01],02:[02],03:[03],mmc:(un)]s(0)Z?S?*/
	$8DFE  E9 E8:       sbc #$E8			/* A(??)X(??)Y(??)MAP[00:[00],01:[01],02:[02],03:[03],mmc:(un)]s(0)Z?S?*/
	$8E00  A5 4F:       lda $4F			/* A(??)X(??)Y(??)MAP[00:[00],01:[01],02:[02],03:[03],mmc:(un)]s(0)Z?S?*/
	$8E02  E9 03:       sbc #$03			/* A(??)X(??)Y(??)MAP[00:[00],01:[01],02:[02],03:[03],mmc:(un)]s(0)Z?S?*/
	$8E04  B0 17:       bcs ++		; $8E1D			/* A(??)X(??)Y(??)MAP[00:[00],01:[01],02:[02],03:[03],mmc:(un)]s(0)Z?S?*/
	$8E06  A5 4E:       lda $4E			/* A(??)X(??)Y(??)MAP[00:[00],01:[01],02:[02],03:[03],mmc:(un)]s(0)Z?S?*/
	$8E08  38:          sec 			/* A(??)X(??)Y(??)MAP[00:[00],01:[01],02:[02],03:[03],mmc:(un)]s(0)Z?S?*/
	$8E09  E9 98:       sbc #$98			/* A(??)X(??)Y(??)MAP[00:[00],01:[01],02:[02],03:[03],mmc:(un)]s(0)Z?S?*/
	$8E0B  A5 4F:       lda $4F			/* A(??)X(??)Y(??)MAP[00:[00],01:[01],02:[02],03:[03],mmc:(un)]s(0)Z?S?*/
	$8E0D  E9 00:       sbc #$00			/* A(??)X(??)Y(??)MAP[00:[00],01:[01],02:[02],03:[03],mmc:(un)]s(0)Z?S?*/
	$8E0F  B0 24:       bcs +++		; $8E35 -> rts			/* A(??)X(??)Y(??)MAP[00:[00],01:[01],02:[02],03:[03],mmc:(un)]s(0)Z?S?*/
	$8E11  A9 01:       lda #$01			/* A(01)<E11>X(??)Y(??)MAP[00:[00],01:[01],02:[02],03:[03],mmc:(un)]s(0)Z0S0*/
	$8E13  85 4F:       sta $4F			/* A(01)<E11>X(??)Y(??)MAP[00:[00],01:[01],02:[02],03:[03],mmc:(un)]s(0)Z0S0*/
	$8E15  A9 64:       lda #$64			/* A(64)<E15>X(??)Y(??)MAP[00:[00],01:[01],02:[02],03:[03],mmc:(un)]s(0)Z0S0*/
	$8E17  85 4E:       sta $4E			/* A(64)<E15>X(??)Y(??)MAP[00:[00],01:[01],02:[02],03:[03],mmc:(un)]s(0)Z0S0*/
	$8E19  A9 6C:       lda #$6C			/* A(6C)<E19>X(??)Y(??)MAP[00:[00],01:[01],02:[02],03:[03],mmc:(un)]s(0)Z0S0*/
	$8E1B  85 4D:       sta $4D			/* A(6C)<E19>X(??)Y(??)MAP[00:[00],01:[01],02:[02],03:[03],mmc:(un)]s(0)Z0S0*/
++	$8E1D  A5 5F:       lda $5F			/* A(??)X(??)Y(??)MAP[00:[00],01:[01],02:[02],03:[03],mmc:(un)]s(0)Z?S?*/
	$8E1F  29 02:       and #$02			/* A(??)X(??)Y(??)MAP[00:[00],01:[01],02:[02],03:[03],mmc:(un)]s(0)Z?S?*/
	$8E21  F0 12:       beq +++		; $8E35 -> rts			/* A(??)X(??)Y(??)MAP[00:[00],01:[01],02:[02],03:[03],mmc:(un)]s(0)Z?S?*/
	$8E23  A5 23:       lda $23			/* A(??)X(??)Y(??)MAP[00:[00],01:[01],02:[02],03:[03],mmc:(un)]s(0)Z?S?*/
	$8E25  05 24:       ora $24			/* A(??)X(??)Y(??)MAP[00:[00],01:[01],02:[02],03:[03],mmc:(un)]s(0)Z?S?*/
	$8E27  F0 0C:       beq +++		; $8E35 -> rts			/* A(??)X(??)Y(??)MAP[00:[00],01:[01],02:[02],03:[03],mmc:(un)]s(0)Z?S?*/
	$8E29  A5 FC:       lda $FC			/* A(??)X(??)Y(??)MAP[00:[00],01:[01],02:[02],03:[03],mmc:(un)]s(0)Z?S?*/
	$8E2B  4D 97 03:    eor $0397			/* A(??)X(??)Y(??)MAP[00:[00],01:[01],02:[02],03:[03],mmc:(un)]s(0)Z?S?*/
	$8E2E  85 FC:       sta $FC			/* A(??)X(??)Y(??)MAP[00:[00],01:[01],02:[02],03:[03],mmc:(un)]s(0)Z?S?*/
	$8E30  68:          pla 			/* A(??)X(??)Y(??)MAP[00:[00],01:[01],02:[02],03:[03],mmc:(un)]s(0)Z?S?*/
	$8E31  68:          pla 			/* A(??)X(??)Y(??)MAP[00:[00],01:[01],02:[02],03:[03],mmc:(un)]s(0)Z?S?*/
	$8E32  4C AC 80:    jmp ----		; $80AC			/* A(??)X(??)Y(??)MAP[00:[00],01:[01],02:[02],03:[03],mmc:(un)]s(0)Z?S?*/(barrier)

+++	$8E35  60:          rts 			/* A(??)X(??)Y(??)MAP[00:[00],01:[01],02:[02],03:[03],mmc:(un)]s(0)Z?S?*/(barrier)
;------------------------------------------
_func_0E36
	$8E36  A5 EB:       lda $EB			/* A(??)X(??)Y(??)MAP[00:[00],01:[01],02:[02],03:[03],mmc:(un)]s(0)Z?S?*/
	$8E38  29 0F:       and #$0F			/* A(??)X(??)Y(??)MAP[00:[00],01:[01],02:[02],03:[03],mmc:(un)]s(0)Z?S?*/
	$8E3A  85 ED:       sta $ED			/* A(??)X(??)Y(??)MAP[00:[00],01:[01],02:[02],03:[03],mmc:(un)]s(0)Z?S?*/
	$8E3C  A5 EC:       lda $EC			/* A(??)X(??)Y(??)MAP[00:[00],01:[01],02:[02],03:[03],mmc:(un)]s(0)Z?S?*/
	$8E3E  29 0F:       and #$0F			/* A(??)X(??)Y(??)MAP[00:[00],01:[01],02:[02],03:[03],mmc:(un)]s(0)Z?S?*/
	$8E40  85 59:       sta $59			/* A(??)X(??)Y(??)MAP[00:[00],01:[01],02:[02],03:[03],mmc:(un)]s(0)Z?S?*/
	$8E42  A9 01:       lda #$01			/* A(01)<E42>X(??)Y(??)MAP[00:[00],01:[01],02:[02],03:[03],mmc:(un)]s(0)Z0S0*/
	$8E44  8D 16 40:    sta $4016			/* A(01)<E42>X(??)Y(??)MAP[00:[00],01:[01],02:[02],03:[03],mmc:(un)]s(0)Z0S0*/
	$8E47  A9 00:       lda #$00			/* A(00)<E47>X(??)Y(??)MAP[00:[00],01:[01],02:[02],03:[03],mmc:(un)]s(0)Z1S0*/
	$8E49  8D 16 40:    sta $4016			/* A(00)<E47>X(??)Y(??)MAP[00:[00],01:[01],02:[02],03:[03],mmc:(un)]s(0)Z1S0*/
	$8E4C  A2 08:       ldx #$08			/* A(00)<E47>X(08)<E4C>Y(??)MAP[00:[00],01:[01],02:[02],03:[03],mmc:(un)]s(0)Z0S0*/
-	$8E4E  AD 16 40:    lda $4016			/* A(??)X(08)<E4C>Y(??)MAP[00:[00],01:[01],02:[02],03:[03],mmc:(un)]s(0)Z?S?*/
	$8E51  29 03:       and #$03			/* A(??)X(08)<E4C>Y(??)MAP[00:[00],01:[01],02:[02],03:[03],mmc:(un)]s(0)Z?S?*/
	$8E53  C9 01:       cmp #$01			/* A(??)X(08)<E4C>Y(??)MAP[00:[00],01:[01],02:[02],03:[03],mmc:(un)]s(0)Z?S?*/
	$8E55  66 EB:       ror $EB			/* A(??)X(08)<E4C>Y(??)MAP[00:[00],01:[01],02:[02],03:[03],mmc:(un)]s(0)Z?S?*/
	$8E57  AD 17 40:    lda $4017			/* A(??)X(08)<E4C>Y(??)MAP[00:[00],01:[01],02:[02],03:[03],mmc:(un)]s(0)Z?S?*/
	$8E5A  29 03:       and #$03			/* A(??)X(08)<E4C>Y(??)MAP[00:[00],01:[01],02:[02],03:[03],mmc:(un)]s(0)Z?S?*/
	$8E5C  C9 01:       cmp #$01			/* A(??)X(08)<E4C>Y(??)MAP[00:[00],01:[01],02:[02],03:[03],mmc:(un)]s(0)Z?S?*/
	$8E5E  66 EC:       ror $EC			/* A(??)X(08)<E4C>Y(??)MAP[00:[00],01:[01],02:[02],03:[03],mmc:(un)]s(0)Z?S?*/
	$8E60  CA:          dex 			/* A(??)X(??)Y(??)MAP[00:[00],01:[01],02:[02],03:[03],mmc:(un)]s(0)Z?S?*/
	$8E61  D0 EB:       bne -		; $8E4E			/* A(??)X(??)Y(??)MAP[00:[00],01:[01],02:[02],03:[03],mmc:(un)]s(0)Z?S?*/
	$8E63  A5 31:       lda $31			/* A(??)X(??)Y(??)MAP[00:[00],01:[01],02:[02],03:[03],mmc:(un)]s(0)Z?S?*/
	$8E65  30 2D:       bmi ++		; $8E94			/* A(??)X(??)Y(??)MAP[00:[00],01:[01],02:[02],03:[03],mmc:(un)]s(0)Z?S?*/
	$8E67  A5 ED:       lda $ED			/* A(??)X(??)Y(??)MAP[00:[00],01:[01],02:[02],03:[03],mmc:(un)]s(0)Z?S?*/
	$8E69  49 FF:       eor #$FF			/* A(??)X(??)Y(??)MAP[00:[00],01:[01],02:[02],03:[03],mmc:(un)]s(0)Z?S?*/
	$8E6B  85 EA:       sta $EA			/* A(??)X(??)Y(??)MAP[00:[00],01:[01],02:[02],03:[03],mmc:(un)]s(0)Z?S?*/
	$8E6D  A5 EB:       lda $EB			/* A(??)X(??)Y(??)MAP[00:[00],01:[01],02:[02],03:[03],mmc:(un)]s(0)Z?S?*/
	$8E6F  45 ED:       eor $ED			/* A(??)X(??)Y(??)MAP[00:[00],01:[01],02:[02],03:[03],mmc:(un)]s(0)Z?S?*/
	$8E71  25 EA:       and $EA			/* A(??)X(??)Y(??)MAP[00:[00],01:[01],02:[02],03:[03],mmc:(un)]s(0)Z?S?*/
	$8E73  85 E9:       sta $E9			/* A(??)X(??)Y(??)MAP[00:[00],01:[01],02:[02],03:[03],mmc:(un)]s(0)Z?S?*/
	$8E75  A5 59:       lda $59			/* A(??)X(??)Y(??)MAP[00:[00],01:[01],02:[02],03:[03],mmc:(un)]s(0)Z?S?*/
	$8E77  49 FF:       eor #$FF			/* A(??)X(??)Y(??)MAP[00:[00],01:[01],02:[02],03:[03],mmc:(un)]s(0)Z?S?*/
	$8E79  85 EA:       sta $EA			/* A(??)X(??)Y(??)MAP[00:[00],01:[01],02:[02],03:[03],mmc:(un)]s(0)Z?S?*/
	$8E7B  A5 EC:       lda $EC			/* A(??)X(??)Y(??)MAP[00:[00],01:[01],02:[02],03:[03],mmc:(un)]s(0)Z?S?*/
	$8E7D  45 59:       eor $59			/* A(??)X(??)Y(??)MAP[00:[00],01:[01],02:[02],03:[03],mmc:(un)]s(0)Z?S?*/
	$8E7F  25 EA:       and $EA			/* A(??)X(??)Y(??)MAP[00:[00],01:[01],02:[02],03:[03],mmc:(un)]s(0)Z?S?*/
	$8E81  85 EA:       sta $EA			/* A(??)X(??)Y(??)MAP[00:[00],01:[01],02:[02],03:[03],mmc:(un)]s(0)Z?S?*/
	$8E83  A5 FC:       lda $FC			/* A(??)X(??)Y(??)MAP[00:[00],01:[01],02:[02],03:[03],mmc:(un)]s(0)Z?S?*/
	$8E85  10 0C:       bpl +		; $8E93 -> rts			/* A(??)X(??)Y(??)MAP[00:[00],01:[01],02:[02],03:[03],mmc:(un)]s(0)Z?S?*/
	$8E87  A5 E9:       lda $E9			/* A(??)X(??)Y(??)MAP[00:[00],01:[01],02:[02],03:[03],mmc:(un)]s(0)Z?S?*/
	$8E89  85 10:       sta $10			/* A(??)X(??)Y(??)MAP[00:[00],01:[01],02:[02],03:[03],mmc:(un)]s(0)Z?S?*/
	$8E8B  A5 EA:       lda $EA			/* A(??)X(??)Y(??)MAP[00:[00],01:[01],02:[02],03:[03],mmc:(un)]s(0)Z?S?*/
	$8E8D  85 E9:       sta $E9			/* A(??)X(??)Y(??)MAP[00:[00],01:[01],02:[02],03:[03],mmc:(un)]s(0)Z?S?*/
	$8E8F  A5 10:       lda $10			/* A(??)X(??)Y(??)MAP[00:[00],01:[01],02:[02],03:[03],mmc:(un)]s(0)Z?S?*/
	$8E91  85 EA:       sta $EA			/* A(??)X(??)Y(??)MAP[00:[00],01:[01],02:[02],03:[03],mmc:(un)]s(0)Z?S?*/
+	$8E93  60:          rts 			/* A(??)X(??)Y(??)MAP[00:[00],01:[01],02:[02],03:[03],mmc:(un)]s(0)Z?S?*/(barrier)

++	$8E94  A5 1D:       lda $1D			/* A(??)X(??)Y(??)MAP[00:[00],01:[01],02:[02],03:[03],mmc:(un)]s(0)Z?S?*/
	$8E96  29 1F:       and #$1F			/* A(??)X(??)Y(??)MAP[00:[00],01:[01],02:[02],03:[03],mmc:(un)]s(0)Z?S?*/
	$8E98  D0 1D:       bne +		; $8EB7			/* A(??)X(??)Y(??)MAP[00:[00],01:[01],02:[02],03:[03],mmc:(un)]s(0)Z?S?*/
	$8E9A  20 4A 8F:    jsr _func_0F4A			/* A(??)X(??)Y(??)MAP[00:(??),01:(??),02:(??),03:(??),mmc:(un)]s(0)Z?S?*/
	$8E9D  29 07:       and #$07			/* A(??)X(??)Y(??)MAP[00:[00],01:[01],02:[02],03:[03],mmc:(un)]s(0)Z?S?*/
	$8E9F  A8:          tay 			/* A(??)X(??)Y(??)MAP[00:[00],01:[01],02:[02],03:[03],mmc:(un)]s(0)Z?S?*/
	$8EA0  B9 BC 8E:    lda _data_0EBC_indexed,y			/* A$0EBC,y<EA0>X(??)Y(??)MAP[00:[00],01:[01],02:[02],03:[03],mmc:(un)]s(0)Z?S?*/
	$8EA3  85 E9:       sta $E9			/* A$0EBC,y<EA0>X(??)Y(??)MAP[00:[00],01:[01],02:[02],03:[03],mmc:(un)]s(0)Z?S?*/
	$8EA5  85 38:       sta $38			/* A$0EBC,y<EA0>X(??)Y(??)MAP[00:[00],01:[01],02:[02],03:[03],mmc:(un)]s(0)Z?S?*/
	$8EA7  A5 1D:       lda $1D			/* A(??)X(??)Y(??)MAP[00:[00],01:[01],02:[02],03:[03],mmc:(un)]s(0)Z?S?*/
	$8EA9  29 3F:       and #$3F			/* A(??)X(??)Y(??)MAP[00:[00],01:[01],02:[02],03:[03],mmc:(un)]s(0)Z?S?*/
	$8EAB  D0 0A:       bne +		; $8EB7			/* A(??)X(??)Y(??)MAP[00:[00],01:[01],02:[02],03:[03],mmc:(un)]s(0)Z?S?*/
	$8EAD  20 4A 8F:    jsr _func_0F4A			/* A(??)X(??)Y(??)MAP[00:(??),01:(??),02:(??),03:(??),mmc:(un)]s(0)Z?S?*/
	$8EB0  29 03:       and #$03			/* A(??)X(??)Y(??)MAP[00:[00],01:[01],02:[02],03:[03],mmc:(un)]s(0)Z?S?*/
	$8EB2  05 E9:       ora $E9			/* A(??)X(??)Y(??)MAP[00:[00],01:[01],02:[02],03:[03],mmc:(un)]s(0)Z?S?*/
	$8EB4  85 E9:       sta $E9			/* A(??)X(??)Y(??)MAP[00:[00],01:[01],02:[02],03:[03],mmc:(un)]s(0)Z?S?*/
	$8EB6  60:          rts 			/* A(??)X(??)Y(??)MAP[00:[00],01:[01],02:[02],03:[03],mmc:(un)]s(0)Z?S?*/(barrier)

+	$8EB7  A5 38:       lda $38			/* A(??)X(??)Y(??)MAP[00:[00],01:[01],02:[02],03:[03],mmc:(un)]s(0)Z?S?*/
	$8EB9  85 E9:       sta $E9			/* A(??)X(??)Y(??)MAP[00:[00],01:[01],02:[02],03:[03],mmc:(un)]s(0)Z?S?*/
	$8EBB  60:          rts 			/* A(??)X(??)Y(??)MAP[00:[00],01:[01],02:[02],03:[03],mmc:(un)]s(0)Z?S?*/(barrier)
;------------------------------------------
_data_0EBC_indexed
	$8EBC               .byte $40,$90,$10,$50,$80,$10,$90,$50
_func_0EC4
	$8EC4  A0 00:       ldy #$00			/* A(??)X(??)Y(00)<EC4>MAP[00:[00],01:[01],02:[02],03:[03],mmc:(un)]s(0)Z?S?*/
	$8EC6  8C 01 20:    sty $2001			/* A(??)X(??)Y(00)<EC4>MAP[00:[00],01:[01],02:[02],03:[03],mmc:(un)]s(0)Z1S0*/
	$8EC9  A9 20:       lda #$20			/* A(20)<EC9>X(??)Y(00)<EC4>MAP[00:[00],01:[01],02:[02],03:[03],mmc:(un)]s(0)Z0S0*/
	$8ECB  20 74 94:    jsr _func_1474			/* A(??)X(??)Y(??)MAP[00:(??),01:(??),02:(??),03:(??),mmc:(un)]s(0)Z?S?*/
	$8ECE  A9 03:       lda #$03			/* A(03)<ECE>X(??)Y(00)<EC4>MAP[00:[00],01:[01],02:[02],03:[03],mmc:(un)]s(0)Z0S0*/
	$8ED0  85 10:       sta $10			/* A(03)<ECE>X(??)Y(00)<EC4>MAP[00:[00],01:[01],02:[02],03:[03],mmc:(un)]s(0)Z0S0*/
	$8ED2  A9 30:       lda #$30			/* A(30)<ED2>X(??)Y(00)<EC4>MAP[00:[00],01:[01],02:[02],03:[03],mmc:(un)]s(0)Z0S0*/
-	$8ED4  8D 07 20:    sta $2007			/* A(30)<ED2>X(??)Y(00)<EC4>MAP[00:[00],01:[01],02:[02],03:[03],mmc:(un)]s(0)Z?S?*/
	$8ED7  88:          dey 			/* A(??)X(??)Y(??)MAP[00:[00],01:[01],02:[02],03:[03],mmc:(un)]s(0)Z?S?*/
	$8ED8  D0 FA:       bne -		; $8ED4			/* A(??)X(??)Y(??)MAP[00:[00],01:[01],02:[02],03:[03],mmc:(un)]s(0)Z?S?*/
	$8EDA  C6 10:       dec $10			/* A(??)X(??)Y(??)MAP[00:[00],01:[01],02:[02],03:[03],mmc:(un)]s(0)Z?S?*/
	$8EDC  D0 F6:       bne -		; $8ED4			/* A(??)X(??)Y(??)MAP[00:[00],01:[01],02:[02],03:[03],mmc:(un)]s(0)Z?S?*/
-	$8EDE  8D 07 20:    sta $2007			/* A(??)X(??)Y(??)MAP[00:[00],01:[01],02:[02],03:[03],mmc:(un)]s(0)Z?S?*/
	$8EE1  C8:          iny 			/* A(??)X(??)Y(??)MAP[00:[00],01:[01],02:[02],03:[03],mmc:(un)]s(0)Z?S?*/
	$8EE2  C0 C0:       cpy #$C0			/* A(??)X(??)Y(??)MAP[00:[00],01:[01],02:[02],03:[03],mmc:(un)]s(0)Z?S?*/
	$8EE4  90 F8:       bcc -		; $8EDE			/* A(??)X(??)Y(??)MAP[00:[00],01:[01],02:[02],03:[03],mmc:(un)]s(0)Z?S?*/
	$8EE6  A9 00:       lda #$00			/* A(00)<EE6>X(??)Y(??)MAP[00:[00],01:[01],02:[02],03:[03],mmc:(un)]s(0)Z1S0*/
-	$8EE8  8D 07 20:    sta $2007			/* A(00)<EE6>X(??)Y(??)MAP[00:[00],01:[01],02:[02],03:[03],mmc:(un)]s(0)Z?S?*/
	$8EEB  C8:          iny 			/* A(??)X(??)Y(??)MAP[00:[00],01:[01],02:[02],03:[03],mmc:(un)]s(0)Z?S?*/
	$8EEC  D0 FA:       bne -		; $8EE8			/* A(??)X(??)Y(??)MAP[00:[00],01:[01],02:[02],03:[03],mmc:(un)]s(0)Z?S?*/
	$8EEE  4C 5F 94:    jmp _func_145F			/* A(??)X(??)Y(??)MAP[00:[00],01:[01],02:[02],03:[03],mmc:(un)]s(0)Z?S?*/(barrier)
;------------------------------------------
_func_0EF1
	$8EF1  A0 00:       ldy #$00			/* A(FF)<241>X(??)Y(00)<EF1>MAP[00:[00],01:[01],02:[02],03:[03],mmc:(un)]s(0)Z?S?*/
	$8EF3  A9 F0:       lda #$F0			/* A(F0)<EF3>X(??)Y(00)<EF1>MAP[00:[00],01:[01],02:[02],03:[03],mmc:(un)]s(0)Z0S1*/
-	$8EF5  99 00 07:    sta $0700,y			/* A(F0)<EF3>X(??)Y(00)<EF1>MAP[00:[00],01:[01],02:[02],03:[03],mmc:(un)]s(0)Z?S?*/
	$8EF8  C8:          iny 			/* A(??)X(??)Y(??)MAP[00:[00],01:[01],02:[02],03:[03],mmc:(un)]s(0)Z?S?*/
	$8EF9  D0 FA:       bne -		; $8EF5			/* A(??)X(??)Y(??)MAP[00:[00],01:[01],02:[02],03:[03],mmc:(un)]s(0)Z?S?*/
	$8EFB  60:          rts 			/* A(??)X(??)Y(??)MAP[00:[00],01:[01],02:[02],03:[03],mmc:(un)]s(0)Z?S?*/(barrier)
;------------------------------------------
_func_0EFC
	$8EFC  A9 10:       lda #$10			/* A(10)<EFC>X(??)Y(??)MAP[00:[00],01:[01],02:[02],03:[03],mmc:(un)]s(0)Z0S0*/
	$8EFE  D0 02:       bne +		; $8F02			/* A(10)<EFC>X(??)Y(??)MAP[00:[00],01:[01],02:[02],03:[03],mmc:(un)]s(0)Z0S0*/(barrier)
;------------------------------------------
_func_0F00
	$8F00  A9 20:       lda #$20			/* A(0F)<4BCB>X(??)Y(00)<1465>MAP[00:[00],01:[01],02:[02],03:[03],mmc:(un)]s(0)Z?S?*/
+	$8F02  85 48:       sta $48			/* A(??)X(??)Y(??)MAP[00:[00],01:[01],02:[02],03:[03],mmc:(un)]s(0)Z0S0*/
	$8F04  A9 00:       lda #$00			/* A(00)<F04>X(??)Y(??)MAP[00:[00],01:[01],02:[02],03:[03],mmc:(un)]s(0)Z1S0*/
	$8F06  8D 01 20:    sta $2001			/* A(00)<F04>X(??)Y(??)MAP[00:[00],01:[01],02:[02],03:[03],mmc:(un)]s(0)Z1S0*/
	$8F09  A8:          tay 			/* A(00)<F04>X(??)Y(00)<F09>MAP[00:[00],01:[01],02:[02],03:[03],mmc:(un)]s(0)Z1S0*/
	$8F0A  AD 02 20:    lda $2002			/* A(??)X(??)Y(00)<F09>MAP[00:[00],01:[01],02:[02],03:[03],mmc:(un)]s(0)Z?S?*/
	$8F0D  A9 3F:       lda #$3F			/* A(3F)<F0D>X(??)Y(00)<F09>MAP[00:[00],01:[01],02:[02],03:[03],mmc:(un)]s(0)Z0S0*/
	$8F0F  8D 06 20:    sta $2006			/* A(3F)<F0D>X(??)Y(00)<F09>MAP[00:[00],01:[01],02:[02],03:[03],mmc:(un)]s(0)Z0S0*/
	$8F12  A9 00:       lda #$00			/* A(00)<F12>X(??)Y(00)<F09>MAP[00:[00],01:[01],02:[02],03:[03],mmc:(un)]s(0)Z1S0*/
	$8F14  8D 06 20:    sta $2006			/* A(00)<F12>X(??)Y(00)<F09>MAP[00:[00],01:[01],02:[02],03:[03],mmc:(un)]s(0)Z1S0*/
-	$8F17  B9 A3 00:    lda $00A3,y			/* A(??)X(??)Y(00)<F09>MAP[00:[00],01:[01],02:[02],03:[03],mmc:(un)]s(0)Z?S?*/
	$8F1A  8D 07 20:    sta $2007			/* A(??)X(??)Y(00)<F09>MAP[00:[00],01:[01],02:[02],03:[03],mmc:(un)]s(0)Z?S?*/
	$8F1D  C8:          iny 			/* A(??)X(??)Y(??)MAP[00:[00],01:[01],02:[02],03:[03],mmc:(un)]s(0)Z?S?*/
	$8F1E  C4 48:       cpy $48			/* A(??)X(??)Y(??)MAP[00:[00],01:[01],02:[02],03:[03],mmc:(un)]s(0)Z?S?*/
	$8F20  90 F5:       bcc -		; $8F17			/* A(??)X(??)Y(??)MAP[00:[00],01:[01],02:[02],03:[03],mmc:(un)]s(0)Z?S?*/
	$8F22  A9 3F:       lda #$3F			/* A(3F)<F22>X(??)Y(??)MAP[00:[00],01:[01],02:[02],03:[03],mmc:(un)]s(0)Z0S0*/
	$8F24  8D 06 20:    sta $2006			/* A(3F)<F22>X(??)Y(??)MAP[00:[00],01:[01],02:[02],03:[03],mmc:(un)]s(0)Z0S0*/
	$8F27  A9 00:       lda #$00			/* A(00)<F27>X(??)Y(??)MAP[00:[00],01:[01],02:[02],03:[03],mmc:(un)]s(0)Z1S0*/
	$8F29  8D 06 20:    sta $2006			/* A(00)<F27>X(??)Y(??)MAP[00:[00],01:[01],02:[02],03:[03],mmc:(un)]s(0)Z1S0*/
	$8F2C  8D 06 20:    sta $2006			/* A(00)<F27>X(??)Y(??)MAP[00:[00],01:[01],02:[02],03:[03],mmc:(un)]s(0)Z1S0*/
	$8F2F  8D 06 20:    sta $2006			/* A(00)<F27>X(??)Y(??)MAP[00:[00],01:[01],02:[02],03:[03],mmc:(un)]s(0)Z1S0*/
	$8F32  A5 EF:       lda $EF			/* A(??)X(??)Y(??)MAP[00:[00],01:[01],02:[02],03:[03],mmc:(un)]s(0)Z?S?*/
	$8F34  8D 01 20:    sta $2001			/* A(??)X(??)Y(??)MAP[00:[00],01:[01],02:[02],03:[03],mmc:(un)]s(0)Z?S?*/
_func_0F37
	$8F37  AD 02 20:    lda $2002			/* A(??)X(??)Y(00)<49C3>MAP[00:[00],01:[01],02:[02],03:[03],mmc:(un)]s(0)Z?S?*/
	$8F3A  A5 EE:       lda $EE			/* A(??)X(??)Y(00)<150E>MAP[00:[00],01:[01],02:[02],03:[03],mmc:(un)]s(0)Z?S?*/
	$8F3C  8D 00 20:    sta $2000			/* A(??)X(??)Y(00)<150E>MAP[00:[00],01:[01],02:[02],03:[03],mmc:(un)]s(0)Z?S?*/
	$8F3F  A5 F2:       lda $F2			/* A(??)X(??)Y(00)<150E>MAP[00:[00],01:[01],02:[02],03:[03],mmc:(un)]s(0)Z?S?*/
	$8F41  8D 05 20:    sta $2005			/* A(??)X(??)Y(00)<150E>MAP[00:[00],01:[01],02:[02],03:[03],mmc:(un)]s(0)Z?S?*/
	$8F44  A5 F3:       lda $F3			/* A(??)X(??)Y(00)<150E>MAP[00:[00],01:[01],02:[02],03:[03],mmc:(un)]s(0)Z?S?*/
	$8F46  8D 05 20:    sta $2005			/* A(??)X(??)Y(00)<150E>MAP[00:[00],01:[01],02:[02],03:[03],mmc:(un)]s(0)Z?S?*/
	$8F49  60:          rts 			/* A(??)X(??)Y(00)<150E>MAP[00:[00],01:[01],02:[02],03:[03],mmc:(un)]s(0)Z?S?*/(barrier)
;------------------------------------------
_func_0F4A
	$8F4A  A5 0F:       lda $0F			/* A(??)X(??)Y(??)MAP[00:[00],01:[01],02:[02],03:[03],mmc:(un)]s(0)Z?S?*/
	$8F4C  85 0E:       sta $0E			/* A(??)X(??)Y(??)MAP[00:[00],01:[01],02:[02],03:[03],mmc:(un)]s(0)Z?S?*/
	$8F4E  0A:          asl a			/* A(??)X(??)Y(??)MAP[00:[00],01:[01],02:[02],03:[03],mmc:(un)]s(0)Z?S?*/
	$8F4F  0A:          asl a			/* A(??)X(??)Y(??)MAP[00:[00],01:[01],02:[02],03:[03],mmc:(un)]s(0)Z?S?*/
	$8F50  18:          clc 			/* A(??)X(??)Y(??)MAP[00:[00],01:[01],02:[02],03:[03],mmc:(un)]s(0)Z?S?*/
	$8F51  65 0E:       adc $0E			/* A(??)X(??)Y(??)MAP[00:[00],01:[01],02:[02],03:[03],mmc:(un)]s(0)Z?S?*/
	$8F53  18:          clc 			/* A(??)X(??)Y(??)MAP[00:[00],01:[01],02:[02],03:[03],mmc:(un)]s(0)Z?S?*/
	$8F54  69 11:       adc #$11			/* A(??)X(??)Y(??)MAP[00:[00],01:[01],02:[02],03:[03],mmc:(un)]s(0)Z?S?*/
	$8F56  85 0F:       sta $0F			/* A(??)X(??)Y(??)MAP[00:[00],01:[01],02:[02],03:[03],mmc:(un)]s(0)Z?S?*/
	$8F58  60:          rts 			/* A(??)X(??)Y(??)MAP[00:[00],01:[01],02:[02],03:[03],mmc:(un)]s(0)Z?S?*/(barrier)
;------------------------------------------
_func_0F59
	$8F59  A5 12:       lda $12			/* A(??)X(??)Y(06)<127D>MAP[00:[00],01:[01],02:[02],03:[03],mmc:(un)]s(0)Z?S?*/
	$8F5B  85 10:       sta $10			/* A(??)X(??)Y(??)MAP[00:[00],01:[01],02:[02],03:[03],mmc:(un)]s(0)Z?S?*/
	$8F5D  A5 13:       lda $13			/* A(??)X(??)Y(??)MAP[00:[00],01:[01],02:[02],03:[03],mmc:(un)]s(0)Z?S?*/
	$8F5F  85 11:       sta $11			/* A(??)X(??)Y(??)MAP[00:[00],01:[01],02:[02],03:[03],mmc:(un)]s(0)Z?S?*/
	$8F61  60:          rts 			/* A(??)X(??)Y(??)MAP[00:[00],01:[01],02:[02],03:[03],mmc:(un)]s(0)Z?S?*/(barrier)
;------------------------------------------
_func_0F62
	$8F62  A9 00:       lda #$00			/* A(00)<F62>X(??)Y(??)MAP[00:[00],01:[01],02:[02],03:[03],mmc:(un)]s(0)Z?S?*/
	$8F64  85 14:       sta $14			/* A(00)<F62>X(??)Y(06)<127D>MAP[00:[00],01:[01],02:[02],03:[03],mmc:(un)]s(1)Z1S0*/
	$8F66  85 15:       sta $15			/* A(00)<F62>X(??)Y(06)<127D>MAP[00:[00],01:[01],02:[02],03:[03],mmc:(un)]s(1)Z1S0*/
	$8F68  85 16:       sta $16			/* A(00)<F62>X(??)Y(06)<127D>MAP[00:[00],01:[01],02:[02],03:[03],mmc:(un)]s(1)Z1S0*/
-	$8F6A  A5 10:       lda $10			/* A(??)X(??)Y(06)<127D>MAP[00:[00],01:[01],02:[02],03:[03],mmc:(un)]s(0)Z?S?*/
	$8F6C  38:          sec 			/* A(??)X(??)Y(06)<127D>MAP[00:[00],01:[01],02:[02],03:[03],mmc:(un)]s(1)Z?S?*/
	$8F6D  E9 10:       sbc #$10			/* A(??)X(??)Y(06)<127D>MAP[00:[00],01:[01],02:[02],03:[03],mmc:(un)]s(1)Z?S?*/
	$8F6F  85 12:       sta $12			/* A(??)X(??)Y(06)<127D>MAP[00:[00],01:[01],02:[02],03:[03],mmc:(un)]s(1)Z?S?*/
	$8F71  A5 11:       lda $11			/* A(??)X(??)Y(06)<127D>MAP[00:[00],01:[01],02:[02],03:[03],mmc:(un)]s(1)Z?S?*/
	$8F73  E9 27:       sbc #$27			/* A(??)X(??)Y(06)<127D>MAP[00:[00],01:[01],02:[02],03:[03],mmc:(un)]s(1)Z?S?*/
	$8F75  85 13:       sta $13			/* A(??)X(??)Y(06)<127D>MAP[00:[00],01:[01],02:[02],03:[03],mmc:(un)]s(1)Z?S?*/
	$8F77  90 08:       bcc +		; $8F81			/* A(??)X(??)Y(06)<127D>MAP[00:[00],01:[01],02:[02],03:[03],mmc:(un)]s(1)Z?S?*/
	$8F79  E6 16:       inc $16			/* A(??)X(??)Y(06)<127D>MAP[00:[00],01:[01],02:[02],03:[03],mmc:(un)]s(1)Z?S?*/
	$8F7B  20 59 8F:    jsr _func_0F59			/* A(??)X(??)Y(??)MAP[00:(??),01:(??),02:(??),03:(??),mmc:(un)]s(1)Z?S?*/
	$8F7E  4C 6A 8F:    jmp -		; $8F6A			/* A(??)X(??)Y(06)<127D>MAP[00:[00],01:[01],02:[02],03:[03],mmc:(un)]s(0)Z?S?*/(barrier)

+ -	$8F81  A5 10:       lda $10			/* A(??)X(??)Y(06)<127D>MAP[00:[00],01:[01],02:[02],03:[03],mmc:(un)]s(0)Z?S?*/
	$8F83  38:          sec 			/* A(??)X(??)Y(06)<127D>MAP[00:[00],01:[01],02:[02],03:[03],mmc:(un)]s(0)Z?S?*/
	$8F84  E9 E8:       sbc #$E8			/* A(??)X(??)Y(06)<127D>MAP[00:[00],01:[01],02:[02],03:[03],mmc:(un)]s(0)Z?S?*/
	$8F86  85 12:       sta $12			/* A(??)X(??)Y(06)<127D>MAP[00:[00],01:[01],02:[02],03:[03],mmc:(un)]s(0)Z?S?*/
	$8F88  A5 11:       lda $11			/* A(??)X(??)Y(06)<127D>MAP[00:[00],01:[01],02:[02],03:[03],mmc:(un)]s(0)Z?S?*/
	$8F8A  E9 03:       sbc #$03			/* A(??)X(??)Y(06)<127D>MAP[00:[00],01:[01],02:[02],03:[03],mmc:(un)]s(0)Z?S?*/
	$8F8C  85 13:       sta $13			/* A(??)X(??)Y(06)<127D>MAP[00:[00],01:[01],02:[02],03:[03],mmc:(un)]s(0)Z?S?*/
	$8F8E  90 0B:       bcc +		; $8F9B			/* A(??)X(??)Y(06)<127D>MAP[00:[00],01:[01],02:[02],03:[03],mmc:(un)]s(0)Z?S?*/
	$8F90  20 59 8F:    jsr _func_0F59			/* A(??)X(??)Y(??)MAP[00:(??),01:(??),02:(??),03:(??),mmc:(un)]s(0)Z?S?*/
	$8F93  A5 15:       lda $15			/* A(??)X(??)Y(06)<127D>MAP[00:[00],01:[01],02:[02],03:[03],mmc:(un)]s(0)Z?S?*/
	$8F95  69 0F:       adc #$0F			/* A(??)X(??)Y(06)<127D>MAP[00:[00],01:[01],02:[02],03:[03],mmc:(un)]s(0)Z?S?*/
	$8F97  85 15:       sta $15			/* A(??)X(??)Y(06)<127D>MAP[00:[00],01:[01],02:[02],03:[03],mmc:(un)]s(0)Z?S?*/
	$8F99  D0 E6:       bne -		; $8F81			/* A(??)X(??)Y(06)<127D>MAP[00:[00],01:[01],02:[02],03:[03],mmc:(un)]s(0)Z?S?*/
+ -	$8F9B  A5 10:       lda $10			/* A(??)X(??)Y(06)<127D>MAP[00:[00],01:[01],02:[02],03:[03],mmc:(un)]s(0)Z?S?*/
	$8F9D  38:          sec 			/* A(??)X(??)Y(06)<127D>MAP[00:[00],01:[01],02:[02],03:[03],mmc:(un)]s(0)Z?S?*/
	$8F9E  E9 64:       sbc #$64			/* A(??)X(??)Y(06)<127D>MAP[00:[00],01:[01],02:[02],03:[03],mmc:(un)]s(0)Z?S?*/
	$8FA0  85 12:       sta $12			/* A(??)X(??)Y(06)<127D>MAP[00:[00],01:[01],02:[02],03:[03],mmc:(un)]s(0)Z?S?*/
	$8FA2  A5 11:       lda $11			/* A(??)X(??)Y(06)<127D>MAP[00:[00],01:[01],02:[02],03:[03],mmc:(un)]s(0)Z?S?*/
	$8FA4  E9 00:       sbc #$00			/* A(??)X(??)Y(06)<127D>MAP[00:[00],01:[01],02:[02],03:[03],mmc:(un)]s(0)Z?S?*/
	$8FA6  85 13:       sta $13			/* A(??)X(??)Y(06)<127D>MAP[00:[00],01:[01],02:[02],03:[03],mmc:(un)]s(0)Z?S?*/
	$8FA8  90 0B:       bcc _func_0FB5			/* A(??)X(??)Y(06)<127D>MAP[00:[00],01:[01],02:[02],03:[03],mmc:(un)]s(0)Z?S?*/
	$8FAA  20 59 8F:    jsr _func_0F59			/* A(??)X(??)Y(??)MAP[00:(??),01:(??),02:(??),03:(??),mmc:(un)]s(0)Z?S?*/
	$8FAD  A5 15:       lda $15			/* A(??)X(??)Y(06)<127D>MAP[00:[00],01:[01],02:[02],03:[03],mmc:(un)]s(0)Z?S?*/
	$8FAF  69 00:       adc #$00			/* A(??)X(??)Y(06)<127D>MAP[00:[00],01:[01],02:[02],03:[03],mmc:(un)]s(0)Z?S?*/
	$8FB1  85 15:       sta $15			/* A(??)X(??)Y(06)<127D>MAP[00:[00],01:[01],02:[02],03:[03],mmc:(un)]s(0)Z?S?*/
	$8FB3  D0 E6:       bne -		; $8F9B			/* A(??)X(??)Y(06)<127D>MAP[00:[00],01:[01],02:[02],03:[03],mmc:(un)]s(0)Z?S?*/
_func_0FB5
	$8FB5  A5 10:       lda $10			/* A(00)<1821>X(??)Y(06)<127D>MAP[00:[00],01:[01],02:[02],03:[03],mmc:(un)]s(0)Z?S?*/
	$8FB7  38:          sec 			/* A(??)X(??)Y(??)MAP[00:[00],01:[01],02:[02],03:[03],mmc:(un)]s(0)Z?S?*/
	$8FB8  E9 0A:       sbc #$0A			/* A(??)X(??)Y(??)MAP[00:[00],01:[01],02:[02],03:[03],mmc:(un)]s(0)Z?S?*/
	$8FBA  85 12:       sta $12			/* A(??)X(??)Y(??)MAP[00:[00],01:[01],02:[02],03:[03],mmc:(un)]s(0)Z?S?*/
	$8FBC  A5 11:       lda $11			/* A(??)X(??)Y(??)MAP[00:[00],01:[01],02:[02],03:[03],mmc:(un)]s(0)Z?S?*/
	$8FBE  E9 00:       sbc #$00			/* A(??)X(??)Y(??)MAP[00:[00],01:[01],02:[02],03:[03],mmc:(un)]s(0)Z?S?*/
	$8FC0  85 13:       sta $13			/* A(??)X(??)Y(??)MAP[00:[00],01:[01],02:[02],03:[03],mmc:(un)]s(0)Z?S?*/
	$8FC2  90 0B:       bcc +		; $8FCF			/* A(??)X(??)Y(??)MAP[00:[00],01:[01],02:[02],03:[03],mmc:(un)]s(0)Z?S?*/
	$8FC4  20 59 8F:    jsr _func_0F59			/* A(??)X(??)Y(??)MAP[00:(??),01:(??),02:(??),03:(??),mmc:(un)]s(0)Z?S?*/
	$8FC7  A5 14:       lda $14			/* A(??)X(??)Y(??)MAP[00:[00],01:[01],02:[02],03:[03],mmc:(un)]s(0)Z?S?*/
	$8FC9  69 0F:       adc #$0F			/* A(??)X(??)Y(??)MAP[00:[00],01:[01],02:[02],03:[03],mmc:(un)]s(0)Z?S?*/
	$8FCB  85 14:       sta $14			/* A(??)X(??)Y(??)MAP[00:[00],01:[01],02:[02],03:[03],mmc:(un)]s(0)Z?S?*/
	$8FCD  D0 E6:       bne _func_0FB5			/* A(??)X(??)Y(??)MAP[00:[00],01:[01],02:[02],03:[03],mmc:(un)]s(0)Z?S?*/
+	$8FCF  A5 10:       lda $10			/* A(??)X(??)Y(??)MAP[00:[00],01:[01],02:[02],03:[03],mmc:(un)]s(0)Z?S?*/
	$8FD1  05 14:       ora $14			/* A(??)X(??)Y(??)MAP[00:[00],01:[01],02:[02],03:[03],mmc:(un)]s(0)Z?S?*/
	$8FD3  85 14:       sta $14			/* A(??)X(??)Y(??)MAP[00:[00],01:[01],02:[02],03:[03],mmc:(un)]s(0)Z?S?*/
	$8FD5  60:          rts 			/* A(??)X(??)Y(??)MAP[00:[00],01:[01],02:[02],03:[03],mmc:(un)]s(0)Z?S?*/(barrier)

	$8FD6               .byte $A5,$31,$30,$FB,$A5,$32,$4A,$B0,$10,$A5,$25,$18,$65,$2B,$85,$25
	$8FE6               .byte $A5,$26,$69,$00,$85,$26,$4C,$FC,$8F,$A5,$27,$18,$65,$2B,$85,$27
	$8FF6               .byte $A5,$28,$69,$00,$85,$28
_func_0FFC
	$8FFC  A5 25:       lda $25			/* A(??)X(??)Y(??)MAP[00:[00],01:[01],02:[02],03:[03],mmc:(un)]s(0)Z?S?*/
	$8FFE  38:          sec 			/* A(??)X(??)Y(03)<8A1>MAP[00:[00],01:[01],02:[02],03:[03],mmc:(un)]s(0)Z?S?*/
	$8FFF  E5 27:       sbc $27			/* A(??)X(??)Y(03)<8A1>MAP[00:[00],01:[01],02:[02],03:[03],mmc:(un)]s(0)Z?S?*/
	$9001  A5 26:       lda $26			/* A(??)X(??)Y(03)<8A1>MAP[00:[00],01:[01],02:[02],03:[03],mmc:(un)]s(0)Z?S?*/
	$9003  E5 28:       sbc $28			/* A(??)X(??)Y(03)<8A1>MAP[00:[00],01:[01],02:[02],03:[03],mmc:(un)]s(0)Z?S?*/
	$9005  90 14:       bcc ++		; $901B			/* A(??)X(??)Y(03)<8A1>MAP[00:[00],01:[01],02:[02],03:[03],mmc:(un)]s(0)Z?S?*/
	$9007  A5 29:       lda $29			/* A(??)X(??)Y(03)<8A1>MAP[00:[00],01:[01],02:[02],03:[03],mmc:(un)]s(0)Z?S?*/
	$9009  38:          sec 			/* A(??)X(??)Y(03)<8A1>MAP[00:[00],01:[01],02:[02],03:[03],mmc:(un)]s(0)Z?S?*/
	$900A  E5 25:       sbc $25			/* A(??)X(??)Y(03)<8A1>MAP[00:[00],01:[01],02:[02],03:[03],mmc:(un)]s(0)Z?S?*/
	$900C  A5 2A:       lda $2A			/* A(??)X(??)Y(03)<8A1>MAP[00:[00],01:[01],02:[02],03:[03],mmc:(un)]s(0)Z?S?*/
	$900E  E5 26:       sbc $26			/* A(??)X(??)Y(03)<8A1>MAP[00:[00],01:[01],02:[02],03:[03],mmc:(un)]s(0)Z?S?*/
	$9010  B0 08:       bcs +		; $901A -> rts			/* A(??)X(??)Y(03)<8A1>MAP[00:[00],01:[01],02:[02],03:[03],mmc:(un)]s(0)Z?S?*/
	$9012  A5 25:       lda $25			/* A(??)X(??)Y(03)<8A1>MAP[00:[00],01:[01],02:[02],03:[03],mmc:(un)]s(0)Z?S?*/
	$9014  85 29:       sta $29			/* A(??)X(??)Y(03)<8A1>MAP[00:[00],01:[01],02:[02],03:[03],mmc:(un)]s(0)Z?S?*/
	$9016  A5 26:       lda $26			/* A(??)X(??)Y(03)<8A1>MAP[00:[00],01:[01],02:[02],03:[03],mmc:(un)]s(0)Z?S?*/
	$9018  85 2A:       sta $2A			/* A(??)X(??)Y(03)<8A1>MAP[00:[00],01:[01],02:[02],03:[03],mmc:(un)]s(0)Z?S?*/
+ -	$901A  60:          rts 			/* A(??)X(??)Y(03)<8A1>MAP[00:[00],01:[01],02:[02],03:[03],mmc:(un)]s(0)Z?S?*/(barrier)

++	$901B  A5 27:       lda $27			/* A(??)X(??)Y(03)<8A1>MAP[00:[00],01:[01],02:[02],03:[03],mmc:(un)]s(0)Z?S?*/
	$901D  38:          sec 			/* A(??)X(??)Y(03)<8A1>MAP[00:[00],01:[01],02:[02],03:[03],mmc:(un)]s(0)Z?S?*/
	$901E  E5 29:       sbc $29			/* A(??)X(??)Y(03)<8A1>MAP[00:[00],01:[01],02:[02],03:[03],mmc:(un)]s(0)Z?S?*/
	$9020  A5 28:       lda $28			/* A(??)X(??)Y(03)<8A1>MAP[00:[00],01:[01],02:[02],03:[03],mmc:(un)]s(0)Z?S?*/
	$9022  E5 2A:       sbc $2A			/* A(??)X(??)Y(03)<8A1>MAP[00:[00],01:[01],02:[02],03:[03],mmc:(un)]s(0)Z?S?*/
	$9024  90 F4:       bcc -		; $901A -> rts			/* A(??)X(??)Y(03)<8A1>MAP[00:[00],01:[01],02:[02],03:[03],mmc:(un)]s(0)Z?S?*/
	$9026  A5 27:       lda $27			/* A(??)X(??)Y(03)<8A1>MAP[00:[00],01:[01],02:[02],03:[03],mmc:(un)]s(0)Z?S?*/
	$9028  85 29:       sta $29			/* A(??)X(??)Y(03)<8A1>MAP[00:[00],01:[01],02:[02],03:[03],mmc:(un)]s(0)Z?S?*/
	$902A  A5 28:       lda $28			/* A(??)X(??)Y(03)<8A1>MAP[00:[00],01:[01],02:[02],03:[03],mmc:(un)]s(0)Z?S?*/
	$902C  85 2A:       sta $2A			/* A(??)X(??)Y(03)<8A1>MAP[00:[00],01:[01],02:[02],03:[03],mmc:(un)]s(0)Z?S?*/
	$902E  60:          rts 			/* A(??)X(??)Y(03)<8A1>MAP[00:[00],01:[01],02:[02],03:[03],mmc:(un)]s(0)Z?S?*/(barrier)
;------------------------------------------
_func_102F
	$902F  A9 00:       lda #$00			/* A(??)X(??)Y(??)MAP[00:[00],01:[01],02:[02],03:[03],mmc:(un)]s(0)Z?S?*/
	$9031  85 25:       sta $25			/* A(00)<102F>X(??)Y(??)MAP[00:[00],01:[01],02:[02],03:[03],mmc:(un)]s(0)Z1S0*/
	$9033  85 26:       sta $26			/* A(00)<102F>X(??)Y(??)MAP[00:[00],01:[01],02:[02],03:[03],mmc:(un)]s(0)Z1S0*/
	$9035  85 27:       sta $27			/* A(00)<102F>X(??)Y(??)MAP[00:[00],01:[01],02:[02],03:[03],mmc:(un)]s(0)Z1S0*/
	$9037  85 28:       sta $28			/* A(00)<102F>X(??)Y(??)MAP[00:[00],01:[01],02:[02],03:[03],mmc:(un)]s(0)Z1S0*/
	$9039  85 2B:       sta $2B			/* A(00)<102F>X(??)Y(??)MAP[00:[00],01:[01],02:[02],03:[03],mmc:(un)]s(0)Z1S0*/
	$903B  60:          rts 			/* A(00)<102F>X(??)Y(??)MAP[00:[00],01:[01],02:[02],03:[03],mmc:(un)]s(0)Z1S0*/(barrier)

---	$903C  08:          php 			/* A(??)X(??)Y(06)<127D>MAP[00:[00],01:[01],02:[02],03:[03],mmc:(un)]s(1)Z?S?*/
	$903D  20 62 8F:     jsr _func_0F62			/* A(??)X(??)Y(??)MAP[00:(??),01:(??),02:(??),03:(??),mmc:(un)]s(1)Z?S?*/
	$9040  A5 16:        lda $16			/* A(??)X(??)Y(06)<127D>MAP[00:[00],01:[01],02:[02],03:[03],mmc:(un)]s(0)Z?S?*/
	$9042  C9 0A:        cmp #$0A			/* A(??)X(??)Y(06)<127D>MAP[00:[00],01:[01],02:[02],03:[03],mmc:(un)]s(0)Z?S?*/
	$9044  90 02:        bcc +		; $9048			/* A(??)X(??)Y(06)<127D>MAP[00:[00],01:[01],02:[02],03:[03],mmc:(un)]s(0)Z?S?*/
	$9046  A9 00:        lda #$00			/* A(00)<1046>X(??)Y(06)<127D>MAP[00:[00],01:[01],02:[02],03:[03],mmc:(un)]s(0)Z1S0*/
+	$9048  85 83:        sta $83			/* A(00)<1046>X(??)Y(06)<127D>MAP[00:[00],01:[01],02:[02],03:[03],mmc:(un)]s(0)Z1S0*/
	$904A  A5 15:        lda $15			/* A(??)X(??)Y(06)<127D>MAP[00:[00],01:[01],02:[02],03:[03],mmc:(un)]s(0)Z?S?*/
	$904C  48:           pha 			/* A(??)X(??)Y(06)<127D>MAP[00:[00],01:[01],02:[02],03:[03],mmc:(un)]s(1)Z?S?*/
	$904D  4A:            lsr a			/* A(??)X(??)Y(06)<127D>MAP[00:[00],01:[01],02:[02],03:[03],mmc:(un)]s(1)Z?S?*/
	$904E  4A:            lsr a			/* A(??)X(??)Y(06)<127D>MAP[00:[00],01:[01],02:[02],03:[03],mmc:(un)]s(1)Z?S?*/
	$904F  4A:            lsr a			/* A(??)X(??)Y(06)<127D>MAP[00:[00],01:[01],02:[02],03:[03],mmc:(un)]s(1)Z?S?*/
	$9050  4A:            lsr a			/* A(??)X(??)Y(06)<127D>MAP[00:[00],01:[01],02:[02],03:[03],mmc:(un)]s(1)Z?S?*/
	$9051  85 84:         sta $84			/* A(??)X(??)Y(06)<127D>MAP[00:[00],01:[01],02:[02],03:[03],mmc:(un)]s(1)Z?S?*/
	$9053  68:           pla 			/* A(??)X(??)Y(06)<127D>MAP[00:[00],01:[01],02:[02],03:[03],mmc:(un)]s(0)Z?S?*/
	$9054  29 0F:        and #$0F			/* A(??)X(??)Y(06)<127D>MAP[00:[00],01:[01],02:[02],03:[03],mmc:(un)]s(0)Z?S?*/
	$9056  85 85:        sta $85			/* A(??)X(??)Y(06)<127D>MAP[00:[00],01:[01],02:[02],03:[03],mmc:(un)]s(0)Z?S?*/
	$9058  A5 14:        lda $14			/* A(??)X(??)Y(06)<127D>MAP[00:[00],01:[01],02:[02],03:[03],mmc:(un)]s(0)Z?S?*/
	$905A  48:           pha 			/* A(??)X(??)Y(06)<127D>MAP[00:[00],01:[01],02:[02],03:[03],mmc:(un)]s(1)Z?S?*/
	$905B  4A:            lsr a			/* A(??)X(??)Y(06)<127D>MAP[00:[00],01:[01],02:[02],03:[03],mmc:(un)]s(1)Z?S?*/
	$905C  4A:            lsr a			/* A(??)X(??)Y(06)<127D>MAP[00:[00],01:[01],02:[02],03:[03],mmc:(un)]s(1)Z?S?*/
	$905D  4A:            lsr a			/* A(??)X(??)Y(06)<127D>MAP[00:[00],01:[01],02:[02],03:[03],mmc:(un)]s(1)Z?S?*/
	$905E  4A:            lsr a			/* A(??)X(??)Y(06)<127D>MAP[00:[00],01:[01],02:[02],03:[03],mmc:(un)]s(1)Z?S?*/
	$905F  85 86:         sta $86			/* A(??)X(??)Y(06)<127D>MAP[00:[00],01:[01],02:[02],03:[03],mmc:(un)]s(1)Z?S?*/
	$9061  68:           pla 			/* A(??)X(??)Y(06)<127D>MAP[00:[00],01:[01],02:[02],03:[03],mmc:(un)]s(0)Z?S?*/
	$9062  29 0F:        and #$0F			/* A(??)X(??)Y(06)<127D>MAP[00:[00],01:[01],02:[02],03:[03],mmc:(un)]s(0)Z?S?*/
	$9064  85 87:        sta $87			/* A(??)X(??)Y(06)<127D>MAP[00:[00],01:[01],02:[02],03:[03],mmc:(un)]s(0)Z?S?*/
	$9066  A9 00:        lda #$00			/* A(00)<1066>X(??)Y(06)<127D>MAP[00:[00],01:[01],02:[02],03:[03],mmc:(un)]s(0)Z1S0*/
	$9068  85 88:        sta $88			/* A(00)<1066>X(??)Y(06)<127D>MAP[00:[00],01:[01],02:[02],03:[03],mmc:(un)]s(0)Z1S0*/
	$906A  A0 00:        ldy #$00			/* A(00)<1066>X(??)Y(00)<106A>MAP[00:[00],01:[01],02:[02],03:[03],mmc:(un)]s(0)Z1S0*/
-	$906C  B9 83 00:     lda $0083,y			/* A(??)X(??)Y(00)<106A>MAP[00:[00],01:[01],02:[02],03:[03],mmc:(un)]s(0)Z?S?*/
	$906F  D0 0A:        bne +		; $907B			/* A(??)X(??)Y(00)<106A>MAP[00:[00],01:[01],02:[02],03:[03],mmc:(un)]s(0)Z?S?*/
	$9071  A9 30:        lda #$30			/* A(30)<1071>X(??)Y(00)<106A>MAP[00:[00],01:[01],02:[02],03:[03],mmc:(un)]s(0)Z0S0*/
	$9073  99 83 00:     sta $0083,y			/* A(30)<1071>X(??)Y(00)<106A>MAP[00:[00],01:[01],02:[02],03:[03],mmc:(un)]s(0)Z0S0*/
	$9076  C8:           iny 			/* A(??)X(??)Y(??)MAP[00:[00],01:[01],02:[02],03:[03],mmc:(un)]s(0)Z?S?*/
	$9077  C0 04:        cpy #$04			/* A(??)X(??)Y(??)MAP[00:[00],01:[01],02:[02],03:[03],mmc:(un)]s(0)Z?S?*/
	$9079  90 F1:        bcc -		; $906C			/* A(??)X(??)Y(??)MAP[00:[00],01:[01],02:[02],03:[03],mmc:(un)]s(0)Z?S?*/
+	$907B  28:          plp 			/* A(??)X(??)Y(00)<106A>MAP[00:[00],01:[01],02:[02],03:[03],mmc:(un)]s(0)Z?S?*/
	$907C  B0 01:       bcs +		; $907F			/* A(??)X(??)Y(00)<106A>MAP[00:[00],01:[01],02:[02],03:[03],mmc:(un)]s(0)Z?S?*/
	$907E  60:          rts 			/* A(??)X(??)Y(00)<106A>MAP[00:[00],01:[01],02:[02],03:[03],mmc:(un)]s(0)Z?S?*/(barrier)

+	$907F  A0 00:       ldy #$00			/* A(??)X(??)Y(00)<107F>MAP[00:[00],01:[01],02:[02],03:[03],mmc:(un)]s(0)Z1S0*/
-	$9081  B9 83 00:    lda $0083,y			/* A(??)X(??)Y(00)<107F>MAP[00:[00],01:[01],02:[02],03:[03],mmc:(un)]s(0)Z?S?*/
	$9084  8D 07 20:    sta $2007			/* A(??)X(??)Y(00)<107F>MAP[00:[00],01:[01],02:[02],03:[03],mmc:(un)]s(0)Z?S?*/
	$9087  C8:          iny 			/* A(??)X(??)Y(??)MAP[00:[00],01:[01],02:[02],03:[03],mmc:(un)]s(0)Z?S?*/
	$9088  C0 05:       cpy #$05			/* A(??)X(??)Y(??)MAP[00:[00],01:[01],02:[02],03:[03],mmc:(un)]s(0)Z?S?*/
	$908A  90 F5:       bcc -		; $9081			/* A(??)X(??)Y(??)MAP[00:[00],01:[01],02:[02],03:[03],mmc:(un)]s(0)Z?S?*/
	$908C  60:          rts 			/* A(??)X(??)Y(??)MAP[00:[00],01:[01],02:[02],03:[03],mmc:(un)]s(0)Z?S?*/(barrier)
;------------------------------------------
_func_108D
	$908D  A9 00:       lda #$00			/* A(00)<108D>X(??)Y(??)MAP[00:[00],01:[01],02:[02],03:[03],mmc:(un)]s(0)Z1S0*/
	$908F  8D 01 20:    sta $2001			/* A(00)<108D>X(??)Y(??)MAP[00:[00],01:[01],02:[02],03:[03],mmc:(un)]s(0)Z1S0*/
	$9092  A9 23:       lda #$23			/* A(23)<1092>X(??)Y(??)MAP[00:[00],01:[01],02:[02],03:[03],mmc:(un)]s(0)Z0S0*/
	$9094  A0 C0:       ldy #$C0			/* A(23)<1092>X(??)Y(C0)<1094>MAP[00:[00],01:[01],02:[02],03:[03],mmc:(un)]s(0)Z0S1*/
	$9096  20 74 94:    jsr _func_1474			/* A(??)X(??)Y(??)MAP[00:(??),01:(??),02:(??),03:(??),mmc:(un)]s(0)Z?S?*/
	$9099  20 D2 90:    jsr _func_10D2			/* A(??)X(??)Y(??)MAP[00:(??),01:(??),02:(??),03:(??),mmc:(un)]s(0)Z?S?*/
	$909C  A9 2B:       lda #$2B			/* A(2B)<109C>X(??)Y(C0)<1094>MAP[00:[00],01:[01],02:[02],03:[03],mmc:(un)]s(0)Z0S0*/
	$909E  A0 C0:       ldy #$C0			/* A(2B)<109C>X(??)Y(C0)<109E>MAP[00:[00],01:[01],02:[02],03:[03],mmc:(un)]s(0)Z0S1*/
	$90A0  20 74 94:    jsr _func_1474			/* A(??)X(??)Y(??)MAP[00:(??),01:(??),02:(??),03:(??),mmc:(un)]s(0)Z?S?*/
	$90A3  20 D2 90:    jsr _func_10D2			/* A(??)X(??)Y(??)MAP[00:(??),01:(??),02:(??),03:(??),mmc:(un)]s(0)Z?S?*/
	$90A6  A9 23:       lda #$23			/* A(23)<10A6>X(??)Y(C0)<109E>MAP[00:[00],01:[01],02:[02],03:[03],mmc:(un)]s(0)Z0S0*/
	$90A8  A0 D0:       ldy #$D0			/* A(23)<10A6>X(??)Y(D0)<10A8>MAP[00:[00],01:[01],02:[02],03:[03],mmc:(un)]s(0)Z0S1*/
	$90AA  20 74 94:    jsr _func_1474			/* A(??)X(??)Y(??)MAP[00:(??),01:(??),02:(??),03:(??),mmc:(un)]s(0)Z?S?*/
	$90AD  A2 02:       ldx #$02			/* A(23)<10A6>X(02)<10AD>Y(D0)<10A8>MAP[00:[00],01:[01],02:[02],03:[03],mmc:(un)]s(0)Z0S0*/
--	$90AF  A0 00:       ldy #$00			/* A(23)<10A6>X(02)<10AD>Y(00)<10AF>MAP[00:[00],01:[01],02:[02],03:[03],mmc:(un)]s(0)Z?S?*/
-	$90B1  B9 ED 90:    lda _data_10ED_indexed,y			/* A$10ED,y<10B1>X(02)<10AD>Y(00)<10AF>MAP[00:[00],01:[01],02:[02],03:[03],mmc:(un)]s(0)Z?S?*/
	$90B4  8D 07 20:    sta $2007			/* A$10ED,y<10B1>X(02)<10AD>Y(00)<10AF>MAP[00:[00],01:[01],02:[02],03:[03],mmc:(un)]s(0)Z?S?*/
	$90B7  C8:          iny 			/* A(??)X(02)<10AD>Y(??)MAP[00:[00],01:[01],02:[02],03:[03],mmc:(un)]s(0)Z?S?*/
	$90B8  C0 08:       cpy #$08			/* A(??)X(02)<10AD>Y(??)MAP[00:[00],01:[01],02:[02],03:[03],mmc:(un)]s(0)Z?S?*/
	$90BA  90 F5:       bcc -		; $90B1			/* A(??)X(02)<10AD>Y(??)MAP[00:[00],01:[01],02:[02],03:[03],mmc:(un)]s(0)Z?S?*/
	$90BC  CA:          dex 			/* A(??)X(??)Y(??)MAP[00:[00],01:[01],02:[02],03:[03],mmc:(un)]s(0)Z?S?*/
	$90BD  10 F0:       bpl --		; $90AF			/* A(??)X(??)Y(??)MAP[00:[00],01:[01],02:[02],03:[03],mmc:(un)]s(0)Z?S?*/
	$90BF  A0 00:       ldy #$00			/* A(??)X(??)Y(00)<10BF>MAP[00:[00],01:[01],02:[02],03:[03],mmc:(un)]s(0)Z1S0*/
-	$90C1  B9 F5 90:    lda _data_10F5_indexed,y			/* A$10F5,y<10C1>X(??)Y(00)<10BF>MAP[00:[00],01:[01],02:[02],03:[03],mmc:(un)]s(0)Z?S?*/
	$90C4  8D 07 20:    sta $2007			/* A$10F5,y<10C1>X(??)Y(00)<10BF>MAP[00:[00],01:[01],02:[02],03:[03],mmc:(un)]s(0)Z?S?*/
	$90C7  C8:          iny 			/* A(??)X(??)Y(??)MAP[00:[00],01:[01],02:[02],03:[03],mmc:(un)]s(0)Z?S?*/
	$90C8  C0 08:       cpy #$08			/* A(??)X(??)Y(??)MAP[00:[00],01:[01],02:[02],03:[03],mmc:(un)]s(0)Z?S?*/
	$90CA  90 F5:       bcc -		; $90C1			/* A(??)X(??)Y(??)MAP[00:[00],01:[01],02:[02],03:[03],mmc:(un)]s(0)Z?S?*/
	$90CC  20 5F 94:    jsr _func_145F			/* A(??)X(??)Y(??)MAP[00:(??),01:(??),02:(??),03:(??),mmc:(un)]s(0)Z?S?*/
	$90CF  4C 37 8F:    jmp _func_0F37			/* A(??)X(??)Y(??)MAP[00:[00],01:[01],02:[02],03:[03],mmc:(un)]s(0)Z?S?*/(barrier)
;------------------------------------------
_func_10D2
	$90D2  A2 07:       ldx #$07			/* A(??)X(??)Y(??)MAP[00:[00],01:[01],02:[02],03:[03],mmc:(un)]s(0)Z?S?*/
--	$90D4  A0 00:       ldy #$00			/* A(23)<1092>X(07)<10D2>Y(00)<10D4>MAP[00:[00],01:[01],02:[02],03:[03],mmc:(un)]s(0)Z?S?*/
-	$90D6  B9 E5 90:    lda _data_10E5_indexed,y			/* A$10E5,y<10D6>X(07)<10D2>Y(00)<10D4>MAP[00:[00],01:[01],02:[02],03:[03],mmc:(un)]s(0)Z?S?*/
	$90D9  8D 07 20:    sta $2007			/* A$10E5,y<10D6>X(07)<10D2>Y(00)<10D4>MAP[00:[00],01:[01],02:[02],03:[03],mmc:(un)]s(0)Z?S?*/
	$90DC  C8:          iny 			/* A(??)X(07)<10D2>Y(??)MAP[00:[00],01:[01],02:[02],03:[03],mmc:(un)]s(0)Z?S?*/
	$90DD  C0 08:       cpy #$08			/* A(??)X(07)<10D2>Y(??)MAP[00:[00],01:[01],02:[02],03:[03],mmc:(un)]s(0)Z?S?*/
	$90DF  90 F5:       bcc -		; $90D6			/* A(??)X(07)<10D2>Y(??)MAP[00:[00],01:[01],02:[02],03:[03],mmc:(un)]s(0)Z?S?*/
	$90E1  CA:          dex 			/* A(??)X(??)Y(??)MAP[00:[00],01:[01],02:[02],03:[03],mmc:(un)]s(0)Z?S?*/
	$90E2  10 F0:       bpl --		; $90D4			/* A(??)X(??)Y(??)MAP[00:[00],01:[01],02:[02],03:[03],mmc:(un)]s(0)Z?S?*/
	$90E4  60:          rts 			/* A(??)X(??)Y(??)MAP[00:[00],01:[01],02:[02],03:[03],mmc:(un)]s(0)Z?S?*/(barrier)
;------------------------------------------
_data_10E5_indexed
	$90E5               .byte $00,$00,$00,$00,$00,$00,$88,$AA
_data_10ED_indexed
	$90ED               .byte $00,$FF,$FF,$FF,$FF,$FF,$88,$AA
_data_10F5_indexed
	$90F5               .byte $00,$55,$55,$55,$55,$55,$88,$AA
_func_10FD
	$90FD  A9 FF:       lda #$FF			/* A(00)<250>X(??)Y(??)MAP[00:[00],01:[01],02:[02],03:[03],mmc:(un)]s(0)Z?S?*/
	$90FF  8D 00 02:    sta $0200			/* A(FF)<10FD>X(??)Y(??)MAP[00:[00],01:[01],02:[02],03:[03],mmc:(un)]s(0)Z0S1*/
	$9102  8D 5A 02:    sta $025A			/* A(FF)<10FD>X(??)Y(??)MAP[00:[00],01:[01],02:[02],03:[03],mmc:(un)]s(0)Z0S1*/
	$9105  8D 22 02:    sta $0222			/* A(FF)<10FD>X(??)Y(??)MAP[00:[00],01:[01],02:[02],03:[03],mmc:(un)]s(0)Z0S1*/
	$9108  60:          rts 			/* A(FF)<10FD>X(??)Y(??)MAP[00:[00],01:[01],02:[02],03:[03],mmc:(un)]s(0)Z0S1*/(barrier)
;------------------------------------------
_func_1109
	$9109  A9 00:       lda #$00			/* A(??)X(??)Y(00)<2058>MAP[00:[00],01:[01],02:[02],03:[03],mmc:(un)]s(0)Z?S?*/
	$910B  85 14:       sta $14			/* A(00)<1109>X(??)Y(??)MAP[00:[00],01:[01],02:[02],03:[03],mmc:(un)]s(0)Z1S0*/
	$910D  85 15:       sta $15			/* A(00)<1109>X(??)Y(??)MAP[00:[00],01:[01],02:[02],03:[03],mmc:(un)]s(0)Z1S0*/
	$910F  A0 0F:       ldy #$0F			/* A(00)<1109>X(??)Y(0F)<110F>MAP[00:[00],01:[01],02:[02],03:[03],mmc:(un)]s(0)Z0S0*/
-	$9111  24 11:       bit $11			/* A(??)X(??)Y(0F)<110F>MAP[00:[00],01:[01],02:[02],03:[03],mmc:(un)]s(0)Z?S?*/
	$9113  30 0C:       bmi +		; $9121			/* A(??)X(??)Y(0F)<110F>MAP[00:[00],01:[01],02:[02],03:[03],mmc:(un)]s(0)Z?S?*/
	$9115  06 10:       asl $10			/* A(??)X(??)Y(0F)<110F>MAP[00:[00],01:[01],02:[02],03:[03],mmc:(un)]s(0)Z?S?*/
	$9117  26 11:       rol $11			/* A(??)X(??)Y(0F)<110F>MAP[00:[00],01:[01],02:[02],03:[03],mmc:(un)]s(0)Z?S?*/
	$9119  06 12:       asl $12			/* A(??)X(??)Y(0F)<110F>MAP[00:[00],01:[01],02:[02],03:[03],mmc:(un)]s(0)Z?S?*/
	$911B  26 13:       rol $13			/* A(??)X(??)Y(0F)<110F>MAP[00:[00],01:[01],02:[02],03:[03],mmc:(un)]s(0)Z?S?*/
	$911D  88:          dey 			/* A(??)X(??)Y(??)MAP[00:[00],01:[01],02:[02],03:[03],mmc:(un)]s(0)Z?S?*/
	$911E  10 F1:       bpl -		; $9111			/* A(??)X(??)Y(??)MAP[00:[00],01:[01],02:[02],03:[03],mmc:(un)]s(0)Z?S?*/
	$9120  60:          rts 			/* A(??)X(??)Y(??)MAP[00:[00],01:[01],02:[02],03:[03],mmc:(un)]s(0)Z?S?*/(barrier)

+	$9121  A0 00:       ldy #$00			/* A(??)X(??)Y(00)<1121>MAP[00:[00],01:[01],02:[02],03:[03],mmc:(un)]s(0)Z1S0*/
-	$9123  24 13:       bit $13			/* A(??)X(??)Y(00)<1121>MAP[00:[00],01:[01],02:[02],03:[03],mmc:(un)]s(0)Z?S?*/
	$9125  30 07:       bmi +		; $912E			/* A(??)X(??)Y(00)<1121>MAP[00:[00],01:[01],02:[02],03:[03],mmc:(un)]s(0)Z?S?*/
	$9127  06 12:       asl $12			/* A(??)X(??)Y(00)<1121>MAP[00:[00],01:[01],02:[02],03:[03],mmc:(un)]s(0)Z?S?*/
	$9129  26 13:       rol $13			/* A(??)X(??)Y(00)<1121>MAP[00:[00],01:[01],02:[02],03:[03],mmc:(un)]s(0)Z?S?*/
	$912B  C8:          iny 			/* A(??)X(??)Y(??)MAP[00:[00],01:[01],02:[02],03:[03],mmc:(un)]s(0)Z?S?*/
	$912C  10 F5:       bpl -		; $9123			/* A(??)X(??)Y(??)MAP[00:[00],01:[01],02:[02],03:[03],mmc:(un)]s(0)Z?S?*/
+ -	$912E  A5 10:       lda $10			/* A(??)X(??)Y(00)<1121>MAP[00:[00],01:[01],02:[02],03:[03],mmc:(un)]s(0)Z?S?*/
	$9130  38:          sec 			/* A(??)X(??)Y(00)<1121>MAP[00:[00],01:[01],02:[02],03:[03],mmc:(un)]s(0)Z?S?*/
	$9131  E5 12:       sbc $12			/* A(??)X(??)Y(00)<1121>MAP[00:[00],01:[01],02:[02],03:[03],mmc:(un)]s(0)Z?S?*/
	$9133  A5 11:       lda $11			/* A(??)X(??)Y(00)<1121>MAP[00:[00],01:[01],02:[02],03:[03],mmc:(un)]s(0)Z?S?*/
	$9135  E5 13:       sbc $13			/* A(??)X(??)Y(00)<1121>MAP[00:[00],01:[01],02:[02],03:[03],mmc:(un)]s(0)Z?S?*/
	$9137  90 0D:       bcc +		; $9146			/* A(??)X(??)Y(00)<1121>MAP[00:[00],01:[01],02:[02],03:[03],mmc:(un)]s(0)Z?S?*/
	$9139  A5 10:       lda $10			/* A(??)X(??)Y(00)<1121>MAP[00:[00],01:[01],02:[02],03:[03],mmc:(un)]s(0)Z?S?*/
	$913B  38:          sec 			/* A(??)X(??)Y(00)<1121>MAP[00:[00],01:[01],02:[02],03:[03],mmc:(un)]s(0)Z?S?*/
	$913C  E5 12:       sbc $12			/* A(??)X(??)Y(00)<1121>MAP[00:[00],01:[01],02:[02],03:[03],mmc:(un)]s(0)Z?S?*/
	$913E  85 10:       sta $10			/* A(??)X(??)Y(00)<1121>MAP[00:[00],01:[01],02:[02],03:[03],mmc:(un)]s(0)Z?S?*/
	$9140  A5 11:       lda $11			/* A(??)X(??)Y(00)<1121>MAP[00:[00],01:[01],02:[02],03:[03],mmc:(un)]s(0)Z?S?*/
	$9142  E5 13:       sbc $13			/* A(??)X(??)Y(00)<1121>MAP[00:[00],01:[01],02:[02],03:[03],mmc:(un)]s(0)Z?S?*/
	$9144  85 11:       sta $11			/* A(??)X(??)Y(00)<1121>MAP[00:[00],01:[01],02:[02],03:[03],mmc:(un)]s(0)Z?S?*/
+	$9146  26 14:       rol $14			/* A(??)X(??)Y(00)<1121>MAP[00:[00],01:[01],02:[02],03:[03],mmc:(un)]s(0)Z?S?*/
	$9148  26 15:       rol $15			/* A(??)X(??)Y(00)<1121>MAP[00:[00],01:[01],02:[02],03:[03],mmc:(un)]s(0)Z?S?*/
	$914A  46 13:       lsr $13			/* A(??)X(??)Y(00)<1121>MAP[00:[00],01:[01],02:[02],03:[03],mmc:(un)]s(0)Z?S?*/
	$914C  66 12:       ror $12			/* A(??)X(??)Y(00)<1121>MAP[00:[00],01:[01],02:[02],03:[03],mmc:(un)]s(0)Z?S?*/
	$914E  88:          dey 			/* A(??)X(??)Y(??)MAP[00:[00],01:[01],02:[02],03:[03],mmc:(un)]s(0)Z?S?*/
	$914F  10 DD:       bpl -		; $912E			/* A(??)X(??)Y(??)MAP[00:[00],01:[01],02:[02],03:[03],mmc:(un)]s(0)Z?S?*/
	$9151  60:          rts 			/* A(??)X(??)Y(??)MAP[00:[00],01:[01],02:[02],03:[03],mmc:(un)]s(0)Z?S?*/(barrier)
;------------------------------------------
_func_1152
	$9152  A9 00:       lda #$00			/* A(??)X(??)Y(??)MAP[00:[00],01:[01],02:[02],03:[03],mmc:(un)]s(0)Z?S?*/
	$9154  8D 01 20:    sta $2001			/* A(00)<1152>X(??)Y(??)MAP[00:[00],01:[01],02:[02],03:[03],mmc:(un)]s(0)Z1S0*/
	$9157  AD 02 20:    lda $2002			/* A(??)X(??)Y(??)MAP[00:[00],01:[01],02:[02],03:[03],mmc:(un)]s(0)Z?S?*/
	$915A  A5 11:       lda $11			/* A(??)X(??)Y(??)MAP[00:[00],01:[01],02:[02],03:[03],mmc:(un)]s(0)Z?S?*/
	$915C  30 13:       bmi +		; $9171			/* A(??)X(??)Y(??)MAP[00:[00],01:[01],02:[02],03:[03],mmc:(un)]s(0)Z?S?*/
	$915E  A4 10:       ldy $10			/* A(??)X(??)Y(??)MAP[00:[00],01:[01],02:[02],03:[03],mmc:(un)]s(0)Z?S?*/
	$9160  20 74 94:    jsr _func_1474			/* A(??)X(??)Y(??)MAP[00:(??),01:(??),02:(??),03:(??),mmc:(un)]s(0)Z?S?*/
	$9163  A0 00:       ldy #$00			/* A(??)X(??)Y(00)<1163>MAP[00:[00],01:[01],02:[02],03:[03],mmc:(un)]s(0)Z1S0*/
-	$9165  B1 12:       lda ($12),y			/* A(??)X(??)Y(00)<1163>MAP[00:[00],01:[01],02:[02],03:[03],mmc:(un)]s(0)Z?S?*/
	$9167  C9 FF:       cmp #$FF			/* A(??)X(??)Y(00)<1163>MAP[00:[00],01:[01],02:[02],03:[03],mmc:(un)]s(0)Z?S?*/
	$9169  F0 06:       beq +		; $9171			/* A(??)X(??)Y(00)<1163>MAP[00:[00],01:[01],02:[02],03:[03],mmc:(un)]s(0)Z?S?*/
	$916B  8D 07 20:    sta $2007			/* A(??)X(??)Y(00)<1163>MAP[00:[00],01:[01],02:[02],03:[03],mmc:(un)]s(0)Z?S?*/
	$916E  C8:          iny 			/* A(??)X(??)Y(??)MAP[00:[00],01:[01],02:[02],03:[03],mmc:(un)]s(0)Z?S?*/
	$916F  D0 F4:       bne -		; $9165			/* A(??)X(??)Y(??)MAP[00:[00],01:[01],02:[02],03:[03],mmc:(un)]s(0)Z?S?*/
+	$9171  A5 EF:       lda $EF			/* A(??)X(??)Y(00)<1163>MAP[00:[00],01:[01],02:[02],03:[03],mmc:(un)]s(0)Z?S?*/
	$9173  8D 01 20:    sta $2001			/* A(??)X(??)Y(??)MAP[00:[00],01:[01],02:[02],03:[03],mmc:(un)]s(0)Z?S?*/
	$9176  4C 37 8F:    jmp _func_0F37			/* A(??)X(??)Y(??)MAP[00:[00],01:[01],02:[02],03:[03],mmc:(un)]s(0)Z?S?*/(barrier)
;------------------------------------------
_func_1179
	$9179  A5 23:       lda $23			/* A(00)<219>X(??)Y(??)MAP[00:[00],01:[01],02:[02],03:[03],mmc:(un)]s(0)Z?S?*/
	$917B  05 24:       ora $24			/* A(??)X(??)Y(??)MAP[00:[00],01:[01],02:[02],03:[03],mmc:(un)]s(0)Z?S?*/
	$917D  D0 2F:       bne +++		; $91AE			/* A(??)X(??)Y(??)MAP[00:[00],01:[01],02:[02],03:[03],mmc:(un)]s(0)Z?S?*/
	$917F  A5 31:       lda $31			/* A(??)X(??)Y(??)MAP[00:[00],01:[01],02:[02],03:[03],mmc:(un)]s(0)Z?S?*/
	$9181  30 2D:       bmi ++++		; $91B0			/* A(??)X(??)Y(??)MAP[00:[00],01:[01],02:[02],03:[03],mmc:(un)]s(0)Z?S?*/
	$9183  20 FC 8F:    jsr _func_0FFC			/* A(??)X(??)Y(??)MAP[00:(??),01:(??),02:(??),03:(??),mmc:(un)]s(0)Z?S?*/
	$9186  A5 33:       lda $33			/* A(??)X(??)Y(??)MAP[00:[00],01:[01],02:[02],03:[03],mmc:(un)]s(0)Z?S?*/
	$9188  10 0A:       bpl +		; $9194			/* A(??)X(??)Y(??)MAP[00:[00],01:[01],02:[02],03:[03],mmc:(un)]s(0)Z?S?*/
	$918A  E6 2C:       inc $2C			/* A(??)X(??)Y(??)MAP[00:[00],01:[01],02:[02],03:[03],mmc:(un)]s(0)Z?S?*/
	$918C  A5 2C:       lda $2C			/* A(??)X(??)Y(??)MAP[00:[00],01:[01],02:[02],03:[03],mmc:(un)]s(0)Z?S?*/
	$918E  C9 02:       cmp #$02			/* A(??)X(??)Y(??)MAP[00:[00],01:[01],02:[02],03:[03],mmc:(un)]s(0)Z?S?*/
	$9190  B0 1E:       bcs ++++		; $91B0			/* A(??)X(??)Y(??)MAP[00:[00],01:[01],02:[02],03:[03],mmc:(un)]s(0)Z?S?*/
	$9192  90 15:       bcc ++		; $91A9			/* A(??)X(??)Y(??)MAP[00:[00],01:[01],02:[02],03:[03],mmc:(un)]s(0)Z?S?*/
+	$9194  E6 2D:       inc $2D			/* A(??)X(??)Y(??)MAP[00:[00],01:[01],02:[02],03:[03],mmc:(un)]s(0)Z?S?*/
	$9196  A5 2D:       lda $2D			/* A(??)X(??)Y(??)MAP[00:[00],01:[01],02:[02],03:[03],mmc:(un)]s(0)Z?S?*/
	$9198  4A:          lsr a			/* A(??)X(??)Y(??)MAP[00:[00],01:[01],02:[02],03:[03],mmc:(un)]s(0)Z?S?*/
	$9199  B0 0E:       bcs ++		; $91A9			/* A(??)X(??)Y(??)MAP[00:[00],01:[01],02:[02],03:[03],mmc:(un)]s(0)Z?S?*/
	$919B  A5 25:       lda $25			/* A(??)X(??)Y(??)MAP[00:[00],01:[01],02:[02],03:[03],mmc:(un)]s(0)Z?S?*/
	$919D  C5 27:       cmp $27			/* A(??)X(??)Y(??)MAP[00:[00],01:[01],02:[02],03:[03],mmc:(un)]s(0)Z?S?*/
	$919F  F0 0F:       beq ++++		; $91B0			/* A(??)X(??)Y(??)MAP[00:[00],01:[01],02:[02],03:[03],mmc:(un)]s(0)Z?S?*/
	$91A1  90 0D:       bcc ++++		; $91B0			/* A(??)X(??)Y(??)MAP[00:[00],01:[01],02:[02],03:[03],mmc:(un)]s(0)Z?S?*/
	$91A3  20 BC CB:    jsr _func_4BBC			/* A(??)X(??)Y(??)MAP[00:(??),01:(??),02:(??),03:(??),mmc:(un)]s(0)Z?S?*/
	$91A6  20 2F 90:    jsr _func_102F			/* A(??)X(??)Y(??)MAP[00:(??),01:(??),02:(??),03:(??),mmc:(un)]s(0)Z?S?*/
++	$91A9  68:          pla 			/* A(??)X(??)Y(??)MAP[00:[00],01:[01],02:[02],03:[03],mmc:(un)]s(0)Z?S?*/
	$91AA  68:          pla 			/* A(??)X(??)Y(??)MAP[00:[00],01:[01],02:[02],03:[03],mmc:(un)]s(0)Z?S?*/
	$91AB  4C 8D 80:    jmp _loc_008D			/* A(??)X(??)Y(??)MAP[00:[00],01:[01],02:[02],03:[03],mmc:(un)]s(0)Z?S?*/(barrier)

+++	$91AE  18:          clc 			/* A(??)X(??)Y(??)MAP[00:[00],01:[01],02:[02],03:[03],mmc:(un)]s(0)Z?S?*/
	$91AF  60:          rts 			/* A(??)X(??)Y(??)MAP[00:[00],01:[01],02:[02],03:[03],mmc:(un)]s(0)Z?S?*/(barrier)

++++	$91B0  38:          sec 			/* A(??)X(??)Y(??)MAP[00:[00],01:[01],02:[02],03:[03],mmc:(un)]s(0)Z?S?*/
	$91B1  60:          rts 			/* A(??)X(??)Y(??)MAP[00:[00],01:[01],02:[02],03:[03],mmc:(un)]s(0)Z?S?*/(barrier)

	$91B2               .byte $A5,$33,$10,$14,$A9,$0F,$20,$65,$94,$20,$C4,$8E,$20,$F1,$8E,$20
	$91C2               .byte $90,$83,$A5,$2C,$C9,$04,$90,$01,$60,$AA,$AD,$02,$20,$A9,$00,$8D
	$91D2               .byte $01,$20,$A9,$20,$85,$11,$A0,$CB,$20,$74,$94,$A9,$CD,$85,$10,$E8
	$91E2               .byte $8E,$07,$20,$A9,$F4,$85,$12,$A9,$92,$85,$13,$20,$52,$91,$A9,$21
	$91F2               .byte $A0,$A7,$20,$74,$94,$A2,$01,$20,$6D,$92,$A9,$21,$A0,$B6,$20,$74
	$9202               .byte $94,$E8,$20,$6D,$92,$20,$7B,$92,$A9,$21,$85,$11,$A9,$54,$85,$10
	$9212               .byte $A5,$2C,$29,$01,$F0,$08,$A9,$21,$85,$11,$A9,$45,$85,$10,$A9,$FC
	$9222               .byte $85,$12,$A9,$92,$85,$13,$20,$52,$91,$A9,$23,$A0,$D8,$20,$74,$94
	$9232               .byte $A2,$08,$A9,$AA,$8D,$07,$20,$CA,$D0,$FA,$20,$37,$8F,$A9,$05,$85
	$9242               .byte $F4,$0A,$85,$17,$A9,$01,$85,$21,$20,$AD,$89,$A5,$21,$29,$1F,$D0
	$9252               .byte $FA,$20,$B7,$89,$E6,$21,$20,$F1,$8E,$A5,$21,$29,$20,$F0,$03,$20
	$9262               .byte $BC,$92,$C6,$17,$10,$E2,$A9,$1A,$4C,$65,$94,$8E,$07,$20,$A9,$1E
	$9272               .byte $8D,$07,$20,$A9,$19,$8D,$07,$20,$60
_func_127B
	$927B  A9 22:       lda #$22			/* A(??)X(??)Y(??)MAP[00:[00],01:[01],02:[02],03:[03],mmc:(un)]s(0)Z?S?*/
	$927D  A0 06:       ldy #$06			/* A(22)<127B>X(??)Y(06)<127D>MAP[00:[00],01:[01],02:[02],03:[03],mmc:(un)]s(0)Z0S0*/
	$927F  20 74 94:    jsr _func_1474			/* A(??)X(??)Y(??)MAP[00:(??),01:(??),02:(??),03:(??),mmc:(un)]s(0)Z?S?*/
	$9282  A5 25:       lda $25			/* A(??)X(??)Y(06)<127D>MAP[00:[00],01:[01],02:[02],03:[03],mmc:(un)]s(0)Z?S?*/
	$9284  85 10:       sta $10			/* A(??)X(??)Y(06)<127D>MAP[00:[00],01:[01],02:[02],03:[03],mmc:(un)]s(0)Z?S?*/
	$9286  A5 26:       lda $26			/* A(??)X(??)Y(06)<127D>MAP[00:[00],01:[01],02:[02],03:[03],mmc:(un)]s(0)Z?S?*/
	$9288  20 98 92:    jsr _func_1298			/* A(??)X(??)Y(??)MAP[00:(??),01:(??),02:(??),03:(??),mmc:(un)]s(0)Z?S?*/
	$928B  A9 22:       lda #$22			/* A(22)<128B>X(??)Y(06)<127D>MAP[00:[00],01:[01],02:[02],03:[03],mmc:(un)]s(0)Z0S0*/
	$928D  A0 15:       ldy #$15			/* A(22)<128B>X(??)Y(15)<128D>MAP[00:[00],01:[01],02:[02],03:[03],mmc:(un)]s(0)Z0S0*/
	$928F  20 74 94:    jsr _func_1474			/* A(??)X(??)Y(??)MAP[00:(??),01:(??),02:(??),03:(??),mmc:(un)]s(0)Z?S?*/
	$9292  A5 27:       lda $27			/* A(??)X(??)Y(15)<128D>MAP[00:[00],01:[01],02:[02],03:[03],mmc:(un)]s(0)Z?S?*/
	$9294  85 10:       sta $10			/* A(??)X(??)Y(15)<128D>MAP[00:[00],01:[01],02:[02],03:[03],mmc:(un)]s(0)Z?S?*/
	$9296  A5 28:       lda $28			/* A(??)X(??)Y(15)<128D>MAP[00:[00],01:[01],02:[02],03:[03],mmc:(un)]s(0)Z?S?*/
_func_1298
	$9298  85 11:       sta $11			/* A(??)X(??)Y(??)MAP[00:[00],01:[01],02:[02],03:[03],mmc:(un)]s(0)Z?S?*/
	$929A  38:          sec 			/* A(??)X(??)Y(06)<127D>MAP[00:[00],01:[01],02:[02],03:[03],mmc:(un)]s(0)Z?S?*/
	$929B  4C 3C 90:    jmp ---		; $903C			/* A(??)X(??)Y(06)<127D>MAP[00:[00],01:[01],02:[02],03:[03],mmc:(un)]s(0)Z?S?*/(barrier)
;------------------------------------------
_func_129E
	$929E  A2 03:       ldx #$03			/* A(??)X(??)Y(??)MAP[00:[00],01:[01],02:[02],03:[03],mmc:(un)]s(0)Z?S?*/
-	$92A0  99 00 07:    sta $0700,y			/* A(38)<13F8>X(03)<129E>Y(03)<13FA>MAP[00:[00],01:[01],02:[02],03:[03],mmc:(un)]s(0)Z?S?*/
	$92A3  20 F3 AA:    jsr _func_2AF3			/* A(??)X(??)Y(??)MAP[00:(??),01:(??),02:(??),03:(??),mmc:(un)]s(0)Z?S?*/
	$92A6  18:          clc 			/* A(38)<13F8>X(03)<129E>Y(03)<13FA>MAP[00:[00],01:[01],02:[02],03:[03],mmc:(un)]s(0)Z?S?*/
	$92A7  69 08:       adc #$08			/* A(??)X(03)<129E>Y(03)<13FA>MAP[00:[00],01:[01],02:[02],03:[03],mmc:(un)]s(0)Z?S?*/
	$92A9  CA:          dex 			/* A(??)X(??)Y(03)<13FA>MAP[00:[00],01:[01],02:[02],03:[03],mmc:(un)]s(0)Z?S?*/
	$92AA  D0 F4:       bne -		; $92A0			/* A(??)X(??)Y(03)<13FA>MAP[00:[00],01:[01],02:[02],03:[03],mmc:(un)]s(0)Z?S?*/
	$92AC  60:          rts 			/* A(??)X(??)Y(03)<13FA>MAP[00:[00],01:[01],02:[02],03:[03],mmc:(un)]s(0)Z?S?*/(barrier)
;------------------------------------------
_func_12AD
	$92AD  20 B0 92:    jsr _func_12B0			/* A(00)<140D>X(??)Y(02)<140F>MAP[00:[00],01:[01],02:[02],03:[03],mmc:(un)]s(0)Z?S?*/
_func_12B0
	$92B0  A2 03:       ldx #$03			/* A(??)X(??)Y(??)MAP[00:[00],01:[01],02:[02],03:[03],mmc:(un)]s(0)Z?S?*/
-	$92B2  99 00 07:    sta $0700,y			/* A(68)<1406>X(03)<12B0>Y(00)<1408>MAP[00:[00],01:[01],02:[02],03:[03],mmc:(un)]s(0)Z?S?*/
	$92B5  20 F3 AA:    jsr _func_2AF3			/* A(??)X(??)Y(??)MAP[00:(??),01:(??),02:(??),03:(??),mmc:(un)]s(0)Z?S?*/
	$92B8  CA:          dex 			/* A(68)<1406>X(??)Y(00)<1408>MAP[00:[00],01:[01],02:[02],03:[03],mmc:(un)]s(0)Z?S?*/
	$92B9  D0 F7:       bne -		; $92B2			/* A(68)<1406>X(??)Y(00)<1408>MAP[00:[00],01:[01],02:[02],03:[03],mmc:(un)]s(0)Z?S?*/
	$92BB  60:          rts 			/* A(68)<1406>X(??)Y(00)<1408>MAP[00:[00],01:[01],02:[02],03:[03],mmc:(un)]s(0)Z?S?*/(barrier)

	$92BC               .byte $A2,$28,$A5,$2C,$29,$01,$F0,$02,$A2,$A0,$A0,$00,$A9,$50,$85,$2F
	$92CC               .byte $A9,$07,$85,$10,$8A,$A2,$00
_func_12D3
	$92D3  48:          pha 			/* A(48)<A72>X(07)<A74>Y(DC)<A68>MAP[00:[00],01:[01],02:[02],03:[03],mmc:(un)]s(0)Z?S?*/
	$92D4  A5 2F:        lda $2F			/* A(??)X(07)<A74>Y(DC)<A68>MAP[00:[00],01:[01],02:[02],03:[03],mmc:(un)]s(1)Z?S?*/
	$92D6  99 00 07:     sta $0700,y			/* A(??)X(07)<A74>Y(DC)<A68>MAP[00:[00],01:[01],02:[02],03:[03],mmc:(un)]s(1)Z?S?*/
	$92D9  BD 04 93:     lda _data_1304_indexed,x			/* A$1304,x<12D9>X(07)<A74>Y(DC)<A68>MAP[00:[00],01:[01],02:[02],03:[03],mmc:(un)]s(1)Z?S?*/
	$92DC  99 01 07:     sta $0701,y			/* A$1304,x<12D9>X(07)<A74>Y(DC)<A68>MAP[00:[00],01:[01],02:[02],03:[03],mmc:(un)]s(1)Z?S?*/
	$92DF  A9 01:        lda #$01			/* A(01)<12DF>X(07)<A74>Y(DC)<A68>MAP[00:[00],01:[01],02:[02],03:[03],mmc:(un)]s(1)Z0S0*/
	$92E1  99 02 07:     sta $0702,y			/* A(01)<12DF>X(07)<A74>Y(DC)<A68>MAP[00:[00],01:[01],02:[02],03:[03],mmc:(un)]s(1)Z0S0*/
	$92E4  68:          pla 			/* A(48)X(07)<A74>Y(DC)<A68>MAP[00:[00],01:[01],02:[02],03:[03],mmc:(un)]s(0)Z0S0*/
	$92E5  99 03 07:    sta $0703,y			/* A(48)X(07)<A74>Y(DC)<A68>MAP[00:[00],01:[01],02:[02],03:[03],mmc:(un)]s(0)Z0S0*/
	$92E8  18:          clc 			/* A(48)X(07)<A74>Y(DC)<A68>MAP[00:[00],01:[01],02:[02],03:[03],mmc:(un)]s(0)Z0S0*/
	$92E9  69 08:       adc #$08			/* A(??)X(07)<A74>Y(DC)<A68>MAP[00:[00],01:[01],02:[02],03:[03],mmc:(un)]s(0)Z?S?*/
	$92EB  E8:          inx 			/* A(??)X(??)Y(DC)<A68>MAP[00:[00],01:[01],02:[02],03:[03],mmc:(un)]s(0)Z?S?*/
	$92EC  20 F3 AA:    jsr _func_2AF3			/* A(??)X(??)Y(??)MAP[00:(??),01:(??),02:(??),03:(??),mmc:(un)]s(0)Z?S?*/
	$92EF  E4 10:       cpx $10			/* A(??)X(??)Y(DC)<A68>MAP[00:[00],01:[01],02:[02],03:[03],mmc:(un)]s(0)Z?S?*/
	$92F1  90 E0:       bcc _func_12D3			/* A(??)X(??)Y(DC)<A68>MAP[00:[00],01:[01],02:[02],03:[03],mmc:(un)]s(0)Z?S?*/
	$92F3  60:          rts 			/* A(??)X(??)Y(DC)<A68>MAP[00:[00],01:[01],02:[02],03:[03],mmc:(un)]s(0)Z?S?*/(barrier)

	$92F4               .byte $1A,$1E,$0A,$1B,$1D,$0E,$1B,$FF,$0D,$0E,$0F,$0E,$17,$1C,$0E,$FF
_data_1304_indexed
	$9304               .byte $18,$0F,$0F,$0E,$17,$1C,$0E,$01,$25,$30,$0D,$18,$20,$17
_data_1312
	$9312               .byte $10,$0A,$16,$0E,$30,$18,$1F,$0E,$1B,$FF
_data_131C
	$931C               .byte $0C,$18,$17,$10,$1B,$0A,$1D,$1E,$15,$0A,$1D,$12,$18,$17,$1C,$30
	$932C               .byte $22,$18,$1E,$30,$16,$0A,$0D,$0E,$30,$12,$1D,$24,$FF
_data_1339
	$9339               .byte $12,$1D,$30,$20,$0A,$1C,$30,$0A,$30,$0F,$12,$17,$0E,$30,$19,$15
	$9349               .byte $0A,$22,$FF,$A9,$21,$85,$11,$A9,$CB,$85,$10,$A9,$12,$85,$12,$A9
	$9359               .byte $93,$85,$13,$20,$52,$91,$A9,$05,$85,$F4,$20,$B1,$C0,$20,$AD,$89
	$9369               .byte $A5,$D3,$C9,$FF,$D0,$FA,$4C,$B7,$89
_loc_1372
	$9372  A9 20:       lda #$20			/* A(20)<1372>X(??)Y(??)MAP[00:[00],01:[01],02:[02],03:[03],mmc:(un)]s(0)Z0S0*/
	$9374  85 11:       sta $11			/* A(20)<1372>X(??)Y(??)MAP[00:[00],01:[01],02:[02],03:[03],mmc:(un)]s(0)Z0S0*/
	$9376  A9 CB:       lda #$CB			/* A(CB)<1376>X(??)Y(??)MAP[00:[00],01:[01],02:[02],03:[03],mmc:(un)]s(0)Z0S1*/
	$9378  85 10:       sta $10			/* A(CB)<1376>X(??)Y(??)MAP[00:[00],01:[01],02:[02],03:[03],mmc:(un)]s(0)Z0S1*/
	$937A  A9 12:       lda #<_data_1312			/* A(12)<137A>X(??)Y(??)MAP[00:[00],01:[01],02:[02],03:[03],mmc:(un)]s(0)Z0S0*/
	$937C  85 12:       sta $12			/* A(12)<137A>X(??)Y(??)MAP[00:[00],01:[01],02:[02],03:[03],mmc:(un)]s(0)Z0S0*/
	$937E  A9 93:       lda #>_data_1312			/* A(93)<137E>X(??)Y(??)MAP[00:[00],01:[01],02:[02],03:[03],mmc:(un)]s(0)Z0S1*/
	$9380  85 13:       sta $13			/* A(93)<137E>X(??)Y(??)MAP[00:[00],01:[01],02:[02],03:[03],mmc:(un)]s(0)Z0S1*/
	$9382  20 52 91:    jsr _func_1152			/* A(??)X(??)Y(??)MAP[00:(??),01:(??),02:(??),03:(??),mmc:(un)]s(0)Z?S?*/
	$9385  20 7B 92:    jsr _func_127B			/* A(??)X(??)Y(??)MAP[00:(??),01:(??),02:(??),03:(??),mmc:(un)]s(0)Z?S?*/
	$9388  A5 33:       lda $33			/* A(??)X(??)Y(??)MAP[00:[00],01:[01],02:[02],03:[03],mmc:(un)]s(0)Z?S?*/
	$938A  30 29:       bmi +		; $93B5			/* A(??)X(??)Y(??)MAP[00:[00],01:[01],02:[02],03:[03],mmc:(un)]s(0)Z?S?*/
	$938C  A9 22:       lda #$22			/* A(22)<138C>X(??)Y(??)MAP[00:[00],01:[01],02:[02],03:[03],mmc:(un)]s(0)Z0S0*/
	$938E  85 11:       sta $11			/* A(22)<138C>X(??)Y(??)MAP[00:[00],01:[01],02:[02],03:[03],mmc:(un)]s(0)Z0S0*/
	$9390  A9 A5:       lda #$A5			/* A(A5)<1390>X(??)Y(??)MAP[00:[00],01:[01],02:[02],03:[03],mmc:(un)]s(0)Z0S1*/
	$9392  85 10:       sta $10			/* A(A5)<1390>X(??)Y(??)MAP[00:[00],01:[01],02:[02],03:[03],mmc:(un)]s(0)Z0S1*/
	$9394  A9 DF:       lda #<_data_4ADF			/* A(DF)<1394>X(??)Y(??)MAP[00:[00],01:[01],02:[02],03:[03],mmc:(un)]s(0)Z0S1*/
	$9396  85 12:       sta $12			/* A(DF)<1394>X(??)Y(??)MAP[00:[00],01:[01],02:[02],03:[03],mmc:(un)]s(0)Z0S1*/
	$9398  A9 CA:       lda #>_data_4ADF			/* A(CA)<1398>X(??)Y(??)MAP[00:[00],01:[01],02:[02],03:[03],mmc:(un)]s(0)Z0S1*/
	$939A  85 13:       sta $13			/* A(CA)<1398>X(??)Y(??)MAP[00:[00],01:[01],02:[02],03:[03],mmc:(un)]s(0)Z0S1*/
	$939C  20 52 91:    jsr _func_1152			/* A(??)X(??)Y(??)MAP[00:(??),01:(??),02:(??),03:(??),mmc:(un)]s(0)Z?S?*/
	$939F  A9 E5:       lda #$E5			/* A(E5)<139F>X(??)Y(??)MAP[00:[00],01:[01],02:[02],03:[03],mmc:(un)]s(0)Z0S1*/
	$93A1  85 10:       sta $10			/* A(E5)<139F>X(??)Y(??)MAP[00:[00],01:[01],02:[02],03:[03],mmc:(un)]s(0)Z0S1*/
	$93A3  A9 22:       lda #<_data_7722			/* A(22)<13A3>X(??)Y(??)MAP[00:[00],01:[01],02:[02],03:[03],mmc:(un)]s(0)Z0S0*/
	$93A5  85 11:       sta $11			/* A(22)<13A3>X(??)Y(??)MAP[00:[00],01:[01],02:[02],03:[03],mmc:(un)]s(0)Z0S0*/
	$93A7  A9 F7:       lda #>_data_7722			/* A(F7)<13A7>X(??)Y(??)MAP[00:[00],01:[01],02:[02],03:[03],mmc:(un)]s(0)Z0S1*/
	$93A9  85 12:       sta $12			/* A(F7)<13A7>X(??)Y(??)MAP[00:[00],01:[01],02:[02],03:[03],mmc:(un)]s(0)Z0S1*/
	$93AB  A9 CA:       lda #$CA			/* A(CA)<13AB>X(??)Y(??)MAP[00:[00],01:[01],02:[02],03:[03],mmc:(un)]s(0)Z0S1*/
	$93AD  85 13:       sta $13			/* A(CA)<13AB>X(??)Y(??)MAP[00:[00],01:[01],02:[02],03:[03],mmc:(un)]s(0)Z0S1*/
	$93AF  20 52 91:    jsr _func_1152			/* A(??)X(??)Y(??)MAP[00:(??),01:(??),02:(??),03:(??),mmc:(un)]s(0)Z?S?*/
	$93B2  4C DB 93:    jmp ++		; $93DB			/* A(CA)<13AB>X(??)Y(??)MAP[00:[00],01:[01],02:[02],03:[03],mmc:(un)]s(0)Z?S?*/(barrier)

+	$93B5  A9 22:       lda #$22			/* A(??)X(??)Y(??)MAP[00:[00],01:[01],02:[02],03:[03],mmc:(un)]s(0)Z?S?*/
	$93B7  85 11:       sta $11			/* A(22)<13B5>X(??)Y(??)MAP[00:[00],01:[01],02:[02],03:[03],mmc:(un)]s(0)Z0S0*/
	$93B9  A9 A2:       lda #$A2			/* A(A2)<13B9>X(??)Y(??)MAP[00:[00],01:[01],02:[02],03:[03],mmc:(un)]s(0)Z0S1*/
	$93BB  85 10:       sta $10			/* A(A2)<13B9>X(??)Y(??)MAP[00:[00],01:[01],02:[02],03:[03],mmc:(un)]s(0)Z0S1*/
	$93BD  A9 1C:       lda #<_data_131C			/* A(1C)<13BD>X(??)Y(??)MAP[00:[00],01:[01],02:[02],03:[03],mmc:(un)]s(0)Z0S0*/
	$93BF  85 12:       sta $12			/* A(1C)<13BD>X(??)Y(??)MAP[00:[00],01:[01],02:[02],03:[03],mmc:(un)]s(0)Z0S0*/
	$93C1  A9 93:       lda #>_data_131C			/* A(93)<13C1>X(??)Y(??)MAP[00:[00],01:[01],02:[02],03:[03],mmc:(un)]s(0)Z0S1*/
	$93C3  85 13:       sta $13			/* A(93)<13C1>X(??)Y(??)MAP[00:[00],01:[01],02:[02],03:[03],mmc:(un)]s(0)Z0S1*/
	$93C5  20 52 91:    jsr _func_1152			/* A(??)X(??)Y(??)MAP[00:(??),01:(??),02:(??),03:(??),mmc:(un)]s(0)Z?S?*/
	$93C8  A9 23:       lda #$23			/* A(23)<13C8>X(??)Y(??)MAP[00:[00],01:[01],02:[02],03:[03],mmc:(un)]s(0)Z0S0*/
	$93CA  85 11:       sta $11			/* A(23)<13C8>X(??)Y(??)MAP[00:[00],01:[01],02:[02],03:[03],mmc:(un)]s(0)Z0S0*/
	$93CC  A9 07:       lda #$07			/* A(07)<13CC>X(??)Y(??)MAP[00:[00],01:[01],02:[02],03:[03],mmc:(un)]s(0)Z0S0*/
	$93CE  85 10:       sta $10			/* A(07)<13CC>X(??)Y(??)MAP[00:[00],01:[01],02:[02],03:[03],mmc:(un)]s(0)Z0S0*/
	$93D0  A9 39:       lda #<_data_1339			/* A(39)<13D0>X(??)Y(??)MAP[00:[00],01:[01],02:[02],03:[03],mmc:(un)]s(0)Z0S0*/
	$93D2  85 12:       sta $12			/* A(39)<13D0>X(??)Y(??)MAP[00:[00],01:[01],02:[02],03:[03],mmc:(un)]s(0)Z0S0*/
	$93D4  A9 93:       lda #>_data_1339			/* A(93)<13D4>X(??)Y(??)MAP[00:[00],01:[01],02:[02],03:[03],mmc:(un)]s(0)Z0S1*/
	$93D6  85 13:       sta $13			/* A(93)<13D4>X(??)Y(??)MAP[00:[00],01:[01],02:[02],03:[03],mmc:(un)]s(0)Z0S1*/
	$93D8  20 52 91:    jsr _func_1152			/* A(??)X(??)Y(??)MAP[00:(??),01:(??),02:(??),03:(??),mmc:(un)]s(0)Z?S?*/
++	$93DB  A9 05:       lda #$05			/* A(CA)<13AB>X(??)Y(??)MAP[00:[00],01:[01],02:[02],03:[03],mmc:(un)]s(0)Z?S?*/
	$93DD  85 F4:       sta $F4			/* A(05)<13DB>X(??)Y(??)MAP[00:[00],01:[01],02:[02],03:[03],mmc:(un)]s(0)Z0S0*/
	$93DF  A9 10:       lda #$10			/* A(10)<13DF>X(??)Y(??)MAP[00:[00],01:[01],02:[02],03:[03],mmc:(un)]s(0)Z0S0*/
	$93E1  85 17:       sta $17			/* A(10)<13DF>X(??)Y(??)MAP[00:[00],01:[01],02:[02],03:[03],mmc:(un)]s(0)Z0S0*/
	$93E3  A9 01:       lda #$01			/* A(01)<13E3>X(??)Y(??)MAP[00:[00],01:[01],02:[02],03:[03],mmc:(un)]s(0)Z0S0*/
	$93E5  20 B1 C0:    jsr _func_40B1			/* A(??)X(??)Y(??)MAP[00:(??),01:(??),02:(??),03:(??),mmc:(un)]s(0)Z?S?*/
	$93E8  85 21:       sta $21			/* A(01)<13E3>X(??)Y(??)MAP[00:[00],01:[01],02:[02],03:[03],mmc:(un)]s(0)Z?S?*/
_func_13EA
	$93EA  20 AD 89:    jsr _func_09AD			/* A(01)<13E3>X(??)Y(??)MAP[00:[00],01:[01],02:[02],03:[03],mmc:(un)]s(0)Z?S?*/
-	$93ED  A5 21:       lda $21			/* A(??)X(??)Y(??)MAP[00:[00],01:[01],02:[02],03:[03],mmc:(un)]s(0)Z?S?*/
	$93EF  29 1F:       and #$1F			/* A(??)X(??)Y(??)MAP[00:[00],01:[01],02:[02],03:[03],mmc:(un)]s(0)Z?S?*/
	$93F1  D0 FA:       bne -		; $93ED			/* A(??)X(??)Y(??)MAP[00:[00],01:[01],02:[02],03:[03],mmc:(un)]s(0)Z?S?*/
	$93F3  20 B7 89:    jsr _func_09B7			/* A(??)X(??)Y(??)MAP[00:(??),01:(??),02:(??),03:(??),mmc:(un)]s(0)Z?S?*/
	$93F6  E6 21:       inc $21			/* A(??)X(??)Y(??)MAP[00:[00],01:[01],02:[02],03:[03],mmc:(un)]s(0)Z?S?*/
	$93F8  A9 38:       lda #$38			/* A(38)<13F8>X(??)Y(??)MAP[00:[00],01:[01],02:[02],03:[03],mmc:(un)]s(0)Z0S0*/
	$93FA  A0 03:       ldy #$03			/* A(38)<13F8>X(??)Y(03)<13FA>MAP[00:[00],01:[01],02:[02],03:[03],mmc:(un)]s(0)Z0S0*/
	$93FC  20 9E 92:    jsr _func_129E			/* A(??)X(??)Y(??)MAP[00:(??),01:(??),02:(??),03:(??),mmc:(un)]s(0)Z?S?*/
	$93FF  A9 B0:       lda #$B0			/* A(B0)<13FF>X(??)Y(03)<13FA>MAP[00:[00],01:[01],02:[02],03:[03],mmc:(un)]s(0)Z0S1*/
	$9401  A0 0F:       ldy #$0F			/* A(B0)<13FF>X(??)Y(0F)<1401>MAP[00:[00],01:[01],02:[02],03:[03],mmc:(un)]s(0)Z0S0*/
	$9403  20 9E 92:    jsr _func_129E			/* A(??)X(??)Y(??)MAP[00:(??),01:(??),02:(??),03:(??),mmc:(un)]s(0)Z?S?*/
	$9406  A9 68:       lda #$68			/* A(68)<1406>X(??)Y(0F)<1401>MAP[00:[00],01:[01],02:[02],03:[03],mmc:(un)]s(0)Z0S0*/
	$9408  A0 00:       ldy #$00			/* A(68)<1406>X(??)Y(00)<1408>MAP[00:[00],01:[01],02:[02],03:[03],mmc:(un)]s(0)Z1S0*/
	$940A  20 AD 92:    jsr _func_12AD			/* A(??)X(??)Y(??)MAP[00:(??),01:(??),02:(??),03:(??),mmc:(un)]s(0)Z?S?*/
	$940D  A9 00:       lda #$00			/* A(00)<140D>X(??)Y(00)<1408>MAP[00:[00],01:[01],02:[02],03:[03],mmc:(un)]s(0)Z1S0*/
	$940F  A0 02:       ldy #$02			/* A(00)<140D>X(??)Y(02)<140F>MAP[00:[00],01:[01],02:[02],03:[03],mmc:(un)]s(0)Z0S0*/
	$9411  20 AD 92:    jsr _func_12AD			/* A(??)X(??)Y(??)MAP[00:(??),01:(??),02:(??),03:(??),mmc:(un)]s(0)Z?S?*/
	$9414  A2 01:       ldx #$01			/* A(00)<140D>X(01)<1414>Y(02)<140F>MAP[00:[00],01:[01],02:[02],03:[03],mmc:(un)]s(0)Z0S0*/
	$9416  8E 01 07:    stx $0701			/* A(00)<140D>X(01)<1414>Y(02)<140F>MAP[00:[00],01:[01],02:[02],03:[03],mmc:(un)]s(0)Z0S0*/
	$9419  E8:          inx 			/* A(00)<140D>X(??)Y(02)<140F>MAP[00:[00],01:[01],02:[02],03:[03],mmc:(un)]s(0)Z?S?*/
	$941A  8E 0D 07:    stx $070D			/* A(00)<140D>X(??)Y(02)<140F>MAP[00:[00],01:[01],02:[02],03:[03],mmc:(un)]s(0)Z?S?*/
	$941D  A9 1E:       lda #$1E			/* A(1E)<141D>X(??)Y(02)<140F>MAP[00:[00],01:[01],02:[02],03:[03],mmc:(un)]s(0)Z0S0*/
	$941F  8D 05 07:    sta $0705			/* A(1E)<141D>X(??)Y(02)<140F>MAP[00:[00],01:[01],02:[02],03:[03],mmc:(un)]s(0)Z0S0*/
	$9422  8D 11 07:    sta $0711			/* A(1E)<141D>X(??)Y(02)<140F>MAP[00:[00],01:[01],02:[02],03:[03],mmc:(un)]s(0)Z0S0*/
	$9425  A9 19:       lda #$19			/* A(19)<1425>X(??)Y(02)<140F>MAP[00:[00],01:[01],02:[02],03:[03],mmc:(un)]s(0)Z0S0*/
	$9427  8D 09 07:    sta $0709			/* A(19)<1425>X(??)Y(02)<140F>MAP[00:[00],01:[01],02:[02],03:[03],mmc:(un)]s(0)Z0S0*/
	$942A  8D 15 07:    sta $0715			/* A(19)<1425>X(??)Y(02)<140F>MAP[00:[00],01:[01],02:[02],03:[03],mmc:(un)]s(0)Z0S0*/
	$942D  A5 33:       lda $33			/* A(??)X(??)Y(02)<140F>MAP[00:[00],01:[01],02:[02],03:[03],mmc:(un)]s(0)Z?S?*/
	$942F  30 0F:       bmi +		; $9440			/* A(??)X(??)Y(02)<140F>MAP[00:[00],01:[01],02:[02],03:[03],mmc:(un)]s(0)Z?S?*/
	$9431  A9 0C:       lda #$0C			/* A(0C)<1431>X(??)Y(02)<140F>MAP[00:[00],01:[01],02:[02],03:[03],mmc:(un)]s(0)Z0S0*/
	$9433  8D 0D 07:    sta $070D			/* A(0C)<1431>X(??)Y(02)<140F>MAP[00:[00],01:[01],02:[02],03:[03],mmc:(un)]s(0)Z0S0*/
	$9436  A9 18:       lda #$18			/* A(18)<1436>X(??)Y(02)<140F>MAP[00:[00],01:[01],02:[02],03:[03],mmc:(un)]s(0)Z0S0*/
	$9438  8D 11 07:    sta $0711			/* A(18)<1436>X(??)Y(02)<140F>MAP[00:[00],01:[01],02:[02],03:[03],mmc:(un)]s(0)Z0S0*/
	$943B  A9 16:       lda #$16			/* A(16)<143B>X(??)Y(02)<140F>MAP[00:[00],01:[01],02:[02],03:[03],mmc:(un)]s(0)Z0S0*/
	$943D  8D 15 07:    sta $0715			/* A(16)<143B>X(??)Y(02)<140F>MAP[00:[00],01:[01],02:[02],03:[03],mmc:(un)]s(0)Z0S0*/
+	$9440  A5 21:       lda $21			/* A(16)<143B>X(??)Y(02)<140F>MAP[00:[00],01:[01],02:[02],03:[03],mmc:(un)]s(0)Z0S0*/
	$9442  29 20:       and #$20			/* A(??)X(??)Y(02)<140F>MAP[00:[00],01:[01],02:[02],03:[03],mmc:(un)]s(0)Z?S?*/
	$9444  F0 11:       beq +++		; $9457			/* A(??)X(??)Y(02)<140F>MAP[00:[00],01:[01],02:[02],03:[03],mmc:(un)]s(0)Z?S?*/
	$9446  A0 00:       ldy #$00			/* A(??)X(??)Y(00)<1446>MAP[00:[00],01:[01],02:[02],03:[03],mmc:(un)]s(0)Z1S0*/
	$9448  A5 25:       lda $25			/* A(??)X(??)Y(00)<1446>MAP[00:[00],01:[01],02:[02],03:[03],mmc:(un)]s(0)Z?S?*/
	$944A  C5 27:       cmp $27			/* A(??)X(??)Y(00)<1446>MAP[00:[00],01:[01],02:[02],03:[03],mmc:(un)]s(0)Z?S?*/
	$944C  F0 02:       beq +		; $9450			/* A(??)X(??)Y(00)<1446>MAP[00:[00],01:[01],02:[02],03:[03],mmc:(un)]s(0)Z?S?*/
	$944E  B0 02:       bcs ++		; $9452			/* A(??)X(??)Y(00)<1446>MAP[00:[00],01:[01],02:[02],03:[03],mmc:(un)]s(0)Z?S?*/
+	$9450  A0 0C:       ldy #$0C			/* A(??)X(??)Y(??)MAP[00:[00],01:[01],02:[02],03:[03],mmc:(un)]s(0)Z?S?*/
++	$9452  A9 F0:       lda #$F0			/* A(??)X(??)Y(??)MAP[00:[00],01:[01],02:[02],03:[03],mmc:(un)]s(0)Z?S?*/
	$9454  20 B0 92:    jsr _func_12B0			/* A(??)X(??)Y(??)MAP[00:(??),01:(??),02:(??),03:(??),mmc:(un)]s(0)Z?S?*/
+++	$9457  C6 17:       dec $17			/* A(F0)<1452>X(??)Y(??)MAP[00:[00],01:[01],02:[02],03:[03],mmc:(un)]s(0)Z?S?*/
	$9459  F0 03:       beq +		; $945E -> rts			/* A(??)X(??)Y(02)<140F>MAP[00:[00],01:[01],02:[02],03:[03],mmc:(un)]s(0)Z?S?*/
	$945B  4C EA 93:    jmp _func_13EA			/* A(??)X(??)Y(02)<140F>MAP[00:[00],01:[01],02:[02],03:[03],mmc:(un)]s(0)Z?S?*/(barrier)

+	$945E  60:          rts 			/* A(??)X(??)Y(02)<140F>MAP[00:[00],01:[01],02:[02],03:[03],mmc:(un)]s(0)Z?S?*/(barrier)
;------------------------------------------
_func_145F
	$945F  A5 EF:       lda $EF			/* A(??)X(??)Y(00)<4A24>MAP[00:[00],01:[01],02:[02],03:[03],mmc:(un)]s(0)Z?S?*/
	$9461  8D 01 20:    sta $2001			/* A(??)X(??)Y(??)MAP[00:[00],01:[01],02:[02],03:[03],mmc:(un)]s(0)Z?S?*/
	$9464  60:          rts 			/* A(??)X(??)Y(??)MAP[00:[00],01:[01],02:[02],03:[03],mmc:(un)]s(0)Z?S?*/(barrier)
;------------------------------------------
_func_1465
	$9465  A0 00:       ldy #$00			/* A(0F)<3A5>X(??)Y(00)<1465>MAP[00:[00],01:[01],02:[02],03:[03],mmc:(un)]s(0)Z?S?*/
-	$9467  99 A3 00:    sta $00A3,y			/* A(0F)<4BCB>X(??)Y(00)<1465>MAP[00:[00],01:[01],02:[02],03:[03],mmc:(un)]s(0)Z?S?*/
	$946A  20 F3 AA:    jsr _func_2AF3			/* A(??)X(??)Y(??)MAP[00:(??),01:(??),02:(??),03:(??),mmc:(un)]s(0)Z?S?*/
	$946D  C0 20:       cpy #$20			/* A(0F)<4BCB>X(??)Y(00)<1465>MAP[00:[00],01:[01],02:[02],03:[03],mmc:(un)]s(0)Z?S?*/
	$946F  90 F6:       bcc -		; $9467			/* A(0F)<4BCB>X(??)Y(00)<1465>MAP[00:[00],01:[01],02:[02],03:[03],mmc:(un)]s(0)Z?S?*/
	$9471  4C 00 8F:    jmp _func_0F00			/* A(0F)<4BCB>X(??)Y(00)<1465>MAP[00:[00],01:[01],02:[02],03:[03],mmc:(un)]s(0)Z?S?*/(barrier)
;------------------------------------------
_func_1474
	$9474  8D 06 20:    sta $2006			/* A(22)<128B>X(??)Y(15)<128D>MAP[00:[00],01:[01],02:[02],03:[03],mmc:(un)]s(0)Z?S?*/
	$9477  8C 06 20:    sty $2006			/* A(22)<979>X(??)Y(4A)<97B>MAP[00:[00],01:[01],02:[02],03:[03],mmc:(un)]s(0)Z?S?*/
	$947A  60:          rts 			/* A(22)<979>X(??)Y(4A)<97B>MAP[00:[00],01:[01],02:[02],03:[03],mmc:(un)]s(0)Z?S?*/(barrier)
;------------------------------------------
_func_147B
	$947B  A5 1D:       lda $1D			/* A(??)X(??)Y(??)MAP[00:[00],01:[01],02:[02],03:[03],mmc:(un)]s(0)Z?S?*/
	$947D  4A:          lsr a			/* A(??)X(F8)<4D6>Y(??)MAP[00:[00],01:[01],02:[02],03:[03],mmc:(un)]s(0)Z?S?*/
	$947E  90 03:       bcc +		; $9483			/* A(??)X(F8)<4D6>Y(??)MAP[00:[00],01:[01],02:[02],03:[03],mmc:(un)]s(0)Z?S?*/
	$9480  4C BB 94:    jmp ++		; $94BB			/* A(??)X(F8)<4D6>Y(??)MAP[00:[00],01:[01],02:[02],03:[03],mmc:(un)]s(0)Z?S?*/(barrier)

+	$9483  A5 4E:       lda $4E			/* A(??)X(F8)<4D6>Y(??)MAP[00:[00],01:[01],02:[02],03:[03],mmc:(un)]s(0)Z?S?*/
	$9485  38:          sec 			/* A(??)X(F8)<4D6>Y(??)MAP[00:[00],01:[01],02:[02],03:[03],mmc:(un)]s(0)Z?S?*/
	$9486  E9 B0:       sbc #$B0			/* A(??)X(F8)<4D6>Y(??)MAP[00:[00],01:[01],02:[02],03:[03],mmc:(un)]s(0)Z?S?*/
	$9488  85 10:       sta $10			/* A(??)X(F8)<4D6>Y(??)MAP[00:[00],01:[01],02:[02],03:[03],mmc:(un)]s(0)Z?S?*/
	$948A  A5 4F:       lda $4F			/* A(??)X(F8)<4D6>Y(??)MAP[00:[00],01:[01],02:[02],03:[03],mmc:(un)]s(0)Z?S?*/
	$948C  E9 00:       sbc #$00			/* A(??)X(F8)<4D6>Y(??)MAP[00:[00],01:[01],02:[02],03:[03],mmc:(un)]s(0)Z?S?*/
	$948E  85 11:       sta $11			/* A(??)X(F8)<4D6>Y(??)MAP[00:[00],01:[01],02:[02],03:[03],mmc:(un)]s(0)Z?S?*/
	$9490  20 D7 9D:    jsr _func_1DD7			/* A(??)X(??)Y(??)MAP[00:(??),01:(??),02:(??),03:(??),mmc:(un)]s(0)Z?S?*/
	$9493  A9 68:       lda #$68			/* A(68)<1493>X(F8)<4D6>Y(??)MAP[00:[00],01:[01],02:[02],03:[03],mmc:(un)]s(0)Z0S0*/
	$9495  38:          sec 			/* A(68)<1493>X(F8)<4D6>Y(??)MAP[00:[00],01:[01],02:[02],03:[03],mmc:(un)]s(0)Z0S0*/
	$9496  E5 12:       sbc $12			/* A(??)X(F8)<4D6>Y(??)MAP[00:[00],01:[01],02:[02],03:[03],mmc:(un)]s(0)Z?S?*/
	$9498  A9 00:       lda #$00			/* A(00)<1498>X(F8)<4D6>Y(??)MAP[00:[00],01:[01],02:[02],03:[03],mmc:(un)]s(0)Z1S0*/
	$949A  E5 13:       sbc $13			/* A(??)X(F8)<4D6>Y(??)MAP[00:[00],01:[01],02:[02],03:[03],mmc:(un)]s(0)Z?S?*/
	$949C  B0 1D:       bcs ++		; $94BB			/* A(??)X(F8)<4D6>Y(??)MAP[00:[00],01:[01],02:[02],03:[03],mmc:(un)]s(0)Z?S?*/
	$949E  A9 70:       lda #$70			/* A(70)<149E>X(F8)<4D6>Y(??)MAP[00:[00],01:[01],02:[02],03:[03],mmc:(un)]s(0)Z0S0*/
	$94A0  38:          sec 			/* A(70)<149E>X(F8)<4D6>Y(??)MAP[00:[00],01:[01],02:[02],03:[03],mmc:(un)]s(0)Z0S0*/
	$94A1  E5 12:       sbc $12			/* A(??)X(F8)<4D6>Y(??)MAP[00:[00],01:[01],02:[02],03:[03],mmc:(un)]s(0)Z?S?*/
	$94A3  A9 03:       lda #$03			/* A(03)<14A3>X(F8)<4D6>Y(??)MAP[00:[00],01:[01],02:[02],03:[03],mmc:(un)]s(0)Z0S0*/
	$94A5  E5 13:       sbc $13			/* A(??)X(F8)<4D6>Y(??)MAP[00:[00],01:[01],02:[02],03:[03],mmc:(un)]s(0)Z?S?*/
	$94A7  90 12:       bcc ++		; $94BB			/* A(??)X(F8)<4D6>Y(??)MAP[00:[00],01:[01],02:[02],03:[03],mmc:(un)]s(0)Z?S?*/
	$94A9  A5 12:       lda $12			/* A(??)X(F8)<4D6>Y(??)MAP[00:[00],01:[01],02:[02],03:[03],mmc:(un)]s(0)Z?S?*/
	$94AB  29 03:       and #$03			/* A(??)X(F8)<4D6>Y(??)MAP[00:[00],01:[01],02:[02],03:[03],mmc:(un)]s(0)Z?S?*/
	$94AD  D0 0C:       bne ++		; $94BB			/* A(??)X(F8)<4D6>Y(??)MAP[00:[00],01:[01],02:[02],03:[03],mmc:(un)]s(0)Z?S?*/
	$94AF  A5 12:       lda $12			/* A(??)X(F8)<4D6>Y(??)MAP[00:[00],01:[01],02:[02],03:[03],mmc:(un)]s(0)Z?S?*/
	$94B1  85 49:       sta $49			/* A(??)X(F8)<4D6>Y(??)MAP[00:[00],01:[01],02:[02],03:[03],mmc:(un)]s(0)Z?S?*/
	$94B3  A5 4A:       lda $4A			/* A(??)X(F8)<4D6>Y(??)MAP[00:[00],01:[01],02:[02],03:[03],mmc:(un)]s(0)Z?S?*/
	$94B5  29 80:       and #$80			/* A(??)X(F8)<4D6>Y(??)MAP[00:[00],01:[01],02:[02],03:[03],mmc:(un)]s(0)Z?S?*/
	$94B7  05 13:       ora $13			/* A(??)X(F8)<4D6>Y(??)MAP[00:[00],01:[01],02:[02],03:[03],mmc:(un)]s(0)Z?S?*/
	$94B9  85 4A:       sta $4A			/* A(??)X(F8)<4D6>Y(??)MAP[00:[00],01:[01],02:[02],03:[03],mmc:(un)]s(0)Z?S?*/
++	$94BB  A5 4A:       lda $4A			/* A(??)X(F8)<4D6>Y(??)MAP[00:[00],01:[01],02:[02],03:[03],mmc:(un)]s(0)Z?S?*/
	$94BD  29 0F:       and #$0F			/* A(??)X(F8)<4D6>Y(??)MAP[00:[00],01:[01],02:[02],03:[03],mmc:(un)]s(0)Z?S?*/
	$94BF  C9 01:       cmp #$01			/* A(??)X(F8)<4D6>Y(??)MAP[00:[00],01:[01],02:[02],03:[03],mmc:(un)]s(0)Z?S?*/
	$94C1  90 08:       bcc +		; $94CB			/* A(??)X(F8)<4D6>Y(??)MAP[00:[00],01:[01],02:[02],03:[03],mmc:(un)]s(0)Z?S?*/
	$94C3  C9 03:       cmp #$03			/* A(??)X(F8)<4D6>Y(??)MAP[00:[00],01:[01],02:[02],03:[03],mmc:(un)]s(0)Z?S?*/
	$94C5  B0 04:       bcs +		; $94CB			/* A(??)X(F8)<4D6>Y(??)MAP[00:[00],01:[01],02:[02],03:[03],mmc:(un)]s(0)Z?S?*/
	$94C7  A0 00:       ldy #$00			/* A(??)X(F8)<4D6>Y(00)<14C7>MAP[00:[00],01:[01],02:[02],03:[03],mmc:(un)]s(0)Z1S0*/
	$94C9  F0 02:       beq ++		; $94CD			/* A(??)X(F8)<4D6>Y(00)<14C7>MAP[00:[00],01:[01],02:[02],03:[03],mmc:(un)]s(0)Z1S0*/(barrier)

+	$94CB  A0 02:       ldy #$02			/* A(??)X(F8)<4D6>Y(00)<14C7>MAP[00:[00],01:[01],02:[02],03:[03],mmc:(un)]s(0)Z1S0*/
++	$94CD  B9 D8 94:    lda _DataPointerTable_14D8,y			/* A$14D8,y<14CD>X(F8)<4D6>Y(??)MAP[00:[00],01:[01],02:[02],03:[03],mmc:(un)]s(0)Z1S0*/
	$94D0  85 B0:       sta $B0			/* A$14D8,y<14CD>X(F8)<4D6>Y(02)<14CB>MAP[00:[00],01:[01],02:[02],03:[03],mmc:(un)]s(0)Z?S?*/
	$94D2  B9 D9 94:    lda _DataPointerTable_14D8+1,y			/* A$14D9,y<14D2>X(F8)<4D6>Y(02)<14CB>MAP[00:[00],01:[01],02:[02],03:[03],mmc:(un)]s(0)Z?S?*/
	$94D5  85 B1:       sta $B1			/* A$14D9,y<14D2>X(F8)<4D6>Y(02)<14CB>MAP[00:[00],01:[01],02:[02],03:[03],mmc:(un)]s(0)Z?S?*/
	$94D7  60:          rts 			/* A$14D9,y<14D2>X(F8)<4D6>Y(02)<14CB>MAP[00:[00],01:[01],02:[02],03:[03],mmc:(un)]s(0)Z?S?*/(barrier)
;------------------------------------------
_DataPointerTable_14D8
	$94D8  02 24:       .word ($2402) ;2402 (0) ([8:0][A:1][C:2][E:3])
	$94DA  06 00:       .word ($06) ;6 (0) ([8:0][A:1][C:2][E:3])
-	$94DC  4C 7C 95:    jmp ++		; $957C			/* A(??)X(??)Y(??)MAP[00:[00],01:[01],02:[02],03:[03],mmc:(un)]s(0)Z?S?*/(barrier)
;------------------------------------------
_func_14DF
	$94DF  A9 00:       lda #$00			/* A(00)<14DF>X(??)Y(??)MAP[00:[00],01:[01],02:[02],03:[03],mmc:(un)]s(0)Z?S?*/
	$94E1  8D 01 20:    sta $2001			/* A(00)<14DF>X(??)Y(??)MAP[00:[00],01:[01],02:[02],03:[03],mmc:(un)]s(0)Z1S0*/
	$94E4  85 EF:       sta $EF			/* A(00)<14DF>X(??)Y(??)MAP[00:[00],01:[01],02:[02],03:[03],mmc:(un)]s(0)Z1S0*/
	$94E6  A5 1D:       lda $1D			/* A(??)X(??)Y(??)MAP[00:[00],01:[01],02:[02],03:[03],mmc:(un)]s(0)Z?S?*/
	$94E8  4A:          lsr a			/* A(??)X(??)Y(??)MAP[00:[00],01:[01],02:[02],03:[03],mmc:(un)]s(0)Z?S?*/
	$94E9  90 20:       bcc +		; $950B			/* A(??)X(??)Y(??)MAP[00:[00],01:[01],02:[02],03:[03],mmc:(un)]s(0)Z?S?*/
	$94EB  20 FC 8E:    jsr _func_0EFC			/* A(??)X(??)Y(??)MAP[00:(??),01:(??),02:(??),03:(??),mmc:(un)]s(0)Z?S?*/
	$94EE  AD 00 02:    lda $0200			/* A(??)X(??)Y(??)MAP[00:[00],01:[01],02:[02],03:[03],mmc:(un)]s(0)Z?S?*/
	$94F1  30 E9:       bmi -		; $94DC -> $957C			/* A(??)X(??)Y(??)MAP[00:[00],01:[01],02:[02],03:[03],mmc:(un)]s(0)Z?S?*/
	$94F3  8D 06 20:    sta $2006			/* A(??)X(??)Y(??)MAP[00:[00],01:[01],02:[02],03:[03],mmc:(un)]s(0)Z?S?*/
	$94F6  AD 01 02:    lda $0201			/* A(??)X(??)Y(??)MAP[00:[00],01:[01],02:[02],03:[03],mmc:(un)]s(0)Z?S?*/
	$94F9  8D 06 20:    sta $2006			/* A(??)X(??)Y(??)MAP[00:[00],01:[01],02:[02],03:[03],mmc:(un)]s(0)Z?S?*/
	$94FC  A0 00:       ldy #$00			/* A(??)X(??)Y(00)<14FC>MAP[00:[00],01:[01],02:[02],03:[03],mmc:(un)]s(0)Z1S0*/
-	$94FE  B9 02 02:    lda $0202,y			/* A(??)X(??)Y(00)<14FC>MAP[00:[00],01:[01],02:[02],03:[03],mmc:(un)]s(0)Z?S?*/
	$9501  8D 07 20:    sta $2007			/* A(??)X(??)Y(00)<14FC>MAP[00:[00],01:[01],02:[02],03:[03],mmc:(un)]s(0)Z?S?*/
	$9504  C8:          iny 			/* A(??)X(??)Y(??)MAP[00:[00],01:[01],02:[02],03:[03],mmc:(un)]s(0)Z?S?*/
	$9505  C0 20:       cpy #$20			/* A(??)X(??)Y(??)MAP[00:[00],01:[01],02:[02],03:[03],mmc:(un)]s(0)Z?S?*/
	$9507  90 F5:       bcc -		; $94FE			/* A(??)X(??)Y(??)MAP[00:[00],01:[01],02:[02],03:[03],mmc:(un)]s(0)Z?S?*/
	$9509  B0 71:       bcs ++		; $957C			/* A(??)X(??)Y(??)MAP[00:[00],01:[01],02:[02],03:[03],mmc:(un)]s(0)Z?S?*/
+	$950B  AD 02 20:    lda $2002			/* A(??)X(??)Y(??)MAP[00:[00],01:[01],02:[02],03:[03],mmc:(un)]s(0)Z?S?*/
	$950E  A0 00:       ldy #$00			/* A(??)X(??)Y(00)<150E>MAP[00:[00],01:[01],02:[02],03:[03],mmc:(un)]s(0)Z1S0*/
-	$9510  B9 22 02:    lda $0222,y			/* A(??)X(??)Y(00)<150E>MAP[00:[00],01:[01],02:[02],03:[03],mmc:(un)]s(0)Z?S?*/
	$9513  30 54:       bmi +		; $9569			/* A(??)X(??)Y(00)<150E>MAP[00:[00],01:[01],02:[02],03:[03],mmc:(un)]s(0)Z?S?*/
	$9515  8D 06 20:    sta $2006			/* A(??)X(??)Y(00)<150E>MAP[00:[00],01:[01],02:[02],03:[03],mmc:(un)]s(0)Z?S?*/
	$9518  B9 23 02:    lda $0223,y			/* A(??)X(??)Y(00)<150E>MAP[00:[00],01:[01],02:[02],03:[03],mmc:(un)]s(0)Z?S?*/
	$951B  8D 06 20:    sta $2006			/* A(??)X(??)Y(00)<150E>MAP[00:[00],01:[01],02:[02],03:[03],mmc:(un)]s(0)Z?S?*/
	$951E  B9 24 02:    lda $0224,y			/* A(??)X(??)Y(00)<150E>MAP[00:[00],01:[01],02:[02],03:[03],mmc:(un)]s(0)Z?S?*/
	$9521  8D 07 20:    sta $2007			/* A(??)X(??)Y(00)<150E>MAP[00:[00],01:[01],02:[02],03:[03],mmc:(un)]s(0)Z?S?*/
	$9524  B9 25 02:    lda $0225,y			/* A(??)X(??)Y(00)<150E>MAP[00:[00],01:[01],02:[02],03:[03],mmc:(un)]s(0)Z?S?*/
	$9527  8D 07 20:    sta $2007			/* A(??)X(??)Y(00)<150E>MAP[00:[00],01:[01],02:[02],03:[03],mmc:(un)]s(0)Z?S?*/
	$952A  B9 26 02:    lda $0226,y			/* A(??)X(??)Y(00)<150E>MAP[00:[00],01:[01],02:[02],03:[03],mmc:(un)]s(0)Z?S?*/
	$952D  8D 07 20:    sta $2007			/* A(??)X(??)Y(00)<150E>MAP[00:[00],01:[01],02:[02],03:[03],mmc:(un)]s(0)Z?S?*/
	$9530  B9 27 02:    lda $0227,y			/* A(??)X(??)Y(00)<150E>MAP[00:[00],01:[01],02:[02],03:[03],mmc:(un)]s(0)Z?S?*/
	$9533  8D 07 20:    sta $2007			/* A(??)X(??)Y(00)<150E>MAP[00:[00],01:[01],02:[02],03:[03],mmc:(un)]s(0)Z?S?*/
	$9536  B9 28 02:    lda $0228,y			/* A(??)X(??)Y(00)<150E>MAP[00:[00],01:[01],02:[02],03:[03],mmc:(un)]s(0)Z?S?*/
	$9539  8D 07 20:    sta $2007			/* A(??)X(??)Y(00)<150E>MAP[00:[00],01:[01],02:[02],03:[03],mmc:(un)]s(0)Z?S?*/
	$953C  98:          tya 			/* A(00)<153C>X(??)Y(00)<150E>MAP[00:[00],01:[01],02:[02],03:[03],mmc:(un)]s(0)Z1S0*/
	$953D  18:          clc 			/* A(00)<153C>X(??)Y(00)<150E>MAP[00:[00],01:[01],02:[02],03:[03],mmc:(un)]s(0)Z1S0*/
	$953E  69 07:       adc #$07			/* A(??)X(??)Y(00)<150E>MAP[00:[00],01:[01],02:[02],03:[03],mmc:(un)]s(0)Z?S?*/
	$9540  A8:          tay 			/* A(??)X(??)Y(??)MAP[00:[00],01:[01],02:[02],03:[03],mmc:(un)]s(0)Z?S?*/
	$9541  C0 38:       cpy #$38			/* A(??)X(??)Y(??)MAP[00:[00],01:[01],02:[02],03:[03],mmc:(un)]s(0)Z?S?*/
	$9543  90 CB:       bcc -		; $9510			/* A(??)X(??)Y(??)MAP[00:[00],01:[01],02:[02],03:[03],mmc:(un)]s(0)Z?S?*/
	$9545  A0 00:       ldy #$00			/* A(??)X(??)Y(00)<1545>MAP[00:[00],01:[01],02:[02],03:[03],mmc:(un)]s(0)Z1S0*/
-	$9547  B9 5A 02:    lda $025A,y			/* A(??)X(??)Y(00)<1545>MAP[00:[00],01:[01],02:[02],03:[03],mmc:(un)]s(0)Z?S?*/
	$954A  30 1D:       bmi +		; $9569			/* A(??)X(??)Y(00)<1545>MAP[00:[00],01:[01],02:[02],03:[03],mmc:(un)]s(0)Z?S?*/
	$954C  8D 06 20:    sta $2006			/* A(??)X(??)Y(00)<1545>MAP[00:[00],01:[01],02:[02],03:[03],mmc:(un)]s(0)Z?S?*/
	$954F  B9 5B 02:    lda $025B,y			/* A(??)X(??)Y(00)<1545>MAP[00:[00],01:[01],02:[02],03:[03],mmc:(un)]s(0)Z?S?*/
	$9552  8D 06 20:    sta $2006			/* A(??)X(??)Y(00)<1545>MAP[00:[00],01:[01],02:[02],03:[03],mmc:(un)]s(0)Z?S?*/
	$9555  B9 5C 02:    lda $025C,y			/* A(??)X(??)Y(00)<1545>MAP[00:[00],01:[01],02:[02],03:[03],mmc:(un)]s(0)Z?S?*/
	$9558  8D 07 20:    sta $2007			/* A(??)X(??)Y(00)<1545>MAP[00:[00],01:[01],02:[02],03:[03],mmc:(un)]s(0)Z?S?*/
	$955B  B9 5D 02:    lda $025D,y			/* A(??)X(??)Y(00)<1545>MAP[00:[00],01:[01],02:[02],03:[03],mmc:(un)]s(0)Z?S?*/
	$955E  8D 07 20:    sta $2007			/* A(??)X(??)Y(00)<1545>MAP[00:[00],01:[01],02:[02],03:[03],mmc:(un)]s(0)Z?S?*/
	$9561  C8:          iny 			/* A(??)X(??)Y(??)MAP[00:[00],01:[01],02:[02],03:[03],mmc:(un)]s(0)Z?S?*/
	$9562  C8:          iny 			/* A(??)X(??)Y(??)MAP[00:[00],01:[01],02:[02],03:[03],mmc:(un)]s(0)Z?S?*/
	$9563  C8:          iny 			/* A(??)X(??)Y(??)MAP[00:[00],01:[01],02:[02],03:[03],mmc:(un)]s(0)Z?S?*/
	$9564  C8:          iny 			/* A(??)X(??)Y(??)MAP[00:[00],01:[01],02:[02],03:[03],mmc:(un)]s(0)Z?S?*/
	$9565  C0 30:       cpy #$30			/* A(??)X(??)Y(??)MAP[00:[00],01:[01],02:[02],03:[03],mmc:(un)]s(0)Z?S?*/
	$9567  90 DE:       bcc -		; $9547			/* A(??)X(??)Y(??)MAP[00:[00],01:[01],02:[02],03:[03],mmc:(un)]s(0)Z?S?*/
+	$9569  A5 4A:       lda $4A			/* A(??)X(??)Y(00)<150E>MAP[00:[00],01:[01],02:[02],03:[03],mmc:(un)]s(0)Z?S?*/
	$956B  0A:          asl a			/* A(??)X(??)Y(00)<150E>MAP[00:[00],01:[01],02:[02],03:[03],mmc:(un)]s(0)Z?S?*/
	$956C  29 02:       and #$02			/* A(??)X(??)Y(00)<150E>MAP[00:[00],01:[01],02:[02],03:[03],mmc:(un)]s(0)Z?S?*/
	$956E  85 10:       sta $10			/* A(??)X(??)Y(00)<150E>MAP[00:[00],01:[01],02:[02],03:[03],mmc:(un)]s(0)Z?S?*/
	$9570  A5 EE:       lda $EE			/* A(??)X(??)Y(00)<150E>MAP[00:[00],01:[01],02:[02],03:[03],mmc:(un)]s(0)Z?S?*/
	$9572  29 FD:       and #$FD			/* A(??)X(??)Y(00)<150E>MAP[00:[00],01:[01],02:[02],03:[03],mmc:(un)]s(0)Z?S?*/
	$9574  05 10:       ora $10			/* A(??)X(??)Y(00)<150E>MAP[00:[00],01:[01],02:[02],03:[03],mmc:(un)]s(0)Z?S?*/
	$9576  85 EE:       sta $EE			/* A(??)X(??)Y(00)<150E>MAP[00:[00],01:[01],02:[02],03:[03],mmc:(un)]s(0)Z?S?*/
	$9578  A5 49:       lda $49			/* A(??)X(??)Y(00)<150E>MAP[00:[00],01:[01],02:[02],03:[03],mmc:(un)]s(0)Z?S?*/
	$957A  85 F3:       sta $F3			/* A(??)X(??)Y(00)<150E>MAP[00:[00],01:[01],02:[02],03:[03],mmc:(un)]s(0)Z?S?*/
++	$957C  A9 1E:       lda #$1E			/* A(??)X(??)Y(00)<150E>MAP[00:[00],01:[01],02:[02],03:[03],mmc:(un)]s(0)Z?S?*/
	$957E  85 EF:       sta $EF			/* A(1E)<157C>X(??)Y(00)<150E>MAP[00:[00],01:[01],02:[02],03:[03],mmc:(un)]s(0)Z0S0*/
	$9580  8D 01 20:    sta $2001			/* A(1E)<157C>X(??)Y(00)<150E>MAP[00:[00],01:[01],02:[02],03:[03],mmc:(un)]s(0)Z0S0*/
	$9583  4C 37 8F:    jmp _func_0F37			/* A(1E)<157C>X(??)Y(00)<150E>MAP[00:[00],01:[01],02:[02],03:[03],mmc:(un)]s(0)Z0S0*/(barrier)
;------------------------------------------
_func_1586
	$9586  A5 1D:       lda $1D			/* A(??)X(??)Y(00)<150E>MAP[00:[00],01:[01],02:[02],03:[03],mmc:(un)]s(0)Z?S?*/
	$9588  4A:          lsr a			/* A(??)X(F8)<4D6>Y(00)<150E>MAP[00:[00],01:[01],02:[02],03:[03],mmc:(un)]s(0)Z?S?*/
	$9589  B0 03:       bcs +		; $958E			/* A(??)X(F8)<4D6>Y(00)<150E>MAP[00:[00],01:[01],02:[02],03:[03],mmc:(un)]s(0)Z?S?*/
	$958B  4C E8 96:    jmp +++		; $96E8			/* A(??)X(F8)<4D6>Y(00)<150E>MAP[00:[00],01:[01],02:[02],03:[03],mmc:(un)]s(0)Z?S?*/(barrier)

+	$958E  A5 4A:       lda $4A			/* A(??)X(F8)<4D6>Y(00)<150E>MAP[00:[00],01:[01],02:[02],03:[03],mmc:(un)]s(0)Z?S?*/
	$9590  10 0E:       bpl +		; $95A0			/* A(??)X(F8)<4D6>Y(00)<150E>MAP[00:[00],01:[01],02:[02],03:[03],mmc:(un)]s(0)Z?S?*/
	$9592  29 0F:       and #$0F			/* A(??)X(F8)<4D6>Y(00)<150E>MAP[00:[00],01:[01],02:[02],03:[03],mmc:(un)]s(0)Z?S?*/
	$9594  18:          clc 			/* A(??)X(F8)<4D6>Y(00)<150E>MAP[00:[00],01:[01],02:[02],03:[03],mmc:(un)]s(0)Z?S?*/
	$9595  69 01:       adc #$01			/* A(??)X(F8)<4D6>Y(00)<150E>MAP[00:[00],01:[01],02:[02],03:[03],mmc:(un)]s(0)Z?S?*/
	$9597  85 11:       sta $11			/* A(??)X(F8)<4D6>Y(00)<150E>MAP[00:[00],01:[01],02:[02],03:[03],mmc:(un)]s(0)Z?S?*/
	$9599  A5 49:       lda $49			/* A(??)X(F8)<4D6>Y(00)<150E>MAP[00:[00],01:[01],02:[02],03:[03],mmc:(un)]s(0)Z?S?*/
	$959B  85 10:       sta $10			/* A(??)X(F8)<4D6>Y(00)<150E>MAP[00:[00],01:[01],02:[02],03:[03],mmc:(un)]s(0)Z?S?*/
	$959D  4C B7 95:    jmp _func_15B7			/* A(??)X(F8)<4D6>Y(00)<150E>MAP[00:[00],01:[01],02:[02],03:[03],mmc:(un)]s(0)Z?S?*/(barrier)

+	$95A0  29 0F:       and #$0F			/* A(??)X(F8)<4D6>Y(00)<150E>MAP[00:[00],01:[01],02:[02],03:[03],mmc:(un)]s(0)Z?S?*/
	$95A2  85 11:       sta $11			/* A(??)X(F8)<4D6>Y(00)<150E>MAP[00:[00],01:[01],02:[02],03:[03],mmc:(un)]s(0)Z?S?*/
	$95A4  A5 49:       lda $49			/* A(??)X(F8)<4D6>Y(00)<150E>MAP[00:[00],01:[01],02:[02],03:[03],mmc:(un)]s(0)Z?S?*/
	$95A6  38:          sec 			/* A(??)X(F8)<4D6>Y(00)<150E>MAP[00:[00],01:[01],02:[02],03:[03],mmc:(un)]s(0)Z?S?*/
	$95A7  E9 08:       sbc #$08			/* A(??)X(F8)<4D6>Y(00)<150E>MAP[00:[00],01:[01],02:[02],03:[03],mmc:(un)]s(0)Z?S?*/
	$95A9  B0 04:       bcs +		; $95AF			/* A(??)X(F8)<4D6>Y(00)<150E>MAP[00:[00],01:[01],02:[02],03:[03],mmc:(un)]s(0)Z?S?*/
	$95AB  38:          sec 			/* A(??)X(F8)<4D6>Y(00)<150E>MAP[00:[00],01:[01],02:[02],03:[03],mmc:(un)]s(0)Z?S?*/
	$95AC  E9 10:       sbc #$10			/* A(??)X(F8)<4D6>Y(00)<150E>MAP[00:[00],01:[01],02:[02],03:[03],mmc:(un)]s(0)Z?S?*/
	$95AE  18:          clc 			/* A(??)X(F8)<4D6>Y(00)<150E>MAP[00:[00],01:[01],02:[02],03:[03],mmc:(un)]s(0)Z?S?*/
+	$95AF  85 10:       sta $10			/* A(??)X(F8)<4D6>Y(00)<150E>MAP[00:[00],01:[01],02:[02],03:[03],mmc:(un)]s(0)Z?S?*/
	$95B1  A5 11:       lda $11			/* A(??)X(F8)<4D6>Y(00)<150E>MAP[00:[00],01:[01],02:[02],03:[03],mmc:(un)]s(0)Z?S?*/
	$95B3  E9 00:       sbc #$00			/* A(??)X(F8)<4D6>Y(00)<150E>MAP[00:[00],01:[01],02:[02],03:[03],mmc:(un)]s(0)Z?S?*/
	$95B5  85 11:       sta $11			/* A(??)X(F8)<4D6>Y(00)<150E>MAP[00:[00],01:[01],02:[02],03:[03],mmc:(un)]s(0)Z?S?*/
_func_15B7
	$95B7  20 E0 99:    jsr _func_19E0			/* A(??)X(??)Y(00)<150E>MAP[00:[00],01:[01],02:[02],03:[03],mmc:(un)]s(0)Z?S?*/
	$95BA  8D 00 02:    sta $0200			/* A(??)X(F8)<4D6>Y(00)<150E>MAP[00:[00],01:[01],02:[02],03:[03],mmc:(un)]s(0)Z?S?*/
	$95BD  A5 12:       lda $12			/* A(??)X(F8)<4D6>Y(00)<150E>MAP[00:[00],01:[01],02:[02],03:[03],mmc:(un)]s(0)Z?S?*/
	$95BF  8D 01 02:    sta $0201			/* A(??)X(F8)<4D6>Y(00)<150E>MAP[00:[00],01:[01],02:[02],03:[03],mmc:(un)]s(0)Z?S?*/
	$95C2  A9 00:       lda #$00			/* A(00)<15C2>X(F8)<4D6>Y(00)<150E>MAP[00:[00],01:[01],02:[02],03:[03],mmc:(un)]s(0)Z1S0*/
	$95C4  85 13:       sta $13			/* A(00)<15C2>X(F8)<4D6>Y(00)<150E>MAP[00:[00],01:[01],02:[02],03:[03],mmc:(un)]s(0)Z1S0*/
	$95C6  A5 11:       lda $11			/* A(??)X(F8)<4D6>Y(00)<150E>MAP[00:[00],01:[01],02:[02],03:[03],mmc:(un)]s(0)Z?S?*/
	$95C8  85 12:       sta $12			/* A(??)X(F8)<4D6>Y(00)<150E>MAP[00:[00],01:[01],02:[02],03:[03],mmc:(un)]s(0)Z?S?*/
-	$95CA  C6 12:       dec $12			/* A(??)X(F8)<4D6>Y(00)<150E>MAP[00:[00],01:[01],02:[02],03:[03],mmc:(un)]s(0)Z?S?*/
	$95CC  30 09:       bmi +		; $95D7			/* A(??)X(F8)<4D6>Y(00)<150E>MAP[00:[00],01:[01],02:[02],03:[03],mmc:(un)]s(0)Z?S?*/
	$95CE  A9 1E:       lda #$1E			/* A(1E)<15CE>X(F8)<4D6>Y(00)<150E>MAP[00:[00],01:[01],02:[02],03:[03],mmc:(un)]s(0)Z0S0*/
	$95D0  18:          clc 			/* A(1E)<15CE>X(F8)<4D6>Y(00)<150E>MAP[00:[00],01:[01],02:[02],03:[03],mmc:(un)]s(0)Z0S0*/
	$95D1  65 13:       adc $13			/* A(??)X(F8)<4D6>Y(00)<150E>MAP[00:[00],01:[01],02:[02],03:[03],mmc:(un)]s(0)Z?S?*/
	$95D3  85 13:       sta $13			/* A(??)X(F8)<4D6>Y(00)<150E>MAP[00:[00],01:[01],02:[02],03:[03],mmc:(un)]s(0)Z?S?*/
	$95D5  D0 F3:       bne -		; $95CA			/* A(??)X(F8)<4D6>Y(00)<150E>MAP[00:[00],01:[01],02:[02],03:[03],mmc:(un)]s(0)Z?S?*/
+	$95D7  A5 10:       lda $10			/* A(??)X(F8)<4D6>Y(00)<150E>MAP[00:[00],01:[01],02:[02],03:[03],mmc:(un)]s(0)Z?S?*/
	$95D9  4A:          lsr a			/* A(??)X(F8)<4D6>Y(00)<150E>MAP[00:[00],01:[01],02:[02],03:[03],mmc:(un)]s(0)Z?S?*/
	$95DA  4A:          lsr a			/* A(??)X(F8)<4D6>Y(00)<150E>MAP[00:[00],01:[01],02:[02],03:[03],mmc:(un)]s(0)Z?S?*/
	$95DB  4A:          lsr a			/* A(??)X(F8)<4D6>Y(00)<150E>MAP[00:[00],01:[01],02:[02],03:[03],mmc:(un)]s(0)Z?S?*/
	$95DC  18:          clc 			/* A(??)X(F8)<4D6>Y(00)<150E>MAP[00:[00],01:[01],02:[02],03:[03],mmc:(un)]s(0)Z?S?*/
	$95DD  65 13:       adc $13			/* A(??)X(F8)<4D6>Y(00)<150E>MAP[00:[00],01:[01],02:[02],03:[03],mmc:(un)]s(0)Z?S?*/
	$95DF  A8:          tay 			/* A(??)X(F8)<4D6>Y(??)MAP[00:[00],01:[01],02:[02],03:[03],mmc:(un)]s(0)Z?S?*/
	$95E0  B9 00 05:    lda $0500,y			/* A(??)X(F8)<4D6>Y(??)MAP[00:[00],01:[01],02:[02],03:[03],mmc:(un)]s(0)Z?S?*/
	$95E3  85 30:       sta $30			/* A(??)X(F8)<4D6>Y(??)MAP[00:[00],01:[01],02:[02],03:[03],mmc:(un)]s(0)Z?S?*/
	$95E5  0A:          asl a			/* A(??)X(F8)<4D6>Y(??)MAP[00:[00],01:[01],02:[02],03:[03],mmc:(un)]s(0)Z?S?*/
	$95E6  A8:          tay 			/* A(??)X(F8)<4D6>Y(??)MAP[00:[00],01:[01],02:[02],03:[03],mmc:(un)]s(0)Z?S?*/
	$95E7  B9 37 9A:    lda _DataPointerTable_1A37,y			/* A$1A37,y<15E7>X(F8)<4D6>Y(??)MAP[00:[00],01:[01],02:[02],03:[03],mmc:(un)]s(0)Z?S?*/
	$95EA  85 12:       sta $12			/* A$1A37,y<15E7>X(F8)<4D6>Y(??)MAP[00:[00],01:[01],02:[02],03:[03],mmc:(un)]s(0)Z?S?*/
	$95EC  B9 38 9A:    lda _DataPointerTable_1A37+1,y			/* A$1A38,y<15EC>X(F8)<4D6>Y(??)MAP[00:[00],01:[01],02:[02],03:[03],mmc:(un)]s(0)Z?S?*/
	$95EF  85 13:       sta $13			/* A$1A38,y<15EC>X(F8)<4D6>Y(??)MAP[00:[00],01:[01],02:[02],03:[03],mmc:(un)]s(0)Z?S?*/
	$95F1  A0 00:       ldy #$00			/* A$1A38,y<15EC>X(F8)<4D6>Y(00)<15F1>MAP[00:[00],01:[01],02:[02],03:[03],mmc:(un)]s(0)Z1S0*/
	$95F3  A2 00:       ldx #$00			/* A$1A38,y<15EC>X(00)<15F3>Y(00)<15F1>MAP[00:[00],01:[01],02:[02],03:[03],mmc:(un)]s(0)Z1S0*/
--	$95F5  B1 12:       lda ($12),y			/* A(??)X(00)<15F3>Y(00)<15F1>MAP[00:[00],01:[01],02:[02],03:[03],mmc:(un)]s(0)Z?S?*/
	$95F7  D0 16:       bne +		; $960F			/* A(??)X(00)<15F3>Y(00)<15F1>MAP[00:[00],01:[01],02:[02],03:[03],mmc:(un)]s(0)Z?S?*/
	$95F9  C8:          iny 			/* A(??)X(00)<15F3>Y(??)MAP[00:[00],01:[01],02:[02],03:[03],mmc:(un)]s(0)Z?S?*/
	$95FA  B1 12:       lda ($12),y			/* A(??)X(00)<15F3>Y(??)MAP[00:[00],01:[01],02:[02],03:[03],mmc:(un)]s(0)Z?S?*/
	$95FC  85 10:       sta $10			/* A(??)X(00)<15F3>Y(??)MAP[00:[00],01:[01],02:[02],03:[03],mmc:(un)]s(0)Z?S?*/
	$95FE  C8:          iny 			/* A(??)X(00)<15F3>Y(??)MAP[00:[00],01:[01],02:[02],03:[03],mmc:(un)]s(0)Z?S?*/
	$95FF  B1 12:       lda ($12),y			/* A(??)X(00)<15F3>Y(??)MAP[00:[00],01:[01],02:[02],03:[03],mmc:(un)]s(0)Z?S?*/
	$9601  85 11:       sta $11			/* A(??)X(00)<15F3>Y(??)MAP[00:[00],01:[01],02:[02],03:[03],mmc:(un)]s(0)Z?S?*/
-	$9603  C6 11:       dec $11			/* A(??)X(00)<15F3>Y(??)MAP[00:[00],01:[01],02:[02],03:[03],mmc:(un)]s(0)Z?S?*/
	$9605  30 0C:       bmi ++		; $9613			/* A(??)X(00)<15F3>Y(??)MAP[00:[00],01:[01],02:[02],03:[03],mmc:(un)]s(0)Z?S?*/
	$9607  A5 10:       lda $10			/* A(??)X(00)<15F3>Y(??)MAP[00:[00],01:[01],02:[02],03:[03],mmc:(un)]s(0)Z?S?*/
	$9609  9D 00 01:    sta $0100,x			/* A(??)X(00)<15F3>Y(??)MAP[00:[00],01:[01],02:[02],03:[03],mmc:(un)]s(0)Z?S?*/
	$960C  E8:          inx 			/* A(??)X(??)Y(??)MAP[00:[00],01:[01],02:[02],03:[03],mmc:(un)]s(0)Z?S?*/
	$960D  D0 F4:       bne -		; $9603			/* A(??)X(??)Y(??)MAP[00:[00],01:[01],02:[02],03:[03],mmc:(un)]s(0)Z?S?*/
+	$960F  9D 00 01:    sta $0100,x			/* A(??)X(00)<15F3>Y(00)<15F1>MAP[00:[00],01:[01],02:[02],03:[03],mmc:(un)]s(0)Z?S?*/
	$9612  E8:          inx 			/* A(??)X(??)Y(00)<15F1>MAP[00:[00],01:[01],02:[02],03:[03],mmc:(un)]s(0)Z?S?*/
++	$9613  C8:          iny 			/* A(??)X(00)<15F3>Y(??)MAP[00:[00],01:[01],02:[02],03:[03],mmc:(un)]s(0)Z?S?*/
	$9614  E0 20:       cpx #$20			/* A(??)X(??)Y(??)MAP[00:[00],01:[01],02:[02],03:[03],mmc:(un)]s(0)Z?S?*/
	$9616  90 DD:       bcc --		; $95F5			/* A(??)X(??)Y(??)MAP[00:[00],01:[01],02:[02],03:[03],mmc:(un)]s(0)Z?S?*/
	$9618  A5 30:       lda $30			/* A(??)X(??)Y(??)MAP[00:[00],01:[01],02:[02],03:[03],mmc:(un)]s(0)Z?S?*/
	$961A  C9 07:       cmp #$07			/* A(??)X(??)Y(??)MAP[00:[00],01:[01],02:[02],03:[03],mmc:(un)]s(0)Z?S?*/
	$961C  90 09:       bcc +		; $9627			/* A(??)X(??)Y(??)MAP[00:[00],01:[01],02:[02],03:[03],mmc:(un)]s(0)Z?S?*/
	$961E  C9 10:       cmp #$10			/* A(??)X(??)Y(??)MAP[00:[00],01:[01],02:[02],03:[03],mmc:(un)]s(0)Z?S?*/
	$9620  B0 05:       bcs +		; $9627			/* A(??)X(??)Y(??)MAP[00:[00],01:[01],02:[02],03:[03],mmc:(un)]s(0)Z?S?*/
	$9622  69 EE:       adc #$EE			/* A(??)X(??)Y(??)MAP[00:[00],01:[01],02:[02],03:[03],mmc:(un)]s(0)Z?S?*/
	$9624  8D 0D 01:    sta $010D			/* A(??)X(??)Y(??)MAP[00:[00],01:[01],02:[02],03:[03],mmc:(un)]s(0)Z?S?*/
+	$9627  A0 1F:       ldy #$1F			/* A(??)X(??)Y(??)MAP[00:[00],01:[01],02:[02],03:[03],mmc:(un)]s(0)Z?S?*/
-	$9629  B9 00 01:    lda $0100,y			/* A(??)X(??)Y(1F)<1627>MAP[00:[00],01:[01],02:[02],03:[03],mmc:(un)]s(0)Z?S?*/
	$962C  99 02 02:    sta $0202,y			/* A(??)X(??)Y(1F)<1627>MAP[00:[00],01:[01],02:[02],03:[03],mmc:(un)]s(0)Z?S?*/
	$962F  88:          dey 			/* A(??)X(??)Y(??)MAP[00:[00],01:[01],02:[02],03:[03],mmc:(un)]s(0)Z?S?*/
	$9630  10 F7:       bpl -		; $9629			/* A(??)X(??)Y(??)MAP[00:[00],01:[01],02:[02],03:[03],mmc:(un)]s(0)Z?S?*/
	$9632  60:          rts 			/* A(??)X(??)Y(??)MAP[00:[00],01:[01],02:[02],03:[03],mmc:(un)]s(0)Z?S?*/(barrier)
;------------------------------------------
_func_1633
	$9633  20 00 9A:    jsr _func_1A00			/* A(??)X(??)Y(??)MAP[00:[00],01:[01],02:[02],03:[03],mmc:(un)]s(0)Z?S?*/
	$9636  A9 00:       lda #$00			/* A(00)<1636>X(??)Y(??)MAP[00:[00],01:[01],02:[02],03:[03],mmc:(un)]s(0)Z1S0*/
	$9638  8D 01 20:    sta $2001			/* A(00)<1636>X(??)Y(??)MAP[00:[00],01:[01],02:[02],03:[03],mmc:(un)]s(0)Z1S0*/
	$963B  A9 1F:       lda #$1F			/* A(1F)<163B>X(??)Y(??)MAP[00:[00],01:[01],02:[02],03:[03],mmc:(un)]s(0)Z0S0*/
	$963D  85 14:       sta $14			/* A(1F)<163B>X(??)Y(??)MAP[00:[00],01:[01],02:[02],03:[03],mmc:(un)]s(0)Z0S0*/
	$963F  A5 49:       lda $49			/* A(??)X(??)Y(??)MAP[00:[00],01:[01],02:[02],03:[03],mmc:(un)]s(0)Z?S?*/
	$9641  85 10:       sta $10			/* A(??)X(??)Y(??)MAP[00:[00],01:[01],02:[02],03:[03],mmc:(un)]s(0)Z?S?*/
	$9643  A5 4A:       lda $4A			/* A(??)X(??)Y(??)MAP[00:[00],01:[01],02:[02],03:[03],mmc:(un)]s(0)Z?S?*/
	$9645  85 11:       sta $11			/* A(??)X(??)Y(??)MAP[00:[00],01:[01],02:[02],03:[03],mmc:(un)]s(0)Z?S?*/
--	$9647  A5 10:       lda $10			/* A(??)X(??)Y(??)MAP[00:[00],01:[01],02:[02],03:[03],mmc:(un)]s(0)Z?S?*/
	$9649  48:          pha 			/* A(??)X(??)Y(??)MAP[00:[00],01:[01],02:[02],03:[03],mmc:(un)]s(1)Z?S?*/
	$964A  A5 11:        lda $11			/* A(??)X(??)Y(??)MAP[00:[00],01:[01],02:[02],03:[03],mmc:(un)]s(1)Z?S?*/
	$964C  48:           pha 			/* A(??)X(??)Y(??)MAP[00:[00],01:[01],02:[02],03:[03],mmc:(un)]s(2)Z?S?*/
	$964D  20 B7 95:      jsr _func_15B7			/* A(??)X(??)Y(??)MAP[00:(??),01:(??),02:(??),03:(??),mmc:(un)]s(2)Z?S?*/
	$9650  68:           pla 			/* A(??)X(??)Y(??)MAP[00:[00],01:[01],02:[02],03:[03],mmc:(un)]s(0)Z?S?*/
	$9651  85 11:        sta $11			/* A(??)X(??)Y(??)MAP[00:[00],01:[01],02:[02],03:[03],mmc:(un)]s(0)Z?S?*/
	$9653  68:          pla 			/* A(??)X(??)Y(??)MAP[00:[00],01:[01],02:[02],03:[03],mmc:(un)]s(0)Z?S?*/
	$9654  85 10:       sta $10			/* A(??)X(??)Y(??)MAP[00:[00],01:[01],02:[02],03:[03],mmc:(un)]s(0)Z?S?*/
	$9656  AD 00 02:    lda $0200			/* A(??)X(??)Y(??)MAP[00:[00],01:[01],02:[02],03:[03],mmc:(un)]s(0)Z?S?*/
	$9659  8D 06 20:    sta $2006			/* A(??)X(??)Y(??)MAP[00:[00],01:[01],02:[02],03:[03],mmc:(un)]s(0)Z?S?*/
	$965C  AD 01 02:    lda $0201			/* A(??)X(??)Y(??)MAP[00:[00],01:[01],02:[02],03:[03],mmc:(un)]s(0)Z?S?*/
	$965F  8D 06 20:    sta $2006			/* A(??)X(??)Y(??)MAP[00:[00],01:[01],02:[02],03:[03],mmc:(un)]s(0)Z?S?*/
	$9662  A0 00:       ldy #$00			/* A(??)X(??)Y(00)<1662>MAP[00:[00],01:[01],02:[02],03:[03],mmc:(un)]s(0)Z1S0*/
-	$9664  B9 02 02:    lda $0202,y			/* A(??)X(??)Y(00)<1662>MAP[00:[00],01:[01],02:[02],03:[03],mmc:(un)]s(0)Z?S?*/
	$9667  8D 07 20:    sta $2007			/* A(??)X(??)Y(00)<1662>MAP[00:[00],01:[01],02:[02],03:[03],mmc:(un)]s(0)Z?S?*/
	$966A  C8:          iny 			/* A(??)X(??)Y(??)MAP[00:[00],01:[01],02:[02],03:[03],mmc:(un)]s(0)Z?S?*/
	$966B  C0 20:       cpy #$20			/* A(??)X(??)Y(??)MAP[00:[00],01:[01],02:[02],03:[03],mmc:(un)]s(0)Z?S?*/
	$966D  90 F5:       bcc -		; $9664			/* A(??)X(??)Y(??)MAP[00:[00],01:[01],02:[02],03:[03],mmc:(un)]s(0)Z?S?*/
	$966F  A5 10:       lda $10			/* A(??)X(??)Y(??)MAP[00:[00],01:[01],02:[02],03:[03],mmc:(un)]s(0)Z?S?*/
	$9671  18:          clc 			/* A(??)X(??)Y(??)MAP[00:[00],01:[01],02:[02],03:[03],mmc:(un)]s(0)Z?S?*/
	$9672  69 08:       adc #$08			/* A(??)X(??)Y(??)MAP[00:[00],01:[01],02:[02],03:[03],mmc:(un)]s(0)Z?S?*/
	$9674  C9 F0:       cmp #$F0			/* A(??)X(??)Y(??)MAP[00:[00],01:[01],02:[02],03:[03],mmc:(un)]s(0)Z?S?*/
	$9676  90 03:       bcc +		; $967B			/* A(??)X(??)Y(??)MAP[00:[00],01:[01],02:[02],03:[03],mmc:(un)]s(0)Z?S?*/
	$9678  69 0F:       adc #$0F			/* A(??)X(??)Y(??)MAP[00:[00],01:[01],02:[02],03:[03],mmc:(un)]s(0)Z?S?*/
	$967A  38:          sec 			/* A(??)X(??)Y(??)MAP[00:[00],01:[01],02:[02],03:[03],mmc:(un)]s(0)Z?S?*/
+	$967B  85 10:       sta $10			/* A(??)X(??)Y(??)MAP[00:[00],01:[01],02:[02],03:[03],mmc:(un)]s(0)Z?S?*/
	$967D  A5 11:       lda $11			/* A(??)X(??)Y(??)MAP[00:[00],01:[01],02:[02],03:[03],mmc:(un)]s(0)Z?S?*/
	$967F  69 00:       adc #$00			/* A(??)X(??)Y(??)MAP[00:[00],01:[01],02:[02],03:[03],mmc:(un)]s(0)Z?S?*/
	$9681  85 11:       sta $11			/* A(??)X(??)Y(??)MAP[00:[00],01:[01],02:[02],03:[03],mmc:(un)]s(0)Z?S?*/
	$9683  C6 14:       dec $14			/* A(??)X(??)Y(??)MAP[00:[00],01:[01],02:[02],03:[03],mmc:(un)]s(0)Z?S?*/
	$9685  10 C0:       bpl --		; $9647			/* A(??)X(??)Y(??)MAP[00:[00],01:[01],02:[02],03:[03],mmc:(un)]s(0)Z?S?*/
	$9687  A5 EF:       lda $EF			/* A(??)X(??)Y(??)MAP[00:[00],01:[01],02:[02],03:[03],mmc:(un)]s(0)Z?S?*/
	$9689  8D 01 20:    sta $2001			/* A(??)X(??)Y(??)MAP[00:[00],01:[01],02:[02],03:[03],mmc:(un)]s(0)Z?S?*/
	$968C  20 37 8F:    jsr _func_0F37			/* A(??)X(??)Y(??)MAP[00:(??),01:(??),02:(??),03:(??),mmc:(un)]s(0)Z?S?*/
_func_168F
	$968F  A0 0B:       ldy #$0B			/* A(??)X(??)Y(??)MAP[00:[00],01:[01],02:[02],03:[03],mmc:(un)]s(0)Z?S?*/
-	$9691  B9 7B 99:    lda _data_197B_indexed,y			/* A$197B,y<1691>X(??)Y(0B)<168F>MAP[00:[00],01:[01],02:[02],03:[03],mmc:(un)]s(0)Z?S?*/
	$9694  99 54 07:    sta $0754,y			/* A$197B,y<1691>X(??)Y(0B)<168F>MAP[00:[00],01:[01],02:[02],03:[03],mmc:(un)]s(0)Z?S?*/
	$9697  88:          dey 			/* A(??)X(??)Y(??)MAP[00:[00],01:[01],02:[02],03:[03],mmc:(un)]s(0)Z?S?*/
	$9698  10 F7:       bpl -		; $9691			/* A(??)X(??)Y(??)MAP[00:[00],01:[01],02:[02],03:[03],mmc:(un)]s(0)Z?S?*/
	$969A  A5 33:       lda $33			/* A(??)X(??)Y(??)MAP[00:[00],01:[01],02:[02],03:[03],mmc:(un)]s(0)Z?S?*/
	$969C  30 05:       bmi +		; $96A3			/* A(??)X(??)Y(??)MAP[00:[00],01:[01],02:[02],03:[03],mmc:(un)]s(0)Z?S?*/
	$969E  A9 0C:       lda #$0C			/* A(0C)<169E>X(??)Y(??)MAP[00:[00],01:[01],02:[02],03:[03],mmc:(un)]s(0)Z0S0*/
	$96A0  8D 5D 07:    sta $075D			/* A(0C)<169E>X(??)Y(??)MAP[00:[00],01:[01],02:[02],03:[03],mmc:(un)]s(0)Z0S0*/
+	$96A3  A9 00:       lda #$00			/* A(??)X(??)Y(??)MAP[00:[00],01:[01],02:[02],03:[03],mmc:(un)]s(0)Z?S0*/
	$96A5  85 4C:       sta $4C			/* A(00)<16A3>X(??)Y(??)MAP[00:[00],01:[01],02:[02],03:[03],mmc:(un)]s(0)Z1S0*/
	$96A7  A9 BE:       lda #$BE			/* A(BE)<16A7>X(??)Y(??)MAP[00:[00],01:[01],02:[02],03:[03],mmc:(un)]s(0)Z0S1*/
	$96A9  8D 49 07:    sta $0749			/* A(BE)<16A7>X(??)Y(??)MAP[00:[00],01:[01],02:[02],03:[03],mmc:(un)]s(0)Z0S1*/
	$96AC  A9 01:       lda #$01			/* A(01)<16AC>X(??)Y(??)MAP[00:[00],01:[01],02:[02],03:[03],mmc:(un)]s(0)Z0S0*/
	$96AE  8D 4A 07:    sta $074A			/* A(01)<16AC>X(??)Y(??)MAP[00:[00],01:[01],02:[02],03:[03],mmc:(un)]s(0)Z0S0*/
	$96B1  A5 F4:       lda $F4			/* A(??)X(??)Y(??)MAP[00:[00],01:[01],02:[02],03:[03],mmc:(un)]s(0)Z?S?*/
	$96B3  C9 01:       cmp #$01			/* A(??)X(??)Y(??)MAP[00:[00],01:[01],02:[02],03:[03],mmc:(un)]s(0)Z?S?*/
	$96B5  90 08:       bcc +		; $96BF			/* A(??)X(??)Y(??)MAP[00:[00],01:[01],02:[02],03:[03],mmc:(un)]s(0)Z?S?*/
	$96B7  C9 05:       cmp #$05			/* A(??)X(??)Y(??)MAP[00:[00],01:[01],02:[02],03:[03],mmc:(un)]s(0)Z?S?*/
	$96B9  B0 04:       bcs +		; $96BF			/* A(??)X(??)Y(??)MAP[00:[00],01:[01],02:[02],03:[03],mmc:(un)]s(0)Z?S?*/
	$96BB  A9 F0:       lda #$F0			/* A(F0)<16BB>X(??)Y(??)MAP[00:[00],01:[01],02:[02],03:[03],mmc:(un)]s(0)Z0S1*/
	$96BD  D0 0B:       bne ++		; $96CA			/* A(F0)<16BB>X(??)Y(??)MAP[00:[00],01:[01],02:[02],03:[03],mmc:(un)]s(0)Z0S1*/(barrier)

+	$96BF  A5 64:       lda $64			/* A(F0)<16BB>X(??)Y(??)MAP[00:[00],01:[01],02:[02],03:[03],mmc:(un)]s(0)Z0S1*/
	$96C1  85 10:       sta $10			/* A(??)X(??)Y(??)MAP[00:[00],01:[01],02:[02],03:[03],mmc:(un)]s(0)Z?S?*/
	$96C3  A5 65:       lda $65			/* A(??)X(??)Y(??)MAP[00:[00],01:[01],02:[02],03:[03],mmc:(un)]s(0)Z?S?*/
	$96C5  85 11:       sta $11			/* A(??)X(??)Y(??)MAP[00:[00],01:[01],02:[02],03:[03],mmc:(un)]s(0)Z?S?*/
	$96C7  20 72 B8:    jsr _func_3872			/* A(??)X(??)Y(??)MAP[00:(??),01:(??),02:(??),03:(??),mmc:(un)]s(0)Z?S?*/
++	$96CA  8D 50 07:    sta $0750			/* A(F0)<16BB>X(??)Y(??)MAP[00:[00],01:[01],02:[02],03:[03],mmc:(un)]s(0)Z0S1*/
	$96CD  A9 2D:       lda #$2D			/* A(2D)<16CD>X(??)Y(??)MAP[00:[00],01:[01],02:[02],03:[03],mmc:(un)]s(0)Z0S0*/
	$96CF  8D 51 07:    sta $0751			/* A(2D)<16CD>X(??)Y(??)MAP[00:[00],01:[01],02:[02],03:[03],mmc:(un)]s(0)Z0S0*/
	$96D2  A9 01:       lda #$01			/* A(01)<16D2>X(??)Y(??)MAP[00:[00],01:[01],02:[02],03:[03],mmc:(un)]s(0)Z0S0*/
	$96D4  8D 52 07:    sta $0752			/* A(01)<16D2>X(??)Y(??)MAP[00:[00],01:[01],02:[02],03:[03],mmc:(un)]s(0)Z0S0*/
	$96D7  8D 4E 07:    sta $074E			/* A(01)<16D2>X(??)Y(??)MAP[00:[00],01:[01],02:[02],03:[03],mmc:(un)]s(0)Z0S0*/
	$96DA  A9 E0:       lda #$E0			/* A(E0)<16DA>X(??)Y(??)MAP[00:[00],01:[01],02:[02],03:[03],mmc:(un)]s(0)Z0S1*/
	$96DC  8D 53 07:    sta $0753			/* A(E0)<16DA>X(??)Y(??)MAP[00:[00],01:[01],02:[02],03:[03],mmc:(un)]s(0)Z0S1*/
	$96DF  8D 4F 07:    sta $074F			/* A(E0)<16DA>X(??)Y(??)MAP[00:[00],01:[01],02:[02],03:[03],mmc:(un)]s(0)Z0S1*/
	$96E2  A9 2E:       lda #$2E			/* A(2E)<16E2>X(??)Y(??)MAP[00:[00],01:[01],02:[02],03:[03],mmc:(un)]s(0)Z0S0*/
	$96E4  8D 4D 07:    sta $074D			/* A(2E)<16E2>X(??)Y(??)MAP[00:[00],01:[01],02:[02],03:[03],mmc:(un)]s(0)Z0S0*/
	$96E7  60:          rts 			/* A(2E)<16E2>X(??)Y(??)MAP[00:[00],01:[01],02:[02],03:[03],mmc:(un)]s(0)Z0S0*/(barrier)

+++	$96E8  A5 49:       lda $49			/* A(??)X(F8)<4D6>Y(00)<150E>MAP[00:[00],01:[01],02:[02],03:[03],mmc:(un)]s(0)Z?S?*/
	$96EA  18:          clc 			/* A(??)X(F8)<4D6>Y(00)<150E>MAP[00:[00],01:[01],02:[02],03:[03],mmc:(un)]s(0)Z?S?*/
	$96EB  69 20:       adc #$20			/* A(??)X(F8)<4D6>Y(00)<150E>MAP[00:[00],01:[01],02:[02],03:[03],mmc:(un)]s(0)Z?S?*/
	$96ED  85 10:       sta $10			/* A(??)X(F8)<4D6>Y(00)<150E>MAP[00:[00],01:[01],02:[02],03:[03],mmc:(un)]s(0)Z?S?*/
	$96EF  08:          php 			/* A(??)X(F8)<4D6>Y(00)<150E>MAP[00:[00],01:[01],02:[02],03:[03],mmc:(un)]s(1)Z?S?*/
	$96F0  A5 4A:        lda $4A			/* A(??)X(F8)<4D6>Y(00)<150E>MAP[00:[00],01:[01],02:[02],03:[03],mmc:(un)]s(1)Z?S?*/
	$96F2  69 00:        adc #$00			/* A(??)X(F8)<4D6>Y(00)<150E>MAP[00:[00],01:[01],02:[02],03:[03],mmc:(un)]s(1)Z?S?*/
	$96F4  85 11:        sta $11			/* A(??)X(F8)<4D6>Y(00)<150E>MAP[00:[00],01:[01],02:[02],03:[03],mmc:(un)]s(1)Z?S?*/
	$96F6  28:          plp 			/* A(??)X(F8)<4D6>Y(00)<150E>MAP[00:[00],01:[01],02:[02],03:[03],mmc:(un)]s(0)Z?S?*/
	$96F7  B0 06:       bcs +		; $96FF			/* A(??)X(F8)<4D6>Y(00)<150E>MAP[00:[00],01:[01],02:[02],03:[03],mmc:(un)]s(0)Z?S?*/
	$96F9  A5 10:       lda $10			/* A(??)X(F8)<4D6>Y(00)<150E>MAP[00:[00],01:[01],02:[02],03:[03],mmc:(un)]s(0)Z?S?*/
	$96FB  C9 F0:       cmp #$F0			/* A(??)X(F8)<4D6>Y(00)<150E>MAP[00:[00],01:[01],02:[02],03:[03],mmc:(un)]s(0)Z?S?*/
	$96FD  90 0D:       bcc ++		; $970C			/* A(??)X(F8)<4D6>Y(00)<150E>MAP[00:[00],01:[01],02:[02],03:[03],mmc:(un)]s(0)Z?S?*/
+	$96FF  A5 10:       lda $10			/* A(??)X(F8)<4D6>Y(00)<150E>MAP[00:[00],01:[01],02:[02],03:[03],mmc:(un)]s(0)Z?S?*/
	$9701  18:          clc 			/* A(??)X(F8)<4D6>Y(00)<150E>MAP[00:[00],01:[01],02:[02],03:[03],mmc:(un)]s(0)Z?S?*/
	$9702  69 10:       adc #$10			/* A(??)X(F8)<4D6>Y(00)<150E>MAP[00:[00],01:[01],02:[02],03:[03],mmc:(un)]s(0)Z?S?*/
	$9704  85 10:       sta $10			/* A(??)X(F8)<4D6>Y(00)<150E>MAP[00:[00],01:[01],02:[02],03:[03],mmc:(un)]s(0)Z?S?*/
	$9706  A5 11:       lda $11			/* A(??)X(F8)<4D6>Y(00)<150E>MAP[00:[00],01:[01],02:[02],03:[03],mmc:(un)]s(0)Z?S?*/
	$9708  69 00:       adc #$00			/* A(??)X(F8)<4D6>Y(00)<150E>MAP[00:[00],01:[01],02:[02],03:[03],mmc:(un)]s(0)Z?S?*/
	$970A  85 11:       sta $11			/* A(??)X(F8)<4D6>Y(00)<150E>MAP[00:[00],01:[01],02:[02],03:[03],mmc:(un)]s(0)Z?S?*/
++	$970C  20 E0 99:    jsr _func_19E0			/* A(??)X(F8)<4D6>Y(00)<150E>MAP[00:[00],01:[01],02:[02],03:[03],mmc:(un)]s(0)Z?S?*/
	$970F  A5 12:       lda $12			/* A(??)X(F8)<4D6>Y(00)<150E>MAP[00:[00],01:[01],02:[02],03:[03],mmc:(un)]s(0)Z?S?*/
	$9711  18:          clc 			/* A(??)X(F8)<4D6>Y(00)<150E>MAP[00:[00],01:[01],02:[02],03:[03],mmc:(un)]s(0)Z?S?*/
	$9712  69 1A:       adc #$1A			/* A(??)X(F8)<4D6>Y(00)<150E>MAP[00:[00],01:[01],02:[02],03:[03],mmc:(un)]s(0)Z?S?*/
	$9714  85 12:       sta $12			/* A(??)X(F8)<4D6>Y(00)<150E>MAP[00:[00],01:[01],02:[02],03:[03],mmc:(un)]s(0)Z?S?*/
	$9716  A0 00:       ldy #$00			/* A(??)X(F8)<4D6>Y(00)<1716>MAP[00:[00],01:[01],02:[02],03:[03],mmc:(un)]s(0)Z1S0*/
-	$9718  A5 13:       lda $13			/* A(??)X(F8)<4D6>Y(00)<1716>MAP[00:[00],01:[01],02:[02],03:[03],mmc:(un)]s(0)Z?S?*/
	$971A  99 22 02:    sta $0222,y			/* A(??)X(F8)<4D6>Y(00)<1716>MAP[00:[00],01:[01],02:[02],03:[03],mmc:(un)]s(0)Z?S?*/
	$971D  A5 12:       lda $12			/* A(??)X(F8)<4D6>Y(00)<1716>MAP[00:[00],01:[01],02:[02],03:[03],mmc:(un)]s(0)Z?S?*/
	$971F  99 23 02:    sta $0223,y			/* A(??)X(F8)<4D6>Y(00)<1716>MAP[00:[00],01:[01],02:[02],03:[03],mmc:(un)]s(0)Z?S?*/
	$9722  A5 12:       lda $12			/* A(??)X(F8)<4D6>Y(00)<1716>MAP[00:[00],01:[01],02:[02],03:[03],mmc:(un)]s(0)Z?S?*/
	$9724  18:          clc 			/* A(??)X(F8)<4D6>Y(00)<1716>MAP[00:[00],01:[01],02:[02],03:[03],mmc:(un)]s(0)Z?S?*/
	$9725  69 20:       adc #$20			/* A(??)X(F8)<4D6>Y(00)<1716>MAP[00:[00],01:[01],02:[02],03:[03],mmc:(un)]s(0)Z?S?*/
	$9727  85 12:       sta $12			/* A(??)X(F8)<4D6>Y(00)<1716>MAP[00:[00],01:[01],02:[02],03:[03],mmc:(un)]s(0)Z?S?*/
	$9729  A5 13:       lda $13			/* A(??)X(F8)<4D6>Y(00)<1716>MAP[00:[00],01:[01],02:[02],03:[03],mmc:(un)]s(0)Z?S?*/
	$972B  69 00:       adc #$00			/* A(??)X(F8)<4D6>Y(00)<1716>MAP[00:[00],01:[01],02:[02],03:[03],mmc:(un)]s(0)Z?S?*/
	$972D  85 13:       sta $13			/* A(??)X(F8)<4D6>Y(00)<1716>MAP[00:[00],01:[01],02:[02],03:[03],mmc:(un)]s(0)Z?S?*/
	$972F  29 03:       and #$03			/* A(??)X(F8)<4D6>Y(00)<1716>MAP[00:[00],01:[01],02:[02],03:[03],mmc:(un)]s(0)Z?S?*/
	$9731  C9 03:       cmp #$03			/* A(??)X(F8)<4D6>Y(00)<1716>MAP[00:[00],01:[01],02:[02],03:[03],mmc:(un)]s(0)Z?S?*/
	$9733  D0 12:       bne +		; $9747			/* A(??)X(F8)<4D6>Y(00)<1716>MAP[00:[00],01:[01],02:[02],03:[03],mmc:(un)]s(0)Z?S?*/
	$9735  A5 12:       lda $12			/* A(??)X(F8)<4D6>Y(00)<1716>MAP[00:[00],01:[01],02:[02],03:[03],mmc:(un)]s(0)Z?S?*/
	$9737  C9 C0:       cmp #$C0			/* A(??)X(F8)<4D6>Y(00)<1716>MAP[00:[00],01:[01],02:[02],03:[03],mmc:(un)]s(0)Z?S?*/
	$9739  90 0C:       bcc +		; $9747			/* A(??)X(F8)<4D6>Y(00)<1716>MAP[00:[00],01:[01],02:[02],03:[03],mmc:(un)]s(0)Z?S?*/
	$973B  69 3F:       adc #$3F			/* A(??)X(F8)<4D6>Y(00)<1716>MAP[00:[00],01:[01],02:[02],03:[03],mmc:(un)]s(0)Z?S?*/
	$973D  85 12:       sta $12			/* A(??)X(F8)<4D6>Y(00)<1716>MAP[00:[00],01:[01],02:[02],03:[03],mmc:(un)]s(0)Z?S?*/
	$973F  A5 13:       lda $13			/* A(??)X(F8)<4D6>Y(00)<1716>MAP[00:[00],01:[01],02:[02],03:[03],mmc:(un)]s(0)Z?S?*/
	$9741  29 28:       and #$28			/* A(??)X(F8)<4D6>Y(00)<1716>MAP[00:[00],01:[01],02:[02],03:[03],mmc:(un)]s(0)Z?S?*/
	$9743  49 08:       eor #$08			/* A(??)X(F8)<4D6>Y(00)<1716>MAP[00:[00],01:[01],02:[02],03:[03],mmc:(un)]s(0)Z?S?*/
	$9745  85 13:       sta $13			/* A(??)X(F8)<4D6>Y(00)<1716>MAP[00:[00],01:[01],02:[02],03:[03],mmc:(un)]s(0)Z?S?*/
+	$9747  98:          tya 			/* A(00)<1747>X(F8)<4D6>Y(00)<1716>MAP[00:[00],01:[01],02:[02],03:[03],mmc:(un)]s(0)Z?S?*/
	$9748  18:          clc 			/* A(00)<1747>X(F8)<4D6>Y(00)<1716>MAP[00:[00],01:[01],02:[02],03:[03],mmc:(un)]s(0)Z1S0*/
	$9749  69 07:       adc #$07			/* A(??)X(F8)<4D6>Y(00)<1716>MAP[00:[00],01:[01],02:[02],03:[03],mmc:(un)]s(0)Z?S?*/
	$974B  A8:          tay 			/* A(??)X(F8)<4D6>Y(??)MAP[00:[00],01:[01],02:[02],03:[03],mmc:(un)]s(0)Z?S?*/
	$974C  C0 38:       cpy #$38			/* A(??)X(F8)<4D6>Y(??)MAP[00:[00],01:[01],02:[02],03:[03],mmc:(un)]s(0)Z?S?*/
	$974E  90 C8:       bcc -		; $9718			/* A(??)X(F8)<4D6>Y(??)MAP[00:[00],01:[01],02:[02],03:[03],mmc:(un)]s(0)Z?S?*/
	$9750  E6 12:       inc $12			/* A(??)X(F8)<4D6>Y(??)MAP[00:[00],01:[01],02:[02],03:[03],mmc:(un)]s(0)Z?S?*/
	$9752  E6 12:       inc $12			/* A(??)X(F8)<4D6>Y(??)MAP[00:[00],01:[01],02:[02],03:[03],mmc:(un)]s(0)Z?S?*/
	$9754  A0 00:       ldy #$00			/* A(??)X(F8)<4D6>Y(00)<1754>MAP[00:[00],01:[01],02:[02],03:[03],mmc:(un)]s(0)Z1S0*/
-	$9756  A5 13:       lda $13			/* A(??)X(F8)<4D6>Y(00)<1754>MAP[00:[00],01:[01],02:[02],03:[03],mmc:(un)]s(0)Z?S?*/
	$9758  99 5A 02:    sta $025A,y			/* A(??)X(F8)<4D6>Y(00)<1754>MAP[00:[00],01:[01],02:[02],03:[03],mmc:(un)]s(0)Z?S?*/
	$975B  A5 12:       lda $12			/* A(??)X(F8)<4D6>Y(00)<1754>MAP[00:[00],01:[01],02:[02],03:[03],mmc:(un)]s(0)Z?S?*/
	$975D  99 5B 02:    sta $025B,y			/* A(??)X(F8)<4D6>Y(00)<1754>MAP[00:[00],01:[01],02:[02],03:[03],mmc:(un)]s(0)Z?S?*/
	$9760  A5 12:       lda $12			/* A(??)X(F8)<4D6>Y(00)<1754>MAP[00:[00],01:[01],02:[02],03:[03],mmc:(un)]s(0)Z?S?*/
	$9762  18:          clc 			/* A(??)X(F8)<4D6>Y(00)<1754>MAP[00:[00],01:[01],02:[02],03:[03],mmc:(un)]s(0)Z?S?*/
	$9763  69 20:       adc #$20			/* A(??)X(F8)<4D6>Y(00)<1754>MAP[00:[00],01:[01],02:[02],03:[03],mmc:(un)]s(0)Z?S?*/
	$9765  85 12:       sta $12			/* A(??)X(F8)<4D6>Y(00)<1754>MAP[00:[00],01:[01],02:[02],03:[03],mmc:(un)]s(0)Z?S?*/
	$9767  A5 13:       lda $13			/* A(??)X(F8)<4D6>Y(00)<1754>MAP[00:[00],01:[01],02:[02],03:[03],mmc:(un)]s(0)Z?S?*/
	$9769  69 00:       adc #$00			/* A(??)X(F8)<4D6>Y(00)<1754>MAP[00:[00],01:[01],02:[02],03:[03],mmc:(un)]s(0)Z?S?*/
	$976B  85 13:       sta $13			/* A(??)X(F8)<4D6>Y(00)<1754>MAP[00:[00],01:[01],02:[02],03:[03],mmc:(un)]s(0)Z?S?*/
	$976D  29 03:       and #$03			/* A(??)X(F8)<4D6>Y(00)<1754>MAP[00:[00],01:[01],02:[02],03:[03],mmc:(un)]s(0)Z?S?*/
	$976F  C9 03:       cmp #$03			/* A(??)X(F8)<4D6>Y(00)<1754>MAP[00:[00],01:[01],02:[02],03:[03],mmc:(un)]s(0)Z?S?*/
	$9771  D0 12:       bne +		; $9785			/* A(??)X(F8)<4D6>Y(00)<1754>MAP[00:[00],01:[01],02:[02],03:[03],mmc:(un)]s(0)Z?S?*/
	$9773  A5 12:       lda $12			/* A(??)X(F8)<4D6>Y(00)<1754>MAP[00:[00],01:[01],02:[02],03:[03],mmc:(un)]s(0)Z?S?*/
	$9775  C9 C0:       cmp #$C0			/* A(??)X(F8)<4D6>Y(00)<1754>MAP[00:[00],01:[01],02:[02],03:[03],mmc:(un)]s(0)Z?S?*/
	$9777  90 0C:       bcc +		; $9785			/* A(??)X(F8)<4D6>Y(00)<1754>MAP[00:[00],01:[01],02:[02],03:[03],mmc:(un)]s(0)Z?S?*/
	$9779  69 3F:       adc #$3F			/* A(??)X(F8)<4D6>Y(00)<1754>MAP[00:[00],01:[01],02:[02],03:[03],mmc:(un)]s(0)Z?S?*/
	$977B  85 12:       sta $12			/* A(??)X(F8)<4D6>Y(00)<1754>MAP[00:[00],01:[01],02:[02],03:[03],mmc:(un)]s(0)Z?S?*/
	$977D  A5 13:       lda $13			/* A(??)X(F8)<4D6>Y(00)<1754>MAP[00:[00],01:[01],02:[02],03:[03],mmc:(un)]s(0)Z?S?*/
	$977F  29 28:       and #$28			/* A(??)X(F8)<4D6>Y(00)<1754>MAP[00:[00],01:[01],02:[02],03:[03],mmc:(un)]s(0)Z?S?*/
	$9781  49 08:       eor #$08			/* A(??)X(F8)<4D6>Y(00)<1754>MAP[00:[00],01:[01],02:[02],03:[03],mmc:(un)]s(0)Z?S?*/
	$9783  85 13:       sta $13			/* A(??)X(F8)<4D6>Y(00)<1754>MAP[00:[00],01:[01],02:[02],03:[03],mmc:(un)]s(0)Z?S?*/
+	$9785  C8:          iny 			/* A(??)X(F8)<4D6>Y(00)<1754>MAP[00:[00],01:[01],02:[02],03:[03],mmc:(un)]s(0)Z?S?*/
	$9786  C8:          iny 			/* A(??)X(F8)<4D6>Y(??)MAP[00:[00],01:[01],02:[02],03:[03],mmc:(un)]s(0)Z?S?*/
	$9787  C8:          iny 			/* A(??)X(F8)<4D6>Y(??)MAP[00:[00],01:[01],02:[02],03:[03],mmc:(un)]s(0)Z?S?*/
	$9788  C8:          iny 			/* A(??)X(F8)<4D6>Y(??)MAP[00:[00],01:[01],02:[02],03:[03],mmc:(un)]s(0)Z?S?*/
	$9789  C0 30:       cpy #$30			/* A(??)X(F8)<4D6>Y(??)MAP[00:[00],01:[01],02:[02],03:[03],mmc:(un)]s(0)Z?S?*/
	$978B  90 C9:       bcc -		; $9756			/* A(??)X(F8)<4D6>Y(??)MAP[00:[00],01:[01],02:[02],03:[03],mmc:(un)]s(0)Z?S?*/
	$978D  A0 00:       ldy #$00			/* A(??)X(F8)<4D6>Y(00)<178D>MAP[00:[00],01:[01],02:[02],03:[03],mmc:(un)]s(0)Z1S0*/
	$978F  A2 00:       ldx #$00			/* A(??)X(00)<178F>Y(00)<178D>MAP[00:[00],01:[01],02:[02],03:[03],mmc:(un)]s(0)Z1S0*/
	$9791  A9 32:       lda #$32			/* A(32)<1791>X(00)<178F>Y(00)<178D>MAP[00:[00],01:[01],02:[02],03:[03],mmc:(un)]s(0)Z0S0*/
	$9793  8D 55 02:    sta $0255			/* A(32)<1791>X(00)<178F>Y(00)<178D>MAP[00:[00],01:[01],02:[02],03:[03],mmc:(un)]s(0)Z0S0*/
	$9796  8D 56 02:    sta $0256			/* A(32)<1791>X(00)<178F>Y(00)<178D>MAP[00:[00],01:[01],02:[02],03:[03],mmc:(un)]s(0)Z0S0*/
	$9799  8D 58 02:    sta $0258			/* A(32)<1791>X(00)<178F>Y(00)<178D>MAP[00:[00],01:[01],02:[02],03:[03],mmc:(un)]s(0)Z0S0*/
	$979C  8D 59 02:    sta $0259			/* A(32)<1791>X(00)<178F>Y(00)<178D>MAP[00:[00],01:[01],02:[02],03:[03],mmc:(un)]s(0)Z0S0*/
	$979F  A5 FC:       lda $FC			/* A(??)X(00)<178F>Y(00)<178D>MAP[00:[00],01:[01],02:[02],03:[03],mmc:(un)]s(0)Z?S?*/
	$97A1  10 06:       bpl +		; $97A9			/* A(??)X(00)<178F>Y(00)<178D>MAP[00:[00],01:[01],02:[02],03:[03],mmc:(un)]s(0)Z?S?*/
	$97A3  A9 37:       lda #$37			/* A(37)<17A3>X(00)<178F>Y(00)<178D>MAP[00:[00],01:[01],02:[02],03:[03],mmc:(un)]s(0)Z0S0*/
	$97A5  A2 30:       ldx #$30			/* A(37)<17A3>X(30)<17A5>Y(00)<178D>MAP[00:[00],01:[01],02:[02],03:[03],mmc:(un)]s(0)Z0S0*/
	$97A7  D0 02:       bne ++		; $97AB			/* A(37)<17A3>X(30)<17A5>Y(00)<178D>MAP[00:[00],01:[01],02:[02],03:[03],mmc:(un)]s(0)Z0S0*/(barrier)

+	$97A9  A9 C7:       lda #$C7			/* A(??)X(??)Y(00)<178D>MAP[00:[00],01:[01],02:[02],03:[03],mmc:(un)]s(0)Z0S?*/
++	$97AB  8D 57 02:    sta $0257			/* A(??)X(??)Y(00)<178D>MAP[00:[00],01:[01],02:[02],03:[03],mmc:(un)]s(0)Z0S?*/
	$97AE  A5 10:       lda $10			/* A(??)X(00)<178F>Y(00)<178D>MAP[00:[00],01:[01],02:[02],03:[03],mmc:(un)]s(0)Z?S?*/
	$97B0  29 04:       and #$04			/* A(??)X(00)<178F>Y(00)<178D>MAP[00:[00],01:[01],02:[02],03:[03],mmc:(un)]s(0)Z?S?*/
	$97B2  F0 11:       beq +++		; $97C5			/* A(??)X(00)<178F>Y(00)<178D>MAP[00:[00],01:[01],02:[02],03:[03],mmc:(un)]s(0)Z?S?*/
	$97B4  A2 18:       ldx #$18			/* A(??)X(18)<17B4>Y(00)<178D>MAP[00:[00],01:[01],02:[02],03:[03],mmc:(un)]s(0)Z0S0*/
	$97B6  A5 FC:       lda $FC			/* A(??)X(18)<17B4>Y(00)<178D>MAP[00:[00],01:[01],02:[02],03:[03],mmc:(un)]s(0)Z?S?*/
	$97B8  10 06:       bpl +		; $97C0			/* A(??)X(18)<17B4>Y(00)<178D>MAP[00:[00],01:[01],02:[02],03:[03],mmc:(un)]s(0)Z?S?*/
	$97BA  A9 3B:       lda #$3B			/* A(3B)<17BA>X(18)<17B4>Y(00)<178D>MAP[00:[00],01:[01],02:[02],03:[03],mmc:(un)]s(0)Z0S0*/
	$97BC  A2 48:       ldx #$48			/* A(3B)<17BA>X(48)<17BC>Y(00)<178D>MAP[00:[00],01:[01],02:[02],03:[03],mmc:(un)]s(0)Z0S0*/
	$97BE  D0 02:       bne ++		; $97C2			/* A(3B)<17BA>X(48)<17BC>Y(00)<178D>MAP[00:[00],01:[01],02:[02],03:[03],mmc:(un)]s(0)Z0S0*/(barrier)

+	$97C0  A9 CA:       lda #$CA			/* A(??)X(??)Y(00)<178D>MAP[00:[00],01:[01],02:[02],03:[03],mmc:(un)]s(0)Z0S?*/
++	$97C2  8D 57 02:    sta $0257			/* A(??)X(??)Y(00)<178D>MAP[00:[00],01:[01],02:[02],03:[03],mmc:(un)]s(0)Z0S?*/
+++ -	$97C5  BD 94 98:    lda _data_1894_indexed,x			/* A(??)X(??)Y(00)<178D>MAP[00:[00],01:[01],02:[02],03:[03],mmc:(un)]s(0)Z0S1*/
	$97C8  99 5C 02:    sta $025C,y			/* A$1894,x<17C5>X(00)<178F>Y(00)<178D>MAP[00:[00],01:[01],02:[02],03:[03],mmc:(un)]s(0)Z?S?*/
	$97CB  BD 95 98:    lda _data_1895_indexed,x			/* A$1895,x<17CB>X(00)<178F>Y(00)<178D>MAP[00:[00],01:[01],02:[02],03:[03],mmc:(un)]s(0)Z?S?*/
	$97CE  99 5D 02:    sta $025D,y			/* A$1895,x<17CB>X(00)<178F>Y(00)<178D>MAP[00:[00],01:[01],02:[02],03:[03],mmc:(un)]s(0)Z?S?*/
	$97D1  E8:          inx 			/* A$1895,x<17CB>X(??)Y(00)<178D>MAP[00:[00],01:[01],02:[02],03:[03],mmc:(un)]s(0)Z?S?*/
	$97D2  E8:          inx 			/* A$1895,x<17CB>X(??)Y(00)<178D>MAP[00:[00],01:[01],02:[02],03:[03],mmc:(un)]s(0)Z?S?*/
	$97D3  C8:          iny 			/* A(??)X(??)Y(??)MAP[00:[00],01:[01],02:[02],03:[03],mmc:(un)]s(0)Z?S?*/
	$97D4  C8:          iny 			/* A(??)X(??)Y(??)MAP[00:[00],01:[01],02:[02],03:[03],mmc:(un)]s(0)Z?S?*/
	$97D5  C8:          iny 			/* A(??)X(??)Y(??)MAP[00:[00],01:[01],02:[02],03:[03],mmc:(un)]s(0)Z?S?*/
	$97D6  C8:          iny 			/* A(??)X(??)Y(??)MAP[00:[00],01:[01],02:[02],03:[03],mmc:(un)]s(0)Z?S?*/
	$97D7  C0 30:       cpy #$30			/* A(??)X(??)Y(??)MAP[00:[00],01:[01],02:[02],03:[03],mmc:(un)]s(0)Z?S?*/
	$97D9  90 EA:       bcc -		; $97C5			/* A(??)X(??)Y(??)MAP[00:[00],01:[01],02:[02],03:[03],mmc:(un)]s(0)Z?S?*/
	$97DB  A9 32:       lda #$32			/* A(32)<17DB>X(??)Y(??)MAP[00:[00],01:[01],02:[02],03:[03],mmc:(un)]s(0)Z0S0*/
	$97DD  8D 24 02:    sta $0224			/* A(32)<17DB>X(??)Y(??)MAP[00:[00],01:[01],02:[02],03:[03],mmc:(un)]s(0)Z0S0*/
	$97E0  8D 25 02:    sta $0225			/* A(32)<17DB>X(??)Y(??)MAP[00:[00],01:[01],02:[02],03:[03],mmc:(un)]s(0)Z0S0*/
	$97E3  8D 26 02:    sta $0226			/* A(32)<17DB>X(??)Y(??)MAP[00:[00],01:[01],02:[02],03:[03],mmc:(un)]s(0)Z0S0*/
	$97E6  8D 27 02:    sta $0227			/* A(32)<17DB>X(??)Y(??)MAP[00:[00],01:[01],02:[02],03:[03],mmc:(un)]s(0)Z0S0*/
	$97E9  8D 28 02:    sta $0228			/* A(32)<17DB>X(??)Y(??)MAP[00:[00],01:[01],02:[02],03:[03],mmc:(un)]s(0)Z0S0*/
	$97EC  A5 25:       lda $25			/* A(??)X(??)Y(??)MAP[00:[00],01:[01],02:[02],03:[03],mmc:(un)]s(0)Z?S?*/
	$97EE  20 1F 9A:    jsr _func_1A1F			/* A(??)X(??)Y(??)MAP[00:(??),01:(??),02:(??),03:(??),mmc:(un)]s(0)Z?S?*/
	$97F1  86 39:       stx $39			/* A(??)X(??)Y(??)MAP[00:[00],01:[01],02:[02],03:[03],mmc:(un)]s(0)Z?S?*/
	$97F3  E0 00:       cpx #$00			/* A(??)X(??)Y(??)MAP[00:[00],01:[01],02:[02],03:[03],mmc:(un)]s(0)Z?S?*/
	$97F5  D0 04:       bne +		; $97FB			/* A(??)X(??)Y(??)MAP[00:[00],01:[01],02:[02],03:[03],mmc:(un)]s(0)Z?S?*/
	$97F7  A9 10:       lda #$10			/* A(10)<17F7>X(??)Y(??)MAP[00:[00],01:[01],02:[02],03:[03],mmc:(un)]s(0)Z0S0*/
	$97F9  85 39:       sta $39			/* A(10)<17F7>X(??)Y(??)MAP[00:[00],01:[01],02:[02],03:[03],mmc:(un)]s(0)Z0S0*/
+	$97FB  84 3A:       sty $3A			/* A(10)<17F7>X(??)Y(??)MAP[00:[00],01:[01],02:[02],03:[03],mmc:(un)]s(0)Z0S0*/
	$97FD  A5 27:       lda $27			/* A(??)X(??)Y(??)MAP[00:[00],01:[01],02:[02],03:[03],mmc:(un)]s(0)Z?S?*/
	$97FF  20 1F 9A:    jsr _func_1A1F			/* A(??)X(??)Y(??)MAP[00:(??),01:(??),02:(??),03:(??),mmc:(un)]s(0)Z?S?*/
	$9802  86 3C:       stx $3C			/* A(??)X(??)Y(??)MAP[00:[00],01:[01],02:[02],03:[03],mmc:(un)]s(0)Z?S?*/
	$9804  E0 00:       cpx #$00			/* A(??)X(??)Y(??)MAP[00:[00],01:[01],02:[02],03:[03],mmc:(un)]s(0)Z?S?*/
	$9806  D0 04:       bne +		; $980C			/* A(??)X(??)Y(??)MAP[00:[00],01:[01],02:[02],03:[03],mmc:(un)]s(0)Z?S?*/
	$9808  A9 10:       lda #$10			/* A(10)<1808>X(??)Y(??)MAP[00:[00],01:[01],02:[02],03:[03],mmc:(un)]s(0)Z0S0*/
	$980A  85 3C:       sta $3C			/* A(10)<1808>X(??)Y(??)MAP[00:[00],01:[01],02:[02],03:[03],mmc:(un)]s(0)Z0S0*/
+	$980C  84 3D:       sty $3D			/* A(10)<1808>X(??)Y(??)MAP[00:[00],01:[01],02:[02],03:[03],mmc:(un)]s(0)Z0S0*/
	$980E  A9 10:       lda #$10			/* A(10)<180E>X(??)Y(??)MAP[00:[00],01:[01],02:[02],03:[03],mmc:(un)]s(0)Z0S0*/
	$9810  85 3B:       sta $3B			/* A(10)<180E>X(??)Y(??)MAP[00:[00],01:[01],02:[02],03:[03],mmc:(un)]s(0)Z0S0*/
	$9812  A9 00:       lda #$00			/* A(00)<1812>X(??)Y(??)MAP[00:[00],01:[01],02:[02],03:[03],mmc:(un)]s(0)Z1S0*/
	$9814  85 11:       sta $11			/* A(00)<1812>X(??)Y(??)MAP[00:[00],01:[01],02:[02],03:[03],mmc:(un)]s(0)Z1S0*/
	$9816  20 F4 98:    jsr _func_18F4			/* A(??)X(??)Y(??)MAP[00:(??),01:(??),02:(??),03:(??),mmc:(un)]s(0)Z?S?*/
	$9819  A9 0F:       lda #$0F			/* A(0F)<1819>X(??)Y(??)MAP[00:[00],01:[01],02:[02],03:[03],mmc:(un)]s(0)Z0S0*/
	$981B  85 3B:       sta $3B			/* A(0F)<1819>X(??)Y(??)MAP[00:[00],01:[01],02:[02],03:[03],mmc:(un)]s(0)Z0S0*/
	$981D  A5 24:       lda $24			/* A(??)X(??)Y(??)MAP[00:[00],01:[01],02:[02],03:[03],mmc:(un)]s(0)Z?S?*/
	$981F  85 10:       sta $10			/* A(??)X(??)Y(??)MAP[00:[00],01:[01],02:[02],03:[03],mmc:(un)]s(0)Z?S?*/
	$9821  A9 00:       lda #$00			/* A(00)<1821>X(??)Y(??)MAP[00:[00],01:[01],02:[02],03:[03],mmc:(un)]s(0)Z1S0*/
	$9823  85 11:       sta $11			/* A(00)<1821>X(??)Y(??)MAP[00:[00],01:[01],02:[02],03:[03],mmc:(un)]s(0)Z1S0*/
	$9825  85 14:       sta $14			/* A(00)<1821>X(??)Y(??)MAP[00:[00],01:[01],02:[02],03:[03],mmc:(un)]s(0)Z1S0*/
	$9827  20 B5 8F:    jsr _func_0FB5			/* A(??)X(??)Y(??)MAP[00:(??),01:(??),02:(??),03:(??),mmc:(un)]s(0)Z?S?*/
	$982A  48:          pha 			/* A(00)<1821>X(??)Y(??)MAP[00:[00],01:[01],02:[02],03:[03],mmc:(un)]s(1)Z?S?*/
	$982B  4A:           lsr a			/* A(00)X(??)Y(??)MAP[00:[00],01:[01],02:[02],03:[03],mmc:(un)]s(1)Z?S?*/
	$982C  4A:           lsr a			/* A(00)X(??)Y(??)MAP[00:[00],01:[01],02:[02],03:[03],mmc:(un)]s(1)Z?S?*/
	$982D  4A:           lsr a			/* A(00)X(??)Y(??)MAP[00:[00],01:[01],02:[02],03:[03],mmc:(un)]s(1)Z?S?*/
	$982E  4A:           lsr a			/* A(00)X(??)Y(??)MAP[00:[00],01:[01],02:[02],03:[03],mmc:(un)]s(1)Z?S?*/
	$982F  85 39:        sta $39			/* A(00)X(??)Y(??)MAP[00:[00],01:[01],02:[02],03:[03],mmc:(un)]s(1)Z?S?*/
	$9831  68:          pla 			/* A(00)X(??)Y(??)MAP[00:[00],01:[01],02:[02],03:[03],mmc:(un)]s(0)Z1S0*/
	$9832  29 0F:       and #$0F			/* A(??)X(??)Y(??)MAP[00:[00],01:[01],02:[02],03:[03],mmc:(un)]s(0)Z?S?*/
	$9834  85 3A:       sta $3A			/* A(??)X(??)Y(??)MAP[00:[00],01:[01],02:[02],03:[03],mmc:(un)]s(0)Z?S?*/
	$9836  A5 23:       lda $23			/* A(??)X(??)Y(??)MAP[00:[00],01:[01],02:[02],03:[03],mmc:(un)]s(0)Z?S?*/
	$9838  85 10:       sta $10			/* A(??)X(??)Y(??)MAP[00:[00],01:[01],02:[02],03:[03],mmc:(un)]s(0)Z?S?*/
	$983A  A9 00:       lda #$00			/* A(00)<183A>X(??)Y(??)MAP[00:[00],01:[01],02:[02],03:[03],mmc:(un)]s(0)Z1S0*/
	$983C  85 11:       sta $11			/* A(00)<183A>X(??)Y(??)MAP[00:[00],01:[01],02:[02],03:[03],mmc:(un)]s(0)Z1S0*/
	$983E  85 14:       sta $14			/* A(00)<183A>X(??)Y(??)MAP[00:[00],01:[01],02:[02],03:[03],mmc:(un)]s(0)Z1S0*/
	$9840  20 B5 8F:    jsr _func_0FB5			/* A(??)X(??)Y(??)MAP[00:(??),01:(??),02:(??),03:(??),mmc:(un)]s(0)Z?S?*/
	$9843  48:          pha 			/* A(00)<183A>X(??)Y(??)MAP[00:[00],01:[01],02:[02],03:[03],mmc:(un)]s(1)Z?S?*/
	$9844  4A:           lsr a			/* A(00)X(??)Y(??)MAP[00:[00],01:[01],02:[02],03:[03],mmc:(un)]s(1)Z?S?*/
	$9845  4A:           lsr a			/* A(00)X(??)Y(??)MAP[00:[00],01:[01],02:[02],03:[03],mmc:(un)]s(1)Z?S?*/
	$9846  4A:           lsr a			/* A(00)X(??)Y(??)MAP[00:[00],01:[01],02:[02],03:[03],mmc:(un)]s(1)Z?S?*/
	$9847  4A:           lsr a			/* A(00)X(??)Y(??)MAP[00:[00],01:[01],02:[02],03:[03],mmc:(un)]s(1)Z?S?*/
	$9848  85 3C:        sta $3C			/* A(00)X(??)Y(??)MAP[00:[00],01:[01],02:[02],03:[03],mmc:(un)]s(1)Z?S?*/
	$984A  68:          pla 			/* A(00)X(??)Y(??)MAP[00:[00],01:[01],02:[02],03:[03],mmc:(un)]s(0)Z1S0*/
	$984B  29 0F:       and #$0F			/* A(??)X(??)Y(??)MAP[00:[00],01:[01],02:[02],03:[03],mmc:(un)]s(0)Z?S?*/
	$984D  85 3D:       sta $3D			/* A(??)X(??)Y(??)MAP[00:[00],01:[01],02:[02],03:[03],mmc:(un)]s(0)Z?S?*/
	$984F  A9 0E:       lda #$0E			/* A(0E)<184F>X(??)Y(??)MAP[00:[00],01:[01],02:[02],03:[03],mmc:(un)]s(0)Z0S0*/
	$9851  85 11:       sta $11			/* A(0E)<184F>X(??)Y(??)MAP[00:[00],01:[01],02:[02],03:[03],mmc:(un)]s(0)Z0S0*/
	$9853  20 F4 98:    jsr _func_18F4			/* A(??)X(??)Y(??)MAP[00:(??),01:(??),02:(??),03:(??),mmc:(un)]s(0)Z?S?*/
	$9856  A5 62:       lda $62			/* A(??)X(??)Y(??)MAP[00:[00],01:[01],02:[02],03:[03],mmc:(un)]s(0)Z?S?*/
	$9858  18:          clc 			/* A(??)X(??)Y(??)MAP[00:[00],01:[01],02:[02],03:[03],mmc:(un)]s(0)Z?S?*/
	$9859  69 01:       adc #$01			/* A(??)X(??)Y(??)MAP[00:[00],01:[01],02:[02],03:[03],mmc:(un)]s(0)Z?S?*/
	$985B  85 39:       sta $39			/* A(??)X(??)Y(??)MAP[00:[00],01:[01],02:[02],03:[03],mmc:(un)]s(0)Z?S?*/
	$985D  18:          clc 			/* A(??)X(??)Y(??)MAP[00:[00],01:[01],02:[02],03:[03],mmc:(un)]s(0)Z?S?*/
	$985E  69 09:       adc #$09			/* A(??)X(??)Y(??)MAP[00:[00],01:[01],02:[02],03:[03],mmc:(un)]s(0)Z?S?*/
	$9860  85 3A:       sta $3A			/* A(??)X(??)Y(??)MAP[00:[00],01:[01],02:[02],03:[03],mmc:(un)]s(0)Z?S?*/
	$9862  A9 10:       lda #$10			/* A(10)<1862>X(??)Y(??)MAP[00:[00],01:[01],02:[02],03:[03],mmc:(un)]s(0)Z0S0*/
	$9864  85 3B:       sta $3B			/* A(10)<1862>X(??)Y(??)MAP[00:[00],01:[01],02:[02],03:[03],mmc:(un)]s(0)Z0S0*/
	$9866  A5 63:       lda $63			/* A(??)X(??)Y(??)MAP[00:[00],01:[01],02:[02],03:[03],mmc:(un)]s(0)Z?S?*/
	$9868  48:          pha 			/* A(??)X(??)Y(??)MAP[00:[00],01:[01],02:[02],03:[03],mmc:(un)]s(1)Z?S?*/
	$9869  4A:           lsr a			/* A(??)X(??)Y(??)MAP[00:[00],01:[01],02:[02],03:[03],mmc:(un)]s(1)Z?S?*/
	$986A  4A:           lsr a			/* A(??)X(??)Y(??)MAP[00:[00],01:[01],02:[02],03:[03],mmc:(un)]s(1)Z?S?*/
	$986B  4A:           lsr a			/* A(??)X(??)Y(??)MAP[00:[00],01:[01],02:[02],03:[03],mmc:(un)]s(1)Z?S?*/
	$986C  4A:           lsr a			/* A(??)X(??)Y(??)MAP[00:[00],01:[01],02:[02],03:[03],mmc:(un)]s(1)Z?S?*/
	$986D  D0 02:        bne +		; $9871			/* A(??)X(??)Y(??)MAP[00:[00],01:[01],02:[02],03:[03],mmc:(un)]s(1)Z?S?*/
	$986F  A9 10:        lda #$10			/* A(10)<186F>X(??)Y(??)MAP[00:[00],01:[01],02:[02],03:[03],mmc:(un)]s(1)Z0S0*/
+	$9871  85 3C:        sta $3C			/* A(10)<186F>X(??)Y(??)MAP[00:[00],01:[01],02:[02],03:[03],mmc:(un)]s(1)Z0S0*/
	$9873  68:          pla 			/* A(??)X(??)Y(??)MAP[00:[00],01:[01],02:[02],03:[03],mmc:(un)]s(0)Z?S?*/
	$9874  29 0F:       and #$0F			/* A(??)X(??)Y(??)MAP[00:[00],01:[01],02:[02],03:[03],mmc:(un)]s(0)Z?S?*/
	$9876  85 3D:       sta $3D			/* A(??)X(??)Y(??)MAP[00:[00],01:[01],02:[02],03:[03],mmc:(un)]s(0)Z?S?*/
	$9878  A5 68:       lda $68			/* A(??)X(??)Y(??)MAP[00:[00],01:[01],02:[02],03:[03],mmc:(un)]s(0)Z?S?*/
	$987A  D0 10:       bne +		; $988C			/* A(??)X(??)Y(??)MAP[00:[00],01:[01],02:[02],03:[03],mmc:(un)]s(0)Z?S?*/
	$987C  A9 10:       lda #$10			/* A(10)<187C>X(??)Y(??)MAP[00:[00],01:[01],02:[02],03:[03],mmc:(un)]s(0)Z0S0*/
	$987E  85 39:       sta $39			/* A(10)<187C>X(??)Y(??)MAP[00:[00],01:[01],02:[02],03:[03],mmc:(un)]s(0)Z0S0*/
	$9880  A9 00:       lda #$00			/* A(00)<1880>X(??)Y(??)MAP[00:[00],01:[01],02:[02],03:[03],mmc:(un)]s(0)Z1S0*/
	$9882  85 3A:       sta $3A			/* A(00)<1880>X(??)Y(??)MAP[00:[00],01:[01],02:[02],03:[03],mmc:(un)]s(0)Z1S0*/
	$9884  85 3C:       sta $3C			/* A(00)<1880>X(??)Y(??)MAP[00:[00],01:[01],02:[02],03:[03],mmc:(un)]s(0)Z1S0*/
	$9886  85 3D:       sta $3D			/* A(00)<1880>X(??)Y(??)MAP[00:[00],01:[01],02:[02],03:[03],mmc:(un)]s(0)Z1S0*/
	$9888  A9 0E:       lda #$0E			/* A(0E)<1888>X(??)Y(??)MAP[00:[00],01:[01],02:[02],03:[03],mmc:(un)]s(0)Z0S0*/
	$988A  85 3B:       sta $3B			/* A(0E)<1888>X(??)Y(??)MAP[00:[00],01:[01],02:[02],03:[03],mmc:(un)]s(0)Z0S0*/
+	$988C  A9 1C:       lda #$1C			/* A(??)X(??)Y(??)MAP[00:[00],01:[01],02:[02],03:[03],mmc:(un)]s(0)Z0S0*/
	$988E  85 11:       sta $11			/* A(1C)<188C>X(??)Y(??)MAP[00:[00],01:[01],02:[02],03:[03],mmc:(un)]s(0)Z0S0*/
	$9890  20 F4 98:    jsr _func_18F4			/* A(??)X(??)Y(??)MAP[00:(??),01:(??),02:(??),03:(??),mmc:(un)]s(0)Z?S?*/
	$9893  60:          rts 			/* A(1C)<188C>X(??)Y(??)MAP[00:[00],01:[01],02:[02],03:[03],mmc:(un)]s(0)Z?S?*/(barrier)
;------------------------------------------
_data_1894_indexed
	$9894               .byte $C8
_data_1895_indexed
	$9895               .byte $D1,$C8,$D2,$C8,$D3,$C8,$D4,$C8,$D5,$C8,$D6,$C8,$D3,$C8,$D4,$C8
	$98A5               .byte $D1,$C8,$D2,$C9,$32,$32,$32,$CB,$32,$CC,$CE,$CC,$32,$CC,$CF,$CC
	$98B5               .byte $32,$CC,$D0,$CC,$32,$CC,$CF,$CC,$32,$CC,$CE,$36,$32,$CD,$32,$C8
	$98C5               .byte $D1,$C8,$D2,$C8,$D3,$C8,$D4,$C8,$D5,$C8,$D6,$C8,$D3,$C8,$D4,$C8
	$98D5               .byte $D1,$C8,$D2,$38,$32,$32,$32,$3C,$32,$CC,$CE,$CC,$32,$CC,$CF,$CC
	$98E5               .byte $32,$CC,$D0,$CC,$32,$CC,$CF,$CC,$32,$CC,$CE,$39,$32,$3A,$32
_func_18F4
	$98F4  A0 00:       ldy #$00			/* A(1C)<188C>X(??)Y(00)<18F4>MAP[00:[00],01:[01],02:[02],03:[03],mmc:(un)]s(0)Z?S?*/
	$98F6  84 10:       sty $10			/* A(00)<1812>X(??)Y(00)<18F4>MAP[00:[00],01:[01],02:[02],03:[03],mmc:(un)]s(0)Z1S0*/
	$98F8  A5 49:       lda $49			/* A(??)X(??)Y(00)<18F4>MAP[00:[00],01:[01],02:[02],03:[03],mmc:(un)]s(0)Z?S?*/
	$98FA  29 04:       and #$04			/* A(??)X(??)Y(00)<18F4>MAP[00:[00],01:[01],02:[02],03:[03],mmc:(un)]s(0)Z?S?*/
	$98FC  F0 04:       beq +		; $9902			/* A(??)X(??)Y(00)<18F4>MAP[00:[00],01:[01],02:[02],03:[03],mmc:(un)]s(0)Z?S?*/
	$98FE  A9 22:       lda #$22			/* A(22)<18FE>X(??)Y(00)<18F4>MAP[00:[00],01:[01],02:[02],03:[03],mmc:(un)]s(0)Z0S0*/
	$9900  85 10:       sta $10			/* A(22)<18FE>X(??)Y(00)<18F4>MAP[00:[00],01:[01],02:[02],03:[03],mmc:(un)]s(0)Z0S0*/
+ -	$9902  B9 39 00:    lda $0039,y			/* A(22)<18FE>X(??)Y(00)<18F4>MAP[00:[00],01:[01],02:[02],03:[03],mmc:(un)]s(0)Z0S0*/
	$9905  C9 30:       cmp #$30			/* A(??)X(??)Y(00)<18F4>MAP[00:[00],01:[01],02:[02],03:[03],mmc:(un)]s(0)Z?S?*/
	$9907  D0 02:       bne +		; $990B			/* A(??)X(??)Y(00)<18F4>MAP[00:[00],01:[01],02:[02],03:[03],mmc:(un)]s(0)Z?S?*/
	$9909  A9 10:       lda #$10			/* A(10)<1909>X(??)Y(00)<18F4>MAP[00:[00],01:[01],02:[02],03:[03],mmc:(un)]s(0)Z0S0*/
+	$990B  29 1F:       and #$1F			/* A(10)<1909>X(??)Y(00)<18F4>MAP[00:[00],01:[01],02:[02],03:[03],mmc:(un)]s(0)Z0S0*/
	$990D  0A:          asl a			/* A(??)X(??)Y(00)<18F4>MAP[00:[00],01:[01],02:[02],03:[03],mmc:(un)]s(0)Z?S?*/
	$990E  65 10:       adc $10			/* A(??)X(??)Y(00)<18F4>MAP[00:[00],01:[01],02:[02],03:[03],mmc:(un)]s(0)Z?S?*/
	$9910  AA:          tax 			/* A(??)X(??)Y(00)<18F4>MAP[00:[00],01:[01],02:[02],03:[03],mmc:(un)]s(0)Z?S?*/
	$9911  BD 37 99:    lda _data_1937_indexed,x			/* A$1937,x<1911>X(??)Y(00)<18F4>MAP[00:[00],01:[01],02:[02],03:[03],mmc:(un)]s(0)Z?S?*/
	$9914  99 3E 00:    sta $003E,y			/* A$1937,x<1911>X(??)Y(00)<18F4>MAP[00:[00],01:[01],02:[02],03:[03],mmc:(un)]s(0)Z?S?*/
	$9917  BD 38 99:    lda _data_1938_indexed,x			/* A$1938,x<1917>X(??)Y(00)<18F4>MAP[00:[00],01:[01],02:[02],03:[03],mmc:(un)]s(0)Z?S?*/
	$991A  99 43 00:    sta $0043,y			/* A$1938,x<1917>X(??)Y(00)<18F4>MAP[00:[00],01:[01],02:[02],03:[03],mmc:(un)]s(0)Z?S?*/
	$991D  C8:          iny 			/* A(??)X(??)Y(??)MAP[00:[00],01:[01],02:[02],03:[03],mmc:(un)]s(0)Z?S?*/
	$991E  C0 05:       cpy #$05			/* A(??)X(??)Y(??)MAP[00:[00],01:[01],02:[02],03:[03],mmc:(un)]s(0)Z?S?*/
	$9920  90 E0:       bcc -		; $9902			/* A(??)X(??)Y(??)MAP[00:[00],01:[01],02:[02],03:[03],mmc:(un)]s(0)Z?S?*/
	$9922  A2 00:       ldx #$00			/* A(??)X(00)<1922>Y(??)MAP[00:[00],01:[01],02:[02],03:[03],mmc:(un)]s(0)Z1S0*/
	$9924  A4 11:       ldy $11			/* A(??)X(00)<1922>Y(??)MAP[00:[00],01:[01],02:[02],03:[03],mmc:(un)]s(0)Z?S?*/
-	$9926  B5 3E:       lda $3E,x			/* A(??)X(00)<1922>Y(??)MAP[00:[00],01:[01],02:[02],03:[03],mmc:(un)]s(0)Z?S?*/
	$9928  99 2B 02:    sta $022B,y			/* A(??)X(00)<1922>Y(??)MAP[00:[00],01:[01],02:[02],03:[03],mmc:(un)]s(0)Z?S?*/
	$992B  B5 43:       lda $43,x			/* A(??)X(00)<1922>Y(??)MAP[00:[00],01:[01],02:[02],03:[03],mmc:(un)]s(0)Z?S?*/
	$992D  99 32 02:    sta $0232,y			/* A(??)X(00)<1922>Y(??)MAP[00:[00],01:[01],02:[02],03:[03],mmc:(un)]s(0)Z?S?*/
	$9930  C8:          iny 			/* A(??)X(00)<1922>Y(??)MAP[00:[00],01:[01],02:[02],03:[03],mmc:(un)]s(0)Z?S?*/
	$9931  E8:          inx 			/* A(??)X(??)Y(??)MAP[00:[00],01:[01],02:[02],03:[03],mmc:(un)]s(0)Z?S?*/
	$9932  E0 05:       cpx #$05			/* A(??)X(??)Y(??)MAP[00:[00],01:[01],02:[02],03:[03],mmc:(un)]s(0)Z?S?*/
	$9934  90 F0:       bcc -		; $9926			/* A(??)X(??)Y(??)MAP[00:[00],01:[01],02:[02],03:[03],mmc:(un)]s(0)Z?S?*/
	$9936  60:          rts 			/* A(??)X(??)Y(??)MAP[00:[00],01:[01],02:[02],03:[03],mmc:(un)]s(0)Z?S?*/(barrier)
;------------------------------------------
_data_1937_indexed
	$9937               .byte $A9
_data_1938_indexed
	$9938               .byte $32,$AA,$32,$AB,$32,$AC,$32,$AD,$32,$AE,$32,$AF,$32,$B0,$32,$B1
	$9948               .byte $32,$B2,$32,$9A,$32,$9B,$32,$9C,$32,$97,$32,$9D,$32,$9E,$32,$32
	$9958               .byte $32,$B3,$BD,$B4,$BE,$B5,$BF,$B6,$C0,$B7,$C1,$B8,$C2,$B9,$C3,$BA
	$9968               .byte $C4,$BB,$C5,$BC,$C6,$9F,$A4,$A0,$A5,$A1,$A6,$98,$99,$A2,$A7,$A3
	$9978               .byte $A8,$32,$32
_data_197B_indexed
	$997B               .byte $1C,$01,$00,$D0,$F0,$1E,$00,$D8,$1C,$02,$00,$E8,$27,$30,$01,$C8
_func_198B
	$998B  A2 00:       ldx #$00			/* A(??)X(00)<198B>Y(??)MAP[00:[00],01:[01],02:[02],03:[03],mmc:(un)]s(0)Z1S0*/
-	$998D  BD 4A 9D:    lda _data_1D4A_indexed,x			/* A$1D4A,x<198D>X(00)<198B>Y(??)MAP[00:[00],01:[01],02:[02],03:[03],mmc:(un)]s(0)Z?S?*/
	$9990  9D 00 05:    sta $0500,x			/* A$1D4A,x<198D>X(00)<198B>Y(??)MAP[00:[00],01:[01],02:[02],03:[03],mmc:(un)]s(0)Z?S?*/
	$9993  E8:          inx 			/* A$1D4A,x<198D>X(??)Y(??)MAP[00:[00],01:[01],02:[02],03:[03],mmc:(un)]s(0)Z?S?*/
	$9994  E0 8E:       cpx #$8E			/* A$1D4A,x<198D>X(??)Y(??)MAP[00:[00],01:[01],02:[02],03:[03],mmc:(un)]s(0)Z?S?*/
	$9996  90 F5:       bcc -		; $998D			/* A$1D4A,x<198D>X(??)Y(??)MAP[00:[00],01:[01],02:[02],03:[03],mmc:(un)]s(0)Z?S?*/
	$9998  A5 2D:       lda $2D			/* A(??)X(??)Y(??)MAP[00:[00],01:[01],02:[02],03:[03],mmc:(un)]s(0)Z?S?*/
	$999A  C9 08:       cmp #$08			/* A(??)X(??)Y(??)MAP[00:[00],01:[01],02:[02],03:[03],mmc:(un)]s(0)Z?S?*/
	$999C  90 02:       bcc +		; $99A0			/* A(??)X(??)Y(??)MAP[00:[00],01:[01],02:[02],03:[03],mmc:(un)]s(0)Z?S?*/
	$999E  A9 08:       lda #$08			/* A(08)<199E>X(??)Y(??)MAP[00:[00],01:[01],02:[02],03:[03],mmc:(un)]s(0)Z0S0*/
+	$99A0  48:          pha 			/* A(08)<199E>X(??)Y(??)MAP[00:[00],01:[01],02:[02],03:[03],mmc:(un)]s(0)Z0S0*/
	$99A1  29 0E:        and #$0E			/* A(??)X(??)Y(??)MAP[00:[00],01:[01],02:[02],03:[03],mmc:(un)]s(1)Z?S?*/
	$99A3  0A:           asl a			/* A(??)X(??)Y(??)MAP[00:[00],01:[01],02:[02],03:[03],mmc:(un)]s(1)Z?S?*/
	$99A4  AA:           tax 			/* A(??)X(??)Y(??)MAP[00:[00],01:[01],02:[02],03:[03],mmc:(un)]s(1)Z?S?*/
	$99A5  A0 00:        ldy #$00			/* A(??)X(??)Y(00)<19A5>MAP[00:[00],01:[01],02:[02],03:[03],mmc:(un)]s(1)Z1S0*/
-	$99A7  BD C2 99:     lda _data_19C2_indexed,x			/* A$19C2,x<19A7>X(??)Y(00)<19A5>MAP[00:[00],01:[01],02:[02],03:[03],mmc:(un)]s(0)Z?S?*/
	$99AA  99 14 05:     sta $0514,y			/* A$19C2,x<19A7>X(??)Y(00)<19A5>MAP[00:[00],01:[01],02:[02],03:[03],mmc:(un)]s(1)Z?S?*/
	$99AD  E8:           inx 			/* A$19C2,x<19A7>X(??)Y(00)<19A5>MAP[00:[00],01:[01],02:[02],03:[03],mmc:(un)]s(1)Z?S?*/
	$99AE  C8:           iny 			/* A(??)X(??)Y(??)MAP[00:[00],01:[01],02:[02],03:[03],mmc:(un)]s(1)Z?S?*/
	$99AF  C0 03:        cpy #$03			/* A(??)X(??)Y(??)MAP[00:[00],01:[01],02:[02],03:[03],mmc:(un)]s(1)Z?S?*/
	$99B1  90 F4:        bcc -		; $99A7			/* A(??)X(??)Y(??)MAP[00:[00],01:[01],02:[02],03:[03],mmc:(un)]s(1)Z?S?*/
	$99B3  68:          pla 			/* A(??)X(??)Y(??)MAP[00:[00],01:[01],02:[02],03:[03],mmc:(un)]s(0)Z?S?*/
	$99B4  29 0E:       and #$0E			/* A(??)X(??)Y(??)MAP[00:[00],01:[01],02:[02],03:[03],mmc:(un)]s(0)Z?S?*/
	$99B6  AA:          tax 			/* A(??)X(??)Y(??)MAP[00:[00],01:[01],02:[02],03:[03],mmc:(un)]s(0)Z?S?*/
	$99B7  BD D6 99:    lda _data_19D6_indexed,x			/* A$19D6,x<19B7>X(??)Y(??)MAP[00:[00],01:[01],02:[02],03:[03],mmc:(un)]s(0)Z?S?*/
	$99BA  85 A8:       sta $A8			/* A$19D6,x<19B7>X(??)Y(??)MAP[00:[00],01:[01],02:[02],03:[03],mmc:(un)]s(0)Z?S?*/
	$99BC  BD D7 99:    lda _data_19D7_indexed,x			/* A$19D7,x<19BC>X(??)Y(??)MAP[00:[00],01:[01],02:[02],03:[03],mmc:(un)]s(0)Z?S?*/
	$99BF  85 A9:       sta $A9			/* A$19D7,x<19BC>X(??)Y(??)MAP[00:[00],01:[01],02:[02],03:[03],mmc:(un)]s(0)Z?S?*/
	$99C1  60:          rts 			/* A$19D7,x<19BC>X(??)Y(??)MAP[00:[00],01:[01],02:[02],03:[03],mmc:(un)]s(0)Z?S?*/(barrier)
;------------------------------------------
_data_19C2_indexed
	$99C2               .byte $21,$22,$23,$1A,$17,$18,$19,$1A,$17,$18,$19,$1A,$1B,$1C,$1D,$1A
	$99D2               .byte $1E,$1F,$20,$1A
_data_19D6_indexed
	$99D6               .byte $28
_data_19D7_indexed
	$99D7               .byte $22,$22,$28,$22,$28,$24,$14,$27,$17
_func_19E0
	$99E0  A9 00:       lda #$00			/* A(??)X(??)Y(00)<150E>MAP[00:[00],01:[01],02:[02],03:[03],mmc:(un)]s(0)Z?S?*/
	$99E2  85 13:       sta $13			/* A(00)<19E0>X(F8)<4D6>Y(00)<150E>MAP[00:[00],01:[01],02:[02],03:[03],mmc:(un)]s(0)Z1S0*/
	$99E4  A5 10:       lda $10			/* A(??)X(F8)<4D6>Y(00)<150E>MAP[00:[00],01:[01],02:[02],03:[03],mmc:(un)]s(0)Z?S?*/
	$99E6  29 F8:       and #$F8			/* A(??)X(F8)<4D6>Y(00)<150E>MAP[00:[00],01:[01],02:[02],03:[03],mmc:(un)]s(0)Z?S?*/
	$99E8  85 12:       sta $12			/* A(??)X(F8)<4D6>Y(00)<150E>MAP[00:[00],01:[01],02:[02],03:[03],mmc:(un)]s(0)Z?S?*/
	$99EA  06 12:       asl $12			/* A(??)X(F8)<4D6>Y(00)<150E>MAP[00:[00],01:[01],02:[02],03:[03],mmc:(un)]s(0)Z?S?*/
	$99EC  26 13:       rol $13			/* A(??)X(F8)<4D6>Y(00)<150E>MAP[00:[00],01:[01],02:[02],03:[03],mmc:(un)]s(0)Z?S?*/
	$99EE  06 12:       asl $12			/* A(??)X(F8)<4D6>Y(00)<150E>MAP[00:[00],01:[01],02:[02],03:[03],mmc:(un)]s(0)Z?S?*/
	$99F0  26 13:       rol $13			/* A(??)X(F8)<4D6>Y(00)<150E>MAP[00:[00],01:[01],02:[02],03:[03],mmc:(un)]s(0)Z?S?*/
	$99F2  A5 11:       lda $11			/* A(??)X(F8)<4D6>Y(00)<150E>MAP[00:[00],01:[01],02:[02],03:[03],mmc:(un)]s(0)Z?S?*/
	$99F4  0A:          asl a			/* A(??)X(F8)<4D6>Y(00)<150E>MAP[00:[00],01:[01],02:[02],03:[03],mmc:(un)]s(0)Z?S?*/
	$99F5  0A:          asl a			/* A(??)X(F8)<4D6>Y(00)<150E>MAP[00:[00],01:[01],02:[02],03:[03],mmc:(un)]s(0)Z?S?*/
	$99F6  0A:          asl a			/* A(??)X(F8)<4D6>Y(00)<150E>MAP[00:[00],01:[01],02:[02],03:[03],mmc:(un)]s(0)Z?S?*/
	$99F7  29 08:       and #$08			/* A(??)X(F8)<4D6>Y(00)<150E>MAP[00:[00],01:[01],02:[02],03:[03],mmc:(un)]s(0)Z?S?*/
	$99F9  09 20:       ora #$20			/* A(??)X(F8)<4D6>Y(00)<150E>MAP[00:[00],01:[01],02:[02],03:[03],mmc:(un)]s(0)Z?S?*/
	$99FB  05 13:       ora $13			/* A(??)X(F8)<4D6>Y(00)<150E>MAP[00:[00],01:[01],02:[02],03:[03],mmc:(un)]s(0)Z?S?*/
	$99FD  85 13:       sta $13			/* A(??)X(F8)<4D6>Y(00)<150E>MAP[00:[00],01:[01],02:[02],03:[03],mmc:(un)]s(0)Z?S?*/
	$99FF  60:          rts 			/* A(??)X(F8)<4D6>Y(00)<150E>MAP[00:[00],01:[01],02:[02],03:[03],mmc:(un)]s(0)Z?S?*/(barrier)
;------------------------------------------
_func_1A00
	$9A00  A0 04:       ldy #$04			/* A(??)X(??)Y(04)<1A00>MAP[00:[00],01:[01],02:[02],03:[03],mmc:(un)]s(0)Z0S0*/
	$9A02  A5 FC:       lda $FC			/* A(??)X(??)Y(04)<1A00>MAP[00:[00],01:[01],02:[02],03:[03],mmc:(un)]s(0)Z?S?*/
	$9A04  10 0A:       bpl +		; $9A10			/* A(??)X(??)Y(04)<1A00>MAP[00:[00],01:[01],02:[02],03:[03],mmc:(un)]s(0)Z?S?*/
-	$9A06  B9 1A 9A:    lda _data_1A1A_indexed,y			/* A$1A1A,y<1A06>X(??)Y(04)<1A00>MAP[00:[00],01:[01],02:[02],03:[03],mmc:(un)]s(0)Z?S?*/
	$9A09  99 48 05:    sta $0548,y			/* A$1A1A,y<1A06>X(??)Y(04)<1A00>MAP[00:[00],01:[01],02:[02],03:[03],mmc:(un)]s(0)Z?S?*/
	$9A0C  88:          dey 			/* A(??)X(??)Y(??)MAP[00:[00],01:[01],02:[02],03:[03],mmc:(un)]s(0)Z?S?*/
	$9A0D  10 F7:       bpl -		; $9A06			/* A(??)X(??)Y(??)MAP[00:[00],01:[01],02:[02],03:[03],mmc:(un)]s(0)Z?S?*/
	$9A0F  60:          rts 			/* A(??)X(??)Y(??)MAP[00:[00],01:[01],02:[02],03:[03],mmc:(un)]s(0)Z?S?*/(barrier)

+ -	$9A10  B9 92 9D:    lda _data_1D92_indexed,y			/* A$1D92,y<1A10>X(??)Y(04)<1A00>MAP[00:[00],01:[01],02:[02],03:[03],mmc:(un)]s(0)Z?S?*/
	$9A13  99 48 05:    sta $0548,y			/* A$1D92,y<1A10>X(??)Y(04)<1A00>MAP[00:[00],01:[01],02:[02],03:[03],mmc:(un)]s(0)Z?S?*/
	$9A16  88:          dey 			/* A(??)X(??)Y(??)MAP[00:[00],01:[01],02:[02],03:[03],mmc:(un)]s(0)Z?S?*/
	$9A17  10 F7:       bpl -		; $9A10			/* A(??)X(??)Y(??)MAP[00:[00],01:[01],02:[02],03:[03],mmc:(un)]s(0)Z?S?*/
	$9A19  60:          rts 			/* A(??)X(??)Y(??)MAP[00:[00],01:[01],02:[02],03:[03],mmc:(un)]s(0)Z?S?*/(barrier)
;------------------------------------------
_data_1A1A_indexed
	$9A1A               .byte $24,$25,$26,$27,$28
_func_1A1F
	$9A1F  85 10:       sta $10			/* A(??)X(??)Y(??)MAP[00:[00],01:[01],02:[02],03:[03],mmc:(un)]s(0)Z?S?*/
	$9A21  A9 00:       lda #$00			/* A(00)<1A21>X(??)Y(??)MAP[00:[00],01:[01],02:[02],03:[03],mmc:(un)]s(0)Z1S0*/
	$9A23  85 11:       sta $11			/* A(00)<1A21>X(??)Y(??)MAP[00:[00],01:[01],02:[02],03:[03],mmc:(un)]s(0)Z1S0*/
	$9A25  85 14:       sta $14			/* A(00)<1A21>X(??)Y(??)MAP[00:[00],01:[01],02:[02],03:[03],mmc:(un)]s(0)Z1S0*/
	$9A27  20 B5 8F:    jsr _func_0FB5			/* A(??)X(??)Y(??)MAP[00:(??),01:(??),02:(??),03:(??),mmc:(un)]s(0)Z?S?*/
	$9A2A  A5 14:       lda $14			/* A(??)X(??)Y(??)MAP[00:[00],01:[01],02:[02],03:[03],mmc:(un)]s(0)Z?S?*/
	$9A2C  29 0F:       and #$0F			/* A(??)X(??)Y(??)MAP[00:[00],01:[01],02:[02],03:[03],mmc:(un)]s(0)Z?S?*/
	$9A2E  A8:          tay 			/* A(??)X(??)Y(??)MAP[00:[00],01:[01],02:[02],03:[03],mmc:(un)]s(0)Z?S?*/
	$9A2F  A5 14:       lda $14			/* A(??)X(??)Y(??)MAP[00:[00],01:[01],02:[02],03:[03],mmc:(un)]s(0)Z?S?*/
	$9A31  4A:          lsr a			/* A(??)X(??)Y(??)MAP[00:[00],01:[01],02:[02],03:[03],mmc:(un)]s(0)Z?S?*/
	$9A32  4A:          lsr a			/* A(??)X(??)Y(??)MAP[00:[00],01:[01],02:[02],03:[03],mmc:(un)]s(0)Z?S?*/
	$9A33  4A:          lsr a			/* A(??)X(??)Y(??)MAP[00:[00],01:[01],02:[02],03:[03],mmc:(un)]s(0)Z?S?*/
	$9A34  4A:          lsr a			/* A(??)X(??)Y(??)MAP[00:[00],01:[01],02:[02],03:[03],mmc:(un)]s(0)Z?S?*/
	$9A35  AA:          tax 			/* A(??)X(??)Y(??)MAP[00:[00],01:[01],02:[02],03:[03],mmc:(un)]s(0)Z?S?*/
	$9A36  60:          rts 			/* A(??)X(??)Y(??)MAP[00:[00],01:[01],02:[02],03:[03],mmc:(un)]s(0)Z?S?*/(barrier)
;------------------------------------------
_DataPointerTable_1A37
	$9A37  8B 9A:       .word (DataTableEntry_1A8B) ;9A8B (1A8B) ()
	$9A39  8F 9A:       .word (DataTableEntry_1A8F) ;9A8F (1A8F) ()
	$9A3B  9B 9A:       .word (DataTableEntry_1A9B) ;9A9B (1A9B) ()
	$9A3D  A9 9A:       .word (DataTableEntry_1AA9) ;9AA9 (1AA9) ()
	$9A3F  B1 9A:       .word (DataTableEntry_1AB1) ;9AB1 (1AB1) ()
	$9A41  BB 9A:       .word (DataTableEntry_1ABB) ;9ABB (1ABB) ()
	$9A43  CA 9A:       .word (DataTableEntry_1ACA) ;9ACA (1ACA) ()
	$9A45  DC 9A:       .word (DataTableEntry_1ADC) ;9ADC (1ADC) ()
	$9A47  DC 9A:       .word (DataTableEntry_1ADC) ;9ADC (1ADC) ()
	$9A49  DC 9A:       .word (DataTableEntry_1ADC) ;9ADC (1ADC) ()
	$9A4B  DC 9A:       .word (DataTableEntry_1ADC) ;9ADC (1ADC) ()
	$9A4D  DC 9A:       .word (DataTableEntry_1ADC) ;9ADC (1ADC) ()
	$9A4F  DC 9A:       .word (DataTableEntry_1ADC) ;9ADC (1ADC) ()
	$9A51  DC 9A:       .word (DataTableEntry_1ADC) ;9ADC (1ADC) ()
	$9A53  DC 9A:       .word (DataTableEntry_1ADC) ;9ADC (1ADC) ()
	$9A55  DC 9A:       .word (DataTableEntry_1ADC) ;9ADC (1ADC) ()
	$9A57  E6 9A:       .word (DataTableEntry_1AE6) ;9AE6 (1AE6) ()
	$9A59  FE 9A:       .word (DataTableEntry_1AFE) ;9AFE (1AFE) ()
	$9A5B  16 9B:       .word (DataTableEntry_1B16) ;9B16 (1B16) ()
	$9A5D  2E 9B:       .word (DataTableEntry_1B2E) ;9B2E (1B2E) ()
	$9A5F  43 9B:       .word (DataTableEntry_1B43) ;9B43 (1B43) ()
	$9A61  5B 9B:       .word (DataTableEntry_1B5B) ;9B5B (1B5B) ()
	$9A63  73 9B:       .word (DataTableEntry_1B73) ;9B73 (1B73) ()
	$9A65  8B 9B:       .word (DataTableEntry_1B8B) ;9B8B (1B8B) ()
	$9A67  9D 9B:       .word (DataTableEntry_1B9D) ;9B9D (1B9D) ()
	$9A69  B9 9B:       .word (DataTableEntry_1BB9) ;9BB9 (1BB9) ()
	$9A6B  D5 9B:       .word (DataTableEntry_1BD5) ;9BD5 (1BD5) ()
	$9A6D  DF 9B:       .word (DataTableEntry_1BDF) ;9BDF (1BDF) ()
	$9A6F  F7 9B:       .word (DataTableEntry_1BF7) ;9BF7 (1BF7) ()
	$9A71  13 9C:       .word (DataTableEntry_1C13) ;9C13 (1C13) ()
	$9A73  2F 9C:       .word (DataTableEntry_1C2F) ;9C2F (1C2F) ()
	$9A75  45 9C:       .word (DataTableEntry_1C45) ;9C45 (1C45) ()
	$9A77  61 9C:       .word (DataTableEntry_1C61) ;9C61 (1C61) ()
	$9A79  7D 9C:       .word (DataTableEntry_1C7D) ;9C7D (1C7D) ()
	$9A7B  93 9C:       .word (DataTableEntry_1C93) ;9C93 (1C93) ()
	$9A7D  AF 9C:       .word (DataTableEntry_1CAF) ;9CAF (1CAF) ()
	$9A7F  CB 9C:       .word (DataTableEntry_1CCB) ;9CCB (1CCB) ()
	$9A81  E3 9C:       .word (DataTableEntry_1CE3) ;9CE3 (1CE3) ()
	$9A83  FB 9C:       .word (DataTableEntry_1CFB) ;9CFB (1CFB) ()
	$9A85  10 9D:       .word (DataTableEntry_1D10) ;9D10 (1D10) ()
	$9A87  28 9D:       .word (DataTableEntry_1D28) ;9D28 (1D28) ()
	$9A89  40 9D:       .word (DataTableEntry_1D40) ;9D40 (1D40) ()
DataTableEntry_1A8B
	$9A8B               .byte $31,$00,$32,$1F
DataTableEntry_1A8F
	$9A8F               .byte $31,$00,$32,$09,$D7,$00,$32,$05,$DA,$00,$32,$0F
DataTableEntry_1A9B
	$9A9B               .byte $31,$00,$32,$09,$D8,$D9,$D9,$DC,$D9,$D9,$DB,$00,$32,$0F
DataTableEntry_1AA9
	$9AA9               .byte $31,$00,$32,$0C,$DD,$00,$32,$12
DataTableEntry_1AB1
	$9AB1               .byte $31,$32,$E0,$00,$E1,$15,$E2,$00,$32,$07
DataTableEntry_1ABB
	$9ABB               .byte $31,$DE,$E5,$00,$E6,$0A,$DF,$00,$E6,$0A,$E7,$DE,$00,$32,$06
DataTableEntry_1ACA
	$9ACA               .byte $31,$32,$E3,$00,$30,$05,$E6,$00,$30,$09,$E6,$00,$30,$05,$E4,$00
	$9ADA               .byte $32,$07
DataTableEntry_1ADC
	$9ADC               .byte $31,$32,$E5,$00,$E6,$15,$E7,$00,$32,$07
DataTableEntry_1AE6
	$9AE6               .byte $31,$32,$E3,$00,$30,$05,$E6,$30,$30,$40,$41,$42,$43,$44,$45,$30
	$9AF6               .byte $E6,$00,$30,$05,$E4,$00,$32,$07
DataTableEntry_1AFE
	$9AFE               .byte $31,$32,$E3,$00,$30,$05,$E6,$30,$30,$40,$41,$42,$43,$44,$30,$30
	$9B0E               .byte $E6,$00,$30,$05,$E4,$00,$32,$07
DataTableEntry_1B16
	$9B16               .byte $31,$32,$E3,$00,$30,$05,$E6,$30,$30,$45,$46,$30,$47,$48,$30,$30
	$9B26               .byte $E6,$00,$30,$05,$E4,$00,$32,$07
DataTableEntry_1B2E
	$9B2E               .byte $31,$F4,$E5,$00,$E6,$07,$30,$49,$4A,$4B,$4C,$4D,$30,$00,$E6,$07
	$9B3E               .byte $E7,$F4,$00,$32,$06
DataTableEntry_1B43
	$9B43               .byte $31,$32,$E3,$00,$30,$05,$E6,$30,$30,$4E,$4F,$50,$51,$52,$30,$30
	$9B53               .byte $E6,$00,$30,$05,$E4,$00,$32,$07
DataTableEntry_1B5B
	$9B5B               .byte $31,$32,$E3,$00,$30,$05,$E6,$30,$53,$54,$55,$56,$57,$30,$30,$30
	$9B6B               .byte $E6,$00,$30,$05,$E4,$00,$32,$07
DataTableEntry_1B73
	$9B73               .byte $31,$32,$E3,$00,$30,$05,$E6,$30,$63,$64,$65,$66,$67,$30,$30,$30
	$9B83               .byte $E6,$00,$30,$05,$E4,$00,$32,$07
DataTableEntry_1B8B
	$9B8B               .byte $31,$32,$34,$00,$30,$04,$6E,$00,$30,$0B,$6E,$00,$30,$04,$35,$00
	$9B9B               .byte $32,$07
DataTableEntry_1B9D
	$9B9D               .byte $31,$32,$34,$30,$30,$30,$6F,$70,$73,$30,$30,$30,$68,$69,$6A,$30
	$9BAD               .byte $30,$30,$6F,$70,$73,$30,$30,$30,$35,$00,$32,$07
DataTableEntry_1BB9
	$9BB9               .byte $31,$32,$34,$30,$30,$30,$72,$74,$75,$30,$30,$30,$6B,$6C,$6D,$30
	$9BC9               .byte $30,$30,$72,$74,$75,$30,$30,$30,$35,$00,$32,$07
DataTableEntry_1BD5
	$9BD5               .byte $31,$32,$34,$00,$30,$15,$35,$00,$32,$07
DataTableEntry_1BDF
	$9BDF               .byte $31,$32,$34,$30,$30,$30,$76,$77,$78,$79,$00,$30,$07,$76,$77,$78
	$9BEF               .byte $79,$30,$30,$30,$35,$00,$32,$07
DataTableEntry_1BF7
	$9BF7               .byte $31,$32,$34,$30,$30,$30,$7A,$7B,$7C,$7D,$30,$30,$68,$69,$6A,$30
	$9C07               .byte $30,$7A,$7B,$7C,$7D,$30,$30,$30,$35,$00,$32,$07
DataTableEntry_1C13
	$9C13               .byte $31,$32,$34,$30,$30,$30,$7E,$7F,$80,$81,$30,$30,$6B,$6C,$6D,$30
	$9C23               .byte $30,$7E,$7F,$80,$81,$30,$30,$30,$35,$00,$32,$07
DataTableEntry_1C2F
	$9C2F               .byte $31,$32,$34,$30,$30,$30,$82,$83,$84,$00,$30,$09,$82,$83,$84,$30
	$9C3F               .byte $30,$30,$35,$00,$32,$07
DataTableEntry_1C45
	$9C45               .byte $31,$32,$34,$30,$30,$30,$85,$86,$87,$30,$30,$30,$68,$69,$6A,$30
	$9C55               .byte $30,$30,$85,$86,$87,$30,$30,$30,$35,$00,$32,$07
DataTableEntry_1C61
	$9C61               .byte $31,$32,$34,$30,$30,$30,$88,$89,$8A,$30,$30,$30,$6B,$6C,$6D,$30
	$9C71               .byte $30,$30,$88,$89,$8A,$30,$30,$30,$35,$00,$32,$07
DataTableEntry_1C7D
	$9C7D               .byte $31,$32,$34,$30,$30,$30,$8B,$8C,$8D,$00,$30,$09,$8B,$8C,$8D,$30
	$9C8D               .byte $30,$30,$35,$00,$32,$07
DataTableEntry_1C93
	$9C93               .byte $31,$32,$34,$30,$30,$30,$8E,$8F,$90,$30,$30,$30,$68,$69,$6A,$30
	$9CA3               .byte $30,$30,$8E,$8F,$90,$30,$30,$30,$35,$00,$32,$07
DataTableEntry_1CAF
	$9CAF               .byte $31,$32,$34,$30,$30,$30,$92,$93,$94,$30,$30,$30,$6B,$6C,$6D,$30
	$9CBF               .byte $30,$30,$92,$93,$94,$30,$30,$30,$35,$00,$32,$07
DataTableEntry_1CCB
	$9CCB               .byte $31,$32,$E3,$00,$30,$05,$E6,$30,$30,$30,$58,$59,$5A,$5B,$5C,$30
	$9CDB               .byte $E6,$00,$30,$05,$E4,$00,$32,$07
DataTableEntry_1CE3
	$9CE3               .byte $31,$32,$E3,$00,$30,$05,$E6,$30,$30,$5D,$5E,$5F,$60,$61,$30,$30
	$9CF3               .byte $E6,$00,$30,$05,$E4,$00,$32,$07
DataTableEntry_1CFB
	$9CFB               .byte $31,$F4,$E5,$00,$E6,$07,$30,$62,$63,$64,$65,$66,$30,$00,$E6,$07
	$9D0B               .byte $E7,$F4,$00,$32,$06
DataTableEntry_1D10
	$9D10               .byte $31,$32,$E3,$00,$30,$05,$E6,$30,$30,$67,$EB,$30,$EC,$ED,$30,$30
	$9D20               .byte $E6,$00,$30,$05,$E4,$00,$32,$07
DataTableEntry_1D28
	$9D28               .byte $31,$32,$E3,$00,$30,$05,$E6,$30,$30,$EE,$EF,$F0,$F1,$F2,$30,$30
	$9D38               .byte $E6,$00,$30,$05,$E4,$00,$32,$07
DataTableEntry_1D40
	$9D40               .byte $31,$32,$E8,$00,$E9,$15,$EA,$00,$32,$07
_data_1D4A_indexed
	$9D4A               .byte $00,$00,$00,$00,$00,$00,$00,$00,$00,$00,$00,$00,$00,$00,$00,$00
	$9D5A               .byte $01,$02,$03,$04,$17,$18,$19,$1A,$05,$06,$06,$06,$06,$07,$06,$06
	$9D6A               .byte $06,$06,$08,$06,$06,$06,$06,$09,$06,$06,$06,$06,$0A,$06,$06,$06
	$9D7A               .byte $06,$0B,$06,$06,$06,$06,$0C,$06,$06,$06,$06,$0D,$06,$06,$06,$06
	$9D8A               .byte $0E,$06,$06,$06,$06,$0F,$06,$06
_data_1D92_indexed
	$9D92               .byte $11,$12,$13,$14,$15,$06,$06,$0F,$06,$06,$06,$06,$0E,$06,$06,$06
	$9DA2               .byte $06,$0D,$06,$06,$06,$06,$0C,$06,$06,$06,$06,$0B,$06,$06,$06,$06
	$9DB2               .byte $0A,$06,$06,$06,$06,$09,$06,$06,$06,$06,$08,$06,$06,$06,$06,$07
	$9DC2               .byte $06,$06,$06,$06,$05,$1A,$1A,$1A,$1A,$29,$00,$00,$00,$00,$00,$00
	$9DD2               .byte $00,$00,$00,$00,$00
_func_1DD7
	$9DD7  A5 10:       lda $10			/* A(??)X(??)Y(??)MAP[00:[00],01:[01],02:[02],03:[03],mmc:(un)]s(0)Z?S?*/
	$9DD9  85 12:       sta $12			/* A(??)X(F8)<4D6>Y(??)MAP[00:[00],01:[01],02:[02],03:[03],mmc:(un)]s(0)Z?S?*/
	$9DDB  A5 11:       lda $11			/* A(??)X(F8)<4D6>Y(??)MAP[00:[00],01:[01],02:[02],03:[03],mmc:(un)]s(0)Z?S?*/
	$9DDD  85 13:       sta $13			/* A(??)X(F8)<4D6>Y(??)MAP[00:[00],01:[01],02:[02],03:[03],mmc:(un)]s(0)Z?S?*/
	$9DDF  A0 00:       ldy #$00			/* A(??)X(F8)<4D6>Y(00)<1DDF>MAP[00:[00],01:[01],02:[02],03:[03],mmc:(un)]s(0)Z1S0*/
-	$9DE1  A5 12:       lda $12			/* A(??)X(F8)<4D6>Y(00)<1DDF>MAP[00:[00],01:[01],02:[02],03:[03],mmc:(un)]s(0)Z?S?*/
	$9DE3  38:          sec 			/* A(??)X(F8)<4D6>Y(00)<1DDF>MAP[00:[00],01:[01],02:[02],03:[03],mmc:(un)]s(0)Z?S?*/
	$9DE4  E9 F0:       sbc #$F0			/* A(??)X(F8)<4D6>Y(00)<1DDF>MAP[00:[00],01:[01],02:[02],03:[03],mmc:(un)]s(0)Z?S?*/
	$9DE6  85 12:       sta $12			/* A(??)X(F8)<4D6>Y(00)<1DDF>MAP[00:[00],01:[01],02:[02],03:[03],mmc:(un)]s(0)Z?S?*/
	$9DE8  A5 13:       lda $13			/* A(??)X(F8)<4D6>Y(00)<1DDF>MAP[00:[00],01:[01],02:[02],03:[03],mmc:(un)]s(0)Z?S?*/
	$9DEA  E9 00:       sbc #$00			/* A(??)X(F8)<4D6>Y(00)<1DDF>MAP[00:[00],01:[01],02:[02],03:[03],mmc:(un)]s(0)Z?S?*/
	$9DEC  85 13:       sta $13			/* A(??)X(F8)<4D6>Y(00)<1DDF>MAP[00:[00],01:[01],02:[02],03:[03],mmc:(un)]s(0)Z?S?*/
	$9DEE  90 03:       bcc +		; $9DF3			/* A(??)X(F8)<4D6>Y(00)<1DDF>MAP[00:[00],01:[01],02:[02],03:[03],mmc:(un)]s(0)Z?S?*/
	$9DF0  C8:          iny 			/* A(??)X(F8)<4D6>Y(??)MAP[00:[00],01:[01],02:[02],03:[03],mmc:(un)]s(0)Z?S?*/
	$9DF1  D0 EE:       bne -		; $9DE1			/* A(??)X(F8)<4D6>Y(??)MAP[00:[00],01:[01],02:[02],03:[03],mmc:(un)]s(0)Z?S?*/
+	$9DF3  98:          tya 			/* A(00)<1DF3>X(F8)<4D6>Y(00)<1DDF>MAP[00:[00],01:[01],02:[02],03:[03],mmc:(un)]s(0)Z?S?*/
	$9DF4  0A:          asl a			/* A(??)X(F8)<4D6>Y(00)<1DDF>MAP[00:[00],01:[01],02:[02],03:[03],mmc:(un)]s(0)Z?S?*/
	$9DF5  0A:          asl a			/* A(??)X(F8)<4D6>Y(00)<1DDF>MAP[00:[00],01:[01],02:[02],03:[03],mmc:(un)]s(0)Z?S?*/
	$9DF6  0A:          asl a			/* A(??)X(F8)<4D6>Y(00)<1DDF>MAP[00:[00],01:[01],02:[02],03:[03],mmc:(un)]s(0)Z?S?*/
	$9DF7  0A:          asl a			/* A(??)X(F8)<4D6>Y(00)<1DDF>MAP[00:[00],01:[01],02:[02],03:[03],mmc:(un)]s(0)Z?S?*/
	$9DF8  18:          clc 			/* A(??)X(F8)<4D6>Y(00)<1DDF>MAP[00:[00],01:[01],02:[02],03:[03],mmc:(un)]s(0)Z?S?*/
	$9DF9  65 10:       adc $10			/* A(??)X(F8)<4D6>Y(00)<1DDF>MAP[00:[00],01:[01],02:[02],03:[03],mmc:(un)]s(0)Z?S?*/
	$9DFB  85 12:       sta $12			/* A(??)X(F8)<4D6>Y(00)<1DDF>MAP[00:[00],01:[01],02:[02],03:[03],mmc:(un)]s(0)Z?S?*/
	$9DFD  A9 00:       lda #$00			/* A(00)<1DFD>X(F8)<4D6>Y(00)<1DDF>MAP[00:[00],01:[01],02:[02],03:[03],mmc:(un)]s(0)Z1S0*/
	$9DFF  65 11:       adc $11			/* A(??)X(F8)<4D6>Y(00)<1DDF>MAP[00:[00],01:[01],02:[02],03:[03],mmc:(un)]s(0)Z?S?*/
	$9E01  85 13:       sta $13			/* A(??)X(F8)<4D6>Y(00)<1DDF>MAP[00:[00],01:[01],02:[02],03:[03],mmc:(un)]s(0)Z?S?*/
	$9E03  60:          rts 			/* A(??)X(F8)<4D6>Y(00)<1DDF>MAP[00:[00],01:[01],02:[02],03:[03],mmc:(un)]s(0)Z?S?*/(barrier)
;------------------------------------------
_func_1E04
	$9E04  A0 07:       ldy #$07			/* A(??)X(??)Y(07)<1E04>MAP[00:[00],01:[01],02:[02],03:[03],mmc:(un)]s(0)Z0S0*/
-	$9E06  B1 12:       lda ($12),y			/* A(??)X(??)Y(07)<1E04>MAP[00:[00],01:[01],02:[02],03:[03],mmc:(un)]s(0)Z?S?*/
	$9E08  99 71 00:    sta $0071,y			/* A(??)X(??)Y(07)<1E04>MAP[00:[00],01:[01],02:[02],03:[03],mmc:(un)]s(0)Z?S?*/
	$9E0B  88:          dey 			/* A(??)X(??)Y(??)MAP[00:[00],01:[01],02:[02],03:[03],mmc:(un)]s(0)Z?S?*/
	$9E0C  10 F8:       bpl -		; $9E06			/* A(??)X(??)Y(??)MAP[00:[00],01:[01],02:[02],03:[03],mmc:(un)]s(0)Z?S?*/
	$9E0E  A5 FC:       lda $FC			/* A(??)X(??)Y(??)MAP[00:[00],01:[01],02:[02],03:[03],mmc:(un)]s(0)Z?S?*/
	$9E10  10 06:       bpl _func_1E18			/* A(??)X(??)Y(??)MAP[00:[00],01:[01],02:[02],03:[03],mmc:(un)]s(0)Z?S?*/
	$9E12  A5 73:       lda $73			/* A(??)X(??)Y(??)MAP[00:[00],01:[01],02:[02],03:[03],mmc:(un)]s(0)Z?S?*/
	$9E14  49 02:       eor #$02			/* A(??)X(??)Y(??)MAP[00:[00],01:[01],02:[02],03:[03],mmc:(un)]s(0)Z?S?*/
	$9E16  85 73:       sta $73			/* A(??)X(??)Y(??)MAP[00:[00],01:[01],02:[02],03:[03],mmc:(un)]s(0)Z?S?*/
_func_1E18
	$9E18  86 58:       stx $58			/* A(??)X(??)Y(??)MAP[00:[00],01:[01],02:[02],03:[03],mmc:(un)]s(0)Z?S?*/
	$9E1A  A6 14:       ldx $14			/* A(??)X(??)Y(??)MAP[00:[00],01:[01],02:[02],03:[03],mmc:(un)]s(1)Z?S?*/
	$9E1C  A0 00:       ldy #$00			/* A(??)X(??)Y(00)<1E1C>MAP[00:[00],01:[01],02:[02],03:[03],mmc:(un)]s(1)Z1S0*/
	$9E1E  A9 01:       lda #$01			/* A(01)<1E1E>X(??)Y(00)<1E1C>MAP[00:[00],01:[01],02:[02],03:[03],mmc:(un)]s(1)Z0S0*/
	$9E20  85 14:       sta $14			/* A(01)<1E1E>X(??)Y(00)<1E1C>MAP[00:[00],01:[01],02:[02],03:[03],mmc:(un)]s(1)Z0S0*/
-	$9E22  B9 71 00:    lda $0071,y			/* A(??)X(??)Y(00)<1E1C>MAP[00:[00],01:[01],02:[02],03:[03],mmc:(un)]s(0)Z?S?*/
	$9E25  C9 80:       cmp #$80			/* A(??)X(??)Y(00)<1E1C>MAP[00:[00],01:[01],02:[02],03:[03],mmc:(un)]s(1)Z?S?*/
	$9E27  D0 04:       bne +		; $9E2D			/* A(??)X(??)Y(00)<1E1C>MAP[00:[00],01:[01],02:[02],03:[03],mmc:(un)]s(1)Z?S?*/
	$9E29  A9 F0:       lda #$F0			/* A(F0)<1E29>X(??)Y(00)<1E1C>MAP[00:[00],01:[01],02:[02],03:[03],mmc:(un)]s(1)Z0S1*/
	$9E2B  D0 03:       bne ++		; $9E30			/* A(F0)<1E29>X(??)Y(00)<1E1C>MAP[00:[00],01:[01],02:[02],03:[03],mmc:(un)]s(1)Z0S1*/(barrier)

+	$9E2D  18:          clc 			/* A(F0)<1E29>X(??)Y(00)<1E1C>MAP[00:[00],01:[01],02:[02],03:[03],mmc:(un)]s(1)Z0S1*/
	$9E2E  65 11:       adc $11			/* A(??)X(??)Y(00)<1E1C>MAP[00:[00],01:[01],02:[02],03:[03],mmc:(un)]s(0)Z?S?*/
++	$9E30  9D 00 07:    sta $0700,x			/* A(F0)<1E29>X(??)Y(00)<1E1C>MAP[00:[00],01:[01],02:[02],03:[03],mmc:(un)]s(1)Z0S1*/
	$9E33  C8:          iny 			/* A(??)X(??)Y(??)MAP[00:[00],01:[01],02:[02],03:[03],mmc:(un)]s(0)Z?S?*/
	$9E34  B9 71 00:    lda $0071,y			/* A(??)X(??)Y(??)MAP[00:[00],01:[01],02:[02],03:[03],mmc:(un)]s(0)Z?S?*/
	$9E37  9D 01 07:    sta $0701,x			/* A(??)X(??)Y(??)MAP[00:[00],01:[01],02:[02],03:[03],mmc:(un)]s(0)Z?S?*/
	$9E3A  C8:          iny 			/* A(??)X(??)Y(??)MAP[00:[00],01:[01],02:[02],03:[03],mmc:(un)]s(0)Z?S?*/
	$9E3B  B9 71 00:    lda $0071,y			/* A(??)X(??)Y(??)MAP[00:[00],01:[01],02:[02],03:[03],mmc:(un)]s(0)Z?S?*/
	$9E3E  9D 02 07:    sta $0702,x			/* A(??)X(??)Y(??)MAP[00:[00],01:[01],02:[02],03:[03],mmc:(un)]s(0)Z?S?*/
	$9E41  C8:          iny 			/* A(??)X(??)Y(??)MAP[00:[00],01:[01],02:[02],03:[03],mmc:(un)]s(0)Z?S?*/
	$9E42  B9 71 00:    lda $0071,y			/* A(??)X(??)Y(??)MAP[00:[00],01:[01],02:[02],03:[03],mmc:(un)]s(0)Z?S?*/
	$9E45  18:          clc 			/* A(??)X(??)Y(??)MAP[00:[00],01:[01],02:[02],03:[03],mmc:(un)]s(0)Z?S?*/
	$9E46  65 10:       adc $10			/* A(??)X(??)Y(??)MAP[00:[00],01:[01],02:[02],03:[03],mmc:(un)]s(0)Z?S?*/
	$9E48  9D 03 07:    sta $0703,x			/* A(??)X(??)Y(??)MAP[00:[00],01:[01],02:[02],03:[03],mmc:(un)]s(0)Z?S?*/
	$9E4B  C8:          iny 			/* A(??)X(??)Y(??)MAP[00:[00],01:[01],02:[02],03:[03],mmc:(un)]s(0)Z?S?*/
	$9E4C  E8:          inx 			/* A(??)X(??)Y(??)MAP[00:[00],01:[01],02:[02],03:[03],mmc:(un)]s(0)Z?S?*/
	$9E4D  E8:          inx 			/* A(??)X(??)Y(??)MAP[00:[00],01:[01],02:[02],03:[03],mmc:(un)]s(0)Z?S?*/
	$9E4E  E8:          inx 			/* A(??)X(??)Y(??)MAP[00:[00],01:[01],02:[02],03:[03],mmc:(un)]s(0)Z?S?*/
	$9E4F  E8:          inx 			/* A(??)X(??)Y(??)MAP[00:[00],01:[01],02:[02],03:[03],mmc:(un)]s(0)Z?S?*/
	$9E50  C6 14:       dec $14			/* A(??)X(??)Y(??)MAP[00:[00],01:[01],02:[02],03:[03],mmc:(un)]s(0)Z?S?*/
	$9E52  10 CE:       bpl -		; $9E22			/* A(??)X(??)Y(??)MAP[00:[00],01:[01],02:[02],03:[03],mmc:(un)]s(0)Z?S?*/
	$9E54  A6 58:       ldx $58			/* A(??)X(??)Y(??)MAP[00:[00],01:[01],02:[02],03:[03],mmc:(un)]s(0)Z?S?*/
	$9E56  60:          rts 			/* A(??)X(??)Y(??)MAP[00:[00],01:[01],02:[02],03:[03],mmc:(un)]s(0)Z?S?*/(barrier)
;------------------------------------------
_JumpPointerTable_1E57
	$9E57  A8 A3:       .word (JumpTableEntry_23A8) ;A3A8 (23A8) ()
	$9E59  FB A0:       .word (JumpTableEntry_20FB) ;A0FB (20FB) ()
	$9E5B  F3 A7:       .word (JumpTableEntry_27F3) ;A7F3 (27F3) ()
	$9E5D  EC A3:       .word (JumpTableEntry_23EC) ;A3EC (23EC) ()
	$9E5F  6B A4:       .word (JumpTableEntry_246B) ;A46B (246B) ()
	$9E61  20 AB:       .word (JumpTableEntry_2B20) ;AB20 (2B20) ()
	$9E63  12 A6:       .word (JumpTableEntry_2612) ;A612 (2612) ()
	$9E65  4F A9:       .word (JumpTableEntry_294F) ;A94F (294F) ()
	$9E67  9B A9:       .word (JumpTableEntry_299B) ;A99B (299B) ()
	$9E69  1A AD:       .word (JumpTableEntry_2D1A) ;AD1A (2D1A) ()
	$9E6B  86 AE:       .word (JumpTableEntry_2E86) ;AE86 (2E86) ()
	$9E6D  F8 AA:       .word (JumpTableEntry_2AF8) ;AAF8 (2AF8) ()
	$9E6F  7B AC:       .word (JumpTableEntry_2C7B) ;AC7B (2C7B) ()
	$9E71  77 AF:       .word (JumpTableEntry_2F77) ;AF77 (2F77) ()
	$9E73  A8 AE:       .word (JumpTableEntry_2EA8) ;AEA8 (2EA8) ()
	$9E75  46 AF:       .word (JumpTableEntry_2F46) ;AF46 (2F46) ()
_func_1E77
	$9E77  8A:          txa 			/* A(F8)<1E77>X(F8)<4D6>Y(??)MAP[00:[00],01:[01],02:[02],03:[03],mmc:(un)]s(0)Z0S1*/
	$9E78  18:          clc 			/* A(F8)<1E77>X(F8)<4D6>Y(??)MAP[00:[00],01:[01],02:[02],03:[03],mmc:(un)]s(0)Z0S1*/
	$9E79  69 08:       adc #$08			/* A(??)X(F8)<4D6>Y(??)MAP[00:[00],01:[01],02:[02],03:[03],mmc:(un)]s(0)Z?S?*/
	$9E7B  AA:          tax 			/* A(??)X(??)Y(??)MAP[00:[00],01:[01],02:[02],03:[03],mmc:(un)]s(0)Z?S?*/
	$9E7C  86 58:       stx $58			/* A(??)X(??)Y(??)MAP[00:[00],01:[01],02:[02],03:[03],mmc:(un)]s(0)Z?S?*/
	$9E7E  BD 00 03:    lda $0300,x			/* A(??)X(??)Y(??)MAP[00:[00],01:[01],02:[02],03:[03],mmc:(un)]s(0)Z?S?*/
	$9E81  10 04:       bpl +		; $9E87			/* A(??)X(??)Y(??)MAP[00:[00],01:[01],02:[02],03:[03],mmc:(un)]s(0)Z?S?*/
	$9E83  A0 00:       ldy #$00			/* A(??)X(??)Y(00)<1E83>MAP[00:[00],01:[01],02:[02],03:[03],mmc:(un)]s(0)Z1S0*/
	$9E85  F0 04:       beq ++		; $9E8B			/* A(??)X(??)Y(00)<1E83>MAP[00:[00],01:[01],02:[02],03:[03],mmc:(un)]s(0)Z1S0*/(barrier)

+	$9E87  29 0F:       and #$0F			/* A(??)X(??)Y(00)<1E83>MAP[00:[00],01:[01],02:[02],03:[03],mmc:(un)]s(0)Z1S0*/
	$9E89  0A:          asl a			/* A(??)X(??)Y(??)MAP[00:[00],01:[01],02:[02],03:[03],mmc:(un)]s(0)Z?S?*/
	$9E8A  A8:          tay 			/* A(??)X(??)Y(??)MAP[00:[00],01:[01],02:[02],03:[03],mmc:(un)]s(0)Z?S?*/
++	$9E8B  B9 57 9E:    lda _JumpPointerTable_1E57,y			/* A$1E57,y<1E8B>X(??)Y(00)<1E83>MAP[00:[00],01:[01],02:[02],03:[03],mmc:(un)]s(0)Z1S0*/
	$9E8E  85 10:       sta $10			/* A$1E57,y<1E8B>X(??)Y(??)MAP[00:[00],01:[01],02:[02],03:[03],mmc:(un)]s(0)Z?S?*/
	$9E90  B9 58 9E:    lda _JumpPointerTable_1E57+1,y			/* A$1E58,y<1E90>X(??)Y(??)MAP[00:[00],01:[01],02:[02],03:[03],mmc:(un)]s(0)Z?S?*/
	$9E93  85 11:       sta $11			/* A$1E58,y<1E90>X(??)Y(??)MAP[00:[00],01:[01],02:[02],03:[03],mmc:(un)]s(0)Z?S?*/
	$9E95  24 4C:       bit $4C			/* A(??)X(??)Y(??)MAP[00:[00],01:[01],02:[02],03:[03],mmc:(un)]s(0)Z?S?*/
	$9E97  70 2D:       bvs ++		; $9EC6			/* A(??)X(??)Y(??)MAP[00:[00],01:[01],02:[02],03:[03],mmc:(un)]s(0)Z?S?*/
	$9E99  E4 79:       cpx $79			/* A(??)X(??)Y(??)MAP[00:[00],01:[01],02:[02],03:[03],mmc:(un)]s(0)Z?S?*/
	$9E9B  D0 29:       bne ++		; $9EC6			/* A(??)X(??)Y(??)MAP[00:[00],01:[01],02:[02],03:[03],mmc:(un)]s(0)Z?S?*/
	$9E9D  A9 02:       lda #$02			/* A(02)<1E9D>X(??)Y(??)MAP[00:[00],01:[01],02:[02],03:[03],mmc:(un)]s(0)Z0S0*/
	$9E9F  85 FE:       sta $FE			/* A(02)<1E9D>X(??)Y(??)MAP[00:[00],01:[01],02:[02],03:[03],mmc:(un)]s(0)Z0S0*/
	$9EA1  BD 01 03:    lda $0301,x			/* A(??)X(??)Y(??)MAP[00:[00],01:[01],02:[02],03:[03],mmc:(un)]s(0)Z?S?*/
	$9EA4  29 C0:       and #$C0			/* A(??)X(??)Y(??)MAP[00:[00],01:[01],02:[02],03:[03],mmc:(un)]s(0)Z?S?*/
	$9EA6  F0 1E:       beq ++		; $9EC6			/* A(??)X(??)Y(??)MAP[00:[00],01:[01],02:[02],03:[03],mmc:(un)]s(0)Z?S?*/
	$9EA8  BD 01 03:    lda $0301,x			/* A(??)X(??)Y(??)MAP[00:[00],01:[01],02:[02],03:[03],mmc:(un)]s(0)Z?S?*/
	$9EAB  29 30:       and #$30			/* A(??)X(??)Y(??)MAP[00:[00],01:[01],02:[02],03:[03],mmc:(un)]s(0)Z?S?*/
	$9EAD  F0 04:       beq +		; $9EB3			/* A(??)X(??)Y(??)MAP[00:[00],01:[01],02:[02],03:[03],mmc:(un)]s(0)Z?S?*/
	$9EAF  A9 05:       lda #$05			/* A(05)<1EAF>X(??)Y(??)MAP[00:[00],01:[01],02:[02],03:[03],mmc:(un)]s(0)Z0S0*/
	$9EB1  85 FE:       sta $FE			/* A(05)<1EAF>X(??)Y(??)MAP[00:[00],01:[01],02:[02],03:[03],mmc:(un)]s(0)Z0S0*/
+	$9EB3  BD 05 03:    lda $0305,x			/* A(05)<1EAF>X(??)Y(??)MAP[00:[00],01:[01],02:[02],03:[03],mmc:(un)]s(0)Z0S0*/
	$9EB6  18:          clc 			/* A(??)X(??)Y(??)MAP[00:[00],01:[01],02:[02],03:[03],mmc:(un)]s(0)Z?S?*/
	$9EB7  6D 9A 03:    adc $039A			/* A(??)X(??)Y(??)MAP[00:[00],01:[01],02:[02],03:[03],mmc:(un)]s(0)Z?S?*/
	$9EBA  9D 05 03:    sta $0305,x			/* A(??)X(??)Y(??)MAP[00:[00],01:[01],02:[02],03:[03],mmc:(un)]s(0)Z?S?*/
	$9EBD  BD 06 03:    lda $0306,x			/* A(??)X(??)Y(??)MAP[00:[00],01:[01],02:[02],03:[03],mmc:(un)]s(0)Z?S?*/
	$9EC0  6D 9B 03:    adc $039B			/* A(??)X(??)Y(??)MAP[00:[00],01:[01],02:[02],03:[03],mmc:(un)]s(0)Z?S?*/
	$9EC3  9D 06 03:    sta $0306,x			/* A(??)X(??)Y(??)MAP[00:[00],01:[01],02:[02],03:[03],mmc:(un)]s(0)Z?S?*/
++	$9EC6  A9 9E:       lda #>_func_1ECF			/* A(??)X(??)Y(??)MAP[00:[00],01:[01],02:[02],03:[03],mmc:(un)]s(0)Z?S?*/
	$9EC8  48:          pha 			/* A(9E)<1EC6>X(??)Y(??)MAP[00:[00],01:[01],02:[02],03:[03],mmc:(un)]s(1)Z0S1*/
	$9EC9  A9 CF:        lda #<_func_1ECF			/* A(CF)<1EC9>X(??)Y(??)MAP[00:[00],01:[01],02:[02],03:[03],mmc:(un)]s(1)Z0S1*/
	$9ECB  48:           pha 			/* A(CF)<1EC9>X(??)Y(??)MAP[00:[00],01:[01],02:[02],03:[03],mmc:(un)]s(2)Z0S1*/
	$9ECC  6C 10 00:      jmp ($0010)			/* A(CF)<1EC9>X(??)Y(??)MAP[00:[00],01:[01],02:[02],03:[03],mmc:(un)]s(2)Z0S1*/
_func_1ECF
                            ; Delay loop begin: 2 cycles (2.0 cycles per byte); ends at $1ED0
	$9ECF  EA:          nop 			/* A(??)X(??)Y(??)MAP[00:[00],01:[01],02:[02],03:[03],mmc:(un)]s(1)Z0S1*/
                            ; End of delay loop (1 bytes)
	$9ED0  20 0A A0:    jsr _func_200A			/* A(??)X(??)Y(??)MAP[00:(??),01:(??),02:(??),03:(??),mmc:(un)]s(0)Z?S?*/
	$9ED3  20 A9 9F:    jsr _func_1FA9			/* A(??)X(??)Y(??)MAP[00:(??),01:(??),02:(??),03:(??),mmc:(un)]s(0)Z?S?*/
	$9ED6  BD 00 03:    lda $0300,x			/* A(??)X(??)Y(??)MAP[00:[00],01:[01],02:[02],03:[03],mmc:(un)]s(0)Z?S?*/
	$9ED9  29 1F:       and #$1F			/* A(??)X(??)Y(??)MAP[00:[00],01:[01],02:[02],03:[03],mmc:(un)]s(0)Z?S?*/
	$9EDB  C9 0C:       cmp #$0C			/* A(??)X(??)Y(??)MAP[00:[00],01:[01],02:[02],03:[03],mmc:(un)]s(0)Z?S?*/
	$9EDD  D0 23:       bne _func_1F02			/* A(??)X(??)Y(??)MAP[00:[00],01:[01],02:[02],03:[03],mmc:(un)]s(0)Z?S?*/
	$9EDF  A5 10:       lda $10			/* A(??)X(??)Y(??)MAP[00:[00],01:[01],02:[02],03:[03],mmc:(un)]s(0)Z?S?*/
	$9EE1  48:          pha 			/* A(??)X(??)Y(??)MAP[00:[00],01:[01],02:[02],03:[03],mmc:(un)]s(1)Z?S?*/
	$9EE2  A5 11:        lda $11			/* A(??)X(??)Y(??)MAP[00:[00],01:[01],02:[02],03:[03],mmc:(un)]s(1)Z?S?*/
	$9EE4  48:           pha 			/* A(??)X(??)Y(??)MAP[00:[00],01:[01],02:[02],03:[03],mmc:(un)]s(2)Z?S?*/
	$9EE5  A5 12:         lda $12			/* A(??)X(??)Y(??)MAP[00:[00],01:[01],02:[02],03:[03],mmc:(un)]s(2)Z?S?*/
	$9EE7  48:            pha 			/* A(??)X(??)Y(??)MAP[00:[00],01:[01],02:[02],03:[03],mmc:(un)]s(3)Z?S?*/
	$9EE8  A5 13:          lda $13			/* A(??)X(??)Y(??)MAP[00:[00],01:[01],02:[02],03:[03],mmc:(un)]s(3)Z?S?*/
	$9EEA  48:             pha 			/* A(??)X(??)Y(??)MAP[00:[00],01:[01],02:[02],03:[03],mmc:(un)]s(4)Z?S?*/
	$9EEB  A9 F8:           lda #$F8			/* A(F8)<1EEB>X(??)Y(??)MAP[00:[00],01:[01],02:[02],03:[03],mmc:(un)]s(4)Z0S1*/
	$9EED  85 11:           sta $11			/* A(F8)<1EEB>X(??)Y(??)MAP[00:[00],01:[01],02:[02],03:[03],mmc:(un)]s(4)Z0S1*/
	$9EEF  20 02 9F:        jsr _func_1F02			/* A(??)X(??)Y(??)MAP[00:(??),01:(??),02:(??),03:(??),mmc:(un)]s(4)Z?S?*/
	$9EF2  68:             pla 			/* A(??)X(??)Y(??)MAP[00:[00],01:[01],02:[02],03:[03],mmc:(un)]s(0)Z?S?*/
	$9EF3  85 13:          sta $13			/* A(??)X(??)Y(??)MAP[00:[00],01:[01],02:[02],03:[03],mmc:(un)]s(0)Z?S?*/
	$9EF5  68:            pla 			/* A(??)X(??)Y(??)MAP[00:[00],01:[01],02:[02],03:[03],mmc:(un)]s(0)Z?S?*/
	$9EF6  85 12:         sta $12			/* A(??)X(??)Y(??)MAP[00:[00],01:[01],02:[02],03:[03],mmc:(un)]s(0)Z?S?*/
	$9EF8  68:           pla 			/* A(??)X(??)Y(??)MAP[00:[00],01:[01],02:[02],03:[03],mmc:(un)]s(0)Z?S?*/
	$9EF9  85 11:        sta $11			/* A(??)X(??)Y(??)MAP[00:[00],01:[01],02:[02],03:[03],mmc:(un)]s(0)Z?S?*/
	$9EFB  68:          pla 			/* A(??)X(??)Y(??)MAP[00:[00],01:[01],02:[02],03:[03],mmc:(un)]s(0)Z?S?*/
	$9EFC  85 10:       sta $10			/* A(??)X(??)Y(??)MAP[00:[00],01:[01],02:[02],03:[03],mmc:(un)]s(0)Z?S?*/
	$9EFE  A9 00:       lda #$00			/* A(00)<1EFE>X(??)Y(??)MAP[00:[00],01:[01],02:[02],03:[03],mmc:(un)]s(0)Z1S0*/
	$9F00  85 14:       sta $14			/* A(00)<1EFE>X(??)Y(??)MAP[00:[00],01:[01],02:[02],03:[03],mmc:(un)]s(0)Z1S0*/
_func_1F02
	$9F02  A5 67:       lda $67			/* A(83)<829>X(90)<7F2>Y(??)MAP[00:[00],01:[01],02:[02],03:[03],mmc:(un)]s(0)Z?S?*/
	$9F04  F0 1B:       beq ++		; $9F21			/* A(??)X(??)Y(??)MAP[00:[00],01:[01],02:[02],03:[03],mmc:(un)]s(0)Z?S?*/
	$9F06  BD 00 03:    lda $0300,x			/* A(??)X(??)Y(??)MAP[00:[00],01:[01],02:[02],03:[03],mmc:(un)]s(0)Z?S?*/
	$9F09  29 1F:       and #$1F			/* A(??)X(??)Y(??)MAP[00:[00],01:[01],02:[02],03:[03],mmc:(un)]s(0)Z?S?*/
	$9F0B  C9 07:       cmp #$07			/* A(??)X(??)Y(??)MAP[00:[00],01:[01],02:[02],03:[03],mmc:(un)]s(0)Z?S?*/
	$9F0D  D0 07:       bne +		; $9F16			/* A(??)X(??)Y(??)MAP[00:[00],01:[01],02:[02],03:[03],mmc:(un)]s(0)Z?S?*/
	$9F0F  A9 00:       lda #$00			/* A(00)<1F0F>X(??)Y(??)MAP[00:[00],01:[01],02:[02],03:[03],mmc:(un)]s(0)Z1S0*/
	$9F11  85 11:       sta $11			/* A(00)<1F0F>X(??)Y(??)MAP[00:[00],01:[01],02:[02],03:[03],mmc:(un)]s(0)Z1S0*/
	$9F13  20 80 A9:    jsr _func_2980			/* A(??)X(??)Y(??)MAP[00:(??),01:(??),02:(??),03:(??),mmc:(un)]s(0)Z?S?*/
+	$9F16  C9 08:       cmp #$08			/* A(00)<1F0F>X(??)Y(??)MAP[00:[00],01:[01],02:[02],03:[03],mmc:(un)]s(0)Z?S?*/
	$9F18  D0 07:       bne ++		; $9F21			/* A(??)X(??)Y(??)MAP[00:[00],01:[01],02:[02],03:[03],mmc:(un)]s(0)Z?S?*/
	$9F1A  A9 00:       lda #$00			/* A(00)<1F1A>X(??)Y(??)MAP[00:[00],01:[01],02:[02],03:[03],mmc:(un)]s(0)Z1S0*/
	$9F1C  85 11:       sta $11			/* A(00)<1F1A>X(??)Y(??)MAP[00:[00],01:[01],02:[02],03:[03],mmc:(un)]s(0)Z1S0*/
	$9F1E  20 A4 A9:    jsr _func_29A4			/* A(??)X(??)Y(??)MAP[00:(??),01:(??),02:(??),03:(??),mmc:(un)]s(0)Z?S?*/
++	$9F21  A5 13:       lda $13			/* A(00)<1F1A>X(??)Y(??)MAP[00:[00],01:[01],02:[02],03:[03],mmc:(un)]s(0)Z?S?*/
	$9F23  10 05:       bpl +		; $9F2A			/* A(??)X(??)Y(??)MAP[00:[00],01:[01],02:[02],03:[03],mmc:(un)]s(0)Z?S?*/
	$9F25  29 33:       and #$33			/* A(??)X(??)Y(??)MAP[00:[00],01:[01],02:[02],03:[03],mmc:(un)]s(0)Z?S?*/
	$9F27  4C 49 9F:    jmp ++		; $9F49			/* A(??)X(??)Y(??)MAP[00:[00],01:[01],02:[02],03:[03],mmc:(un)]s(0)Z?S?*/(barrier)

+	$9F2A  A5 67:       lda $67			/* A(??)X(??)Y(??)MAP[00:[00],01:[01],02:[02],03:[03],mmc:(un)]s(0)Z?S?*/
	$9F2C  F0 08:       beq +		; $9F36			/* A(??)X(??)Y(??)MAP[00:[00],01:[01],02:[02],03:[03],mmc:(un)]s(0)Z?S?*/
	$9F2E  E4 79:       cpx $79			/* A(??)X(??)Y(??)MAP[00:[00],01:[01],02:[02],03:[03],mmc:(un)]s(0)Z?S?*/
	$9F30  D0 04:       bne +		; $9F36			/* A(??)X(??)Y(??)MAP[00:[00],01:[01],02:[02],03:[03],mmc:(un)]s(0)Z?S?*/
	$9F32  A9 11:       lda #$11			/* A(11)<1F32>X(??)Y(??)MAP[00:[00],01:[01],02:[02],03:[03],mmc:(un)]s(0)Z0S0*/
	$9F34  85 13:       sta $13			/* A(11)<1F32>X(??)Y(??)MAP[00:[00],01:[01],02:[02],03:[03],mmc:(un)]s(0)Z0S0*/
+	$9F36  A5 FC:       lda $FC			/* A(11)<1F32>X(??)Y(??)MAP[00:[00],01:[01],02:[02],03:[03],mmc:(un)]s(0)Z0S0*/
	$9F38  30 05:       bmi +		; $9F3F			/* A(??)X(??)Y(??)MAP[00:[00],01:[01],02:[02],03:[03],mmc:(un)]s(0)Z?S?*/
	$9F3A  A5 13:       lda $13			/* A(??)X(??)Y(??)MAP[00:[00],01:[01],02:[02],03:[03],mmc:(un)]s(0)Z?S?*/
	$9F3C  4C 49 9F:    jmp ++		; $9F49			/* A(??)X(??)Y(??)MAP[00:[00],01:[01],02:[02],03:[03],mmc:(un)]s(0)Z?S?*/(barrier)

+	$9F3F  A5 13:       lda $13			/* A(??)X(??)Y(??)MAP[00:[00],01:[01],02:[02],03:[03],mmc:(un)]s(0)Z?S?*/
	$9F41  4A:          lsr a			/* A(??)X(??)Y(??)MAP[00:[00],01:[01],02:[02],03:[03],mmc:(un)]s(0)Z?S?*/
	$9F42  4A:          lsr a			/* A(??)X(??)Y(??)MAP[00:[00],01:[01],02:[02],03:[03],mmc:(un)]s(0)Z?S?*/
	$9F43  4A:          lsr a			/* A(??)X(??)Y(??)MAP[00:[00],01:[01],02:[02],03:[03],mmc:(un)]s(0)Z?S?*/
	$9F44  4A:          lsr a			/* A(??)X(??)Y(??)MAP[00:[00],01:[01],02:[02],03:[03],mmc:(un)]s(0)Z?S?*/
	$9F45  A8:          tay 			/* A(??)X(??)Y(??)MAP[00:[00],01:[01],02:[02],03:[03],mmc:(un)]s(0)Z?S?*/
	$9F46  B9 D4 A3:    lda _data_23D4_indexed,y			/* A$23D4,y<1F46>X(??)Y(??)MAP[00:[00],01:[01],02:[02],03:[03],mmc:(un)]s(0)Z?S?*/
++	$9F49  48:          pha 			/* A$23D4,y<1F46>X(??)Y(??)MAP[00:[00],01:[01],02:[02],03:[03],mmc:(un)]s(0)Z?S?*/
	$9F4A  A5 12:        lda $12			/* A(??)X(??)Y(??)MAP[00:[00],01:[01],02:[02],03:[03],mmc:(un)]s(1)Z?S?*/
	$9F4C  10 11:        bpl +		; $9F5F			/* A(??)X(??)Y(??)MAP[00:[00],01:[01],02:[02],03:[03],mmc:(un)]s(1)Z?S?*/
	$9F4E  06 12:        asl $12			/* A(??)X(??)Y(??)MAP[00:[00],01:[01],02:[02],03:[03],mmc:(un)]s(1)Z?S?*/
	$9F50  06 12:        asl $12			/* A(??)X(??)Y(??)MAP[00:[00],01:[01],02:[02],03:[03],mmc:(un)]s(1)Z?S?*/
	$9F52  A5 1D:        lda $1D			/* A(??)X(??)Y(??)MAP[00:[00],01:[01],02:[02],03:[03],mmc:(un)]s(1)Z?S?*/
	$9F54  4A:           lsr a			/* A(??)X(??)Y(??)MAP[00:[00],01:[01],02:[02],03:[03],mmc:(un)]s(1)Z?S?*/
	$9F55  4A:           lsr a			/* A(??)X(??)Y(??)MAP[00:[00],01:[01],02:[02],03:[03],mmc:(un)]s(1)Z?S?*/
	$9F56  4A:           lsr a			/* A(??)X(??)Y(??)MAP[00:[00],01:[01],02:[02],03:[03],mmc:(un)]s(1)Z?S?*/
	$9F57  29 03:        and #$03			/* A(??)X(??)Y(??)MAP[00:[00],01:[01],02:[02],03:[03],mmc:(un)]s(1)Z?S?*/
	$9F59  05 12:        ora $12			/* A(??)X(??)Y(??)MAP[00:[00],01:[01],02:[02],03:[03],mmc:(un)]s(1)Z?S?*/
	$9F5B  A8:           tay 			/* A(??)X(??)Y(??)MAP[00:[00],01:[01],02:[02],03:[03],mmc:(un)]s(1)Z?S?*/
	$9F5C  B9 A6 B1:     lda _data_31A6_indexed,y			/* A$31A6,y<1F5C>X(??)Y(??)MAP[00:[00],01:[01],02:[02],03:[03],mmc:(un)]s(1)Z?S?*/
+	$9F5F  85 12:        sta $12			/* A$31A6,y<1F5C>X(??)Y(??)MAP[00:[00],01:[01],02:[02],03:[03],mmc:(un)]s(1)Z?S?*/
	$9F61  9D 07 03:     sta $0307,x			/* A(??)X(??)Y(??)MAP[00:[00],01:[01],02:[02],03:[03],mmc:(un)]s(0)Z?S?*/
	$9F64  A9 00:        lda #$00			/* A(00)<1F64>X(??)Y(??)MAP[00:[00],01:[01],02:[02],03:[03],mmc:(un)]s(0)Z1S0*/
	$9F66  85 13:        sta $13			/* A(00)<1F64>X(??)Y(??)MAP[00:[00],01:[01],02:[02],03:[03],mmc:(un)]s(0)Z1S0*/
	$9F68  06 12:        asl $12			/* A(??)X(??)Y(??)MAP[00:[00],01:[01],02:[02],03:[03],mmc:(un)]s(0)Z?S?*/
	$9F6A  26 13:        rol $13			/* A(??)X(??)Y(??)MAP[00:[00],01:[01],02:[02],03:[03],mmc:(un)]s(0)Z?S?*/
	$9F6C  06 12:        asl $12			/* A(??)X(??)Y(??)MAP[00:[00],01:[01],02:[02],03:[03],mmc:(un)]s(0)Z?S?*/
	$9F6E  26 13:        rol $13			/* A(??)X(??)Y(??)MAP[00:[00],01:[01],02:[02],03:[03],mmc:(un)]s(0)Z?S?*/
	$9F70  06 12:        asl $12			/* A(??)X(??)Y(??)MAP[00:[00],01:[01],02:[02],03:[03],mmc:(un)]s(0)Z?S?*/
	$9F72  26 13:        rol $13			/* A(??)X(??)Y(??)MAP[00:[00],01:[01],02:[02],03:[03],mmc:(un)]s(0)Z?S?*/
	$9F74  A9 06:        lda #$06			/* A(06)<1F74>X(??)Y(??)MAP[00:[00],01:[01],02:[02],03:[03],mmc:(un)]s(0)Z0S0*/
	$9F76  18:           clc 			/* A(06)<1F74>X(??)Y(??)MAP[00:[00],01:[01],02:[02],03:[03],mmc:(un)]s(0)Z0S0*/
	$9F77  65 12:        adc $12			/* A(??)X(??)Y(??)MAP[00:[00],01:[01],02:[02],03:[03],mmc:(un)]s(0)Z?S?*/
	$9F79  85 12:        sta $12			/* A(??)X(??)Y(??)MAP[00:[00],01:[01],02:[02],03:[03],mmc:(un)]s(0)Z?S?*/
	$9F7B  A9 B2:        lda #$B2			/* A(B2)<1F7B>X(??)Y(??)MAP[00:[00],01:[01],02:[02],03:[03],mmc:(un)]s(0)Z0S1*/
	$9F7D  65 13:        adc $13			/* A(??)X(??)Y(??)MAP[00:[00],01:[01],02:[02],03:[03],mmc:(un)]s(0)Z?S?*/
	$9F7F  85 13:        sta $13			/* A(??)X(??)Y(??)MAP[00:[00],01:[01],02:[02],03:[03],mmc:(un)]s(0)Z?S?*/
	$9F81  A0 07:        ldy #$07			/* A(??)X(??)Y(07)<1F81>MAP[00:[00],01:[01],02:[02],03:[03],mmc:(un)]s(0)Z0S0*/
-	$9F83  B1 12:        lda ($12),y			/* A(??)X(??)Y(07)<1F81>MAP[00:[00],01:[01],02:[02],03:[03],mmc:(un)]s(0)Z?S?*/
	$9F85  99 71 00:     sta $0071,y			/* A(??)X(??)Y(07)<1F81>MAP[00:[00],01:[01],02:[02],03:[03],mmc:(un)]s(0)Z?S?*/
	$9F88  88:           dey 			/* A(??)X(??)Y(??)MAP[00:[00],01:[01],02:[02],03:[03],mmc:(un)]s(0)Z?S?*/
	$9F89  10 F8:        bpl -		; $9F83			/* A(??)X(??)Y(??)MAP[00:[00],01:[01],02:[02],03:[03],mmc:(un)]s(0)Z?S?*/
	$9F8B  A5 14:        lda $14			/* A(??)X(??)Y(??)MAP[00:[00],01:[01],02:[02],03:[03],mmc:(un)]s(0)Z?S?*/
	$9F8D  48:           pha 			/* A(??)X(??)Y(??)MAP[00:[00],01:[01],02:[02],03:[03],mmc:(un)]s(1)Z?S?*/
	$9F8E  20 18 9E:      jsr _func_1E18			/* A(??)X(??)Y(??)MAP[00:(??),01:(??),02:(??),03:(??),mmc:(un)]s(1)Z?S?*/
	$9F91  68:           pla 			/* A(??)X(??)Y(??)MAP[00:[00],01:[01],02:[02],03:[03],mmc:(un)]s(0)Z?S?*/
	$9F92  A8:           tay 			/* A(??)X(??)Y(??)MAP[00:[00],01:[01],02:[02],03:[03],mmc:(un)]s(0)Z?S?*/
	$9F93  68:          pla 			/* A(??)X(??)Y(??)MAP[00:[00],01:[01],02:[02],03:[03],mmc:(un)]s(0)Z?S?*/
	$9F94  48:          pha 			/* A(??)X(??)Y(??)MAP[00:[00],01:[01],02:[02],03:[03],mmc:(un)]s(1)Z?S?*/
	$9F95  4A:           lsr a			/* A(??)X(??)Y(??)MAP[00:[00],01:[01],02:[02],03:[03],mmc:(un)]s(1)Z?S?*/
	$9F96  4A:           lsr a			/* A(??)X(??)Y(??)MAP[00:[00],01:[01],02:[02],03:[03],mmc:(un)]s(1)Z?S?*/
	$9F97  4A:           lsr a			/* A(??)X(??)Y(??)MAP[00:[00],01:[01],02:[02],03:[03],mmc:(un)]s(1)Z?S?*/
	$9F98  4A:           lsr a			/* A(??)X(??)Y(??)MAP[00:[00],01:[01],02:[02],03:[03],mmc:(un)]s(1)Z?S?*/
	$9F99  19 02 07:     ora $0702,y			/* A(??)X(??)Y(??)MAP[00:[00],01:[01],02:[02],03:[03],mmc:(un)]s(1)Z?S?*/
	$9F9C  99 02 07:     sta $0702,y			/* A(??)X(??)Y(??)MAP[00:[00],01:[01],02:[02],03:[03],mmc:(un)]s(1)Z?S?*/
	$9F9F  68:          pla 			/* A(??)X(??)Y(??)MAP[00:[00],01:[01],02:[02],03:[03],mmc:(un)]s(0)Z?S?*/
	$9FA0  29 03:       and #$03			/* A(??)X(??)Y(??)MAP[00:[00],01:[01],02:[02],03:[03],mmc:(un)]s(0)Z?S?*/
	$9FA2  19 06 07:    ora $0706,y			/* A(??)X(??)Y(??)MAP[00:[00],01:[01],02:[02],03:[03],mmc:(un)]s(0)Z?S?*/
	$9FA5  99 06 07:    sta $0706,y			/* A(??)X(??)Y(??)MAP[00:[00],01:[01],02:[02],03:[03],mmc:(un)]s(0)Z?S?*/
	$9FA8  60:          rts 			/* A(??)X(??)Y(??)MAP[00:[00],01:[01],02:[02],03:[03],mmc:(un)]s(0)Z?S?*/(barrier)
;------------------------------------------
_func_1FA9
	$9FA9  A5 1F:       lda $1F			/* A(??)X(??)Y(??)MAP[00:[00],01:[01],02:[02],03:[03],mmc:(un)]s(0)Z?S?*/
	$9FAB  29 03:       and #$03			/* A(??)X(??)Y(??)MAP[00:[00],01:[01],02:[02],03:[03],mmc:(un)]s(0)Z?S?*/
	$9FAD  A8:          tay 			/* A(??)X(??)Y(??)MAP[00:[00],01:[01],02:[02],03:[03],mmc:(un)]s(0)Z?S?*/
	$9FAE  A5 58:       lda $58			/* A(??)X(??)Y(??)MAP[00:[00],01:[01],02:[02],03:[03],mmc:(un)]s(0)Z?S?*/
	$9FB0  4A:          lsr a			/* A(??)X(??)Y(??)MAP[00:[00],01:[01],02:[02],03:[03],mmc:(un)]s(0)Z?S?*/
	$9FB1  4A:          lsr a			/* A(??)X(??)Y(??)MAP[00:[00],01:[01],02:[02],03:[03],mmc:(un)]s(0)Z?S?*/
	$9FB2  4A:          lsr a			/* A(??)X(??)Y(??)MAP[00:[00],01:[01],02:[02],03:[03],mmc:(un)]s(0)Z?S?*/
	$9FB3  18:          clc 			/* A(??)X(??)Y(??)MAP[00:[00],01:[01],02:[02],03:[03],mmc:(un)]s(0)Z?S?*/
	$9FB4  79 BE 9F:    adc _data_1FBE_indexed,y			/* A$1FBE,yX(??)Y(??)MAP[00:[00],01:[01],02:[02],03:[03],mmc:(un)]s(0)Z?S?*/
	$9FB7  A8:          tay 			/* A$1FBE,yX(??)Y$1FBE,yMAP[00:[00],01:[01],02:[02],03:[03],mmc:(un)]s(0)Z?S?*/
	$9FB8  B9 C2 9F:    lda _data_1FC2_indexed,y			/* A$1FC2,y<1FB8>X(??)Y$1FBE,yMAP[00:[00],01:[01],02:[02],03:[03],mmc:(un)]s(0)Z?S?*/
	$9FBB  85 14:       sta $14			/* A$1FC2,y<1FB8>X(??)Y$1FBE,yMAP[00:[00],01:[01],02:[02],03:[03],mmc:(un)]s(0)Z?S?*/
	$9FBD  60:          rts 			/* A$1FC2,y<1FB8>X(??)Y$1FBE,yMAP[00:[00],01:[01],02:[02],03:[03],mmc:(un)]s(0)Z?S?*/(barrier)
;------------------------------------------
_data_1FBE_indexed
	$9FBE               .byte $00,$12,$24,$36
_data_1FC2_indexed
	$9FC2               .byte $08,$10,$18,$20,$28,$30,$38,$40,$74,$7C,$84,$8C,$94,$9C,$A4,$AC
	$9FD2               .byte $B4,$BC,$40,$74,$7C,$84,$8C,$94,$9C,$A4,$AC,$B4,$BC,$08,$10,$18
	$9FE2               .byte $20,$28,$30,$38,$8C,$94,$9C,$A4,$AC,$B4,$BC,$08,$10,$18,$20,$28
	$9FF2               .byte $30,$38,$40,$74,$7C,$84,$AC,$B4,$BC,$08,$10,$18,$20,$28,$30,$38
	$A002               .byte $40,$74,$7C,$84,$8C,$94,$9C,$A4
_func_200A
	$A00A  A6 58:       ldx $58			/* A(??)X(??)Y(??)MAP[00:[00],01:[01],02:[02],03:[03],mmc:(un)]s(0)Z?S?*/
	$A00C  BD 05 03:    lda $0305,x			/* A(??)X(??)Y(??)MAP[00:[00],01:[01],02:[02],03:[03],mmc:(un)]s(0)Z?S?*/
	$A00F  38:          sec 			/* A(??)X(??)Y(??)MAP[00:[00],01:[01],02:[02],03:[03],mmc:(un)]s(0)Z?S?*/
	$A010  E5 4E:       sbc $4E			/* A(??)X(??)Y(??)MAP[00:[00],01:[01],02:[02],03:[03],mmc:(un)]s(0)Z?S?*/
	$A012  85 10:       sta $10			/* A(??)X(??)Y(??)MAP[00:[00],01:[01],02:[02],03:[03],mmc:(un)]s(0)Z?S?*/
	$A014  BD 06 03:    lda $0306,x			/* A(??)X(??)Y(??)MAP[00:[00],01:[01],02:[02],03:[03],mmc:(un)]s(0)Z?S?*/
	$A017  E5 4F:       sbc $4F			/* A(??)X(??)Y(??)MAP[00:[00],01:[01],02:[02],03:[03],mmc:(un)]s(0)Z?S?*/
	$A019  85 11:       sta $11			/* A(??)X(??)Y(??)MAP[00:[00],01:[01],02:[02],03:[03],mmc:(un)]s(0)Z?S?*/
	$A01B  A5 50:       lda $50			/* A(??)X(??)Y(??)MAP[00:[00],01:[01],02:[02],03:[03],mmc:(un)]s(0)Z?S?*/
	$A01D  18:          clc 			/* A(??)X(??)Y(??)MAP[00:[00],01:[01],02:[02],03:[03],mmc:(un)]s(0)Z?S?*/
	$A01E  65 10:       adc $10			/* A(??)X(??)Y(??)MAP[00:[00],01:[01],02:[02],03:[03],mmc:(un)]s(0)Z?S?*/
	$A020  85 10:       sta $10			/* A(??)X(??)Y(??)MAP[00:[00],01:[01],02:[02],03:[03],mmc:(un)]s(0)Z?S?*/
	$A022  A9 00:       lda #$00			/* A(00)<2022>X(??)Y(??)MAP[00:[00],01:[01],02:[02],03:[03],mmc:(un)]s(0)Z1S0*/
	$A024  65 11:       adc $11			/* A(??)X(??)Y(??)MAP[00:[00],01:[01],02:[02],03:[03],mmc:(un)]s(0)Z?S?*/
	$A026  D0 06:       bne +		; $A02E			/* A(??)X(??)Y(??)MAP[00:[00],01:[01],02:[02],03:[03],mmc:(un)]s(0)Z?S?*/
	$A028  A5 10:       lda $10			/* A(??)X(??)Y(??)MAP[00:[00],01:[01],02:[02],03:[03],mmc:(un)]s(0)Z?S?*/
	$A02A  C9 F8:       cmp #$F8			/* A(??)X(??)Y(??)MAP[00:[00],01:[01],02:[02],03:[03],mmc:(un)]s(0)Z?S?*/
	$A02C  90 02:       bcc ++		; $A030			/* A(??)X(??)Y(??)MAP[00:[00],01:[01],02:[02],03:[03],mmc:(un)]s(0)Z?S?*/
+	$A02E  A9 F8:       lda #$F8			/* A(??)X(??)Y(??)MAP[00:[00],01:[01],02:[02],03:[03],mmc:(un)]s(0)Z?S?*/
++	$A030  85 11:       sta $11			/* A(??)X(??)Y(??)MAP[00:[00],01:[01],02:[02],03:[03],mmc:(un)]s(0)Z?S?*/
	$A032  BD 04 03:    lda $0304,x			/* A(??)X(??)Y(??)MAP[00:[00],01:[01],02:[02],03:[03],mmc:(un)]s(0)Z?S?*/
	$A035  85 10:       sta $10			/* A(??)X(??)Y(??)MAP[00:[00],01:[01],02:[02],03:[03],mmc:(un)]s(0)Z?S?*/
	$A037  60:          rts 			/* A(??)X(??)Y(??)MAP[00:[00],01:[01],02:[02],03:[03],mmc:(un)]s(0)Z?S?*/(barrier)
;------------------------------------------
_func_2038
	$A038  20 D9 A9:    jsr _func_29D9			/* A(??)X(??)Y(??)MAP[00:[00],01:[01],02:[02],03:[03],mmc:(un)]s(0)Z?S?*/
	$A03B  A2 00:       ldx #$00			/* A(00)<250>X(00)<203B>Y(??)MAP[00:[00],01:[01],02:[02],03:[03],mmc:(un)]s(0)Z1S0*/
--	$A03D  A0 00:       ldy #$00			/* A(00)<250>X(00)<203B>Y(00)<203D>MAP[00:[00],01:[01],02:[02],03:[03],mmc:(un)]s(0)Z?S?*/
-	$A03F  B9 F3 A0:    lda _data_20F3_indexed,y			/* A$20F3,y<203F>X(00)<203B>Y(00)<203D>MAP[00:[00],01:[01],02:[02],03:[03],mmc:(un)]s(0)Z?S?*/
	$A042  9D 00 03:    sta $0300,x			/* A$20F3,y<203F>X(00)<203B>Y(00)<203D>MAP[00:[00],01:[01],02:[02],03:[03],mmc:(un)]s(0)Z?S?*/
	$A045  C8:          iny 			/* A(??)X(00)<203B>Y(??)MAP[00:[00],01:[01],02:[02],03:[03],mmc:(un)]s(0)Z?S?*/
	$A046  E8:          inx 			/* A(??)X(??)Y(??)MAP[00:[00],01:[01],02:[02],03:[03],mmc:(un)]s(0)Z?S?*/
	$A047  C0 08:       cpy #$08			/* A(??)X(??)Y(??)MAP[00:[00],01:[01],02:[02],03:[03],mmc:(un)]s(0)Z?S?*/
	$A049  90 F4:       bcc -		; $A03F			/* A(??)X(??)Y(??)MAP[00:[00],01:[01],02:[02],03:[03],mmc:(un)]s(0)Z?S?*/
	$A04B  E0 50:       cpx #$50			/* A(??)X(??)Y(??)MAP[00:[00],01:[01],02:[02],03:[03],mmc:(un)]s(0)Z?S?*/
	$A04D  90 05:       bcc +		; $A054			/* A(??)X(??)Y(??)MAP[00:[00],01:[01],02:[02],03:[03],mmc:(un)]s(0)Z?S?*/
	$A04F  A9 65:       lda #$65			/* A(65)<204F>X(??)Y(??)MAP[00:[00],01:[01],02:[02],03:[03],mmc:(un)]s(0)Z0S0*/
	$A051  9D FF 02:    sta $02FF,x			/* A(65)<204F>X(??)Y(??)MAP[00:[00],01:[01],02:[02],03:[03],mmc:(un)]s(0)Z0S0*/
+	$A054  E0 90:       cpx #$90			/* A(65)<204F>X(??)Y(??)MAP[00:[00],01:[01],02:[02],03:[03],mmc:(un)]s(0)Z0S0*/
	$A056  90 E5:       bcc --		; $A03D			/* A(??)X(??)Y(??)MAP[00:[00],01:[01],02:[02],03:[03],mmc:(un)]s(0)Z?S?*/
	$A058  A0 00:       ldy #$00			/* A(??)X(??)Y(00)<2058>MAP[00:[00],01:[01],02:[02],03:[03],mmc:(un)]s(0)Z1S0*/
	$A05A  A2 00:       ldx #$00			/* A(??)X(00)<205A>Y(00)<2058>MAP[00:[00],01:[01],02:[02],03:[03],mmc:(un)]s(0)Z1S0*/
-	$A05C  A5 4D:       lda $4D			/* A(??)X(00)<205A>Y(00)<2058>MAP[00:[00],01:[01],02:[02],03:[03],mmc:(un)]s(0)Z?S?*/
	$A05E  18:          clc 			/* A(??)X(00)<205A>Y(00)<2058>MAP[00:[00],01:[01],02:[02],03:[03],mmc:(un)]s(0)Z?S?*/
	$A05F  79 00 04:    adc $0400,y			/* A(??)X(00)<205A>Y(00)<2058>MAP[00:[00],01:[01],02:[02],03:[03],mmc:(un)]s(0)Z?S?*/
	$A062  9D 04 03:    sta $0304,x			/* A(??)X(00)<205A>Y(00)<2058>MAP[00:[00],01:[01],02:[02],03:[03],mmc:(un)]s(0)Z?S?*/
	$A065  A5 4E:       lda $4E			/* A(??)X(00)<205A>Y(00)<2058>MAP[00:[00],01:[01],02:[02],03:[03],mmc:(un)]s(0)Z?S?*/
	$A067  18:          clc 			/* A(??)X(00)<205A>Y(00)<2058>MAP[00:[00],01:[01],02:[02],03:[03],mmc:(un)]s(0)Z?S?*/
	$A068  79 01 04:    adc $0401,y			/* A(??)X(00)<205A>Y(00)<2058>MAP[00:[00],01:[01],02:[02],03:[03],mmc:(un)]s(0)Z?S?*/
	$A06B  9D 05 03:    sta $0305,x			/* A(??)X(00)<205A>Y(00)<2058>MAP[00:[00],01:[01],02:[02],03:[03],mmc:(un)]s(0)Z?S?*/
	$A06E  A5 4F:       lda $4F			/* A(??)X(00)<205A>Y(00)<2058>MAP[00:[00],01:[01],02:[02],03:[03],mmc:(un)]s(0)Z?S?*/
	$A070  79 02 04:    adc $0402,y			/* A(??)X(00)<205A>Y(00)<2058>MAP[00:[00],01:[01],02:[02],03:[03],mmc:(un)]s(0)Z?S?*/
	$A073  9D 06 03:    sta $0306,x			/* A(??)X(00)<205A>Y(00)<2058>MAP[00:[00],01:[01],02:[02],03:[03],mmc:(un)]s(0)Z?S?*/
	$A076  B9 03 04:    lda $0403,y			/* A(??)X(00)<205A>Y(00)<2058>MAP[00:[00],01:[01],02:[02],03:[03],mmc:(un)]s(0)Z?S?*/
	$A079  9D 00 03:    sta $0300,x			/* A(??)X(00)<205A>Y(00)<2058>MAP[00:[00],01:[01],02:[02],03:[03],mmc:(un)]s(0)Z?S?*/
	$A07C  20 F3 AA:    jsr _func_2AF3			/* A(??)X(??)Y(??)MAP[00:(??),01:(??),02:(??),03:(??),mmc:(un)]s(0)Z?S?*/
	$A07F  8A:          txa 			/* A(00)<207F>X(00)<205A>Y(00)<2058>MAP[00:[00],01:[01],02:[02],03:[03],mmc:(un)]s(0)Z1S0*/
	$A080  18:          clc 			/* A(00)<207F>X(00)<205A>Y(00)<2058>MAP[00:[00],01:[01],02:[02],03:[03],mmc:(un)]s(0)Z1S0*/
	$A081  69 08:       adc #$08			/* A(??)X(00)<205A>Y(00)<2058>MAP[00:[00],01:[01],02:[02],03:[03],mmc:(un)]s(0)Z?S?*/
	$A083  AA:          tax 			/* A(??)X(??)Y(00)<2058>MAP[00:[00],01:[01],02:[02],03:[03],mmc:(un)]s(0)Z?S?*/
	$A084  C9 90:       cmp #$90			/* A(??)X(??)Y(00)<2058>MAP[00:[00],01:[01],02:[02],03:[03],mmc:(un)]s(0)Z?S?*/
	$A086  90 D4:       bcc -		; $A05C			/* A(??)X(??)Y(00)<2058>MAP[00:[00],01:[01],02:[02],03:[03],mmc:(un)]s(0)Z?S?*/
	$A088  A9 48:       lda #$48			/* A(48)<2088>X(??)Y(00)<2058>MAP[00:[00],01:[01],02:[02],03:[03],mmc:(un)]s(0)Z0S0*/
	$A08A  8D 23 03:    sta $0323			/* A(48)<2088>X(??)Y(00)<2058>MAP[00:[00],01:[01],02:[02],03:[03],mmc:(un)]s(0)Z0S0*/
	$A08D  A9 50:       lda #$50			/* A(50)<208D>X(??)Y(00)<2058>MAP[00:[00],01:[01],02:[02],03:[03],mmc:(un)]s(0)Z0S0*/
	$A08F  8D 2B 03:    sta $032B			/* A(50)<208D>X(??)Y(00)<2058>MAP[00:[00],01:[01],02:[02],03:[03],mmc:(un)]s(0)Z0S0*/
	$A092  A9 58:       lda #$58			/* A(58)<2092>X(??)Y(00)<2058>MAP[00:[00],01:[01],02:[02],03:[03],mmc:(un)]s(0)Z0S0*/
	$A094  8D 33 03:    sta $0333			/* A(58)<2092>X(??)Y(00)<2058>MAP[00:[00],01:[01],02:[02],03:[03],mmc:(un)]s(0)Z0S0*/
	$A097  A9 60:       lda #$60			/* A(60)<2097>X(??)Y(00)<2058>MAP[00:[00],01:[01],02:[02],03:[03],mmc:(un)]s(0)Z0S0*/
	$A099  8D 3B 03:    sta $033B			/* A(60)<2097>X(??)Y(00)<2058>MAP[00:[00],01:[01],02:[02],03:[03],mmc:(un)]s(0)Z0S0*/
	$A09C  A9 68:       lda #$68			/* A(68)<209C>X(??)Y(00)<2058>MAP[00:[00],01:[01],02:[02],03:[03],mmc:(un)]s(0)Z0S0*/
	$A09E  8D 43 03:    sta $0343			/* A(68)<209C>X(??)Y(00)<2058>MAP[00:[00],01:[01],02:[02],03:[03],mmc:(un)]s(0)Z0S0*/
	$A0A1  A9 00:       lda #$00			/* A(00)<20A1>X(??)Y(00)<2058>MAP[00:[00],01:[01],02:[02],03:[03],mmc:(un)]s(0)Z1S0*/
	$A0A3  85 66:       sta $66			/* A(00)<20A1>X(??)Y(00)<2058>MAP[00:[00],01:[01],02:[02],03:[03],mmc:(un)]s(0)Z1S0*/
	$A0A5  20 5F C7:    jsr _func_475F			/* A(??)X(??)Y(??)MAP[00:(??),01:(??),02:(??),03:(??),mmc:(un)]s(0)Z?S?*/
	$A0A8  4C 04 AF:    jmp _loc_2F04			/* A(00)<20A1>X(??)Y(00)<2058>MAP[00:[00],01:[01],02:[02],03:[03],mmc:(un)]s(0)Z?S?*/(barrier)
;------------------------------------------
_data_20AB_indexed
	$A0AB               .byte $00,$00,$00,$81,$18,$00,$00,$83,$E8,$00,$00,$83,$20,$F6,$FF,$84
	$A0BB               .byte $EC,$E8,$FF,$87,$F6,$E8,$FF,$87,$00,$E8,$FF,$87,$0A,$E8,$FF,$87
	$A0CB               .byte $14,$E8,$FF,$87,$EC,$D7,$FF,$88,$F6,$D7,$FF,$88,$00,$D7,$FF,$88
	$A0DB               .byte $0A,$D7,$FF,$88,$14,$D7,$FF,$88,$00,$C0,$FF,$86,$18,$C0,$FF,$86
	$A0EB               .byte $D0,$C0,$FF,$86,$E8,$C0,$FF,$86
_data_20F3_indexed
	$A0F3               .byte $00,$25,$00,$00,$00,$00,$00,$64
JumpTableEntry_20FB
	$A0FB  A5 5F:       lda $5F			/* A(??)X(un)Y(un)MAP[00:[00],01:[01],02:[02],03:[03],mmc:(un)]s(0)Z?S?*/
	$A0FD  29 08:       and #$08			/* A(??)X(un)Y(un)MAP[00:[00],01:[01],02:[02],03:[03],mmc:(un)]s(0)Z?S?*/
	$A0FF  F0 03:       beq +		; $A104			/* A(??)X(un)Y(un)MAP[00:[00],01:[01],02:[02],03:[03],mmc:(un)]s(0)Z?S?*/
	$A101  4C B2 A1:    jmp _loc_21B2			/* A(??)X(un)Y(un)MAP[00:[00],01:[01],02:[02],03:[03],mmc:(un)]s(0)Z?S?*/(barrier)

+	$A104  20 D8 A3:    jsr _func_23D8			/* A(??)X(un)Y(un)MAP[00:[00],01:[01],02:[02],03:[03],mmc:(un)]s(0)Z?S?*/
	$A107  A5 4C:       lda $4C			/* A(??)X(??)Y(??)MAP[00:[00],01:[01],02:[02],03:[03],mmc:(un)]s(0)Z?S?*/
	$A109  29 60:       and #$60			/* A(??)X(??)Y(??)MAP[00:[00],01:[01],02:[02],03:[03],mmc:(un)]s(0)Z?S?*/
	$A10B  D0 6B:       bne ++++		; $A178			/* A(??)X(??)Y(??)MAP[00:[00],01:[01],02:[02],03:[03],mmc:(un)]s(0)Z?S?*/
	$A10D  A5 12:       lda $12			/* A(??)X(??)Y(??)MAP[00:[00],01:[01],02:[02],03:[03],mmc:(un)]s(0)Z?S?*/
	$A10F  29 03:       and #$03			/* A(??)X(??)Y(??)MAP[00:[00],01:[01],02:[02],03:[03],mmc:(un)]s(0)Z?S?*/
	$A111  F0 65:       beq ++++		; $A178			/* A(??)X(??)Y(??)MAP[00:[00],01:[01],02:[02],03:[03],mmc:(un)]s(0)Z?S?*/
	$A113  29 02:       and #$02			/* A(??)X(??)Y(??)MAP[00:[00],01:[01],02:[02],03:[03],mmc:(un)]s(0)Z?S?*/
	$A115  F0 03:       beq +		; $A11A			/* A(??)X(??)Y(??)MAP[00:[00],01:[01],02:[02],03:[03],mmc:(un)]s(0)Z?S?*/
-	$A117  4C 72 A1:    jmp +++		; $A172			/* A(??)X(??)Y(??)MAP[00:[00],01:[01],02:[02],03:[03],mmc:(un)]s(0)Z?S?*/(barrier)

+	$A11A  BD 01 03:    lda $0301,x			/* A(??)X(??)Y(??)MAP[00:[00],01:[01],02:[02],03:[03],mmc:(un)]s(0)Z?S?*/
	$A11D  29 0F:       and #$0F			/* A(??)X(??)Y(??)MAP[00:[00],01:[01],02:[02],03:[03],mmc:(un)]s(0)Z?S?*/
	$A11F  C9 0F:       cmp #$0F			/* A(??)X(??)Y(??)MAP[00:[00],01:[01],02:[02],03:[03],mmc:(un)]s(0)Z?S?*/
_loc_2121
	$A121  F0 1D:       beq +		; $A140			/* A(21)<4949>X(??)Y(??)MAP[00:[00],01:[01],02:[02],03:[03],mmc:(un)]s(0)Z0S0*/
	$A123  20 4D C1:    jsr _func_414D			/* A(??)X(??)Y(??)MAP[00:(??),01:(??),02:(??),03:(??),mmc:(un)]s(0)Z?S?*/
	$A126  E6 66:       inc $66			/* A(??)X(??)Y(??)MAP[00:[00],01:[01],02:[02],03:[03],mmc:(un)]s(0)Z?S?*/
	$A128  A5 66:       lda $66			/* A(??)X(??)Y(??)MAP[00:[00],01:[01],02:[02],03:[03],mmc:(un)]s(0)Z?S?*/
	$A12A  C9 03:       cmp #$03			/* A(??)X(??)Y(??)MAP[00:[00],01:[01],02:[02],03:[03],mmc:(un)]s(0)Z?S?*/
	$A12C  B0 E9:       bcs -		; $A117 -> $A172			/* A(??)X(??)Y(??)MAP[00:[00],01:[01],02:[02],03:[03],mmc:(un)]s(0)Z?S?*/
	$A12E  BD 01 03:    lda $0301,x			/* A(??)X(??)Y(??)MAP[00:[00],01:[01],02:[02],03:[03],mmc:(un)]s(0)Z?S?*/
	$A131  09 0F:       ora #$0F			/* A(??)X(??)Y(??)MAP[00:[00],01:[01],02:[02],03:[03],mmc:(un)]s(0)Z?S?*/
	$A133  9D 01 03:    sta $0301,x			/* A(??)X(??)Y(??)MAP[00:[00],01:[01],02:[02],03:[03],mmc:(un)]s(0)Z?S?*/
	$A136  A9 00:       lda #$00			/* A(00)<2136>X(??)Y(??)MAP[00:[00],01:[01],02:[02],03:[03],mmc:(un)]s(0)Z1S0*/
	$A138  9D 02 03:    sta $0302,x			/* A(00)<2136>X(??)Y(??)MAP[00:[00],01:[01],02:[02],03:[03],mmc:(un)]s(0)Z1S0*/
	$A13B  9D 03 03:    sta $0303,x			/* A(00)<2136>X(??)Y(??)MAP[00:[00],01:[01],02:[02],03:[03],mmc:(un)]s(0)Z1S0*/
	$A13E  F0 53:       beq _loc_2193			/* A(00)<2136>X(??)Y(??)MAP[00:[00],01:[01],02:[02],03:[03],mmc:(un)]s(0)Z1S0*/(barrier)

+	$A140  A5 FC:       lda $FC			/* A(00)<2136>X(??)Y(??)MAP[00:[00],01:[01],02:[02],03:[03],mmc:(un)]s(0)Z1S0*/
	$A142  30 18:       bmi +		; $A15C			/* A(??)X(??)Y(??)MAP[00:[00],01:[01],02:[02],03:[03],mmc:(un)]s(0)Z?S?*/
	$A144  A5 5E:       lda $5E			/* A(??)X(??)Y(??)MAP[00:[00],01:[01],02:[02],03:[03],mmc:(un)]s(0)Z?S?*/
	$A146  29 F0:       and #$F0			/* A(??)X(??)Y(??)MAP[00:[00],01:[01],02:[02],03:[03],mmc:(un)]s(0)Z?S?*/
	$A148  85 10:       sta $10			/* A(??)X(??)Y(??)MAP[00:[00],01:[01],02:[02],03:[03],mmc:(un)]s(0)Z?S?*/
	$A14A  A5 FD:       lda $FD			/* A(??)X(??)Y(??)MAP[00:[00],01:[01],02:[02],03:[03],mmc:(un)]s(0)Z?S?*/
	$A14C  29 F0:       and #$F0			/* A(??)X(??)Y(??)MAP[00:[00],01:[01],02:[02],03:[03],mmc:(un)]s(0)Z?S?*/
	$A14E  C5 10:       cmp $10			/* A(??)X(??)Y(??)MAP[00:[00],01:[01],02:[02],03:[03],mmc:(un)]s(0)Z?S?*/
	$A150  F0 0D:       beq ++		; $A15F			/* A(??)X(??)Y(??)MAP[00:[00],01:[01],02:[02],03:[03],mmc:(un)]s(0)Z?S?*/
	$A152  FE 03 03:    inc $0303,x			/* A(??)X(??)Y(??)MAP[00:[00],01:[01],02:[02],03:[03],mmc:(un)]s(0)Z?S?*/
	$A155  BD 03 03:    lda $0303,x			/* A(??)X(??)Y(??)MAP[00:[00],01:[01],02:[02],03:[03],mmc:(un)]s(0)Z?S?*/
	$A158  29 00:       and #$00			/* A(??)X(??)Y(??)MAP[00:[00],01:[01],02:[02],03:[03],mmc:(un)]s(0)Z?S?*/
	$A15A  D0 03:       bne ++		; $A15F			/* A(??)X(??)Y(??)MAP[00:[00],01:[01],02:[02],03:[03],mmc:(un)]s(0)Z?S?*/
+	$A15C  20 78 A2:    jsr _func_2278			/* A(??)X(??)Y(??)MAP[00:[00],01:[01],02:[02],03:[03],mmc:(un)]s(0)Z?S?*/
++	$A15F  A5 FD:       lda $FD			/* A(??)X(??)Y(??)MAP[00:[00],01:[01],02:[02],03:[03],mmc:(un)]s(0)Z?S?*/
	$A161  29 F0:       and #$F0			/* A(??)X(??)Y(??)MAP[00:[00],01:[01],02:[02],03:[03],mmc:(un)]s(0)Z?S?*/
	$A163  09 0F:       ora #$0F			/* A(??)X(??)Y(??)MAP[00:[00],01:[01],02:[02],03:[03],mmc:(un)]s(0)Z?S?*/
	$A165  9D 01 03:    sta $0301,x			/* A(??)X(??)Y(??)MAP[00:[00],01:[01],02:[02],03:[03],mmc:(un)]s(0)Z?S?*/
	$A168  FE 02 03:    inc $0302,x			/* A(??)X(??)Y(??)MAP[00:[00],01:[01],02:[02],03:[03],mmc:(un)]s(0)Z?S?*/
	$A16B  BD 02 03:    lda $0302,x			/* A(??)X(??)Y(??)MAP[00:[00],01:[01],02:[02],03:[03],mmc:(un)]s(0)Z?S?*/
	$A16E  C9 60:       cmp #$60			/* A(??)X(??)Y(??)MAP[00:[00],01:[01],02:[02],03:[03],mmc:(un)]s(0)Z?S?*/
	$A170  90 28:       bcc _loc_219A			/* A(??)X(??)Y(??)MAP[00:[00],01:[01],02:[02],03:[03],mmc:(un)]s(0)Z?S?*/
+++	$A172  20 5E AE:    jsr _func_2E5E			/* A(??)X(??)Y(??)MAP[00:(??),01:(??),02:(??),03:(??),mmc:(un)]s(0)Z?S?*/
	$A175  4C B2 A1:    jmp _loc_21B2			/* A(??)X(??)Y(??)MAP[00:[00],01:[01],02:[02],03:[03],mmc:(un)]s(0)Z?S?*/(barrier)

++++	$A178  A5 4C:       lda $4C			/* A(??)X(??)Y(??)MAP[00:[00],01:[01],02:[02],03:[03],mmc:(un)]s(0)Z?S?*/
	$A17A  29 60:       and #$60			/* A(??)X(??)Y(??)MAP[00:[00],01:[01],02:[02],03:[03],mmc:(un)]s(0)Z?S?*/
	$A17C  F0 03:       beq +		; $A181			/* A(??)X(??)Y(??)MAP[00:[00],01:[01],02:[02],03:[03],mmc:(un)]s(0)Z?S?*/
	$A17E  4C 8E A8:    jmp _loc_288E			/* A(??)X(??)Y(??)MAP[00:[00],01:[01],02:[02],03:[03],mmc:(un)]s(0)Z?S?*/(barrier)

+	$A181  20 B7 A7:    jsr _func_27B7			/* A(??)X(??)Y(??)MAP[00:[00],01:[01],02:[02],03:[03],mmc:(un)]s(0)Z?S?*/
	$A184  A0 15:       ldy #$15			/* A(??)X(??)Y(15)<2184>MAP[00:[00],01:[01],02:[02],03:[03],mmc:(un)]s(0)Z0S0*/
	$A186  A5 FD:       lda $FD			/* A(??)X(??)Y(15)<2184>MAP[00:[00],01:[01],02:[02],03:[03],mmc:(un)]s(0)Z?S?*/
	$A188  29 F0:       and #$F0			/* A(??)X(??)Y(15)<2184>MAP[00:[00],01:[01],02:[02],03:[03],mmc:(un)]s(0)Z?S?*/
	$A18A  F0 03:       beq +		; $A18F			/* A(??)X(??)Y(15)<2184>MAP[00:[00],01:[01],02:[02],03:[03],mmc:(un)]s(0)Z?S?*/
	$A18C  09 05:       ora #$05			/* A(??)X(??)Y(15)<2184>MAP[00:[00],01:[01],02:[02],03:[03],mmc:(un)]s(0)Z?S?*/
	$A18E  A8:          tay 			/* A(??)X(??)Y(??)MAP[00:[00],01:[01],02:[02],03:[03],mmc:(un)]s(0)Z?S?*/
+	$A18F  98:          tya 			/* A(??)X(??)Y(??)MAP[00:[00],01:[01],02:[02],03:[03],mmc:(un)]s(0)Z?S?*/
	$A190  9D 01 03:    sta $0301,x			/* A(15)<218F>X(??)Y(15)<2184>MAP[00:[00],01:[01],02:[02],03:[03],mmc:(un)]s(0)Z0S0*/
_loc_2193
	$A193  A5 35:       lda $35			/* A(00)<2136>X(??)Y(??)MAP[00:[00],01:[01],02:[02],03:[03],mmc:(un)]s(0)Z1S0*/
	$A195  30 03:       bmi _loc_219A			/* A(??)X(??)Y(15)<2184>MAP[00:[00],01:[01],02:[02],03:[03],mmc:(un)]s(0)Z?S?*/
	$A197  20 4F A2:    jsr _func_224F			/* A(??)X(??)Y(??)MAP[00:(??),01:(??),02:(??),03:(??),mmc:(un)]s(0)Z?S?*/
_loc_219A
	$A19A  A5 F4:       lda $F4			/* A(??)X(??)Y(??)MAP[00:[00],01:[01],02:[02],03:[03],mmc:(un)]s(0)Z?S?*/
	$A19C  C9 03:       cmp #$03			/* A(??)X(??)Y(15)<2184>MAP[00:[00],01:[01],02:[02],03:[03],mmc:(un)]s(0)Z?S?*/
	$A19E  F0 12:       beq _loc_21B2			/* A(??)X(??)Y(15)<2184>MAP[00:[00],01:[01],02:[02],03:[03],mmc:(un)]s(0)Z?S?*/
	$A1A0  A5 4D:       lda $4D			/* A(??)X(??)Y(15)<2184>MAP[00:[00],01:[01],02:[02],03:[03],mmc:(un)]s(0)Z?S?*/
	$A1A2  9D 04 03:    sta $0304,x			/* A(??)X(??)Y(15)<2184>MAP[00:[00],01:[01],02:[02],03:[03],mmc:(un)]s(0)Z?S?*/
	$A1A5  A5 4E:       lda $4E			/* A(??)X(??)Y(15)<2184>MAP[00:[00],01:[01],02:[02],03:[03],mmc:(un)]s(0)Z?S?*/
	$A1A7  9D 05 03:    sta $0305,x			/* A(??)X(??)Y(15)<2184>MAP[00:[00],01:[01],02:[02],03:[03],mmc:(un)]s(0)Z?S?*/
	$A1AA  A5 4F:       lda $4F			/* A(??)X(??)Y(15)<2184>MAP[00:[00],01:[01],02:[02],03:[03],mmc:(un)]s(0)Z?S?*/
	$A1AC  9D 06 03:    sta $0306,x			/* A(??)X(??)Y(15)<2184>MAP[00:[00],01:[01],02:[02],03:[03],mmc:(un)]s(0)Z?S?*/
	$A1AF  20 C5 A3:    jsr _func_23C5			/* A(??)X(??)Y(??)MAP[00:(??),01:(??),02:(??),03:(??),mmc:(un)]s(0)Z?S?*/
_loc_21B2
	$A1B2  BD 01 03:    lda $0301,x			/* A(??)X(??)Y(??)MAP[00:[00],01:[01],02:[02],03:[03],mmc:(un)]s(0)Z?S?*/
	$A1B5  85 5E:       sta $5E			/* A(??)X(un)Y(un)MAP[00:[00],01:[01],02:[02],03:[03],mmc:(un)]s(0)Z?S?*/
	$A1B7  4A:          lsr a			/* A(??)X(un)Y(un)MAP[00:[00],01:[01],02:[02],03:[03],mmc:(un)]s(0)Z?S?*/
	$A1B8  4A:          lsr a			/* A(??)X(un)Y(un)MAP[00:[00],01:[01],02:[02],03:[03],mmc:(un)]s(0)Z?S?*/
	$A1B9  4A:          lsr a			/* A(??)X(un)Y(un)MAP[00:[00],01:[01],02:[02],03:[03],mmc:(un)]s(0)Z?S?*/
	$A1BA  4A:          lsr a			/* A(??)X(un)Y(un)MAP[00:[00],01:[01],02:[02],03:[03],mmc:(un)]s(0)Z?S?*/
	$A1BB  A8:          tay 			/* A(??)X(un)Y(??)MAP[00:[00],01:[01],02:[02],03:[03],mmc:(un)]s(0)Z?S?*/
	$A1BC  B9 C6 A1:    lda _data_21C6_indexed,y			/* A$21C6,y<21BC>X(un)Y(??)MAP[00:[00],01:[01],02:[02],03:[03],mmc:(un)]s(0)Z?S?*/
	$A1BF  85 12:       sta $12			/* A$21C6,y<21BC>X(un)Y(??)MAP[00:[00],01:[01],02:[02],03:[03],mmc:(un)]s(0)Z?S?*/
	$A1C1  A9 31:       lda #$31			/* A(31)<21C1>X(un)Y(??)MAP[00:[00],01:[01],02:[02],03:[03],mmc:(un)]s(0)Z0S0*/
	$A1C3  85 13:       sta $13			/* A(31)<21C1>X(un)Y(??)MAP[00:[00],01:[01],02:[02],03:[03],mmc:(un)]s(0)Z0S0*/
	$A1C5  60:          rts 			/* A(31)<21C1>X(un)Y(??)MAP[00:[00],01:[01],02:[02],03:[03],mmc:(un)]s(0)Z0S0*/(barrier)
;------------------------------------------
_data_21C6_indexed
	$A1C6               .byte $01,$84,$88,$01,$8F,$90,$89,$01,$8E,$8D,$87,$01,$01,$01,$01,$01
_func_21D6
	$A1D6  A5 F4:       lda $F4			/* A(15)<2EBD>X(??)Y(??)MAP[00:[00],01:[01],02:[02],03:[03],mmc:(un)]s(0)Z?S?*/
	$A1D8  C9 03:       cmp #$03			/* A(??)X(??)Y(??)MAP[00:[00],01:[01],02:[02],03:[03],mmc:(un)]s(0)Z?S?*/
	$A1DA  F0 72:       beq ++		; $A24E -> rts			/* A(??)X(??)Y(??)MAP[00:[00],01:[01],02:[02],03:[03],mmc:(un)]s(0)Z?S?*/
	$A1DC  BD 01 03:    lda $0301,x			/* A(??)X(??)Y(??)MAP[00:[00],01:[01],02:[02],03:[03],mmc:(un)]s(0)Z?S?*/
	$A1DF  0A:          asl a			/* A(??)X(??)Y(??)MAP[00:[00],01:[01],02:[02],03:[03],mmc:(un)]s(0)Z?S?*/
	$A1E0  0A:          asl a			/* A(??)X(??)Y(??)MAP[00:[00],01:[01],02:[02],03:[03],mmc:(un)]s(0)Z?S?*/
	$A1E1  0A:          asl a			/* A(??)X(??)Y(??)MAP[00:[00],01:[01],02:[02],03:[03],mmc:(un)]s(0)Z?S?*/
	$A1E2  0A:          asl a			/* A(??)X(??)Y(??)MAP[00:[00],01:[01],02:[02],03:[03],mmc:(un)]s(0)Z?S?*/
	$A1E3  85 10:       sta $10			/* A(??)X(??)Y(??)MAP[00:[00],01:[01],02:[02],03:[03],mmc:(un)]s(0)Z?S?*/
	$A1E5  C9 F0:       cmp #$F0			/* A(??)X(??)Y(??)MAP[00:[00],01:[01],02:[02],03:[03],mmc:(un)]s(0)Z?S?*/
	$A1E7  D0 0A:       bne +		; $A1F3			/* A(??)X(??)Y(??)MAP[00:[00],01:[01],02:[02],03:[03],mmc:(un)]s(0)Z?S?*/
	$A1E9  A9 00:       lda #$00			/* A(00)<21E9>X(??)Y(??)MAP[00:[00],01:[01],02:[02],03:[03],mmc:(un)]s(0)Z1S0*/
	$A1EB  85 10:       sta $10			/* A(00)<21E9>X(??)Y(??)MAP[00:[00],01:[01],02:[02],03:[03],mmc:(un)]s(0)Z1S0*/
	$A1ED  A5 1D:       lda $1D			/* A(??)X(??)Y(??)MAP[00:[00],01:[01],02:[02],03:[03],mmc:(un)]s(0)Z?S?*/
	$A1EF  29 0F:       and #$0F			/* A(??)X(??)Y(??)MAP[00:[00],01:[01],02:[02],03:[03],mmc:(un)]s(0)Z?S?*/
	$A1F1  D0 5B:       bne ++		; $A24E -> rts			/* A(??)X(??)Y(??)MAP[00:[00],01:[01],02:[02],03:[03],mmc:(un)]s(0)Z?S?*/
+	$A1F3  A5 1D:       lda $1D			/* A(??)X(??)Y(??)MAP[00:[00],01:[01],02:[02],03:[03],mmc:(un)]s(0)Z?S?*/
	$A1F5  29 0F:       and #$0F			/* A(??)X(??)Y(??)MAP[00:[00],01:[01],02:[02],03:[03],mmc:(un)]s(0)Z?S?*/
	$A1F7  05 10:       ora $10			/* A(??)X(??)Y(??)MAP[00:[00],01:[01],02:[02],03:[03],mmc:(un)]s(0)Z?S?*/
	$A1F9  A8:          tay 			/* A(??)X(??)Y(??)MAP[00:[00],01:[01],02:[02],03:[03],mmc:(un)]s(0)Z?S?*/
	$A1FA  B9 98 A2:    lda _data_2298_indexed,y			/* A$2298,y<21FA>X(??)Y(??)MAP[00:[00],01:[01],02:[02],03:[03],mmc:(un)]s(0)Z?S?*/
	$A1FD  F0 4F:       beq ++		; $A24E -> rts			/* A$2298,y<21FA>X(??)Y(??)MAP[00:[00],01:[01],02:[02],03:[03],mmc:(un)]s(0)Z?S?*/
	$A1FF  BD 01 03:    lda $0301,x			/* A(??)X(??)Y(??)MAP[00:[00],01:[01],02:[02],03:[03],mmc:(un)]s(0)Z?S?*/
	$A202  85 10:       sta $10			/* A(??)X(??)Y(??)MAP[00:[00],01:[01],02:[02],03:[03],mmc:(un)]s(0)Z?S?*/
	$A204  06 10:       asl $10			/* A(??)X(??)Y(??)MAP[00:[00],01:[01],02:[02],03:[03],mmc:(un)]s(0)Z?S?*/
	$A206  90 0C:       bcc +		; $A214			/* A(??)X(??)Y(??)MAP[00:[00],01:[01],02:[02],03:[03],mmc:(un)]s(0)Z?S?*/
	$A208  BD 04 03:    lda $0304,x			/* A(??)X(??)Y(??)MAP[00:[00],01:[01],02:[02],03:[03],mmc:(un)]s(0)Z?S?*/
	$A20B  C9 C6:       cmp #$C6			/* A(??)X(??)Y(??)MAP[00:[00],01:[01],02:[02],03:[03],mmc:(un)]s(0)Z?S?*/
	$A20D  B0 05:       bcs +		; $A214			/* A(??)X(??)Y(??)MAP[00:[00],01:[01],02:[02],03:[03],mmc:(un)]s(0)Z?S?*/
	$A20F  69 01:       adc #$01			/* A(??)X(??)Y(??)MAP[00:[00],01:[01],02:[02],03:[03],mmc:(un)]s(0)Z?S?*/
	$A211  9D 04 03:    sta $0304,x			/* A(??)X(??)Y(??)MAP[00:[00],01:[01],02:[02],03:[03],mmc:(un)]s(0)Z?S?*/
+	$A214  06 10:       asl $10			/* A(??)X(??)Y(??)MAP[00:[00],01:[01],02:[02],03:[03],mmc:(un)]s(0)Z?S?*/
	$A216  90 0C:       bcc +		; $A224			/* A(??)X(??)Y(??)MAP[00:[00],01:[01],02:[02],03:[03],mmc:(un)]s(0)Z?S?*/
	$A218  BD 04 03:    lda $0304,x			/* A(??)X(??)Y(??)MAP[00:[00],01:[01],02:[02],03:[03],mmc:(un)]s(0)Z?S?*/
	$A21B  C9 13:       cmp #$13			/* A(??)X(??)Y(??)MAP[00:[00],01:[01],02:[02],03:[03],mmc:(un)]s(0)Z?S?*/
	$A21D  90 05:       bcc +		; $A224			/* A(??)X(??)Y(??)MAP[00:[00],01:[01],02:[02],03:[03],mmc:(un)]s(0)Z?S?*/
	$A21F  E9 01:       sbc #$01			/* A(??)X(??)Y(??)MAP[00:[00],01:[01],02:[02],03:[03],mmc:(un)]s(0)Z?S?*/
	$A221  9D 04 03:    sta $0304,x			/* A(??)X(??)Y(??)MAP[00:[00],01:[01],02:[02],03:[03],mmc:(un)]s(0)Z?S?*/
+	$A224  06 10:       asl $10			/* A(??)X(??)Y(??)MAP[00:[00],01:[01],02:[02],03:[03],mmc:(un)]s(0)Z?S?*/
	$A226  90 11:       bcc +		; $A239			/* A(??)X(??)Y(??)MAP[00:[00],01:[01],02:[02],03:[03],mmc:(un)]s(0)Z?S?*/
	$A228  BD 05 03:    lda $0305,x			/* A(??)X(??)Y(??)MAP[00:[00],01:[01],02:[02],03:[03],mmc:(un)]s(0)Z?S?*/
	$A22B  18:          clc 			/* A(??)X(??)Y(??)MAP[00:[00],01:[01],02:[02],03:[03],mmc:(un)]s(0)Z?S?*/
	$A22C  69 01:       adc #$01			/* A(??)X(??)Y(??)MAP[00:[00],01:[01],02:[02],03:[03],mmc:(un)]s(0)Z?S?*/
	$A22E  9D 05 03:    sta $0305,x			/* A(??)X(??)Y(??)MAP[00:[00],01:[01],02:[02],03:[03],mmc:(un)]s(0)Z?S?*/
	$A231  BD 06 03:    lda $0306,x			/* A(??)X(??)Y(??)MAP[00:[00],01:[01],02:[02],03:[03],mmc:(un)]s(0)Z?S?*/
	$A234  69 00:       adc #$00			/* A(??)X(??)Y(??)MAP[00:[00],01:[01],02:[02],03:[03],mmc:(un)]s(0)Z?S?*/
	$A236  9D 06 03:    sta $0306,x			/* A(??)X(??)Y(??)MAP[00:[00],01:[01],02:[02],03:[03],mmc:(un)]s(0)Z?S?*/
+	$A239  06 10:       asl $10			/* A(??)X(??)Y(??)MAP[00:[00],01:[01],02:[02],03:[03],mmc:(un)]s(0)Z?S?*/
	$A23B  90 11:       bcc ++		; $A24E -> rts			/* A(??)X(??)Y(??)MAP[00:[00],01:[01],02:[02],03:[03],mmc:(un)]s(0)Z?S?*/
	$A23D  BD 05 03:    lda $0305,x			/* A(??)X(??)Y(??)MAP[00:[00],01:[01],02:[02],03:[03],mmc:(un)]s(0)Z?S?*/
	$A240  38:          sec 			/* A(??)X(??)Y(??)MAP[00:[00],01:[01],02:[02],03:[03],mmc:(un)]s(0)Z?S?*/
	$A241  E9 01:       sbc #$01			/* A(??)X(??)Y(??)MAP[00:[00],01:[01],02:[02],03:[03],mmc:(un)]s(0)Z?S?*/
	$A243  9D 05 03:    sta $0305,x			/* A(??)X(??)Y(??)MAP[00:[00],01:[01],02:[02],03:[03],mmc:(un)]s(0)Z?S?*/
	$A246  BD 06 03:    lda $0306,x			/* A(??)X(??)Y(??)MAP[00:[00],01:[01],02:[02],03:[03],mmc:(un)]s(0)Z?S?*/
	$A249  E9 00:       sbc #$00			/* A(??)X(??)Y(??)MAP[00:[00],01:[01],02:[02],03:[03],mmc:(un)]s(0)Z?S?*/
	$A24B  9D 06 03:    sta $0306,x			/* A(??)X(??)Y(??)MAP[00:[00],01:[01],02:[02],03:[03],mmc:(un)]s(0)Z?S?*/
++	$A24E  60:          rts 			/* A$2298,y<21FA>X(??)Y(??)MAP[00:[00],01:[01],02:[02],03:[03],mmc:(un)]s(0)Z?S?*/(barrier)
;------------------------------------------
_func_224F
	$A24F  A5 F4:       lda $F4			/* A(??)X(??)Y(15)<2184>MAP[00:[00],01:[01],02:[02],03:[03],mmc:(un)]s(0)Z?S?*/
	$A251  C9 03:       cmp #$03			/* A(??)X(??)Y(15)<2184>MAP[00:[00],01:[01],02:[02],03:[03],mmc:(un)]s(0)Z?S?*/
	$A253  F0 42:       beq ++		; $A297 -> rts			/* A(??)X(??)Y(15)<2184>MAP[00:[00],01:[01],02:[02],03:[03],mmc:(un)]s(0)Z?S?*/
	$A255  BD 01 03:    lda $0301,x			/* A(??)X(??)Y(15)<2184>MAP[00:[00],01:[01],02:[02],03:[03],mmc:(un)]s(0)Z?S?*/
	$A258  0A:          asl a			/* A(??)X(??)Y(15)<2184>MAP[00:[00],01:[01],02:[02],03:[03],mmc:(un)]s(0)Z?S?*/
	$A259  0A:          asl a			/* A(??)X(??)Y(15)<2184>MAP[00:[00],01:[01],02:[02],03:[03],mmc:(un)]s(0)Z?S?*/
	$A25A  0A:          asl a			/* A(??)X(??)Y(15)<2184>MAP[00:[00],01:[01],02:[02],03:[03],mmc:(un)]s(0)Z?S?*/
	$A25B  0A:          asl a			/* A(??)X(??)Y(15)<2184>MAP[00:[00],01:[01],02:[02],03:[03],mmc:(un)]s(0)Z?S?*/
	$A25C  85 10:       sta $10			/* A(??)X(??)Y(15)<2184>MAP[00:[00],01:[01],02:[02],03:[03],mmc:(un)]s(0)Z?S?*/
	$A25E  C9 F0:       cmp #$F0			/* A(??)X(??)Y(15)<2184>MAP[00:[00],01:[01],02:[02],03:[03],mmc:(un)]s(0)Z?S?*/
	$A260  D0 0A:       bne +		; $A26C			/* A(??)X(??)Y(15)<2184>MAP[00:[00],01:[01],02:[02],03:[03],mmc:(un)]s(0)Z?S?*/
	$A262  A9 00:       lda #$00			/* A(00)<2262>X(??)Y(15)<2184>MAP[00:[00],01:[01],02:[02],03:[03],mmc:(un)]s(0)Z1S0*/
	$A264  85 10:       sta $10			/* A(00)<2262>X(??)Y(15)<2184>MAP[00:[00],01:[01],02:[02],03:[03],mmc:(un)]s(0)Z1S0*/
	$A266  A5 1D:       lda $1D			/* A(??)X(??)Y(15)<2184>MAP[00:[00],01:[01],02:[02],03:[03],mmc:(un)]s(0)Z?S?*/
	$A268  29 0F:       and #$0F			/* A(??)X(??)Y(15)<2184>MAP[00:[00],01:[01],02:[02],03:[03],mmc:(un)]s(0)Z?S?*/
	$A26A  D0 2B:       bne ++		; $A297 -> rts			/* A(??)X(??)Y(15)<2184>MAP[00:[00],01:[01],02:[02],03:[03],mmc:(un)]s(0)Z?S?*/
+	$A26C  A5 1D:       lda $1D			/* A(??)X(??)Y(15)<2184>MAP[00:[00],01:[01],02:[02],03:[03],mmc:(un)]s(0)Z?S?*/
	$A26E  29 0F:       and #$0F			/* A(??)X(??)Y(15)<2184>MAP[00:[00],01:[01],02:[02],03:[03],mmc:(un)]s(0)Z?S?*/
	$A270  05 10:       ora $10			/* A(??)X(??)Y(15)<2184>MAP[00:[00],01:[01],02:[02],03:[03],mmc:(un)]s(0)Z?S?*/
	$A272  A8:          tay 			/* A(??)X(??)Y(??)MAP[00:[00],01:[01],02:[02],03:[03],mmc:(un)]s(0)Z?S?*/
	$A273  B9 98 A2:    lda _data_2298_indexed,y			/* A$2298,y<2273>X(??)Y(??)MAP[00:[00],01:[01],02:[02],03:[03],mmc:(un)]s(0)Z?S?*/
	$A276  F0 1F:       beq ++		; $A297 -> rts			/* A$2298,y<2273>X(??)Y(??)MAP[00:[00],01:[01],02:[02],03:[03],mmc:(un)]s(0)Z?S?*/
_func_2278
	$A278  BD 01 03:    lda $0301,x			/* A$2298,y<2273>X(??)Y(??)MAP[00:[00],01:[01],02:[02],03:[03],mmc:(un)]s(0)Z?S?*/
	$A27B  85 10:       sta $10			/* A(??)X(??)Y(??)MAP[00:[00],01:[01],02:[02],03:[03],mmc:(un)]s(0)Z?S?*/
	$A27D  06 10:       asl $10			/* A(??)X(??)Y(??)MAP[00:[00],01:[01],02:[02],03:[03],mmc:(un)]s(0)Z?S?*/
	$A27F  90 02:       bcc +		; $A283			/* A(??)X(??)Y(??)MAP[00:[00],01:[01],02:[02],03:[03],mmc:(un)]s(0)Z?S?*/
	$A281  E6 4D:       inc $4D			/* A(??)X(??)Y(??)MAP[00:[00],01:[01],02:[02],03:[03],mmc:(un)]s(0)Z?S?*/
+	$A283  06 10:       asl $10			/* A(??)X(??)Y(??)MAP[00:[00],01:[01],02:[02],03:[03],mmc:(un)]s(0)Z?S?*/
	$A285  90 02:       bcc +		; $A289			/* A(??)X(??)Y(??)MAP[00:[00],01:[01],02:[02],03:[03],mmc:(un)]s(0)Z?S?*/
	$A287  C6 4D:       dec $4D			/* A(??)X(??)Y(??)MAP[00:[00],01:[01],02:[02],03:[03],mmc:(un)]s(0)Z?S?*/
+	$A289  06 10:       asl $10			/* A(??)X(??)Y(??)MAP[00:[00],01:[01],02:[02],03:[03],mmc:(un)]s(0)Z?S?*/
	$A28B  90 03:       bcc +		; $A290			/* A(??)X(??)Y(??)MAP[00:[00],01:[01],02:[02],03:[03],mmc:(un)]s(0)Z?S?*/
	$A28D  20 D7 B6:    jsr _func_36D7			/* A(??)X(??)Y(??)MAP[00:(??),01:(??),02:(??),03:(??),mmc:(un)]s(0)Z?S?*/
+	$A290  06 10:       asl $10			/* A(??)X(??)Y(??)MAP[00:[00],01:[01],02:[02],03:[03],mmc:(un)]s(0)Z?S?*/
	$A292  90 03:       bcc ++		; $A297 -> rts			/* A(??)X(??)Y(??)MAP[00:[00],01:[01],02:[02],03:[03],mmc:(un)]s(0)Z?S?*/
	$A294  20 03 B7:    jsr _func_3703			/* A(??)X(??)Y(??)MAP[00:(??),01:(??),02:(??),03:(??),mmc:(un)]s(0)Z?S?*/
++	$A297  60:          rts 			/* A(??)X(??)Y(15)<2184>MAP[00:[00],01:[01],02:[02],03:[03],mmc:(un)]s(0)Z?S?*/(barrier)
;------------------------------------------
_data_2298_indexed
	$A298               .byte $FF,$00,$FF,$00,$FF,$00,$FF,$00,$FF,$00,$FF,$00,$FF,$00,$FF,$00
	$A2A8               .byte $FF,$00,$00,$FF,$00,$00,$FF,$00,$00,$FF,$00,$FF,$00,$00,$FF,$00
	$A2B8               .byte $FF,$00,$FF,$00,$00,$FF,$00,$00,$FF,$00,$00,$FF,$00,$00,$FF,$00
	$A2C8               .byte $FF,$00,$00,$00,$FF,$00,$00,$FF,$00,$00,$FF,$00,$00,$FF,$00,$00
	$A2D8               .byte $FF,$00,$00,$FF,$00,$00,$FF,$00,$00,$FF,$00,$00,$FF,$00,$00,$00
	$A2E8               .byte $FF,$00,$00,$00,$FF,$00,$00,$00,$FF,$00,$00,$00,$FF,$00,$00,$00
	$A2F8               .byte $FF,$00,$00,$00,$00,$FF,$00,$00,$00,$00,$FF,$00,$00,$00,$00,$00
	$A308               .byte $FF,$00,$00,$00,$00,$00,$00,$00,$FF,$00,$00,$00,$00,$00,$00,$00
_func_2318
	$A318  A0 00:       ldy #$00			/* A(FF)<26E>X(??)Y(00)<2318>MAP[00:[00],01:[01],02:[02],03:[03],mmc:(un)]s(0)Z?S?*/
--	$A31A  98:          tya 			/* A(00)<231A>X(48)<232F>Y(00)<2318>MAP[00:[00],01:[01],02:[02],03:[03],mmc:(un)]s(0)Z?S?*/
	$A31B  48:          pha 			/* A(00)<231A>X(??)Y(00)<2318>MAP[00:[00],01:[01],02:[02],03:[03],mmc:(un)]s(1)Z1S0*/
	$A31C  4A:           lsr a			/* A(00)X(??)Y(00)<2318>MAP[00:[00],01:[01],02:[02],03:[03],mmc:(un)]s(1)Z1S0*/
	$A31D  AA:           tax 			/* A(00)X(00)<231D>Y(00)<2318>MAP[00:[00],01:[01],02:[02],03:[03],mmc:(un)]s(1)Z1S0*/
	$A31E  BD 05 03:     lda $0305,x			/* A(??)X(00)<231D>Y(00)<2318>MAP[00:[00],01:[01],02:[02],03:[03],mmc:(un)]s(1)Z?S?*/
	$A321  85 17:        sta $17			/* A(??)X(00)<231D>Y(00)<2318>MAP[00:[00],01:[01],02:[02],03:[03],mmc:(un)]s(1)Z?S?*/
	$A323  BD 06 03:     lda $0306,x			/* A(??)X(00)<231D>Y(00)<2318>MAP[00:[00],01:[01],02:[02],03:[03],mmc:(un)]s(1)Z?S?*/
	$A326  85 18:        sta $18			/* A(??)X(00)<231D>Y(00)<2318>MAP[00:[00],01:[01],02:[02],03:[03],mmc:(un)]s(1)Z?S?*/
	$A328  BD 04 03:     lda $0304,x			/* A(??)X(00)<231D>Y(00)<2318>MAP[00:[00],01:[01],02:[02],03:[03],mmc:(un)]s(1)Z?S?*/
	$A32B  85 19:        sta $19			/* A(??)X(00)<231D>Y(00)<2318>MAP[00:[00],01:[01],02:[02],03:[03],mmc:(un)]s(1)Z?S?*/
	$A32D  68:          pla 			/* A(00)X(00)<231D>Y(00)<2318>MAP[00:[00],01:[01],02:[02],03:[03],mmc:(un)]s(0)Z1S0*/
	$A32E  A8:          tay 			/* A(00)X(00)<231D>Y(00)<232E>MAP[00:[00],01:[01],02:[02],03:[03],mmc:(un)]s(0)Z1S0*/
	$A32F  A2 48:       ldx #$48			/* A(00)X(48)<232F>Y(00)<232E>MAP[00:[00],01:[01],02:[02],03:[03],mmc:(un)]s(0)Z0S0*/
-	$A331  20 48 A3:    jsr _func_2348			/* A(??)X(48)<232F>Y(??)MAP[00:[00],01:[01],02:[02],03:[03],mmc:(un)]s(0)Z?S?*/
	$A334  A5 1C:       lda $1C			/* A(??)X(48)<232F>Y(00)<232E>MAP[00:[00],01:[01],02:[02],03:[03],mmc:(un)]s(0)Z?S?*/
	$A336  99 00 04:    sta $0400,y			/* A(??)X(48)<232F>Y(00)<232E>MAP[00:[00],01:[01],02:[02],03:[03],mmc:(un)]s(0)Z?S?*/
	$A339  C8:          iny 			/* A(??)X(48)<232F>Y(??)MAP[00:[00],01:[01],02:[02],03:[03],mmc:(un)]s(0)Z?S?*/
	$A33A  E0 90:       cpx #$90			/* A(??)X(48)<232F>Y(??)MAP[00:[00],01:[01],02:[02],03:[03],mmc:(un)]s(0)Z?S?*/
	$A33C  90 F3:       bcc -		; $A331			/* A(??)X(48)<232F>Y(??)MAP[00:[00],01:[01],02:[02],03:[03],mmc:(un)]s(0)Z?S?*/
	$A33E  98:          tya 			/* A(??)X(48)<232F>Y(??)MAP[00:[00],01:[01],02:[02],03:[03],mmc:(un)]s(0)Z?S?*/
	$A33F  18:          clc 			/* A(??)X(48)<232F>Y(??)MAP[00:[00],01:[01],02:[02],03:[03],mmc:(un)]s(0)Z?S?*/
	$A340  69 07:       adc #$07			/* A(??)X(48)<232F>Y(??)MAP[00:[00],01:[01],02:[02],03:[03],mmc:(un)]s(0)Z?S?*/
	$A342  A8:          tay 			/* A(??)X(48)<232F>Y(??)MAP[00:[00],01:[01],02:[02],03:[03],mmc:(un)]s(0)Z?S?*/
	$A343  C9 90:       cmp #$90			/* A(??)X(48)<232F>Y(??)MAP[00:[00],01:[01],02:[02],03:[03],mmc:(un)]s(0)Z?S?*/
	$A345  90 D3:       bcc --		; $A31A			/* A(??)X(48)<232F>Y(??)MAP[00:[00],01:[01],02:[02],03:[03],mmc:(un)]s(0)Z?S?*/
	$A347  60:          rts 			/* A(??)X(48)<232F>Y(??)MAP[00:[00],01:[01],02:[02],03:[03],mmc:(un)]s(0)Z?S?*/(barrier)
;------------------------------------------
_func_2348
	$A348  A9 01:       lda #$01			/* A(01)<2348>X(48)<232F>Y(00)<232E>MAP[00:[00],01:[01],02:[02],03:[03],mmc:(un)]s(0)Z0S0*/
	$A34A  85 1C:       sta $1C			/* A(01)<2348>X(48)<232F>Y(00)<232E>MAP[00:[00],01:[01],02:[02],03:[03],mmc:(un)]s(0)Z0S0*/
	$A34C  A5 19:       lda $19			/* A(??)X(48)<232F>Y(00)<232E>MAP[00:[00],01:[01],02:[02],03:[03],mmc:(un)]s(0)Z?S?*/
	$A34E  38:          sec 			/* A(??)X(48)<232F>Y(00)<232E>MAP[00:[00],01:[01],02:[02],03:[03],mmc:(un)]s(0)Z?S?*/
	$A34F  FD 04 03:    sbc $0304,x			/* A(??)X(48)<232F>Y(00)<232E>MAP[00:[00],01:[01],02:[02],03:[03],mmc:(un)]s(0)Z?S?*/
	$A352  B0 02:       bcs +		; $A356			/* A(??)X(48)<232F>Y(00)<232E>MAP[00:[00],01:[01],02:[02],03:[03],mmc:(un)]s(0)Z?S?*/
	$A354  49 FF:       eor #$FF			/* A(??)X(48)<232F>Y(00)<232E>MAP[00:[00],01:[01],02:[02],03:[03],mmc:(un)]s(0)Z?S?*/
+	$A356  C9 04:       cmp #$04			/* A(??)X(48)<232F>Y(00)<232E>MAP[00:[00],01:[01],02:[02],03:[03],mmc:(un)]s(0)Z?S?*/
	$A358  B0 44:       bcs +++		; $A39E			/* A(??)X(48)<232F>Y(00)<232E>MAP[00:[00],01:[01],02:[02],03:[03],mmc:(un)]s(0)Z?S?*/
	$A35A  A5 17:       lda $17			/* A(??)X(48)<232F>Y(00)<232E>MAP[00:[00],01:[01],02:[02],03:[03],mmc:(un)]s(0)Z?S?*/
	$A35C  38:          sec 			/* A(??)X(48)<232F>Y(00)<232E>MAP[00:[00],01:[01],02:[02],03:[03],mmc:(un)]s(0)Z?S?*/
	$A35D  FD 05 03:    sbc $0305,x			/* A(??)X(48)<232F>Y(00)<232E>MAP[00:[00],01:[01],02:[02],03:[03],mmc:(un)]s(0)Z?S?*/
	$A360  85 1A:       sta $1A			/* A(??)X(48)<232F>Y(00)<232E>MAP[00:[00],01:[01],02:[02],03:[03],mmc:(un)]s(0)Z?S?*/
	$A362  A5 18:       lda $18			/* A(??)X(48)<232F>Y(00)<232E>MAP[00:[00],01:[01],02:[02],03:[03],mmc:(un)]s(0)Z?S?*/
	$A364  FD 06 03:    sbc $0306,x			/* A(??)X(48)<232F>Y(00)<232E>MAP[00:[00],01:[01],02:[02],03:[03],mmc:(un)]s(0)Z?S?*/
	$A367  85 1B:       sta $1B			/* A(??)X(48)<232F>Y(00)<232E>MAP[00:[00],01:[01],02:[02],03:[03],mmc:(un)]s(0)Z?S?*/
	$A369  B0 0A:       bcs +		; $A375			/* A(??)X(48)<232F>Y(00)<232E>MAP[00:[00],01:[01],02:[02],03:[03],mmc:(un)]s(0)Z?S?*/
	$A36B  49 FF:       eor #$FF			/* A(??)X(48)<232F>Y(00)<232E>MAP[00:[00],01:[01],02:[02],03:[03],mmc:(un)]s(0)Z?S?*/
	$A36D  85 1B:       sta $1B			/* A(??)X(48)<232F>Y(00)<232E>MAP[00:[00],01:[01],02:[02],03:[03],mmc:(un)]s(0)Z?S?*/
	$A36F  A5 1A:       lda $1A			/* A(??)X(48)<232F>Y(00)<232E>MAP[00:[00],01:[01],02:[02],03:[03],mmc:(un)]s(0)Z?S?*/
	$A371  49 FF:       eor #$FF			/* A(??)X(48)<232F>Y(00)<232E>MAP[00:[00],01:[01],02:[02],03:[03],mmc:(un)]s(0)Z?S?*/
	$A373  85 1A:       sta $1A			/* A(??)X(48)<232F>Y(00)<232E>MAP[00:[00],01:[01],02:[02],03:[03],mmc:(un)]s(0)Z?S?*/
+	$A375  A5 1B:       lda $1B			/* A(??)X(48)<232F>Y(00)<232E>MAP[00:[00],01:[01],02:[02],03:[03],mmc:(un)]s(0)Z?S?*/
	$A377  D0 25:       bne +++		; $A39E			/* A(??)X(48)<232F>Y(00)<232E>MAP[00:[00],01:[01],02:[02],03:[03],mmc:(un)]s(0)Z?S?*/
	$A379  A5 1A:       lda $1A			/* A(??)X(48)<232F>Y(00)<232E>MAP[00:[00],01:[01],02:[02],03:[03],mmc:(un)]s(0)Z?S?*/
	$A37B  C9 05:       cmp #$05			/* A(??)X(48)<232F>Y(00)<232E>MAP[00:[00],01:[01],02:[02],03:[03],mmc:(un)]s(0)Z?S?*/
	$A37D  B0 1F:       bcs +++		; $A39E			/* A(??)X(48)<232F>Y(00)<232E>MAP[00:[00],01:[01],02:[02],03:[03],mmc:(un)]s(0)Z?S?*/
	$A37F  A5 33:       lda $33			/* A(??)X(48)<232F>Y(00)<232E>MAP[00:[00],01:[01],02:[02],03:[03],mmc:(un)]s(0)Z?S?*/
	$A381  10 07:       bpl +		; $A38A			/* A(??)X(48)<232F>Y(00)<232E>MAP[00:[00],01:[01],02:[02],03:[03],mmc:(un)]s(0)Z?S?*/
	$A383  BD 00 03:    lda $0300,x			/* A(??)X(48)<232F>Y(00)<232E>MAP[00:[00],01:[01],02:[02],03:[03],mmc:(un)]s(0)Z?S?*/
	$A386  C9 0D:       cmp #$0D			/* A(??)X(48)<232F>Y(00)<232E>MAP[00:[00],01:[01],02:[02],03:[03],mmc:(un)]s(0)Z?S?*/
	$A388  F0 0E:       beq ++		; $A398			/* A(??)X(48)<232F>Y(00)<232E>MAP[00:[00],01:[01],02:[02],03:[03],mmc:(un)]s(0)Z?S?*/
+	$A38A  BD 00 03:    lda $0300,x			/* A(??)X(48)<232F>Y(00)<232E>MAP[00:[00],01:[01],02:[02],03:[03],mmc:(un)]s(0)Z?S?*/
	$A38D  C9 09:       cmp #$09			/* A(??)X(48)<232F>Y(00)<232E>MAP[00:[00],01:[01],02:[02],03:[03],mmc:(un)]s(0)Z?S?*/
	$A38F  D0 11:       bne ++++		; $A3A2			/* A(??)X(48)<232F>Y(00)<232E>MAP[00:[00],01:[01],02:[02],03:[03],mmc:(un)]s(0)Z?S?*/
	$A391  BD 02 03:    lda $0302,x			/* A(??)X(48)<232F>Y(00)<232E>MAP[00:[00],01:[01],02:[02],03:[03],mmc:(un)]s(0)Z?S?*/
	$A394  C9 01:       cmp #$01			/* A(??)X(48)<232F>Y(00)<232E>MAP[00:[00],01:[01],02:[02],03:[03],mmc:(un)]s(0)Z?S?*/
	$A396  D0 0A:       bne ++++		; $A3A2			/* A(??)X(48)<232F>Y(00)<232E>MAP[00:[00],01:[01],02:[02],03:[03],mmc:(un)]s(0)Z?S?*/
++	$A398  A9 02:       lda #$02			/* A(??)X(48)<232F>Y(00)<232E>MAP[00:[00],01:[01],02:[02],03:[03],mmc:(un)]s(0)Z?S?*/
	$A39A  85 1C:       sta $1C			/* A(02)<2398>X(48)<232F>Y(00)<232E>MAP[00:[00],01:[01],02:[02],03:[03],mmc:(un)]s(0)Z0S0*/
	$A39C  D0 04:       bne ++++		; $A3A2			/* A(02)<2398>X(48)<232F>Y(00)<232E>MAP[00:[00],01:[01],02:[02],03:[03],mmc:(un)]s(0)Z0S0*/(barrier)

+++	$A39E  A9 00:       lda #$00			/* A(02)<2398>X(48)<232F>Y(00)<232E>MAP[00:[00],01:[01],02:[02],03:[03],mmc:(un)]s(0)Z0S0*/
	$A3A0  85 1C:       sta $1C			/* A(00)<239E>X(48)<232F>Y(00)<232E>MAP[00:[00],01:[01],02:[02],03:[03],mmc:(un)]s(0)Z1S0*/
++++	$A3A2  8A:          txa 			/* A(02)<2398>X(48)<232F>Y(00)<232E>MAP[00:[00],01:[01],02:[02],03:[03],mmc:(un)]s(0)Z0S0*/
	$A3A3  18:          clc 			/* A(48)<23A2>X(48)<232F>Y(00)<232E>MAP[00:[00],01:[01],02:[02],03:[03],mmc:(un)]s(0)Z0S0*/
	$A3A4  69 08:       adc #$08			/* A(??)X(48)<232F>Y(00)<232E>MAP[00:[00],01:[01],02:[02],03:[03],mmc:(un)]s(0)Z?S?*/
	$A3A6  AA:          tax 			/* A(??)X(??)Y(00)<232E>MAP[00:[00],01:[01],02:[02],03:[03],mmc:(un)]s(0)Z?S?*/
	$A3A7  60:          rts 			/* A(??)X(??)Y(00)<232E>MAP[00:[00],01:[01],02:[02],03:[03],mmc:(un)]s(0)Z?S?*/(barrier)
;------------------------------------------
JumpTableEntry_23A8
	$A3A8  BD 07 03:    lda $0307,x			/* A(??)X(un)Y(un)MAP[00:[00],01:[01],02:[02],03:[03],mmc:(un)]s(0)Z?S?*/
	$A3AB  85 12:       sta $12			/* A(??)X(un)Y(un)MAP[00:[00],01:[01],02:[02],03:[03],mmc:(un)]s(0)Z?S?*/
	$A3AD  A9 01:       lda #$01			/* A(01)<23AD>X(un)Y(un)MAP[00:[00],01:[01],02:[02],03:[03],mmc:(un)]s(0)Z0S0*/
	$A3AF  E0 48:       cpx #$48			/* A(01)<23AD>X(un)Y(un)MAP[00:[00],01:[01],02:[02],03:[03],mmc:(un)]s(0)Z?S?*/
	$A3B1  90 02:       bcc +		; $A3B5			/* A(01)<23AD>X(un)Y(un)MAP[00:[00],01:[01],02:[02],03:[03],mmc:(un)]s(0)Z?S?*/
	$A3B3  A9 21:       lda #$21			/* A(21)<23B3>X(un)Y(un)MAP[00:[00],01:[01],02:[02],03:[03],mmc:(un)]s(0)Z0S0*/
+	$A3B5  85 13:       sta $13			/* A(??)X(un)Y(un)MAP[00:[00],01:[01],02:[02],03:[03],mmc:(un)]s(0)Z0S0*/
	$A3B7  BD 00 03:    lda $0300,x			/* A(??)X(un)Y(un)MAP[00:[00],01:[01],02:[02],03:[03],mmc:(un)]s(0)Z?S?*/
	$A3BA  29 0F:       and #$0F			/* A(??)X(un)Y(un)MAP[00:[00],01:[01],02:[02],03:[03],mmc:(un)]s(0)Z?S?*/
	$A3BC  C9 01:       cmp #$01			/* A(??)X(un)Y(un)MAP[00:[00],01:[01],02:[02],03:[03],mmc:(un)]s(0)Z?S?*/
	$A3BE  D0 04:       bne +		; $A3C4 -> rts			/* A(??)X(un)Y(un)MAP[00:[00],01:[01],02:[02],03:[03],mmc:(un)]s(0)Z?S?*/
	$A3C0  A9 31:       lda #$31			/* A(31)<23C0>X(un)Y(un)MAP[00:[00],01:[01],02:[02],03:[03],mmc:(un)]s(0)Z0S0*/
	$A3C2  85 13:       sta $13			/* A(31)<23C0>X(un)Y(un)MAP[00:[00],01:[01],02:[02],03:[03],mmc:(un)]s(0)Z0S0*/
+	$A3C4  60:          rts 			/* A(31)<23C0>X(un)Y(un)MAP[00:[00],01:[01],02:[02],03:[03],mmc:(un)]s(0)Z0S0*/(barrier)
;------------------------------------------
_func_23C5
	$A3C5  A5 69:       lda $69			/* A(??)X(??)Y(15)<2184>MAP[00:[00],01:[01],02:[02],03:[03],mmc:(un)]s(0)Z?S?*/
	$A3C7  18:          clc 			/* A(??)X(??)Y(15)<2184>MAP[00:[00],01:[01],02:[02],03:[03],mmc:(un)]s(0)Z?S?*/
	$A3C8  69 01:       adc #$01			/* A(??)X(??)Y(15)<2184>MAP[00:[00],01:[01],02:[02],03:[03],mmc:(un)]s(0)Z?S?*/
	$A3CA  85 69:       sta $69			/* A(??)X(??)Y(15)<2184>MAP[00:[00],01:[01],02:[02],03:[03],mmc:(un)]s(0)Z?S?*/
	$A3CC  29 3F:       and #$3F			/* A(??)X(??)Y(15)<2184>MAP[00:[00],01:[01],02:[02],03:[03],mmc:(un)]s(0)Z?S?*/
	$A3CE  D0 03:       bne +		; $A3D3 -> rts			/* A(??)X(??)Y(15)<2184>MAP[00:[00],01:[01],02:[02],03:[03],mmc:(un)]s(0)Z?S?*/
	$A3D0  20 13 C1:    jsr _func_4113			/* A(??)X(??)Y(??)MAP[00:(??),01:(??),02:(??),03:(??),mmc:(un)]s(0)Z?S?*/
+	$A3D3  60:          rts 			/* A(??)X(??)Y(15)<2184>MAP[00:[00],01:[01],02:[02],03:[03],mmc:(un)]s(0)Z?S?*/(barrier)
;------------------------------------------
_data_23D4_indexed
	$A3D4               .byte $21,$31,$01,$11
_func_23D8
	$A3D8  A5 58:       lda $58			/* A(??)X(??)Y(??)MAP[00:[00],01:[01],02:[02],03:[03],mmc:(un)]s(0)Z?S?*/
	$A3DA  0A:          asl a			/* A(??)X(??)Y(??)MAP[00:[00],01:[01],02:[02],03:[03],mmc:(un)]s(0)Z?S?*/
	$A3DB  A8:          tay 			/* A(??)X(??)Y(??)MAP[00:[00],01:[01],02:[02],03:[03],mmc:(un)]s(0)Z?S?*/
	$A3DC  A2 08:       ldx #$08			/* A(??)X(08)<23DC>Y(??)MAP[00:[00],01:[01],02:[02],03:[03],mmc:(un)]s(0)Z0S0*/
	$A3DE  A9 00:       lda #$00			/* A(00)<23DE>X(08)<23DC>Y(??)MAP[00:[00],01:[01],02:[02],03:[03],mmc:(un)]s(0)Z1S0*/
-	$A3E0  19 00 04:    ora $0400,y			/* A(??)X(08)<23DC>Y(??)MAP[00:[00],01:[01],02:[02],03:[03],mmc:(un)]s(0)Z?S?*/
	$A3E3  C8:          iny 			/* A(??)X(08)<23DC>Y(??)MAP[00:[00],01:[01],02:[02],03:[03],mmc:(un)]s(0)Z?S?*/
	$A3E4  CA:          dex 			/* A(??)X(??)Y(??)MAP[00:[00],01:[01],02:[02],03:[03],mmc:(un)]s(0)Z?S?*/
	$A3E5  10 F9:       bpl -		; $A3E0			/* A(??)X(??)Y(??)MAP[00:[00],01:[01],02:[02],03:[03],mmc:(un)]s(0)Z?S?*/
	$A3E7  85 12:       sta $12			/* A(??)X(??)Y(??)MAP[00:[00],01:[01],02:[02],03:[03],mmc:(un)]s(0)Z?S?*/
	$A3E9  A6 58:       ldx $58			/* A(??)X(??)Y(??)MAP[00:[00],01:[01],02:[02],03:[03],mmc:(un)]s(0)Z?S?*/
	$A3EB  60:          rts 			/* A(??)X(??)Y(??)MAP[00:[00],01:[01],02:[02],03:[03],mmc:(un)]s(0)Z?S?*/(barrier)
;------------------------------------------
JumpTableEntry_23EC
	$A3EC  20 D8 A3:    jsr _func_23D8			/* A(??)X(??)Y(??)MAP[00:(??),01:(??),02:(??),03:(??),mmc:(un)]s(0)Z?S?*/
_loc_23EF
	$A3EF  A5 4C:       lda $4C			/* A(03)<25B1>X(??)Y(??)MAP[00:[00],01:[01],02:[02],03:[03],mmc:(un)]s(0)Z0S0*/
	$A3F1  29 0C:       and #$0C			/* A(??)X(??)Y(??)MAP[00:[00],01:[01],02:[02],03:[03],mmc:(un)]s(0)Z?S?*/
	$A3F3  D0 0F:       bne +		; $A404			/* A(??)X(??)Y(??)MAP[00:[00],01:[01],02:[02],03:[03],mmc:(un)]s(0)Z?S?*/
	$A3F5  A5 5E:       lda $5E			/* A(??)X(??)Y(??)MAP[00:[00],01:[01],02:[02],03:[03],mmc:(un)]s(0)Z?S?*/
	$A3F7  29 0F:       and #$0F			/* A(??)X(??)Y(??)MAP[00:[00],01:[01],02:[02],03:[03],mmc:(un)]s(0)Z?S?*/
	$A3F9  C9 0F:       cmp #$0F			/* A(??)X(??)Y(??)MAP[00:[00],01:[01],02:[02],03:[03],mmc:(un)]s(0)Z?S?*/
	$A3FB  F0 07:       beq +		; $A404			/* A(??)X(??)Y(??)MAP[00:[00],01:[01],02:[02],03:[03],mmc:(un)]s(0)Z?S?*/
	$A3FD  A5 5E:       lda $5E			/* A(??)X(??)Y(??)MAP[00:[00],01:[01],02:[02],03:[03],mmc:(un)]s(0)Z?S?*/
	$A3FF  18:          clc 			/* A(??)X(??)Y(??)MAP[00:[00],01:[01],02:[02],03:[03],mmc:(un)]s(0)Z?S?*/
	$A400  69 01:       adc #$01			/* A(??)X(??)Y(??)MAP[00:[00],01:[01],02:[02],03:[03],mmc:(un)]s(0)Z?S?*/
	$A402  D0 02:       bne ++		; $A406			/* A(??)X(??)Y(??)MAP[00:[00],01:[01],02:[02],03:[03],mmc:(un)]s(0)Z?S?*/
+	$A404  A5 5E:       lda $5E			/* A(??)X(??)Y(??)MAP[00:[00],01:[01],02:[02],03:[03],mmc:(un)]s(0)Z?S?*/
++	$A406  9D 01 03:    sta $0301,x			/* A(??)X(??)Y(??)MAP[00:[00],01:[01],02:[02],03:[03],mmc:(un)]s(0)Z?S?*/
	$A409  A5 12:       lda $12			/* A(??)X(??)Y(??)MAP[00:[00],01:[01],02:[02],03:[03],mmc:(un)]s(0)Z?S?*/
	$A40B  F0 08:       beq _func_2415			/* A(??)X(??)Y(??)MAP[00:[00],01:[01],02:[02],03:[03],mmc:(un)]s(0)Z?S?*/
	$A40D  BD 01 03:    lda $0301,x			/* A(??)X(??)Y(??)MAP[00:[00],01:[01],02:[02],03:[03],mmc:(un)]s(0)Z?S?*/
	$A410  09 0F:       ora #$0F			/* A(??)X(??)Y(??)MAP[00:[00],01:[01],02:[02],03:[03],mmc:(un)]s(0)Z?S?*/
	$A412  9D 01 03:    sta $0301,x			/* A(??)X(??)Y(??)MAP[00:[00],01:[01],02:[02],03:[03],mmc:(un)]s(0)Z?S?*/
_func_2415
	$A415  20 D6 A1:    jsr _func_21D6			/* A(85)<25CE>X(??)Y(85)<25C3>MAP[00:[00],01:[01],02:[02],03:[03],mmc:(un)]s(0)Z0S1*/
	$A418  BD 01 03:    lda $0301,x			/* A(??)X(??)Y(??)MAP[00:[00],01:[01],02:[02],03:[03],mmc:(un)]s(0)Z?S?*/
	$A41B  4A:          lsr a			/* A(??)X(??)Y(??)MAP[00:[00],01:[01],02:[02],03:[03],mmc:(un)]s(0)Z?S?*/
	$A41C  4A:          lsr a			/* A(??)X(??)Y(??)MAP[00:[00],01:[01],02:[02],03:[03],mmc:(un)]s(0)Z?S?*/
	$A41D  4A:          lsr a			/* A(??)X(??)Y(??)MAP[00:[00],01:[01],02:[02],03:[03],mmc:(un)]s(0)Z?S?*/
	$A41E  4A:          lsr a			/* A(??)X(??)Y(??)MAP[00:[00],01:[01],02:[02],03:[03],mmc:(un)]s(0)Z?S?*/
	$A41F  A8:          tay 			/* A(??)X(??)Y(??)MAP[00:[00],01:[01],02:[02],03:[03],mmc:(un)]s(0)Z?S?*/
	$A420  A5 F4:       lda $F4			/* A(??)X(??)Y(??)MAP[00:[00],01:[01],02:[02],03:[03],mmc:(un)]s(0)Z?S?*/
	$A422  D0 1B:       bne ++		; $A43F			/* A(??)X(??)Y(??)MAP[00:[00],01:[01],02:[02],03:[03],mmc:(un)]s(0)Z?S?*/
	$A424  E0 20:       cpx #$20			/* A(??)X(??)Y(??)MAP[00:[00],01:[01],02:[02],03:[03],mmc:(un)]s(0)Z?S?*/
	$A426  F0 17:       beq ++		; $A43F			/* A(??)X(??)Y(??)MAP[00:[00],01:[01],02:[02],03:[03],mmc:(un)]s(0)Z?S?*/
	$A428  E0 40:       cpx #$40			/* A(??)X(??)Y(??)MAP[00:[00],01:[01],02:[02],03:[03],mmc:(un)]s(0)Z?S?*/
	$A42A  F0 13:       beq ++		; $A43F			/* A(??)X(??)Y(??)MAP[00:[00],01:[01],02:[02],03:[03],mmc:(un)]s(0)Z?S?*/
	$A42C  A5 4C:       lda $4C			/* A(??)X(??)Y(??)MAP[00:[00],01:[01],02:[02],03:[03],mmc:(un)]s(0)Z?S?*/
	$A42E  29 0C:       and #$0C			/* A(??)X(??)Y(??)MAP[00:[00],01:[01],02:[02],03:[03],mmc:(un)]s(0)Z?S?*/
	$A430  F0 0D:       beq ++		; $A43F			/* A(??)X(??)Y(??)MAP[00:[00],01:[01],02:[02],03:[03],mmc:(un)]s(0)Z?S?*/
	$A432  29 08:       and #$08			/* A(??)X(??)Y(??)MAP[00:[00],01:[01],02:[02],03:[03],mmc:(un)]s(0)Z?S?*/
	$A434  D0 04:       bne +		; $A43A			/* A(??)X(??)Y(??)MAP[00:[00],01:[01],02:[02],03:[03],mmc:(un)]s(0)Z?S?*/
	$A436  E0 18:       cpx #$18			/* A(??)X(??)Y(??)MAP[00:[00],01:[01],02:[02],03:[03],mmc:(un)]s(0)Z?S?*/
	$A438  D0 05:       bne ++		; $A43F			/* A(??)X(??)Y(??)MAP[00:[00],01:[01],02:[02],03:[03],mmc:(un)]s(0)Z?S?*/
+	$A43A  98:          tya 			/* A(??)X(??)Y(??)MAP[00:[00],01:[01],02:[02],03:[03],mmc:(un)]s(0)Z?S?*/
	$A43B  18:          clc 			/* A(??)X(??)Y(??)MAP[00:[00],01:[01],02:[02],03:[03],mmc:(un)]s(0)Z?S?*/
	$A43C  69 0A:       adc #$0A			/* A(??)X(??)Y(??)MAP[00:[00],01:[01],02:[02],03:[03],mmc:(un)]s(0)Z?S?*/
	$A43E  A8:          tay 			/* A(??)X(??)Y(??)MAP[00:[00],01:[01],02:[02],03:[03],mmc:(un)]s(0)Z?S?*/
++	$A43F  B9 56 A4:    lda _data_2456_indexed,y			/* A$2456,y<243F>X(??)Y(??)MAP[00:[00],01:[01],02:[02],03:[03],mmc:(un)]s(0)Z?S?*/
	$A442  85 12:       sta $12			/* A$2456,y<243F>X(??)Y(??)MAP[00:[00],01:[01],02:[02],03:[03],mmc:(un)]s(0)Z?S?*/
	$A444  C9 91:       cmp #$91			/* A$2456,y<243F>X(??)Y(??)MAP[00:[00],01:[01],02:[02],03:[03],mmc:(un)]s(0)Z?S?*/
	$A446  D0 09:       bne +		; $A451			/* A$2456,y<243F>X(??)Y(??)MAP[00:[00],01:[01],02:[02],03:[03],mmc:(un)]s(0)Z?S?*/
	$A448  BD 04 03:    lda $0304,x			/* A(??)X(??)Y(??)MAP[00:[00],01:[01],02:[02],03:[03],mmc:(un)]s(0)Z?S?*/
	$A44B  C5 4D:       cmp $4D			/* A(??)X(??)Y(??)MAP[00:[00],01:[01],02:[02],03:[03],mmc:(un)]s(0)Z?S?*/
	$A44D  90 02:       bcc +		; $A451			/* A(??)X(??)Y(??)MAP[00:[00],01:[01],02:[02],03:[03],mmc:(un)]s(0)Z?S?*/
	$A44F  E6 12:       inc $12			/* A(??)X(??)Y(??)MAP[00:[00],01:[01],02:[02],03:[03],mmc:(un)]s(0)Z?S?*/
+	$A451  A9 01:       lda #$01			/* A(??)X(??)Y(??)MAP[00:[00],01:[01],02:[02],03:[03],mmc:(un)]s(0)Z?S?*/
	$A453  85 13:       sta $13			/* A(01)<2451>X(??)Y(??)MAP[00:[00],01:[01],02:[02],03:[03],mmc:(un)]s(0)Z0S0*/
	$A455  60:          rts 			/* A(01)<2451>X(??)Y(??)MAP[00:[00],01:[01],02:[02],03:[03],mmc:(un)]s(0)Z0S0*/(barrier)
;------------------------------------------
_data_2456_indexed
	$A456               .byte $01,$84,$88,$01,$8A,$8B,$89,$01,$86,$85,$87,$91,$95,$01,$81,$97
	$A466               .byte $96,$01,$80,$93,$94
JumpTableEntry_246B
	$A46B  BD 02 03:    lda $0302,x			/* A(??)X(un)Y(un)MAP[00:[00],01:[01],02:[02],03:[03],mmc:(un)]s(0)Z?S?*/
	$A46E  29 03:       and #$03			/* A(??)X(un)Y(un)MAP[00:[00],01:[01],02:[02],03:[03],mmc:(un)]s(0)Z?S?*/
	$A470  0A:          asl a			/* A(??)X(un)Y(un)MAP[00:[00],01:[01],02:[02],03:[03],mmc:(un)]s(0)Z?S?*/
	$A471  A8:          tay 			/* A(??)X(un)Y(??)MAP[00:[00],01:[01],02:[02],03:[03],mmc:(un)]s(0)Z?S?*/
	$A472  B9 7F A4:    lda _JumpPointerTable_247F,y			/* A$247F,y<2472>X(un)Y(??)MAP[00:[00],01:[01],02:[02],03:[03],mmc:(un)]s(0)Z?S?*/
	$A475  85 10:       sta $10			/* A$247F,y<2472>X(un)Y(??)MAP[00:[00],01:[01],02:[02],03:[03],mmc:(un)]s(0)Z?S?*/
	$A477  B9 80 A4:    lda _JumpPointerTable_247F+1,y			/* A$2480,y<2477>X(un)Y(??)MAP[00:[00],01:[01],02:[02],03:[03],mmc:(un)]s(0)Z?S?*/
	$A47A  85 11:       sta $11			/* A$2480,y<2477>X(un)Y(??)MAP[00:[00],01:[01],02:[02],03:[03],mmc:(un)]s(0)Z?S?*/
	$A47C  6C 10 00:    jmp ($0010)			/* A$2480,y<2477>X(un)Y(??)MAP[00:[00],01:[01],02:[02],03:[03],mmc:(un)]s(0)Z?S?*/
_JumpPointerTable_247F
	$A47F  87 A4:       .word (JumpTableEntry_2487) ;A487 (2487) ()
	$A481  10 A5:       .word (JumpTableEntry_2510) ;A510 (2510) ()
	$A483  A4 A5:       .word (JumpTableEntry_25A4) ;A5A4 (25A4) ()
	$A485  EC A3:       .word (JumpTableEntry_23EC) ;A3EC (23EC) ()
JumpTableEntry_2487
	$A487  A5 1D:       lda $1D			/* A(??)X(un)Y(un)MAP[00:[00],01:[01],02:[02],03:[03],mmc:(un)]s(0)Z?S?*/
	$A489  29 0F:       and #$0F			/* A(??)X(un)Y(un)MAP[00:[00],01:[01],02:[02],03:[03],mmc:(un)]s(0)Z?S?*/
	$A48B  D0 03:       bne +		; $A490			/* A(??)X(un)Y(un)MAP[00:[00],01:[01],02:[02],03:[03],mmc:(un)]s(0)Z?S?*/
	$A48D  20 E7 C0:    jsr _func_40E7			/* A(??)X(??)Y(??)MAP[00:(??),01:(??),02:(??),03:(??),mmc:(un)]s(0)Z?S?*/
+	$A490  A5 4D:       lda $4D			/* A(??)X(??)Y(??)MAP[00:[00],01:[01],02:[02],03:[03],mmc:(un)]s(0)Z?S?*/
	$A492  38:          sec 			/* A(??)X(un)Y(un)MAP[00:[00],01:[01],02:[02],03:[03],mmc:(un)]s(0)Z?S?*/
	$A493  FD 04 03:    sbc $0304,x			/* A(??)X(un)Y(un)MAP[00:[00],01:[01],02:[02],03:[03],mmc:(un)]s(0)Z?S?*/
	$A496  90 04:       bcc +		; $A49C			/* A(??)X(un)Y(un)MAP[00:[00],01:[01],02:[02],03:[03],mmc:(un)]s(0)Z?S?*/
	$A498  C9 24:       cmp #$24			/* A(??)X(un)Y(un)MAP[00:[00],01:[01],02:[02],03:[03],mmc:(un)]s(0)Z?S?*/
	$A49A  B0 2E:       bcs ++		; $A4CA			/* A(??)X(un)Y(un)MAP[00:[00],01:[01],02:[02],03:[03],mmc:(un)]s(0)Z?S?*/
+	$A49C  20 AE C8:    jsr _func_48AE			/* A(??)X(un)Y(un)MAP[00:[00],01:[01],02:[02],03:[03],mmc:(un)]s(0)Z?S?*/
	$A49F  C9 21:       cmp #$21			/* A(??)X(??)Y(??)MAP[00:[00],01:[01],02:[02],03:[03],mmc:(un)]s(0)Z?S?*/
	$A4A1  D0 0E:       bne +		; $A4B1			/* A(??)X(??)Y(??)MAP[00:[00],01:[01],02:[02],03:[03],mmc:(un)]s(0)Z?S?*/
	$A4A3  A5 4E:       lda $4E			/* A(??)X(??)Y(??)MAP[00:[00],01:[01],02:[02],03:[03],mmc:(un)]s(0)Z?S?*/
	$A4A5  8D 95 03:    sta $0395			/* A(??)X(??)Y(??)MAP[00:[00],01:[01],02:[02],03:[03],mmc:(un)]s(0)Z?S?*/
	$A4A8  A5 4F:       lda $4F			/* A(??)X(??)Y(??)MAP[00:[00],01:[01],02:[02],03:[03],mmc:(un)]s(0)Z?S?*/
	$A4AA  8D 96 03:    sta $0396			/* A(??)X(??)Y(??)MAP[00:[00],01:[01],02:[02],03:[03],mmc:(un)]s(0)Z?S?*/
	$A4AD  A9 81:       lda #$81			/* A(81)<24AD>X(??)Y(??)MAP[00:[00],01:[01],02:[02],03:[03],mmc:(un)]s(0)Z0S1*/
	$A4AF  85 35:       sta $35			/* A(81)<24AD>X(??)Y(??)MAP[00:[00],01:[01],02:[02],03:[03],mmc:(un)]s(0)Z0S1*/
+	$A4B1  29 01:       and #$01			/* A(81)<24AD>X(??)Y(??)MAP[00:[00],01:[01],02:[02],03:[03],mmc:(un)]s(0)Z0S1*/
	$A4B3  D0 15:       bne ++		; $A4CA			/* A(??)X(??)Y(??)MAP[00:[00],01:[01],02:[02],03:[03],mmc:(un)]s(0)Z?S?*/
	$A4B5  A0 6F:       ldy #$6F			/* A(??)X(??)Y(6F)<24B5>MAP[00:[00],01:[01],02:[02],03:[03],mmc:(un)]s(0)Z0S0*/
	$A4B7  A5 1D:       lda $1D			/* A(??)X(??)Y(6F)<24B5>MAP[00:[00],01:[01],02:[02],03:[03],mmc:(un)]s(0)Z?S?*/
	$A4B9  29 20:       and #$20			/* A(??)X(??)Y(6F)<24B5>MAP[00:[00],01:[01],02:[02],03:[03],mmc:(un)]s(0)Z?S?*/
	$A4BB  F0 02:       beq +		; $A4BF			/* A(??)X(??)Y(6F)<24B5>MAP[00:[00],01:[01],02:[02],03:[03],mmc:(un)]s(0)Z?S?*/
	$A4BD  A0 71:       ldy #$71			/* A(??)X(??)Y(71)<24BD>MAP[00:[00],01:[01],02:[02],03:[03],mmc:(un)]s(0)Z0S0*/
+	$A4BF  8C 07 03:    sty $0307			/* A(??)X(??)Y(??)MAP[00:[00],01:[01],02:[02],03:[03],mmc:(un)]s(0)Z0S0*/
	$A4C2  A9 47:       lda #$47			/* A(47)<24C2>X(??)Y(6F)<24B5>MAP[00:[00],01:[01],02:[02],03:[03],mmc:(un)]s(0)Z0S0*/
	$A4C4  9D 01 03:    sta $0301,x			/* A(47)<24C2>X(??)Y(6F)<24B5>MAP[00:[00],01:[01],02:[02],03:[03],mmc:(un)]s(0)Z0S0*/
	$A4C7  4C 15 A4:    jmp _func_2415			/* A(47)<24C2>X(??)Y(6F)<24B5>MAP[00:[00],01:[01],02:[02],03:[03],mmc:(un)]s(0)Z0S0*/(barrier)

++	$A4CA  FE 02 03:    inc $0302,x			/* A(47)<24C2>X(??)Y(6F)<24B5>MAP[00:[00],01:[01],02:[02],03:[03],mmc:(un)]s(0)Z0S0*/
	$A4CD  A9 80:       lda #$80			/* A(80)<24CD>X(un)Y(un)MAP[00:[00],01:[01],02:[02],03:[03],mmc:(un)]s(0)Z0S1*/
	$A4CF  85 22:       sta $22			/* A(80)<24CD>X(un)Y(un)MAP[00:[00],01:[01],02:[02],03:[03],mmc:(un)]s(0)Z0S1*/
	$A4D1  A9 F5:       lda #$F5			/* A(F5)<24D1>X(un)Y(un)MAP[00:[00],01:[01],02:[02],03:[03],mmc:(un)]s(0)Z0S1*/
	$A4D3  9D 03 03:    sta $0303,x			/* A(F5)<24D1>X(un)Y(un)MAP[00:[00],01:[01],02:[02],03:[03],mmc:(un)]s(0)Z0S1*/
	$A4D6  A5 FD:       lda $FD			/* A(??)X(un)Y(un)MAP[00:[00],01:[01],02:[02],03:[03],mmc:(un)]s(0)Z?S?*/
	$A4D8  29 FE:       and #$FE			/* A(??)X(un)Y(un)MAP[00:[00],01:[01],02:[02],03:[03],mmc:(un)]s(0)Z?S?*/
	$A4DA  85 FD:       sta $FD			/* A(??)X(un)Y(un)MAP[00:[00],01:[01],02:[02],03:[03],mmc:(un)]s(0)Z?S?*/
	$A4DC  A5 50:       lda $50			/* A(??)X(un)Y(un)MAP[00:[00],01:[01],02:[02],03:[03],mmc:(un)]s(0)Z?S?*/
	$A4DE  38:          sec 			/* A(??)X(un)Y(un)MAP[00:[00],01:[01],02:[02],03:[03],mmc:(un)]s(0)Z?S?*/
	$A4DF  E9 18:       sbc #$18			/* A(??)X(un)Y(un)MAP[00:[00],01:[01],02:[02],03:[03],mmc:(un)]s(0)Z?S?*/
	$A4E1  8D C4 07:    sta $07C4			/* A(??)X(un)Y(un)MAP[00:[00],01:[01],02:[02],03:[03],mmc:(un)]s(0)Z?S?*/
	$A4E4  A5 4D:       lda $4D			/* A(??)X(un)Y(un)MAP[00:[00],01:[01],02:[02],03:[03],mmc:(un)]s(0)Z?S?*/
	$A4E6  38:          sec 			/* A(??)X(un)Y(un)MAP[00:[00],01:[01],02:[02],03:[03],mmc:(un)]s(0)Z?S?*/
	$A4E7  E9 04:       sbc #$04			/* A(??)X(un)Y(un)MAP[00:[00],01:[01],02:[02],03:[03],mmc:(un)]s(0)Z?S?*/
	$A4E9  8D C7 07:    sta $07C7			/* A(??)X(un)Y(un)MAP[00:[00],01:[01],02:[02],03:[03],mmc:(un)]s(0)Z?S?*/
	$A4EC  A9 01:       lda #$01			/* A(01)<24EC>X(un)Y(un)MAP[00:[00],01:[01],02:[02],03:[03],mmc:(un)]s(0)Z0S0*/
	$A4EE  8D C6 07:    sta $07C6			/* A(01)<24EC>X(un)Y(un)MAP[00:[00],01:[01],02:[02],03:[03],mmc:(un)]s(0)Z0S0*/
	$A4F1  A9 BE:       lda #$BE			/* A(BE)<24F1>X(un)Y(un)MAP[00:[00],01:[01],02:[02],03:[03],mmc:(un)]s(0)Z0S1*/
	$A4F3  8D C5 07:    sta $07C5			/* A(BE)<24F1>X(un)Y(un)MAP[00:[00],01:[01],02:[02],03:[03],mmc:(un)]s(0)Z0S1*/
	$A4F6  A9 64:       lda #$64			/* A(64)<24F6>X(un)Y(un)MAP[00:[00],01:[01],02:[02],03:[03],mmc:(un)]s(0)Z0S0*/
	$A4F8  8D 07 03:    sta $0307			/* A(64)<24F6>X(un)Y(un)MAP[00:[00],01:[01],02:[02],03:[03],mmc:(un)]s(0)Z0S0*/
	$A4FB  A9 6E:       lda #$6E			/* A(6E)<24FB>X(un)Y(un)MAP[00:[00],01:[01],02:[02],03:[03],mmc:(un)]s(0)Z0S0*/
	$A4FD  8D 37 03:    sta $0337			/* A(6E)<24FB>X(un)Y(un)MAP[00:[00],01:[01],02:[02],03:[03],mmc:(un)]s(0)Z0S0*/
	$A500  BD 07 03:    lda $0307,x			/* A(??)X(un)Y(un)MAP[00:[00],01:[01],02:[02],03:[03],mmc:(un)]s(0)Z?S?*/
	$A503  85 12:       sta $12			/* A(??)X(un)Y(un)MAP[00:[00],01:[01],02:[02],03:[03],mmc:(un)]s(0)Z?S?*/
	$A505  A9 01:       lda #$01			/* A(01)<2505>X(un)Y(un)MAP[00:[00],01:[01],02:[02],03:[03],mmc:(un)]s(0)Z0S0*/
	$A507  85 13:       sta $13			/* A(01)<2505>X(un)Y(un)MAP[00:[00],01:[01],02:[02],03:[03],mmc:(un)]s(0)Z0S0*/
	$A509  A9 B0:       lda #$B0			/* A(B0)<2509>X(un)Y(un)MAP[00:[00],01:[01],02:[02],03:[03],mmc:(un)]s(0)Z0S1*/
	$A50B  85 82:       sta $82			/* A(B0)<2509>X(un)Y(un)MAP[00:[00],01:[01],02:[02],03:[03],mmc:(un)]s(0)Z0S1*/
	$A50D  4C 77 C1:    jmp _loc_4177			/* A(B0)<2509>X(un)Y(un)MAP[00:[00],01:[01],02:[02],03:[03],mmc:(un)]s(0)Z0S1*/(barrier)
;------------------------------------------
JumpTableEntry_2510
	$A510  DE 03 03:    dec $0303,x			/* A(??)X(un)Y(un)MAP[00:[00],01:[01],02:[02],03:[03],mmc:(un)]s(0)Z?S?*/
	$A513  F0 16:       beq ++		; $A52B			/* A(??)X(un)Y(un)MAP[00:[00],01:[01],02:[02],03:[03],mmc:(un)]s(0)Z?S?*/
	$A515  A9 15:       lda #$15			/* A(15)<2515>X(un)Y(un)MAP[00:[00],01:[01],02:[02],03:[03],mmc:(un)]s(0)Z0S0*/
	$A517  9D 01 03:    sta $0301,x			/* A(15)<2515>X(un)Y(un)MAP[00:[00],01:[01],02:[02],03:[03],mmc:(un)]s(0)Z0S0*/
	$A51A  20 15 A4:    jsr _func_2415			/* A(??)X(??)Y(??)MAP[00:(??),01:(??),02:(??),03:(??),mmc:(un)]s(0)Z?S?*/
	$A51D  20 34 A5:    jsr _func_2534			/* A(??)X(??)Y(??)MAP[00:(??),01:(??),02:(??),03:(??),mmc:(un)]s(0)Z?S?*/
	$A520  A9 04:       lda #$04			/* A(04)<2520>X(??)Y(??)MAP[00:[00],01:[01],02:[02],03:[03],mmc:(un)]s(0)Z0S0*/
	$A522  24 35:       bit $35			/* A(??)X(??)Y(??)MAP[00:[00],01:[01],02:[02],03:[03],mmc:(un)]s(0)Z?S?*/
	$A524  30 02:       bmi +		; $A528			/* A(??)X(??)Y(??)MAP[00:[00],01:[01],02:[02],03:[03],mmc:(un)]s(0)Z?S?*/
	$A526  A9 0C:       lda #$0C			/* A(0C)<2526>X(??)Y(??)MAP[00:[00],01:[01],02:[02],03:[03],mmc:(un)]s(0)Z0S0*/
+	$A528  85 4C:       sta $4C			/* A(0C)<2526>X(??)Y(??)MAP[00:[00],01:[01],02:[02],03:[03],mmc:(un)]s(0)Z0S0*/
	$A52A  60:          rts 			/* A(??)X(??)Y(??)MAP[00:[00],01:[01],02:[02],03:[03],mmc:(un)]s(0)Z?S?*/(barrier)

++	$A52B  FE 02 03:    inc $0302,x			/* A(??)X(un)Y(un)MAP[00:[00],01:[01],02:[02],03:[03],mmc:(un)]s(0)Z?S?*/
	$A52E  A9 7F:       lda #$7F			/* A(7F)<252E>X(un)Y(un)MAP[00:[00],01:[01],02:[02],03:[03],mmc:(un)]s(0)Z0S0*/
	$A530  9D 03 03:    sta $0303,x			/* A(7F)<252E>X(un)Y(un)MAP[00:[00],01:[01],02:[02],03:[03],mmc:(un)]s(0)Z0S0*/
	$A533  60:          rts 			/* A(7F)<252E>X(un)Y(un)MAP[00:[00],01:[01],02:[02],03:[03],mmc:(un)]s(0)Z0S0*/(barrier)
;------------------------------------------
_func_2534
	$A534  AD C4 07:    lda $07C4			/* A(??)X(??)Y(??)MAP[00:[00],01:[01],02:[02],03:[03],mmc:(un)]s(0)Z?S?*/
	$A537  18:          clc 			/* A(??)X(??)Y(??)MAP[00:[00],01:[01],02:[02],03:[03],mmc:(un)]s(0)Z?S?*/
	$A538  69 04:       adc #$04			/* A(??)X(??)Y(??)MAP[00:[00],01:[01],02:[02],03:[03],mmc:(un)]s(0)Z?S?*/
	$A53A  C5 50:       cmp $50			/* A(??)X(??)Y(??)MAP[00:[00],01:[01],02:[02],03:[03],mmc:(un)]s(0)Z?S?*/
	$A53C  F0 0A:       beq ++		; $A548			/* A(??)X(??)Y(??)MAP[00:[00],01:[01],02:[02],03:[03],mmc:(un)]s(0)Z?S?*/
	$A53E  B0 05:       bcs +		; $A545			/* A(??)X(??)Y(??)MAP[00:[00],01:[01],02:[02],03:[03],mmc:(un)]s(0)Z?S?*/
	$A540  E9 02:       sbc #$02			/* A(??)X(??)Y(??)MAP[00:[00],01:[01],02:[02],03:[03],mmc:(un)]s(0)Z?S?*/
	$A542  8D C4 07:    sta $07C4			/* A(??)X(??)Y(??)MAP[00:[00],01:[01],02:[02],03:[03],mmc:(un)]s(0)Z?S?*/
+	$A545  68:          pla 			/* A(??)X(??)Y(??)MAP[00:[00],01:[01],02:[02],03:[03],mmc:(un)]s(0)Z?S?*/
	$A546  68:          pla 			/* A(??)X(??)Y(??)MAP[00:[00],01:[01],02:[02],03:[03],mmc:(un)]s(0)Z?S?*/
	$A547  60:          rts 			/* A(??)X(??)Y(??)MAP[00:[00],01:[01],02:[02],03:[03],mmc:(un)]s(0)Z?S?*/(barrier)

++	$A548  A9 F0:       lda #$F0			/* A(F0)<2548>X(??)Y(??)MAP[00:[00],01:[01],02:[02],03:[03],mmc:(un)]s(0)Z0S1*/
	$A54A  8D C4 07:    sta $07C4			/* A(F0)<2548>X(??)Y(??)MAP[00:[00],01:[01],02:[02],03:[03],mmc:(un)]s(0)Z0S1*/
	$A54D  20 05 A9:    jsr _func_2905			/* A(??)X(??)Y(??)MAP[00:(??),01:(??),02:(??),03:(??),mmc:(un)]s(0)Z?S?*/
	$A550  A9 76:       lda #$76			/* A(76)<2550>X(??)Y(??)MAP[00:[00],01:[01],02:[02],03:[03],mmc:(un)]s(0)Z0S0*/
	$A552  8D 4D 07:    sta $074D			/* A(76)<2550>X(??)Y(??)MAP[00:[00],01:[01],02:[02],03:[03],mmc:(un)]s(0)Z0S0*/
	$A555  20 40 C1:    jsr _func_4140			/* A(??)X(??)Y(??)MAP[00:(??),01:(??),02:(??),03:(??),mmc:(un)]s(0)Z?S?*/
	$A558  A0 00:       ldy #$00			/* A(76)<2550>X(??)Y(00)<2558>MAP[00:[00],01:[01],02:[02],03:[03],mmc:(un)]s(0)Z1S0*/
-	$A55A  B9 00 03:    lda $0300,y			/* A(??)X(??)Y(00)<2558>MAP[00:[00],01:[01],02:[02],03:[03],mmc:(un)]s(0)Z?S?*/
	$A55D  29 0F:       and #$0F			/* A(??)X(??)Y(00)<2558>MAP[00:[00],01:[01],02:[02],03:[03],mmc:(un)]s(0)Z?S?*/
	$A55F  99 00 03:    sta $0300,y			/* A(??)X(??)Y(00)<2558>MAP[00:[00],01:[01],02:[02],03:[03],mmc:(un)]s(0)Z?S?*/
	$A562  98:          tya 			/* A(00)<2562>X(??)Y(00)<2558>MAP[00:[00],01:[01],02:[02],03:[03],mmc:(un)]s(0)Z1S0*/
	$A563  18:          clc 			/* A(00)<2562>X(??)Y(00)<2558>MAP[00:[00],01:[01],02:[02],03:[03],mmc:(un)]s(0)Z1S0*/
	$A564  69 08:       adc #$08			/* A(??)X(??)Y(00)<2558>MAP[00:[00],01:[01],02:[02],03:[03],mmc:(un)]s(0)Z?S?*/
	$A566  A8:          tay 			/* A(??)X(??)Y(??)MAP[00:[00],01:[01],02:[02],03:[03],mmc:(un)]s(0)Z?S?*/
	$A567  C9 90:       cmp #$90			/* A(??)X(??)Y(??)MAP[00:[00],01:[01],02:[02],03:[03],mmc:(un)]s(0)Z?S?*/
	$A569  90 EF:       bcc -		; $A55A			/* A(??)X(??)Y(??)MAP[00:[00],01:[01],02:[02],03:[03],mmc:(un)]s(0)Z?S?*/
	$A56B  85 67:       sta $67			/* A(??)X(??)Y(??)MAP[00:[00],01:[01],02:[02],03:[03],mmc:(un)]s(0)Z?S?*/
	$A56D  A0 20:       ldy #$20			/* A(??)X(??)Y(20)<256D>MAP[00:[00],01:[01],02:[02],03:[03],mmc:(un)]s(0)Z0S0*/
-	$A56F  B9 05 03:    lda $0305,y			/* A(??)X(??)Y(20)<256D>MAP[00:[00],01:[01],02:[02],03:[03],mmc:(un)]s(0)Z?S?*/
	$A572  38:          sec 			/* A(??)X(??)Y(20)<256D>MAP[00:[00],01:[01],02:[02],03:[03],mmc:(un)]s(0)Z?S?*/
	$A573  E9 04:       sbc #$04			/* A(??)X(??)Y(20)<256D>MAP[00:[00],01:[01],02:[02],03:[03],mmc:(un)]s(0)Z?S?*/
	$A575  99 05 03:    sta $0305,y			/* A(??)X(??)Y(20)<256D>MAP[00:[00],01:[01],02:[02],03:[03],mmc:(un)]s(0)Z?S?*/
	$A578  B9 06 03:    lda $0306,y			/* A(??)X(??)Y(20)<256D>MAP[00:[00],01:[01],02:[02],03:[03],mmc:(un)]s(0)Z?S?*/
	$A57B  E9 00:       sbc #$00			/* A(??)X(??)Y(20)<256D>MAP[00:[00],01:[01],02:[02],03:[03],mmc:(un)]s(0)Z?S?*/
	$A57D  99 06 03:    sta $0306,y			/* A(??)X(??)Y(20)<256D>MAP[00:[00],01:[01],02:[02],03:[03],mmc:(un)]s(0)Z?S?*/
	$A580  98:          tya 			/* A(20)<2580>X(??)Y(20)<256D>MAP[00:[00],01:[01],02:[02],03:[03],mmc:(un)]s(0)Z0S0*/
	$A581  18:          clc 			/* A(20)<2580>X(??)Y(20)<256D>MAP[00:[00],01:[01],02:[02],03:[03],mmc:(un)]s(0)Z0S0*/
	$A582  69 08:       adc #$08			/* A(??)X(??)Y(20)<256D>MAP[00:[00],01:[01],02:[02],03:[03],mmc:(un)]s(0)Z?S?*/
	$A584  A8:          tay 			/* A(??)X(??)Y(??)MAP[00:[00],01:[01],02:[02],03:[03],mmc:(un)]s(0)Z?S?*/
	$A585  C9 48:       cmp #$48			/* A(??)X(??)Y(??)MAP[00:[00],01:[01],02:[02],03:[03],mmc:(un)]s(0)Z?S?*/
	$A587  90 E6:       bcc -		; $A56F			/* A(??)X(??)Y(??)MAP[00:[00],01:[01],02:[02],03:[03],mmc:(un)]s(0)Z?S?*/
-	$A589  B9 05 03:    lda $0305,y			/* A(??)X(??)Y(??)MAP[00:[00],01:[01],02:[02],03:[03],mmc:(un)]s(0)Z?S?*/
	$A58C  18:          clc 			/* A(??)X(??)Y(??)MAP[00:[00],01:[01],02:[02],03:[03],mmc:(un)]s(0)Z?S?*/
	$A58D  69 05:       adc #$05			/* A(??)X(??)Y(??)MAP[00:[00],01:[01],02:[02],03:[03],mmc:(un)]s(0)Z?S?*/
	$A58F  99 05 03:    sta $0305,y			/* A(??)X(??)Y(??)MAP[00:[00],01:[01],02:[02],03:[03],mmc:(un)]s(0)Z?S?*/
	$A592  B9 06 03:    lda $0306,y			/* A(??)X(??)Y(??)MAP[00:[00],01:[01],02:[02],03:[03],mmc:(un)]s(0)Z?S?*/
	$A595  69 00:       adc #$00			/* A(??)X(??)Y(??)MAP[00:[00],01:[01],02:[02],03:[03],mmc:(un)]s(0)Z?S?*/
	$A597  99 06 03:    sta $0306,y			/* A(??)X(??)Y(??)MAP[00:[00],01:[01],02:[02],03:[03],mmc:(un)]s(0)Z?S?*/
	$A59A  98:          tya 			/* A(??)X(??)Y(??)MAP[00:[00],01:[01],02:[02],03:[03],mmc:(un)]s(0)Z?S?*/
	$A59B  18:          clc 			/* A(??)X(??)Y(??)MAP[00:[00],01:[01],02:[02],03:[03],mmc:(un)]s(0)Z?S?*/
	$A59C  69 08:       adc #$08			/* A(??)X(??)Y(??)MAP[00:[00],01:[01],02:[02],03:[03],mmc:(un)]s(0)Z?S?*/
	$A59E  A8:          tay 			/* A(??)X(??)Y(??)MAP[00:[00],01:[01],02:[02],03:[03],mmc:(un)]s(0)Z?S?*/
	$A59F  C9 70:       cmp #$70			/* A(??)X(??)Y(??)MAP[00:[00],01:[01],02:[02],03:[03],mmc:(un)]s(0)Z?S?*/
	$A5A1  90 E6:       bcc -		; $A589			/* A(??)X(??)Y(??)MAP[00:[00],01:[01],02:[02],03:[03],mmc:(un)]s(0)Z?S?*/
	$A5A3  60:          rts 			/* A(??)X(??)Y(??)MAP[00:[00],01:[01],02:[02],03:[03],mmc:(un)]s(0)Z?S?*/(barrier)
;------------------------------------------
JumpTableEntry_25A4
	$A5A4  20 D8 A3:    jsr _func_23D8			/* A(??)X(??)Y(??)MAP[00:(??),01:(??),02:(??),03:(??),mmc:(un)]s(0)Z?S?*/
	$A5A7  A5 12:       lda $12			/* A(??)X(??)Y(??)MAP[00:[00],01:[01],02:[02],03:[03],mmc:(un)]s(0)Z?S?*/
	$A5A9  F0 0E:       beq +		; $A5B9			/* A(??)X(??)Y(??)MAP[00:[00],01:[01],02:[02],03:[03],mmc:(un)]s(0)Z?S?*/
	$A5AB  A5 4C:       lda $4C			/* A(??)X(??)Y(??)MAP[00:[00],01:[01],02:[02],03:[03],mmc:(un)]s(0)Z?S?*/
	$A5AD  29 04:       and #$04			/* A(??)X(??)Y(??)MAP[00:[00],01:[01],02:[02],03:[03],mmc:(un)]s(0)Z?S?*/
	$A5AF  D0 08:       bne +		; $A5B9			/* A(??)X(??)Y(??)MAP[00:[00],01:[01],02:[02],03:[03],mmc:(un)]s(0)Z?S?*/
	$A5B1  A9 03:       lda #$03			/* A(03)<25B1>X(??)Y(??)MAP[00:[00],01:[01],02:[02],03:[03],mmc:(un)]s(0)Z0S0*/
	$A5B3  9D 00 03:    sta $0300,x			/* A(03)<25B1>X(??)Y(??)MAP[00:[00],01:[01],02:[02],03:[03],mmc:(un)]s(0)Z0S0*/
	$A5B6  4C EF A3:    jmp _loc_23EF			/* A(03)<25B1>X(??)Y(??)MAP[00:[00],01:[01],02:[02],03:[03],mmc:(un)]s(0)Z0S0*/(barrier)

+	$A5B9  DE 03 03:    dec $0303,x			/* A(03)<25B1>X(??)Y(??)MAP[00:[00],01:[01],02:[02],03:[03],mmc:(un)]s(0)Z0S0*/
	$A5BC  10 05:       bpl +		; $A5C3			/* A(??)X(??)Y(??)MAP[00:[00],01:[01],02:[02],03:[03],mmc:(un)]s(0)Z?S?*/
	$A5BE  A9 7F:       lda #$7F			/* A(7F)<25BE>X(??)Y(??)MAP[00:[00],01:[01],02:[02],03:[03],mmc:(un)]s(0)Z0S0*/
	$A5C0  9D 03 03:    sta $0303,x			/* A(7F)<25BE>X(??)Y(??)MAP[00:[00],01:[01],02:[02],03:[03],mmc:(un)]s(0)Z0S0*/
+	$A5C3  A0 85:       ldy #$85			/* A(7F)<25BE>X(??)Y(??)MAP[00:[00],01:[01],02:[02],03:[03],mmc:(un)]s(0)Z0S?*/
	$A5C5  BD 03 03:    lda $0303,x			/* A(??)X(??)Y(85)<25C3>MAP[00:[00],01:[01],02:[02],03:[03],mmc:(un)]s(0)Z?S?*/
	$A5C8  29 40:       and #$40			/* A(??)X(??)Y(85)<25C3>MAP[00:[00],01:[01],02:[02],03:[03],mmc:(un)]s(0)Z?S?*/
	$A5CA  D0 02:       bne +		; $A5CE			/* A(??)X(??)Y(85)<25C3>MAP[00:[00],01:[01],02:[02],03:[03],mmc:(un)]s(0)Z?S?*/
	$A5CC  A0 45:       ldy #$45			/* A(??)X(??)Y(45)<25CC>MAP[00:[00],01:[01],02:[02],03:[03],mmc:(un)]s(0)Z0S0*/
+	$A5CE  98:          tya 			/* A(??)X(??)Y(??)MAP[00:[00],01:[01],02:[02],03:[03],mmc:(un)]s(0)Z0S?*/
	$A5CF  9D 01 03:    sta $0301,x			/* A(85)<25CE>X(??)Y(85)<25C3>MAP[00:[00],01:[01],02:[02],03:[03],mmc:(un)]s(0)Z0S1*/
	$A5D2  4C 15 A4:    jmp _func_2415			/* A(85)<25CE>X(??)Y(85)<25C3>MAP[00:[00],01:[01],02:[02],03:[03],mmc:(un)]s(0)Z0S1*/(barrier)
;------------------------------------------
_func_25D5
	$A5D5  A5 4C:       lda $4C			/* A(??)X(??)Y(??)MAP[00:[00],01:[01],02:[02],03:[03],mmc:(un)]s(0)Z?S?*/
	$A5D7  29 C0:       and #$C0			/* A(??)X(??)Y(??)MAP[00:[00],01:[01],02:[02],03:[03],mmc:(un)]s(0)Z?S?*/
	$A5D9  C9 C0:       cmp #$C0			/* A(??)X(??)Y(??)MAP[00:[00],01:[01],02:[02],03:[03],mmc:(un)]s(0)Z?S?*/
	$A5DB  D0 34:       bne ++		; $A611 -> rts			/* A(??)X(??)Y(??)MAP[00:[00],01:[01],02:[02],03:[03],mmc:(un)]s(0)Z?S?*/
	$A5DD  20 3E AC:    jsr _func_2C3E			/* A(??)X(??)Y(??)MAP[00:(??),01:(??),02:(??),03:(??),mmc:(un)]s(0)Z?S?*/
	$A5E0  90 2F:       bcc ++		; $A611 -> rts			/* A(??)X(??)Y(??)MAP[00:[00],01:[01],02:[02],03:[03],mmc:(un)]s(0)Z?S?*/
	$A5E2  20 6D C1:    jsr _func_416D			/* A(??)X(??)Y(??)MAP[00:(??),01:(??),02:(??),03:(??),mmc:(un)]s(0)Z?S?*/
	$A5E5  A0 00:       ldy #$00			/* A(??)X(??)Y(00)<25E5>MAP[00:[00],01:[01],02:[02],03:[03],mmc:(un)]s(0)Z1S0*/
-	$A5E7  B9 00 03:    lda $0300,y			/* A(??)X(??)Y(00)<25E5>MAP[00:[00],01:[01],02:[02],03:[03],mmc:(un)]s(0)Z?S?*/
	$A5EA  09 80:       ora #$80			/* A(??)X(??)Y(00)<25E5>MAP[00:[00],01:[01],02:[02],03:[03],mmc:(un)]s(0)Z?S?*/
	$A5EC  99 00 03:    sta $0300,y			/* A(??)X(??)Y(00)<25E5>MAP[00:[00],01:[01],02:[02],03:[03],mmc:(un)]s(0)Z?S?*/
	$A5EF  98:          tya 			/* A(00)<25EF>X(??)Y(00)<25E5>MAP[00:[00],01:[01],02:[02],03:[03],mmc:(un)]s(0)Z1S0*/
	$A5F0  18:          clc 			/* A(00)<25EF>X(??)Y(00)<25E5>MAP[00:[00],01:[01],02:[02],03:[03],mmc:(un)]s(0)Z1S0*/
	$A5F1  69 08:       adc #$08			/* A(??)X(??)Y(00)<25E5>MAP[00:[00],01:[01],02:[02],03:[03],mmc:(un)]s(0)Z?S?*/
	$A5F3  A8:          tay 			/* A(??)X(??)Y(??)MAP[00:[00],01:[01],02:[02],03:[03],mmc:(un)]s(0)Z?S?*/
	$A5F4  C9 90:       cmp #$90			/* A(??)X(??)Y(??)MAP[00:[00],01:[01],02:[02],03:[03],mmc:(un)]s(0)Z?S?*/
	$A5F6  90 EF:       bcc -		; $A5E7			/* A(??)X(??)Y(??)MAP[00:[00],01:[01],02:[02],03:[03],mmc:(un)]s(0)Z?S?*/
	$A5F8  A9 0C:       lda #$0C			/* A(0C)<25F8>X(??)Y(??)MAP[00:[00],01:[01],02:[02],03:[03],mmc:(un)]s(0)Z0S0*/
	$A5FA  9D 00 03:    sta $0300,x			/* A(0C)<25F8>X(??)Y(??)MAP[00:[00],01:[01],02:[02],03:[03],mmc:(un)]s(0)Z0S0*/
	$A5FD  A9 60:       lda #$60			/* A(60)<25FD>X(??)Y(??)MAP[00:[00],01:[01],02:[02],03:[03],mmc:(un)]s(0)Z0S0*/
	$A5FF  9D 02 03:    sta $0302,x			/* A(60)<25FD>X(??)Y(??)MAP[00:[00],01:[01],02:[02],03:[03],mmc:(un)]s(0)Z0S0*/
	$A602  A0 42:       ldy #$42			/* A(60)<25FD>X(??)Y(42)<2602>MAP[00:[00],01:[01],02:[02],03:[03],mmc:(un)]s(0)Z0S0*/
	$A604  BD 01 03:    lda $0301,x			/* A(??)X(??)Y(42)<2602>MAP[00:[00],01:[01],02:[02],03:[03],mmc:(un)]s(0)Z?S?*/
	$A607  30 02:       bmi +		; $A60B			/* A(??)X(??)Y(42)<2602>MAP[00:[00],01:[01],02:[02],03:[03],mmc:(un)]s(0)Z?S?*/
	$A609  A0 44:       ldy #$44			/* A(??)X(??)Y(44)<2609>MAP[00:[00],01:[01],02:[02],03:[03],mmc:(un)]s(0)Z0S0*/
+	$A60B  68:          pla 			/* A(??)X(??)Y(??)MAP[00:[00],01:[01],02:[02],03:[03],mmc:(un)]s(0)Z0S0*/
	$A60C  68:          pla 			/* A(??)X(??)Y(42)<2602>MAP[00:[00],01:[01],02:[02],03:[03],mmc:(un)]s(0)Z?S?*/
	$A60D  98:          tya 			/* A(42)<260D>X(??)Y(42)<2602>MAP[00:[00],01:[01],02:[02],03:[03],mmc:(un)]s(0)Z0S0*/
	$A60E  4C 79 A7:    jmp ++++		; $A779			/* A(42)<260D>X(??)Y(42)<2602>MAP[00:[00],01:[01],02:[02],03:[03],mmc:(un)]s(0)Z0S0*/(barrier)

++	$A611  60:          rts 			/* A(42)<260D>X(??)Y(42)<2602>MAP[00:[00],01:[01],02:[02],03:[03],mmc:(un)]s(0)Z0S0*/(barrier)
;------------------------------------------
JumpTableEntry_2612
	$A612  20 D5 A5:    jsr _func_25D5			/* A(??)X(??)Y(??)MAP[00:(??),01:(??),02:(??),03:(??),mmc:(un)]s(0)Z?S?*/
	$A615  A9 00:       lda #$00			/* A(00)<2615>X(??)Y(??)MAP[00:[00],01:[01],02:[02],03:[03],mmc:(un)]s(0)Z1S0*/
	$A617  85 13:       sta $13			/* A(00)<2615>X(??)Y(??)MAP[00:[00],01:[01],02:[02],03:[03],mmc:(un)]s(0)Z1S0*/
	$A619  BD 04 03:    lda $0304,x			/* A(??)X(??)Y(??)MAP[00:[00],01:[01],02:[02],03:[03],mmc:(un)]s(0)Z?S?*/
	$A61C  38:          sec 			/* A(??)X(??)Y(??)MAP[00:[00],01:[01],02:[02],03:[03],mmc:(un)]s(0)Z?S?*/
	$A61D  E5 4D:       sbc $4D			/* A(??)X(??)Y(??)MAP[00:[00],01:[01],02:[02],03:[03],mmc:(un)]s(0)Z?S?*/
	$A61F  85 10:       sta $10			/* A(??)X(??)Y(??)MAP[00:[00],01:[01],02:[02],03:[03],mmc:(un)]s(0)Z?S?*/
	$A621  A9 00:       lda #$00			/* A(00)<2621>X(??)Y(??)MAP[00:[00],01:[01],02:[02],03:[03],mmc:(un)]s(0)Z1S0*/
	$A623  E9 00:       sbc #$00			/* A(??)X(??)Y(??)MAP[00:[00],01:[01],02:[02],03:[03],mmc:(un)]s(0)Z?S?*/
	$A625  85 11:       sta $11			/* A(??)X(??)Y(??)MAP[00:[00],01:[01],02:[02],03:[03],mmc:(un)]s(0)Z?S?*/
	$A627  06 10:       asl $10			/* A(??)X(??)Y(??)MAP[00:[00],01:[01],02:[02],03:[03],mmc:(un)]s(0)Z?S?*/
	$A629  26 11:       rol $11			/* A(??)X(??)Y(??)MAP[00:[00],01:[01],02:[02],03:[03],mmc:(un)]s(0)Z?S?*/
	$A62B  A5 10:       lda $10			/* A(??)X(??)Y(??)MAP[00:[00],01:[01],02:[02],03:[03],mmc:(un)]s(0)Z?S?*/
	$A62D  18:          clc 			/* A(??)X(??)Y(??)MAP[00:[00],01:[01],02:[02],03:[03],mmc:(un)]s(0)Z?S?*/
	$A62E  69 68:       adc #$68			/* A(??)X(??)Y(??)MAP[00:[00],01:[01],02:[02],03:[03],mmc:(un)]s(0)Z?S?*/
	$A630  85 12:       sta $12			/* A(??)X(??)Y(??)MAP[00:[00],01:[01],02:[02],03:[03],mmc:(un)]s(0)Z?S?*/
	$A632  A5 11:       lda $11			/* A(??)X(??)Y(??)MAP[00:[00],01:[01],02:[02],03:[03],mmc:(un)]s(0)Z?S?*/
	$A634  69 00:       adc #$00			/* A(??)X(??)Y(??)MAP[00:[00],01:[01],02:[02],03:[03],mmc:(un)]s(0)Z?S?*/
	$A636  85 11:       sta $11			/* A(??)X(??)Y(??)MAP[00:[00],01:[01],02:[02],03:[03],mmc:(un)]s(0)Z?S?*/
	$A638  F0 0E:       beq ++		; $A648			/* A(??)X(??)Y(??)MAP[00:[00],01:[01],02:[02],03:[03],mmc:(un)]s(0)Z?S?*/
	$A63A  30 06:       bmi +		; $A642			/* A(??)X(??)Y(??)MAP[00:[00],01:[01],02:[02],03:[03],mmc:(un)]s(0)Z?S?*/
--	$A63C  A9 40:       lda #$40			/* A(40)<263C>X(??)Y(??)MAP[00:[00],01:[01],02:[02],03:[03],mmc:(un)]s(0)Z0S0*/
	$A63E  85 13:       sta $13			/* A(40)<263C>X(??)Y(??)MAP[00:[00],01:[01],02:[02],03:[03],mmc:(un)]s(0)Z0S0*/
	$A640  D0 10:       bne +++		; $A652			/* A(40)<263C>X(??)Y(??)MAP[00:[00],01:[01],02:[02],03:[03],mmc:(un)]s(0)Z0S0*/(barrier)

+ -	$A642  A9 80:       lda #$80			/* A(40)<263C>X(??)Y(??)MAP[00:[00],01:[01],02:[02],03:[03],mmc:(un)]s(0)Z0S0*/
	$A644  85 13:       sta $13			/* A(80)<2642>X(??)Y(??)MAP[00:[00],01:[01],02:[02],03:[03],mmc:(un)]s(0)Z0S1*/
	$A646  D0 0A:       bne +++		; $A652			/* A(80)<2642>X(??)Y(??)MAP[00:[00],01:[01],02:[02],03:[03],mmc:(un)]s(0)Z0S1*/(barrier)

++	$A648  A5 12:       lda $12			/* A(80)<2642>X(??)Y(??)MAP[00:[00],01:[01],02:[02],03:[03],mmc:(un)]s(0)Z0S1*/
	$A64A  C9 08:       cmp #$08			/* A(??)X(??)Y(??)MAP[00:[00],01:[01],02:[02],03:[03],mmc:(un)]s(0)Z?S?*/
	$A64C  90 F4:       bcc -		; $A642			/* A(??)X(??)Y(??)MAP[00:[00],01:[01],02:[02],03:[03],mmc:(un)]s(0)Z?S?*/
	$A64E  C9 C8:       cmp #$C8			/* A(??)X(??)Y(??)MAP[00:[00],01:[01],02:[02],03:[03],mmc:(un)]s(0)Z?S?*/
	$A650  B0 EA:       bcs --		; $A63C			/* A(??)X(??)Y(??)MAP[00:[00],01:[01],02:[02],03:[03],mmc:(un)]s(0)Z?S?*/
+++	$A652  BD 05 03:    lda $0305,x			/* A(40)<263C>X(??)Y(??)MAP[00:[00],01:[01],02:[02],03:[03],mmc:(un)]s(0)Z0S0*/
	$A655  38:          sec 			/* A(??)X(??)Y(??)MAP[00:[00],01:[01],02:[02],03:[03],mmc:(un)]s(0)Z?S?*/
	$A656  E5 4E:       sbc $4E			/* A(??)X(??)Y(??)MAP[00:[00],01:[01],02:[02],03:[03],mmc:(un)]s(0)Z?S?*/
	$A658  85 10:       sta $10			/* A(??)X(??)Y(??)MAP[00:[00],01:[01],02:[02],03:[03],mmc:(un)]s(0)Z?S?*/
	$A65A  BD 06 03:    lda $0306,x			/* A(??)X(??)Y(??)MAP[00:[00],01:[01],02:[02],03:[03],mmc:(un)]s(0)Z?S?*/
	$A65D  E5 4F:       sbc $4F			/* A(??)X(??)Y(??)MAP[00:[00],01:[01],02:[02],03:[03],mmc:(un)]s(0)Z?S?*/
	$A65F  85 11:       sta $11			/* A(??)X(??)Y(??)MAP[00:[00],01:[01],02:[02],03:[03],mmc:(un)]s(0)Z?S?*/
	$A661  06 10:       asl $10			/* A(??)X(??)Y(??)MAP[00:[00],01:[01],02:[02],03:[03],mmc:(un)]s(0)Z?S?*/
	$A663  26 11:       rol $11			/* A(??)X(??)Y(??)MAP[00:[00],01:[01],02:[02],03:[03],mmc:(un)]s(0)Z?S?*/
	$A665  A5 10:       lda $10			/* A(??)X(??)Y(??)MAP[00:[00],01:[01],02:[02],03:[03],mmc:(un)]s(0)Z?S?*/
	$A667  18:          clc 			/* A(??)X(??)Y(??)MAP[00:[00],01:[01],02:[02],03:[03],mmc:(un)]s(0)Z?S?*/
	$A668  69 B0:       adc #$B0			/* A(??)X(??)Y(??)MAP[00:[00],01:[01],02:[02],03:[03],mmc:(un)]s(0)Z?S?*/
	$A66A  85 10:       sta $10			/* A(??)X(??)Y(??)MAP[00:[00],01:[01],02:[02],03:[03],mmc:(un)]s(0)Z?S?*/
	$A66C  A5 11:       lda $11			/* A(??)X(??)Y(??)MAP[00:[00],01:[01],02:[02],03:[03],mmc:(un)]s(0)Z?S?*/
	$A66E  69 00:       adc #$00			/* A(??)X(??)Y(??)MAP[00:[00],01:[01],02:[02],03:[03],mmc:(un)]s(0)Z?S?*/
	$A670  85 11:       sta $11			/* A(??)X(??)Y(??)MAP[00:[00],01:[01],02:[02],03:[03],mmc:(un)]s(0)Z?S?*/
	$A672  F0 12:       beq ++		; $A686			/* A(??)X(??)Y(??)MAP[00:[00],01:[01],02:[02],03:[03],mmc:(un)]s(0)Z?S?*/
	$A674  30 08:       bmi +		; $A67E			/* A(??)X(??)Y(??)MAP[00:[00],01:[01],02:[02],03:[03],mmc:(un)]s(0)Z?S?*/
--	$A676  A5 13:       lda $13			/* A(??)X(??)Y(??)MAP[00:[00],01:[01],02:[02],03:[03],mmc:(un)]s(0)Z?S?*/
	$A678  09 10:       ora #$10			/* A(??)X(??)Y(??)MAP[00:[00],01:[01],02:[02],03:[03],mmc:(un)]s(0)Z?S?*/
	$A67A  85 13:       sta $13			/* A(??)X(??)Y(??)MAP[00:[00],01:[01],02:[02],03:[03],mmc:(un)]s(0)Z?S?*/
	$A67C  D0 12:       bne +++		; $A690			/* A(??)X(??)Y(??)MAP[00:[00],01:[01],02:[02],03:[03],mmc:(un)]s(0)Z?S?*/
+ -	$A67E  A5 13:       lda $13			/* A(??)X(??)Y(??)MAP[00:[00],01:[01],02:[02],03:[03],mmc:(un)]s(0)Z?S?*/
	$A680  09 20:       ora #$20			/* A(??)X(??)Y(??)MAP[00:[00],01:[01],02:[02],03:[03],mmc:(un)]s(0)Z?S?*/
	$A682  85 13:       sta $13			/* A(??)X(??)Y(??)MAP[00:[00],01:[01],02:[02],03:[03],mmc:(un)]s(0)Z?S?*/
	$A684  D0 0A:       bne +++		; $A690			/* A(??)X(??)Y(??)MAP[00:[00],01:[01],02:[02],03:[03],mmc:(un)]s(0)Z?S?*/
++	$A686  A5 10:       lda $10			/* A(??)X(??)Y(??)MAP[00:[00],01:[01],02:[02],03:[03],mmc:(un)]s(0)Z?S?*/
	$A688  C9 08:       cmp #$08			/* A(??)X(??)Y(??)MAP[00:[00],01:[01],02:[02],03:[03],mmc:(un)]s(0)Z?S?*/
	$A68A  90 F2:       bcc -		; $A67E			/* A(??)X(??)Y(??)MAP[00:[00],01:[01],02:[02],03:[03],mmc:(un)]s(0)Z?S?*/
	$A68C  C9 E8:       cmp #$E8			/* A(??)X(??)Y(??)MAP[00:[00],01:[01],02:[02],03:[03],mmc:(un)]s(0)Z?S?*/
	$A68E  B0 E6:       bcs --		; $A676			/* A(??)X(??)Y(??)MAP[00:[00],01:[01],02:[02],03:[03],mmc:(un)]s(0)Z?S?*/
+++	$A690  A5 13:       lda $13			/* A(??)X(??)Y(??)MAP[00:[00],01:[01],02:[02],03:[03],mmc:(un)]s(0)Z?S?*/
	$A692  29 F0:       and #$F0			/* A(??)X(??)Y(??)MAP[00:[00],01:[01],02:[02],03:[03],mmc:(un)]s(0)Z?S?*/
	$A694  F0 07:       beq +		; $A69D			/* A(??)X(??)Y(??)MAP[00:[00],01:[01],02:[02],03:[03],mmc:(un)]s(0)Z?S?*/
	$A696  A5 13:       lda $13			/* A(??)X(??)Y(??)MAP[00:[00],01:[01],02:[02],03:[03],mmc:(un)]s(0)Z?S?*/
	$A698  09 03:       ora #$03			/* A(??)X(??)Y(??)MAP[00:[00],01:[01],02:[02],03:[03],mmc:(un)]s(0)Z?S?*/
	$A69A  4C FE A6:    jmp ++		; $A6FE			/* A(??)X(??)Y(??)MAP[00:[00],01:[01],02:[02],03:[03],mmc:(un)]s(0)Z?S?*/(barrier)

+	$A69D  A5 10:       lda $10			/* A(??)X(??)Y(??)MAP[00:[00],01:[01],02:[02],03:[03],mmc:(un)]s(0)Z?S?*/
	$A69F  85 11:       sta $11			/* A(??)X(??)Y(??)MAP[00:[00],01:[01],02:[02],03:[03],mmc:(un)]s(0)Z?S?*/
	$A6A1  A5 12:       lda $12			/* A(??)X(??)Y(??)MAP[00:[00],01:[01],02:[02],03:[03],mmc:(un)]s(0)Z?S?*/
	$A6A3  85 10:       sta $10			/* A(??)X(??)Y(??)MAP[00:[00],01:[01],02:[02],03:[03],mmc:(un)]s(0)Z?S?*/
	$A6A5  20 80 A7:    jsr _func_2780			/* A(??)X(??)Y(??)MAP[00:(??),01:(??),02:(??),03:(??),mmc:(un)]s(0)Z?S?*/
	$A6A8  A9 3D:       lda #$3D			/* A(3D)<26A8>X(??)Y(??)MAP[00:[00],01:[01],02:[02],03:[03],mmc:(un)]s(0)Z0S0*/
	$A6AA  18:          clc 			/* A(3D)<26A8>X(??)Y(??)MAP[00:[00],01:[01],02:[02],03:[03],mmc:(un)]s(0)Z0S0*/
	$A6AB  65 10:       adc $10			/* A(??)X(??)Y(??)MAP[00:[00],01:[01],02:[02],03:[03],mmc:(un)]s(0)Z?S?*/
	$A6AD  85 12:       sta $12			/* A(??)X(??)Y(??)MAP[00:[00],01:[01],02:[02],03:[03],mmc:(un)]s(0)Z?S?*/
	$A6AF  A9 B9:       lda #$B9			/* A(B9)<26AF>X(??)Y(??)MAP[00:[00],01:[01],02:[02],03:[03],mmc:(un)]s(0)Z0S1*/
	$A6B1  65 11:       adc $11			/* A(??)X(??)Y(??)MAP[00:[00],01:[01],02:[02],03:[03],mmc:(un)]s(0)Z?S?*/
	$A6B3  85 13:       sta $13			/* A(??)X(??)Y(??)MAP[00:[00],01:[01],02:[02],03:[03],mmc:(un)]s(0)Z?S?*/
	$A6B5  A0 00:       ldy #$00			/* A(??)X(??)Y(00)<26B5>MAP[00:[00],01:[01],02:[02],03:[03],mmc:(un)]s(0)Z1S0*/
	$A6B7  B1 12:       lda ($12),y			/* A(??)X(??)Y(00)<26B5>MAP[00:[00],01:[01],02:[02],03:[03],mmc:(un)]s(0)Z?S?*/
	$A6B9  A8:          tay 			/* A(??)X(??)Y(??)MAP[00:[00],01:[01],02:[02],03:[03],mmc:(un)]s(0)Z?S?*/
	$A6BA  A5 14:       lda $14			/* A(??)X(??)Y(??)MAP[00:[00],01:[01],02:[02],03:[03],mmc:(un)]s(0)Z?S?*/
	$A6BC  29 08:       and #$08			/* A(??)X(??)Y(??)MAP[00:[00],01:[01],02:[02],03:[03],mmc:(un)]s(0)Z?S?*/
	$A6BE  D0 06:       bne +		; $A6C6			/* A(??)X(??)Y(??)MAP[00:[00],01:[01],02:[02],03:[03],mmc:(un)]s(0)Z?S?*/
	$A6C0  98:          tya 			/* A(??)X(??)Y(??)MAP[00:[00],01:[01],02:[02],03:[03],mmc:(un)]s(0)Z?S?*/
	$A6C1  4A:          lsr a			/* A(??)X(??)Y(??)MAP[00:[00],01:[01],02:[02],03:[03],mmc:(un)]s(0)Z?S?*/
	$A6C2  4A:          lsr a			/* A(??)X(??)Y(??)MAP[00:[00],01:[01],02:[02],03:[03],mmc:(un)]s(0)Z?S?*/
	$A6C3  4A:          lsr a			/* A(??)X(??)Y(??)MAP[00:[00],01:[01],02:[02],03:[03],mmc:(un)]s(0)Z?S?*/
	$A6C4  4A:          lsr a			/* A(??)X(??)Y(??)MAP[00:[00],01:[01],02:[02],03:[03],mmc:(un)]s(0)Z?S?*/
	$A6C5  A8:          tay 			/* A(??)X(??)Y(??)MAP[00:[00],01:[01],02:[02],03:[03],mmc:(un)]s(0)Z?S?*/
+	$A6C6  98:          tya 			/* A(??)X(??)Y(??)MAP[00:[00],01:[01],02:[02],03:[03],mmc:(un)]s(0)Z?S?*/
	$A6C7  29 0F:       and #$0F			/* A(??)X(??)Y(??)MAP[00:[00],01:[01],02:[02],03:[03],mmc:(un)]s(0)Z?S?*/
	$A6C9  C9 0F:       cmp #$0F			/* A(??)X(??)Y(??)MAP[00:[00],01:[01],02:[02],03:[03],mmc:(un)]s(0)Z?S?*/
	$A6CB  D0 05:       bne +		; $A6D2			/* A(??)X(??)Y(??)MAP[00:[00],01:[01],02:[02],03:[03],mmc:(un)]s(0)Z?S?*/
	$A6CD  BD 01 03:    lda $0301,x			/* A(??)X(??)Y(??)MAP[00:[00],01:[01],02:[02],03:[03],mmc:(un)]s(0)Z?S?*/
	$A6D0  29 0F:       and #$0F			/* A(??)X(??)Y(??)MAP[00:[00],01:[01],02:[02],03:[03],mmc:(un)]s(0)Z?S?*/
+	$A6D2  85 15:       sta $15			/* A(??)X(??)Y(??)MAP[00:[00],01:[01],02:[02],03:[03],mmc:(un)]s(0)Z?S?*/
	$A6D4  A9 BD:       lda #$BD			/* A(BD)<26D4>X(??)Y(??)MAP[00:[00],01:[01],02:[02],03:[03],mmc:(un)]s(0)Z0S1*/
	$A6D6  18:          clc 			/* A(BD)<26D4>X(??)Y(??)MAP[00:[00],01:[01],02:[02],03:[03],mmc:(un)]s(0)Z0S1*/
	$A6D7  65 10:       adc $10			/* A(??)X(??)Y(??)MAP[00:[00],01:[01],02:[02],03:[03],mmc:(un)]s(0)Z?S?*/
	$A6D9  85 12:       sta $12			/* A(??)X(??)Y(??)MAP[00:[00],01:[01],02:[02],03:[03],mmc:(un)]s(0)Z?S?*/
	$A6DB  A9 BC:       lda #$BC			/* A(BC)<26DB>X(??)Y(??)MAP[00:[00],01:[01],02:[02],03:[03],mmc:(un)]s(0)Z0S1*/
	$A6DD  65 11:       adc $11			/* A(??)X(??)Y(??)MAP[00:[00],01:[01],02:[02],03:[03],mmc:(un)]s(0)Z?S?*/
	$A6DF  85 13:       sta $13			/* A(??)X(??)Y(??)MAP[00:[00],01:[01],02:[02],03:[03],mmc:(un)]s(0)Z?S?*/
	$A6E1  A0 00:       ldy #$00			/* A(??)X(??)Y(00)<26E1>MAP[00:[00],01:[01],02:[02],03:[03],mmc:(un)]s(0)Z1S0*/
	$A6E3  B1 12:       lda ($12),y			/* A(??)X(??)Y(00)<26E1>MAP[00:[00],01:[01],02:[02],03:[03],mmc:(un)]s(0)Z?S?*/
	$A6E5  A8:          tay 			/* A(??)X(??)Y(??)MAP[00:[00],01:[01],02:[02],03:[03],mmc:(un)]s(0)Z?S?*/
	$A6E6  A5 14:       lda $14			/* A(??)X(??)Y(??)MAP[00:[00],01:[01],02:[02],03:[03],mmc:(un)]s(0)Z?S?*/
	$A6E8  29 08:       and #$08			/* A(??)X(??)Y(??)MAP[00:[00],01:[01],02:[02],03:[03],mmc:(un)]s(0)Z?S?*/
	$A6EA  F0 06:       beq +		; $A6F2			/* A(??)X(??)Y(??)MAP[00:[00],01:[01],02:[02],03:[03],mmc:(un)]s(0)Z?S?*/
	$A6EC  98:          tya 			/* A(??)X(??)Y(??)MAP[00:[00],01:[01],02:[02],03:[03],mmc:(un)]s(0)Z?S?*/
	$A6ED  0A:          asl a			/* A(??)X(??)Y(??)MAP[00:[00],01:[01],02:[02],03:[03],mmc:(un)]s(0)Z?S?*/
	$A6EE  0A:          asl a			/* A(??)X(??)Y(??)MAP[00:[00],01:[01],02:[02],03:[03],mmc:(un)]s(0)Z?S?*/
	$A6EF  0A:          asl a			/* A(??)X(??)Y(??)MAP[00:[00],01:[01],02:[02],03:[03],mmc:(un)]s(0)Z?S?*/
	$A6F0  0A:          asl a			/* A(??)X(??)Y(??)MAP[00:[00],01:[01],02:[02],03:[03],mmc:(un)]s(0)Z?S?*/
	$A6F1  A8:          tay 			/* A(??)X(??)Y(??)MAP[00:[00],01:[01],02:[02],03:[03],mmc:(un)]s(0)Z?S?*/
+	$A6F2  98:          tya 			/* A(??)X(??)Y(??)MAP[00:[00],01:[01],02:[02],03:[03],mmc:(un)]s(0)Z?S?*/
	$A6F3  29 F0:       and #$F0			/* A(??)X(??)Y(??)MAP[00:[00],01:[01],02:[02],03:[03],mmc:(un)]s(0)Z?S?*/
	$A6F5  D0 05:       bne +		; $A6FC			/* A(??)X(??)Y(??)MAP[00:[00],01:[01],02:[02],03:[03],mmc:(un)]s(0)Z?S?*/
	$A6F7  BD 01 03:    lda $0301,x			/* A(??)X(??)Y(??)MAP[00:[00],01:[01],02:[02],03:[03],mmc:(un)]s(0)Z?S?*/
	$A6FA  29 F0:       and #$F0			/* A(??)X(??)Y(??)MAP[00:[00],01:[01],02:[02],03:[03],mmc:(un)]s(0)Z?S?*/
+	$A6FC  05 15:       ora $15			/* A(??)X(??)Y(??)MAP[00:[00],01:[01],02:[02],03:[03],mmc:(un)]s(0)Z?S?*/
++	$A6FE  85 15:       sta $15			/* A(??)X(??)Y(??)MAP[00:[00],01:[01],02:[02],03:[03],mmc:(un)]s(0)Z?S?*/
	$A700  1D 01 03:    ora $0301,x			/* A(??)X(??)Y(??)MAP[00:[00],01:[01],02:[02],03:[03],mmc:(un)]s(0)Z?S?*/
	$A703  A8:          tay 			/* A(??)X(??)Y(??)MAP[00:[00],01:[01],02:[02],03:[03],mmc:(un)]s(0)Z?S?*/
	$A704  29 30:       and #$30			/* A(??)X(??)Y(??)MAP[00:[00],01:[01],02:[02],03:[03],mmc:(un)]s(0)Z?S?*/
	$A706  C9 30:       cmp #$30			/* A(??)X(??)Y(??)MAP[00:[00],01:[01],02:[02],03:[03],mmc:(un)]s(0)Z?S?*/
	$A708  F0 07:       beq +		; $A711			/* A(??)X(??)Y(??)MAP[00:[00],01:[01],02:[02],03:[03],mmc:(un)]s(0)Z?S?*/
	$A70A  98:          tya 			/* A(??)X(??)Y(??)MAP[00:[00],01:[01],02:[02],03:[03],mmc:(un)]s(0)Z?S?*/
	$A70B  29 C0:       and #$C0			/* A(??)X(??)Y(??)MAP[00:[00],01:[01],02:[02],03:[03],mmc:(un)]s(0)Z?S?*/
	$A70D  C9 C0:       cmp #$C0			/* A(??)X(??)Y(??)MAP[00:[00],01:[01],02:[02],03:[03],mmc:(un)]s(0)Z?S?*/
	$A70F  D0 10:       bne ++		; $A721			/* A(??)X(??)Y(??)MAP[00:[00],01:[01],02:[02],03:[03],mmc:(un)]s(0)Z?S?*/
+	$A711  BD 00 03:    lda $0300,x			/* A(??)X(??)Y(??)MAP[00:[00],01:[01],02:[02],03:[03],mmc:(un)]s(0)Z?S?*/
	$A714  9D 02 03:    sta $0302,x			/* A(??)X(??)Y(??)MAP[00:[00],01:[01],02:[02],03:[03],mmc:(un)]s(0)Z?S?*/
	$A717  A9 0B:       lda #$0B			/* A(0B)<2717>X(??)Y(??)MAP[00:[00],01:[01],02:[02],03:[03],mmc:(un)]s(0)Z0S0*/
	$A719  9D 00 03:    sta $0300,x			/* A(0B)<2717>X(??)Y(??)MAP[00:[00],01:[01],02:[02],03:[03],mmc:(un)]s(0)Z0S0*/
	$A71C  A9 0F:       lda #$0F			/* A(0F)<271C>X(??)Y(??)MAP[00:[00],01:[01],02:[02],03:[03],mmc:(un)]s(0)Z0S0*/
	$A71E  9D 03 03:    sta $0303,x			/* A(0F)<271C>X(??)Y(??)MAP[00:[00],01:[01],02:[02],03:[03],mmc:(un)]s(0)Z0S0*/
++ ----	$A721  A5 15:       lda $15			/* A(??)X(??)Y(??)MAP[00:[00],01:[01],02:[02],03:[03],mmc:(un)]s(0)Z?S?*/
	$A723  9D 01 03:    sta $0301,x			/* A(??)X(??)Y(??)MAP[00:[00],01:[01],02:[02],03:[03],mmc:(un)]s(0)Z?S?*/
	$A726  20 E2 AD:    jsr _func_2DE2			/* A(??)X(??)Y(??)MAP[00:(??),01:(??),02:(??),03:(??),mmc:(un)]s(0)Z?S?*/
	$A729  20 98 A7:    jsr _func_2798			/* A(??)X(??)Y(??)MAP[00:(??),01:(??),02:(??),03:(??),mmc:(un)]s(0)Z?S?*/
	$A72C  A5 12:       lda $12			/* A(??)X(??)Y(??)MAP[00:[00],01:[01],02:[02],03:[03],mmc:(un)]s(0)Z?S?*/
	$A72E  F0 08:       beq +		; $A738			/* A(??)X(??)Y(??)MAP[00:[00],01:[01],02:[02],03:[03],mmc:(un)]s(0)Z?S?*/
	$A730  BD 01 03:    lda $0301,x			/* A(??)X(??)Y(??)MAP[00:[00],01:[01],02:[02],03:[03],mmc:(un)]s(0)Z?S?*/
	$A733  09 0F:       ora #$0F			/* A(??)X(??)Y(??)MAP[00:[00],01:[01],02:[02],03:[03],mmc:(un)]s(0)Z?S?*/
	$A735  9D 01 03:    sta $0301,x			/* A(??)X(??)Y(??)MAP[00:[00],01:[01],02:[02],03:[03],mmc:(un)]s(0)Z?S?*/
+	$A738  BD 00 06:    lda $0600,x			/* A(??)X(??)Y(??)MAP[00:[00],01:[01],02:[02],03:[03],mmc:(un)]s(0)Z?S?*/
	$A73B  C9 0F:       cmp #$0F			/* A(??)X(??)Y(??)MAP[00:[00],01:[01],02:[02],03:[03],mmc:(un)]s(0)Z?S?*/
	$A73D  D0 24:       bne ++		; $A763			/* A(??)X(??)Y(??)MAP[00:[00],01:[01],02:[02],03:[03],mmc:(un)]s(0)Z?S?*/
	$A73F  BD 01 03:    lda $0301,x			/* A(??)X(??)Y(??)MAP[00:[00],01:[01],02:[02],03:[03],mmc:(un)]s(0)Z?S?*/
	$A742  29 0F:       and #$0F			/* A(??)X(??)Y(??)MAP[00:[00],01:[01],02:[02],03:[03],mmc:(un)]s(0)Z?S?*/
	$A744  C9 0F:       cmp #$0F			/* A(??)X(??)Y(??)MAP[00:[00],01:[01],02:[02],03:[03],mmc:(un)]s(0)Z?S?*/
	$A746  F0 1B:       beq ++		; $A763			/* A(??)X(??)Y(??)MAP[00:[00],01:[01],02:[02],03:[03],mmc:(un)]s(0)Z?S?*/
	$A748  BD 01 03:    lda $0301,x			/* A(??)X(??)Y(??)MAP[00:[00],01:[01],02:[02],03:[03],mmc:(un)]s(0)Z?S?*/
	$A74B  29 C0:       and #$C0			/* A(??)X(??)Y(??)MAP[00:[00],01:[01],02:[02],03:[03],mmc:(un)]s(0)Z?S?*/
	$A74D  D0 08:       bne +		; $A757			/* A(??)X(??)Y(??)MAP[00:[00],01:[01],02:[02],03:[03],mmc:(un)]s(0)Z?S?*/
	$A74F  BD 01 03:    lda $0301,x			/* A(??)X(??)Y(??)MAP[00:[00],01:[01],02:[02],03:[03],mmc:(un)]s(0)Z?S?*/
	$A752  09 40:       ora #$40			/* A(??)X(??)Y(??)MAP[00:[00],01:[01],02:[02],03:[03],mmc:(un)]s(0)Z?S?*/
	$A754  9D 01 03:    sta $0301,x			/* A(??)X(??)Y(??)MAP[00:[00],01:[01],02:[02],03:[03],mmc:(un)]s(0)Z?S?*/
+	$A757  BD 01 03:    lda $0301,x			/* A(??)X(??)Y(??)MAP[00:[00],01:[01],02:[02],03:[03],mmc:(un)]s(0)Z?S?*/
	$A75A  49 C0:       eor #$C0			/* A(??)X(??)Y(??)MAP[00:[00],01:[01],02:[02],03:[03],mmc:(un)]s(0)Z?S?*/
	$A75C  29 F0:       and #$F0			/* A(??)X(??)Y(??)MAP[00:[00],01:[01],02:[02],03:[03],mmc:(un)]s(0)Z?S?*/
	$A75E  09 02:       ora #$02			/* A(??)X(??)Y(??)MAP[00:[00],01:[01],02:[02],03:[03],mmc:(un)]s(0)Z?S?*/
	$A760  9D 01 03:    sta $0301,x			/* A(??)X(??)Y(??)MAP[00:[00],01:[01],02:[02],03:[03],mmc:(un)]s(0)Z?S?*/
++	$A763  BD 01 03:    lda $0301,x			/* A(??)X(??)Y(??)MAP[00:[00],01:[01],02:[02],03:[03],mmc:(un)]s(0)Z?S?*/
	$A766  29 0F:       and #$0F			/* A(??)X(??)Y(??)MAP[00:[00],01:[01],02:[02],03:[03],mmc:(un)]s(0)Z?S?*/
	$A768  9D 00 06:    sta $0600,x			/* A(??)X(??)Y(??)MAP[00:[00],01:[01],02:[02],03:[03],mmc:(un)]s(0)Z?S?*/
	$A76B  20 AD B0:    jsr _func_30AD			/* A(??)X(??)Y(??)MAP[00:(??),01:(??),02:(??),03:(??),mmc:(un)]s(0)Z?S?*/
	$A76E  BD 01 03:    lda $0301,x			/* A(??)X(??)Y(??)MAP[00:[00],01:[01],02:[02],03:[03],mmc:(un)]s(0)Z?S?*/
	$A771  4A:          lsr a			/* A(??)X(??)Y(??)MAP[00:[00],01:[01],02:[02],03:[03],mmc:(un)]s(0)Z?S?*/
	$A772  4A:          lsr a			/* A(??)X(??)Y(??)MAP[00:[00],01:[01],02:[02],03:[03],mmc:(un)]s(0)Z?S?*/
	$A773  4A:          lsr a			/* A(??)X(??)Y(??)MAP[00:[00],01:[01],02:[02],03:[03],mmc:(un)]s(0)Z?S?*/
	$A774  4A:          lsr a			/* A(??)X(??)Y(??)MAP[00:[00],01:[01],02:[02],03:[03],mmc:(un)]s(0)Z?S?*/
	$A775  A8:          tay 			/* A(??)X(??)Y(??)MAP[00:[00],01:[01],02:[02],03:[03],mmc:(un)]s(0)Z?S?*/
	$A776  B9 56 A4:    lda _data_2456_indexed,y			/* A$2456,y<2776>X(??)Y(??)MAP[00:[00],01:[01],02:[02],03:[03],mmc:(un)]s(0)Z?S?*/
++++
---	$A779  85 12:       sta $12			/* A$2D54,y<2D4E>X(un)Y(??)MAP[00:[00],01:[01],02:[02],03:[03],mmc:(un)]s(0)Z?S?*/
	$A77B  A9 21:       lda #$21			/* A(21)<277B>X(??)Y(42)<2602>MAP[00:[00],01:[01],02:[02],03:[03],mmc:(un)]s(0)Z0S0*/
	$A77D  85 13:       sta $13			/* A(21)<277B>X(??)Y(42)<2602>MAP[00:[00],01:[01],02:[02],03:[03],mmc:(un)]s(0)Z0S0*/
	$A77F  60:          rts 			/* A(21)<277B>X(??)Y(42)<2602>MAP[00:[00],01:[01],02:[02],03:[03],mmc:(un)]s(0)Z0S0*/(barrier)
;------------------------------------------
_func_2780
	$A780  A5 10:       lda $10			/* A(??)X(??)Y(??)MAP[00:[00],01:[01],02:[02],03:[03],mmc:(un)]s(0)Z?S?*/
	$A782  85 14:       sta $14			/* A(??)X(??)Y(18)<2B32>MAP[00:[00],01:[01],02:[02],03:[03],mmc:(un)]s(0)Z?S?*/
	$A784  A5 11:       lda $11			/* A(??)X(??)Y(18)<2B32>MAP[00:[00],01:[01],02:[02],03:[03],mmc:(un)]s(0)Z?S?*/
	$A786  4A:          lsr a			/* A(??)X(??)Y(18)<2B32>MAP[00:[00],01:[01],02:[02],03:[03],mmc:(un)]s(0)Z?S?*/
	$A787  4A:          lsr a			/* A(??)X(??)Y(18)<2B32>MAP[00:[00],01:[01],02:[02],03:[03],mmc:(un)]s(0)Z?S?*/
	$A788  4A:          lsr a			/* A(??)X(??)Y(18)<2B32>MAP[00:[00],01:[01],02:[02],03:[03],mmc:(un)]s(0)Z?S?*/
	$A789  4A:          lsr a			/* A(??)X(??)Y(18)<2B32>MAP[00:[00],01:[01],02:[02],03:[03],mmc:(un)]s(0)Z?S?*/
	$A78A  66 10:       ror $10			/* A(??)X(??)Y(18)<2B32>MAP[00:[00],01:[01],02:[02],03:[03],mmc:(un)]s(0)Z?S?*/
	$A78C  4A:          lsr a			/* A(??)X(??)Y(18)<2B32>MAP[00:[00],01:[01],02:[02],03:[03],mmc:(un)]s(0)Z?S?*/
	$A78D  66 10:       ror $10			/* A(??)X(??)Y(18)<2B32>MAP[00:[00],01:[01],02:[02],03:[03],mmc:(un)]s(0)Z?S?*/
	$A78F  4A:          lsr a			/* A(??)X(??)Y(18)<2B32>MAP[00:[00],01:[01],02:[02],03:[03],mmc:(un)]s(0)Z?S?*/
	$A790  66 10:       ror $10			/* A(??)X(??)Y(18)<2B32>MAP[00:[00],01:[01],02:[02],03:[03],mmc:(un)]s(0)Z?S?*/
	$A792  4A:          lsr a			/* A(??)X(??)Y(18)<2B32>MAP[00:[00],01:[01],02:[02],03:[03],mmc:(un)]s(0)Z?S?*/
	$A793  66 10:       ror $10			/* A(??)X(??)Y(18)<2B32>MAP[00:[00],01:[01],02:[02],03:[03],mmc:(un)]s(0)Z?S?*/
	$A795  85 11:       sta $11			/* A(??)X(??)Y(18)<2B32>MAP[00:[00],01:[01],02:[02],03:[03],mmc:(un)]s(0)Z?S?*/
	$A797  60:          rts 			/* A(??)X(??)Y(18)<2B32>MAP[00:[00],01:[01],02:[02],03:[03],mmc:(un)]s(0)Z?S?*/(barrier)
;------------------------------------------
_func_2798
	$A798  A5 58:       lda $58			/* A(??)X(??)Y(??)MAP[00:[00],01:[01],02:[02],03:[03],mmc:(un)]s(0)Z?S?*/
	$A79A  4A:          lsr a			/* A(??)X(??)Y(??)MAP[00:[00],01:[01],02:[02],03:[03],mmc:(un)]s(0)Z?S?*/
	$A79B  4A:          lsr a			/* A(??)X(??)Y(??)MAP[00:[00],01:[01],02:[02],03:[03],mmc:(un)]s(0)Z?S?*/
	$A79C  4A:          lsr a			/* A(??)X(??)Y(??)MAP[00:[00],01:[01],02:[02],03:[03],mmc:(un)]s(0)Z?S?*/
	$A79D  38:          sec 			/* A(??)X(??)Y(??)MAP[00:[00],01:[01],02:[02],03:[03],mmc:(un)]s(0)Z?S?*/
	$A79E  E9 09:       sbc #$09			/* A(??)X(??)Y(??)MAP[00:[00],01:[01],02:[02],03:[03],mmc:(un)]s(0)Z?S?*/
	$A7A0  A8:          tay 			/* A(??)X(??)Y(??)MAP[00:[00],01:[01],02:[02],03:[03],mmc:(un)]s(0)Z?S?*/
	$A7A1  A2 08:       ldx #$08			/* A(??)X(08)<27A1>Y(??)MAP[00:[00],01:[01],02:[02],03:[03],mmc:(un)]s(0)Z0S0*/
	$A7A3  A9 00:       lda #$00			/* A(00)<27A3>X(08)<27A1>Y(??)MAP[00:[00],01:[01],02:[02],03:[03],mmc:(un)]s(0)Z1S0*/
-	$A7A5  19 00 04:    ora $0400,y			/* A(??)X(08)<27A1>Y(??)MAP[00:[00],01:[01],02:[02],03:[03],mmc:(un)]s(0)Z?S?*/
	$A7A8  48:          pha 			/* A(??)X(08)<27A1>Y(??)MAP[00:[00],01:[01],02:[02],03:[03],mmc:(un)]s(1)Z?S?*/
	$A7A9  98:           tya 			/* A(??)X(08)<27A1>Y(??)MAP[00:[00],01:[01],02:[02],03:[03],mmc:(un)]s(1)Z?S?*/
	$A7AA  18:           clc 			/* A(??)X(08)<27A1>Y(??)MAP[00:[00],01:[01],02:[02],03:[03],mmc:(un)]s(1)Z?S?*/
	$A7AB  69 10:        adc #$10			/* A(??)X(08)<27A1>Y(??)MAP[00:[00],01:[01],02:[02],03:[03],mmc:(un)]s(1)Z?S?*/
	$A7AD  A8:           tay 			/* A(??)X(08)<27A1>Y(??)MAP[00:[00],01:[01],02:[02],03:[03],mmc:(un)]s(1)Z?S?*/
	$A7AE  68:          pla 			/* A(??)X(08)<27A1>Y(??)MAP[00:[00],01:[01],02:[02],03:[03],mmc:(un)]s(0)Z?S?*/
	$A7AF  CA:          dex 			/* A(??)X(??)Y(??)MAP[00:[00],01:[01],02:[02],03:[03],mmc:(un)]s(0)Z?S?*/
	$A7B0  10 F3:       bpl -		; $A7A5			/* A(??)X(??)Y(??)MAP[00:[00],01:[01],02:[02],03:[03],mmc:(un)]s(0)Z?S?*/
	$A7B2  85 12:       sta $12			/* A(??)X(??)Y(??)MAP[00:[00],01:[01],02:[02],03:[03],mmc:(un)]s(0)Z?S?*/
	$A7B4  A6 58:       ldx $58			/* A(??)X(??)Y(??)MAP[00:[00],01:[01],02:[02],03:[03],mmc:(un)]s(0)Z?S?*/
	$A7B6  60:          rts 			/* A(??)X(??)Y(??)MAP[00:[00],01:[01],02:[02],03:[03],mmc:(un)]s(0)Z?S?*/(barrier)
;------------------------------------------
_func_27B7
	$A7B7  A5 F4:       lda $F4			/* A(??)X(??)Y(??)MAP[00:[00],01:[01],02:[02],03:[03],mmc:(un)]s(0)Z?S?*/
	$A7B9  D0 10:       bne +		; $A7CB -> rts			/* A(??)X(??)Y(??)MAP[00:[00],01:[01],02:[02],03:[03],mmc:(un)]s(0)Z?S?*/
	$A7BB  A5 4C:       lda $4C			/* A(??)X(??)Y(??)MAP[00:[00],01:[01],02:[02],03:[03],mmc:(un)]s(0)Z?S?*/
	$A7BD  29 0C:       and #$0C			/* A(??)X(??)Y(??)MAP[00:[00],01:[01],02:[02],03:[03],mmc:(un)]s(0)Z?S?*/
	$A7BF  F0 0A:       beq +		; $A7CB -> rts			/* A(??)X(??)Y(??)MAP[00:[00],01:[01],02:[02],03:[03],mmc:(un)]s(0)Z?S?*/
	$A7C1  4A:          lsr a			/* A(??)X(??)Y(??)MAP[00:[00],01:[01],02:[02],03:[03],mmc:(un)]s(0)Z?S?*/
	$A7C2  4A:          lsr a			/* A(??)X(??)Y(??)MAP[00:[00],01:[01],02:[02],03:[03],mmc:(un)]s(0)Z?S?*/
	$A7C3  25 FD:       and $FD			/* A(??)X(??)Y(??)MAP[00:[00],01:[01],02:[02],03:[03],mmc:(un)]s(0)Z?S?*/
	$A7C5  4A:          lsr a			/* A(??)X(??)Y(??)MAP[00:[00],01:[01],02:[02],03:[03],mmc:(un)]s(0)Z?S?*/
	$A7C6  B0 04:       bcs ++		; $A7CC			/* A(??)X(??)Y(??)MAP[00:[00],01:[01],02:[02],03:[03],mmc:(un)]s(0)Z?S?*/
	$A7C8  4A:          lsr a			/* A(??)X(??)Y(??)MAP[00:[00],01:[01],02:[02],03:[03],mmc:(un)]s(0)Z?S?*/
	$A7C9  B0 07:       bcs +++		; $A7D2			/* A(??)X(??)Y(??)MAP[00:[00],01:[01],02:[02],03:[03],mmc:(un)]s(0)Z?S?*/
+	$A7CB  60:          rts 			/* A(??)X(??)Y(??)MAP[00:[00],01:[01],02:[02],03:[03],mmc:(un)]s(0)Z?S?*/(barrier)

++	$A7CC  A9 10:       lda #$10			/* A(10)<27CC>X(??)Y(??)MAP[00:[00],01:[01],02:[02],03:[03],mmc:(un)]s(0)Z0S0*/
	$A7CE  85 5D:       sta $5D			/* A(10)<27CC>X(??)Y(??)MAP[00:[00],01:[01],02:[02],03:[03],mmc:(un)]s(0)Z0S0*/
	$A7D0  D0 0B:       bne ++++		; $A7DD			/* A(10)<27CC>X(??)Y(??)MAP[00:[00],01:[01],02:[02],03:[03],mmc:(un)]s(0)Z0S0*/(barrier)

+++	$A7D2  BD 01 03:    lda $0301,x			/* A(??)X(??)Y(??)MAP[00:[00],01:[01],02:[02],03:[03],mmc:(un)]s(0)Z?S?*/
	$A7D5  29 C0:       and #$C0			/* A(??)X(??)Y(??)MAP[00:[00],01:[01],02:[02],03:[03],mmc:(un)]s(0)Z?S?*/
	$A7D7  D0 02:       bne +		; $A7DB			/* A(??)X(??)Y(??)MAP[00:[00],01:[01],02:[02],03:[03],mmc:(un)]s(0)Z?S?*/
	$A7D9  A9 80:       lda #$80			/* A(80)<27D9>X(??)Y(??)MAP[00:[00],01:[01],02:[02],03:[03],mmc:(un)]s(0)Z0S1*/
+	$A7DB  85 5D:       sta $5D			/* A(80)<27D9>X(??)Y(??)MAP[00:[00],01:[01],02:[02],03:[03],mmc:(un)]s(0)Z0S1*/
++++	$A7DD  A9 83:       lda #$83			/* A(??)X(??)Y(??)MAP[00:[00],01:[01],02:[02],03:[03],mmc:(un)]s(0)Z?S?*/
	$A7DF  8D 00 03:    sta $0300			/* A(83)<27DD>X(??)Y(??)MAP[00:[00],01:[01],02:[02],03:[03],mmc:(un)]s(0)Z0S1*/
	$A7E2  8D 08 03:    sta $0308			/* A(83)<27DD>X(??)Y(??)MAP[00:[00],01:[01],02:[02],03:[03],mmc:(un)]s(0)Z0S1*/
	$A7E5  8D 10 03:    sta $0310			/* A(83)<27DD>X(??)Y(??)MAP[00:[00],01:[01],02:[02],03:[03],mmc:(un)]s(0)Z0S1*/
	$A7E8  A9 02:       lda #$02			/* A(02)<27E8>X(??)Y(??)MAP[00:[00],01:[01],02:[02],03:[03],mmc:(un)]s(0)Z0S0*/
	$A7EA  9D 00 03:    sta $0300,x			/* A(02)<27E8>X(??)Y(??)MAP[00:[00],01:[01],02:[02],03:[03],mmc:(un)]s(0)Z0S0*/
	$A7ED  A9 0F:       lda #$0F			/* A(0F)<27ED>X(??)Y(??)MAP[00:[00],01:[01],02:[02],03:[03],mmc:(un)]s(0)Z0S0*/
	$A7EF  9D 02 03:    sta $0302,x			/* A(0F)<27ED>X(??)Y(??)MAP[00:[00],01:[01],02:[02],03:[03],mmc:(un)]s(0)Z0S0*/
	$A7F2  60:          rts 			/* A(0F)<27ED>X(??)Y(??)MAP[00:[00],01:[01],02:[02],03:[03],mmc:(un)]s(0)Z0S0*/(barrier)
;------------------------------------------
JumpTableEntry_27F3
	$A7F3  DE 02 03:    dec $0302,x			/* A(??)X(un)Y(un)MAP[00:[00],01:[01],02:[02],03:[03],mmc:(un)]s(0)Z?S?*/
	$A7F6  30 2C:       bmi ++++		; $A824			/* A(??)X(un)Y(un)MAP[00:[00],01:[01],02:[02],03:[03],mmc:(un)]s(0)Z?S?*/
--	$A7F8  A5 70:       lda $70			/* A(??)X(un)Y(un)MAP[00:[00],01:[01],02:[02],03:[03],mmc:(un)]s(0)Z?S?*/
	$A7FA  10 04:       bpl +		; $A800			/* A(??)X(un)Y(un)MAP[00:[00],01:[01],02:[02],03:[03],mmc:(un)]s(0)Z?S?*/
-	$A7FC  A0 06:       ldy #$06			/* A(??)X(un)Y(06)<27FC>MAP[00:[00],01:[01],02:[02],03:[03],mmc:(un)]s(0)Z0S0*/
	$A7FE  D0 14:       bne +++		; $A814			/* A(??)X(un)Y(06)<27FC>MAP[00:[00],01:[01],02:[02],03:[03],mmc:(un)]s(0)Z0S0*/(barrier)

+	$A800  A5 35:       lda $35			/* A(??)X(un)Y(06)<27FC>MAP[00:[00],01:[01],02:[02],03:[03],mmc:(un)]s(0)Z0S0*/
	$A802  30 F8:       bmi -		; $A7FC			/* A(??)X(un)Y(un)MAP[00:[00],01:[01],02:[02],03:[03],mmc:(un)]s(0)Z?S?*/
	$A804  24 5D:       bit $5D			/* A(??)X(un)Y(un)MAP[00:[00],01:[01],02:[02],03:[03],mmc:(un)]s(0)Z?S?*/
	$A806  30 06:       bmi +		; $A80E			/* A(??)X(un)Y(un)MAP[00:[00],01:[01],02:[02],03:[03],mmc:(un)]s(0)Z?S?*/
	$A808  70 08:       bvs ++		; $A812			/* A(??)X(un)Y(un)MAP[00:[00],01:[01],02:[02],03:[03],mmc:(un)]s(0)Z?S?*/
	$A80A  A0 00:       ldy #$00			/* A(??)X(un)Y(00)<280A>MAP[00:[00],01:[01],02:[02],03:[03],mmc:(un)]s(0)Z1S0*/
	$A80C  F0 06:       beq +++		; $A814			/* A(??)X(un)Y(00)<280A>MAP[00:[00],01:[01],02:[02],03:[03],mmc:(un)]s(0)Z1S0*/(barrier)

+	$A80E  A0 02:       ldy #$02			/* A(??)X(un)Y(??)MAP[00:[00],01:[01],02:[02],03:[03],mmc:(un)]s(0)Z?S0*/
	$A810  D0 02:       bne +++		; $A814			/* A(??)X(un)Y(02)<280E>MAP[00:[00],01:[01],02:[02],03:[03],mmc:(un)]s(0)Z0S0*/(barrier)

++	$A812  A0 04:       ldy #$04			/* A(??)X(un)Y(04)<2812>MAP[00:[00],01:[01],02:[02],03:[03],mmc:(un)]s(0)Z0S0*/
+++	$A814  BD 02 03:    lda $0302,x			/* A(??)X(un)Y(??)MAP[00:[00],01:[01],02:[02],03:[03],mmc:(un)]s(0)Z?S0*/
	$A817  10 01:       bpl +		; $A81A			/* A(??)X(un)Y(06)<27FC>MAP[00:[00],01:[01],02:[02],03:[03],mmc:(un)]s(0)Z?S?*/
	$A819  C8:          iny 			/* A(??)X(un)Y(??)MAP[00:[00],01:[01],02:[02],03:[03],mmc:(un)]s(0)Z?S?*/
+	$A81A  B9 86 A8:    lda _data_2886_indexed,y			/* A$2886,y<281A>X(un)Y(06)<27FC>MAP[00:[00],01:[01],02:[02],03:[03],mmc:(un)]s(0)Z?S?*/
	$A81D  85 12:       sta $12			/* A$2886,y<281A>X(un)Y(06)<27FC>MAP[00:[00],01:[01],02:[02],03:[03],mmc:(un)]s(0)Z?S?*/
	$A81F  A9 31:       lda #$31			/* A(31)<281F>X(un)Y(06)<27FC>MAP[00:[00],01:[01],02:[02],03:[03],mmc:(un)]s(0)Z0S0*/
	$A821  85 13:       sta $13			/* A(31)<281F>X(un)Y(06)<27FC>MAP[00:[00],01:[01],02:[02],03:[03],mmc:(un)]s(0)Z0S0*/
	$A823  60:          rts 			/* A(31)<281F>X(un)Y(06)<27FC>MAP[00:[00],01:[01],02:[02],03:[03],mmc:(un)]s(0)Z0S0*/(barrier)

++++	$A824  24 5D:       bit $5D			/* A(??)X(un)Y(un)MAP[00:[00],01:[01],02:[02],03:[03],mmc:(un)]s(0)Z?S?*/
	$A826  30 24:       bmi +		; $A84C			/* A(??)X(un)Y(un)MAP[00:[00],01:[01],02:[02],03:[03],mmc:(un)]s(0)Z?S?*/
	$A828  70 3C:       bvs ++		; $A866			/* A(??)X(un)Y(un)MAP[00:[00],01:[01],02:[02],03:[03],mmc:(un)]s(0)Z?S?*/
	$A82A  AD 1C 03:    lda $031C			/* A(??)X(un)Y(un)MAP[00:[00],01:[01],02:[02],03:[03],mmc:(un)]s(0)Z?S?*/
	$A82D  85 5A:       sta $5A			/* A(??)X(un)Y(un)MAP[00:[00],01:[01],02:[02],03:[03],mmc:(un)]s(0)Z?S?*/
	$A82F  AD 1D 03:    lda $031D			/* A(??)X(un)Y(un)MAP[00:[00],01:[01],02:[02],03:[03],mmc:(un)]s(0)Z?S?*/
	$A832  85 5B:       sta $5B			/* A(??)X(un)Y(un)MAP[00:[00],01:[01],02:[02],03:[03],mmc:(un)]s(0)Z?S?*/
	$A834  AD 1E 03:    lda $031E			/* A(??)X(un)Y(un)MAP[00:[00],01:[01],02:[02],03:[03],mmc:(un)]s(0)Z?S?*/
	$A837  85 5C:       sta $5C			/* A(??)X(un)Y(un)MAP[00:[00],01:[01],02:[02],03:[03],mmc:(un)]s(0)Z?S?*/
	$A839  A9 20:       lda #$20			/* A(20)<2839>X(un)Y(un)MAP[00:[00],01:[01],02:[02],03:[03],mmc:(un)]s(0)Z0S0*/
	$A83B  85 4C:       sta $4C			/* A(20)<2839>X(un)Y(un)MAP[00:[00],01:[01],02:[02],03:[03],mmc:(un)]s(0)Z0S0*/
	$A83D  A5 70:       lda $70			/* A(??)X(un)Y(un)MAP[00:[00],01:[01],02:[02],03:[03],mmc:(un)]s(0)Z?S?*/
	$A83F  30 3D:       bmi +++		; $A87E			/* A(??)X(un)Y(un)MAP[00:[00],01:[01],02:[02],03:[03],mmc:(un)]s(0)Z?S?*/
	$A841  A5 35:       lda $35			/* A(??)X(un)Y(un)MAP[00:[00],01:[01],02:[02],03:[03],mmc:(un)]s(0)Z?S?*/
	$A843  30 39:       bmi +++		; $A87E			/* A(??)X(un)Y(un)MAP[00:[00],01:[01],02:[02],03:[03],mmc:(un)]s(0)Z?S?*/
	$A845  A9 01:       lda #$01			/* A(01)<2845>X(un)Y(un)MAP[00:[00],01:[01],02:[02],03:[03],mmc:(un)]s(0)Z0S0*/
	$A847  8D 18 03:    sta $0318			/* A(01)<2845>X(un)Y(un)MAP[00:[00],01:[01],02:[02],03:[03],mmc:(un)]s(0)Z0S0*/
	$A84A  D0 32:       bne +++		; $A87E			/* A(01)<2845>X(un)Y(un)MAP[00:[00],01:[01],02:[02],03:[03],mmc:(un)]s(0)Z0S0*/(barrier)

+	$A84C  AD 0C 03:    lda $030C			/* A(01)<2845>X(un)Y(un)MAP[00:[00],01:[01],02:[02],03:[03],mmc:(un)]s(0)Z0S0*/
	$A84F  85 5A:       sta $5A			/* A(??)X(un)Y(un)MAP[00:[00],01:[01],02:[02],03:[03],mmc:(un)]s(0)Z?S?*/
	$A851  AD 0D 03:    lda $030D			/* A(??)X(un)Y(un)MAP[00:[00],01:[01],02:[02],03:[03],mmc:(un)]s(0)Z?S?*/
	$A854  85 5B:       sta $5B			/* A(??)X(un)Y(un)MAP[00:[00],01:[01],02:[02],03:[03],mmc:(un)]s(0)Z?S?*/
	$A856  AD 0E 03:    lda $030E			/* A(??)X(un)Y(un)MAP[00:[00],01:[01],02:[02],03:[03],mmc:(un)]s(0)Z?S?*/
	$A859  85 5C:       sta $5C			/* A(??)X(un)Y(un)MAP[00:[00],01:[01],02:[02],03:[03],mmc:(un)]s(0)Z?S?*/
	$A85B  A9 24:       lda #$24			/* A(24)<285B>X(un)Y(un)MAP[00:[00],01:[01],02:[02],03:[03],mmc:(un)]s(0)Z0S0*/
	$A85D  85 4C:       sta $4C			/* A(24)<285B>X(un)Y(un)MAP[00:[00],01:[01],02:[02],03:[03],mmc:(un)]s(0)Z0S0*/
	$A85F  A9 01:       lda #$01			/* A(01)<285F>X(un)Y(un)MAP[00:[00],01:[01],02:[02],03:[03],mmc:(un)]s(0)Z0S0*/
	$A861  8D 08 03:    sta $0308			/* A(01)<285F>X(un)Y(un)MAP[00:[00],01:[01],02:[02],03:[03],mmc:(un)]s(0)Z0S0*/
	$A864  D0 18:       bne +++		; $A87E			/* A(01)<285F>X(un)Y(un)MAP[00:[00],01:[01],02:[02],03:[03],mmc:(un)]s(0)Z0S0*/(barrier)

++	$A866  AD 14 03:    lda $0314			/* A(??)X(un)Y(un)MAP[00:[00],01:[01],02:[02],03:[03],mmc:(un)]s(0)Z?S?*/
	$A869  85 5A:       sta $5A			/* A(??)X(un)Y(un)MAP[00:[00],01:[01],02:[02],03:[03],mmc:(un)]s(0)Z?S?*/
	$A86B  AD 15 03:    lda $0315			/* A(??)X(un)Y(un)MAP[00:[00],01:[01],02:[02],03:[03],mmc:(un)]s(0)Z?S?*/
	$A86E  85 5B:       sta $5B			/* A(??)X(un)Y(un)MAP[00:[00],01:[01],02:[02],03:[03],mmc:(un)]s(0)Z?S?*/
	$A870  AD 16 03:    lda $0316			/* A(??)X(un)Y(un)MAP[00:[00],01:[01],02:[02],03:[03],mmc:(un)]s(0)Z?S?*/
	$A873  85 5C:       sta $5C			/* A(??)X(un)Y(un)MAP[00:[00],01:[01],02:[02],03:[03],mmc:(un)]s(0)Z?S?*/
	$A875  A9 24:       lda #$24			/* A(24)<2875>X(un)Y(un)MAP[00:[00],01:[01],02:[02],03:[03],mmc:(un)]s(0)Z0S0*/
	$A877  85 4C:       sta $4C			/* A(24)<2875>X(un)Y(un)MAP[00:[00],01:[01],02:[02],03:[03],mmc:(un)]s(0)Z0S0*/
	$A879  A9 01:       lda #$01			/* A(01)<2879>X(un)Y(un)MAP[00:[00],01:[01],02:[02],03:[03],mmc:(un)]s(0)Z0S0*/
	$A87B  8D 10 03:    sta $0310			/* A(01)<2879>X(un)Y(un)MAP[00:[00],01:[01],02:[02],03:[03],mmc:(un)]s(0)Z0S0*/
+++	$A87E  A9 83:       lda #$83			/* A(01)<2845>X(un)Y(un)MAP[00:[00],01:[01],02:[02],03:[03],mmc:(un)]s(0)Z0S0*/
	$A880  9D 00 03:    sta $0300,x			/* A(83)<287E>X(un)Y(un)MAP[00:[00],01:[01],02:[02],03:[03],mmc:(un)]s(0)Z0S1*/
	$A883  4C F8 A7:    jmp --		; $A7F8			/* A(83)<287E>X(un)Y(un)MAP[00:[00],01:[01],02:[02],03:[03],mmc:(un)]s(0)Z0S1*/(barrier)
;------------------------------------------
_data_2886_indexed
	$A886               .byte $4C,$4D,$4E,$4F,$50,$51,$66,$67
_loc_288E
	$A88E  20 AA A8:    jsr _func_28AA			/* A(??)X(??)Y(??)MAP[00:(??),01:(??),02:(??),03:(??),mmc:(un)]s(0)Z?S?*/
	$A891  BD 07 03:    lda $0307,x			/* A(??)X(??)Y(??)MAP[00:[00],01:[01],02:[02],03:[03],mmc:(un)]s(0)Z?S?*/
	$A894  E0 18:       cpx #$18			/* A(??)X(??)Y(??)MAP[00:[00],01:[01],02:[02],03:[03],mmc:(un)]s(0)Z?S?*/
	$A896  D0 0B:       bne ++		; $A8A3			/* A(??)X(??)Y(??)MAP[00:[00],01:[01],02:[02],03:[03],mmc:(un)]s(0)Z?S?*/
	$A898  A0 91:       ldy #$91			/* A(??)X(??)Y(91)<2898>MAP[00:[00],01:[01],02:[02],03:[03],mmc:(un)]s(0)Z0S1*/
	$A89A  BD 04 03:    lda $0304,x			/* A(??)X(??)Y(91)<2898>MAP[00:[00],01:[01],02:[02],03:[03],mmc:(un)]s(0)Z?S?*/
	$A89D  C5 4D:       cmp $4D			/* A(??)X(??)Y(91)<2898>MAP[00:[00],01:[01],02:[02],03:[03],mmc:(un)]s(0)Z?S?*/
	$A89F  90 01:       bcc +		; $A8A2			/* A(??)X(??)Y(91)<2898>MAP[00:[00],01:[01],02:[02],03:[03],mmc:(un)]s(0)Z?S?*/
	$A8A1  C8:          iny 			/* A(??)X(??)Y(??)MAP[00:[00],01:[01],02:[02],03:[03],mmc:(un)]s(0)Z?S?*/
+	$A8A2  98:          tya 			/* A(??)X(??)Y(91)<2898>MAP[00:[00],01:[01],02:[02],03:[03],mmc:(un)]s(0)Z?S?*/
++	$A8A3  85 12:       sta $12			/* A(91)<28A2>X(??)Y(91)<2898>MAP[00:[00],01:[01],02:[02],03:[03],mmc:(un)]s(0)Z0S1*/
	$A8A5  A9 31:       lda #$31			/* A(31)<28A5>X(??)Y(??)MAP[00:[00],01:[01],02:[02],03:[03],mmc:(un)]s(0)Z0S0*/
	$A8A7  85 13:       sta $13			/* A(31)<28A5>X(??)Y(??)MAP[00:[00],01:[01],02:[02],03:[03],mmc:(un)]s(0)Z0S0*/
	$A8A9  60:          rts 			/* A(31)<28A5>X(??)Y(??)MAP[00:[00],01:[01],02:[02],03:[03],mmc:(un)]s(0)Z0S0*/(barrier)
;------------------------------------------
_func_28AA
	$A8AA  A5 4D:       lda $4D			/* A(??)X(??)Y(??)MAP[00:[00],01:[01],02:[02],03:[03],mmc:(un)]s(0)Z?S?*/
	$A8AC  38:          sec 			/* A(??)X(??)Y(??)MAP[00:[00],01:[01],02:[02],03:[03],mmc:(un)]s(0)Z?S?*/
	$A8AD  FD 04 03:    sbc $0304,x			/* A(??)X(??)Y(??)MAP[00:[00],01:[01],02:[02],03:[03],mmc:(un)]s(0)Z?S?*/
	$A8B0  B0 02:       bcs +		; $A8B4			/* A(??)X(??)Y(??)MAP[00:[00],01:[01],02:[02],03:[03],mmc:(un)]s(0)Z?S?*/
	$A8B2  49 FF:       eor #$FF			/* A(??)X(??)Y(??)MAP[00:[00],01:[01],02:[02],03:[03],mmc:(un)]s(0)Z?S?*/
+	$A8B4  C9 08:       cmp #$08			/* A(??)X(??)Y(??)MAP[00:[00],01:[01],02:[02],03:[03],mmc:(un)]s(0)Z?S?*/
	$A8B6  B0 4C:       bcs +		; $A904 -> rts			/* A(??)X(??)Y(??)MAP[00:[00],01:[01],02:[02],03:[03],mmc:(un)]s(0)Z?S?*/
	$A8B8  BD 05 03:    lda $0305,x			/* A(??)X(??)Y(??)MAP[00:[00],01:[01],02:[02],03:[03],mmc:(un)]s(0)Z?S?*/
	$A8BB  69 03:       adc #$03			/* A(??)X(??)Y(??)MAP[00:[00],01:[01],02:[02],03:[03],mmc:(un)]s(0)Z?S?*/
	$A8BD  85 10:       sta $10			/* A(??)X(??)Y(??)MAP[00:[00],01:[01],02:[02],03:[03],mmc:(un)]s(0)Z?S?*/
	$A8BF  BD 06 03:    lda $0306,x			/* A(??)X(??)Y(??)MAP[00:[00],01:[01],02:[02],03:[03],mmc:(un)]s(0)Z?S?*/
	$A8C2  69 00:       adc #$00			/* A(??)X(??)Y(??)MAP[00:[00],01:[01],02:[02],03:[03],mmc:(un)]s(0)Z?S?*/
	$A8C4  85 11:       sta $11			/* A(??)X(??)Y(??)MAP[00:[00],01:[01],02:[02],03:[03],mmc:(un)]s(0)Z?S?*/
	$A8C6  A5 10:       lda $10			/* A(??)X(??)Y(??)MAP[00:[00],01:[01],02:[02],03:[03],mmc:(un)]s(0)Z?S?*/
	$A8C8  38:          sec 			/* A(??)X(??)Y(??)MAP[00:[00],01:[01],02:[02],03:[03],mmc:(un)]s(0)Z?S?*/
	$A8C9  E5 4E:       sbc $4E			/* A(??)X(??)Y(??)MAP[00:[00],01:[01],02:[02],03:[03],mmc:(un)]s(0)Z?S?*/
	$A8CB  85 10:       sta $10			/* A(??)X(??)Y(??)MAP[00:[00],01:[01],02:[02],03:[03],mmc:(un)]s(0)Z?S?*/
	$A8CD  A5 11:       lda $11			/* A(??)X(??)Y(??)MAP[00:[00],01:[01],02:[02],03:[03],mmc:(un)]s(0)Z?S?*/
	$A8CF  E5 4F:       sbc $4F			/* A(??)X(??)Y(??)MAP[00:[00],01:[01],02:[02],03:[03],mmc:(un)]s(0)Z?S?*/
	$A8D1  90 31:       bcc +		; $A904 -> rts			/* A(??)X(??)Y(??)MAP[00:[00],01:[01],02:[02],03:[03],mmc:(un)]s(0)Z?S?*/
	$A8D3  A5 10:       lda $10			/* A(??)X(??)Y(??)MAP[00:[00],01:[01],02:[02],03:[03],mmc:(un)]s(0)Z?S?*/
	$A8D5  C9 07:       cmp #$07			/* A(??)X(??)Y(??)MAP[00:[00],01:[01],02:[02],03:[03],mmc:(un)]s(0)Z?S?*/
	$A8D7  B0 2B:       bcs +		; $A904 -> rts			/* A(??)X(??)Y(??)MAP[00:[00],01:[01],02:[02],03:[03],mmc:(un)]s(0)Z?S?*/
	$A8D9  A5 4C:       lda $4C			/* A(??)X(??)Y(??)MAP[00:[00],01:[01],02:[02],03:[03],mmc:(un)]s(0)Z?S?*/
	$A8DB  29 1C:       and #$1C			/* A(??)X(??)Y(??)MAP[00:[00],01:[01],02:[02],03:[03],mmc:(un)]s(0)Z?S?*/
	$A8DD  85 4C:       sta $4C			/* A(??)X(??)Y(??)MAP[00:[00],01:[01],02:[02],03:[03],mmc:(un)]s(0)Z?S?*/
	$A8DF  A0 00:       ldy #$00			/* A(??)X(??)Y(00)<28DF>MAP[00:[00],01:[01],02:[02],03:[03],mmc:(un)]s(0)Z1S0*/
-	$A8E1  B9 00 03:    lda $0300,y			/* A(??)X(??)Y(00)<28DF>MAP[00:[00],01:[01],02:[02],03:[03],mmc:(un)]s(0)Z?S?*/
	$A8E4  29 0F:       and #$0F			/* A(??)X(??)Y(00)<28DF>MAP[00:[00],01:[01],02:[02],03:[03],mmc:(un)]s(0)Z?S?*/
	$A8E6  99 00 03:    sta $0300,y			/* A(??)X(??)Y(00)<28DF>MAP[00:[00],01:[01],02:[02],03:[03],mmc:(un)]s(0)Z?S?*/
	$A8E9  98:          tya 			/* A(00)<28E9>X(??)Y(00)<28DF>MAP[00:[00],01:[01],02:[02],03:[03],mmc:(un)]s(0)Z1S0*/
	$A8EA  18:          clc 			/* A(00)<28E9>X(??)Y(00)<28DF>MAP[00:[00],01:[01],02:[02],03:[03],mmc:(un)]s(0)Z1S0*/
	$A8EB  69 08:       adc #$08			/* A(??)X(??)Y(00)<28DF>MAP[00:[00],01:[01],02:[02],03:[03],mmc:(un)]s(0)Z?S?*/
	$A8ED  A8:          tay 			/* A(??)X(??)Y(??)MAP[00:[00],01:[01],02:[02],03:[03],mmc:(un)]s(0)Z?S?*/
	$A8EE  C9 28:       cmp #$28			/* A(??)X(??)Y(??)MAP[00:[00],01:[01],02:[02],03:[03],mmc:(un)]s(0)Z?S?*/
	$A8F0  90 EF:       bcc -		; $A8E1			/* A(??)X(??)Y(??)MAP[00:[00],01:[01],02:[02],03:[03],mmc:(un)]s(0)Z?S?*/
	$A8F2  BD 04 03:    lda $0304,x			/* A(??)X(??)Y(??)MAP[00:[00],01:[01],02:[02],03:[03],mmc:(un)]s(0)Z?S?*/
	$A8F5  85 4D:       sta $4D			/* A(??)X(??)Y(??)MAP[00:[00],01:[01],02:[02],03:[03],mmc:(un)]s(0)Z?S?*/
	$A8F7  A9 00:       lda #$00			/* A(00)<28F7>X(??)Y(??)MAP[00:[00],01:[01],02:[02],03:[03],mmc:(un)]s(0)Z1S0*/
	$A8F9  85 69:       sta $69			/* A(00)<28F7>X(??)Y(??)MAP[00:[00],01:[01],02:[02],03:[03],mmc:(un)]s(0)Z1S0*/
	$A8FB  A5 4C:       lda $4C			/* A(??)X(??)Y(??)MAP[00:[00],01:[01],02:[02],03:[03],mmc:(un)]s(0)Z?S?*/
	$A8FD  29 0C:       and #$0C			/* A(??)X(??)Y(??)MAP[00:[00],01:[01],02:[02],03:[03],mmc:(un)]s(0)Z?S?*/
	$A8FF  D0 03:       bne +		; $A904 -> rts			/* A(??)X(??)Y(??)MAP[00:[00],01:[01],02:[02],03:[03],mmc:(un)]s(0)Z?S?*/
	$A901  20 6D C1:    jsr _func_416D			/* A(??)X(??)Y(??)MAP[00:(??),01:(??),02:(??),03:(??),mmc:(un)]s(0)Z?S?*/
+	$A904  60:          rts 			/* A(??)X(??)Y(??)MAP[00:[00],01:[01],02:[02],03:[03],mmc:(un)]s(0)Z?S?*/(barrier)
;------------------------------------------
_func_2905
	$A905  A5 70:       lda $70			/* A(??)X(??)Y(??)MAP[00:[00],01:[01],02:[02],03:[03],mmc:(un)]s(0)Z?S?*/
	$A907  30 04:       bmi +		; $A90D			/* A(??)X(??)Y(??)MAP[00:[00],01:[01],02:[02],03:[03],mmc:(un)]s(0)Z?S?*/
	$A909  A5 35:       lda $35			/* A(??)X(??)Y(??)MAP[00:[00],01:[01],02:[02],03:[03],mmc:(un)]s(0)Z?S?*/
	$A90B  10 26:       bpl ++		; $A933 -> rts			/* A(??)X(??)Y(??)MAP[00:[00],01:[01],02:[02],03:[03],mmc:(un)]s(0)Z?S?*/
+	$A90D  20 21 AF:    jsr _func_2F21			/* A(??)X(??)Y(??)MAP[00:[00],01:[01],02:[02],03:[03],mmc:(un)]s(0)Z?S?*/
	$A910  A9 04:       lda #$04			/* A(04)<2910>X(??)Y(??)MAP[00:[00],01:[01],02:[02],03:[03],mmc:(un)]s(0)Z0S0*/
	$A912  85 4C:       sta $4C			/* A(04)<2910>X(??)Y(??)MAP[00:[00],01:[01],02:[02],03:[03],mmc:(un)]s(0)Z0S0*/
	$A914  A5 4E:       lda $4E			/* A(??)X(??)Y(??)MAP[00:[00],01:[01],02:[02],03:[03],mmc:(un)]s(0)Z?S?*/
	$A916  38:          sec 			/* A(??)X(??)Y(??)MAP[00:[00],01:[01],02:[02],03:[03],mmc:(un)]s(0)Z?S?*/
	$A917  E9 68:       sbc #$68			/* A(??)X(??)Y(??)MAP[00:[00],01:[01],02:[02],03:[03],mmc:(un)]s(0)Z?S?*/
	$A919  85 12:       sta $12			/* A(??)X(??)Y(??)MAP[00:[00],01:[01],02:[02],03:[03],mmc:(un)]s(0)Z?S?*/
	$A91B  A5 4F:       lda $4F			/* A(??)X(??)Y(??)MAP[00:[00],01:[01],02:[02],03:[03],mmc:(un)]s(0)Z?S?*/
	$A91D  E9 00:       sbc #$00			/* A(??)X(??)Y(??)MAP[00:[00],01:[01],02:[02],03:[03],mmc:(un)]s(0)Z?S?*/
	$A91F  85 13:       sta $13			/* A(??)X(??)Y(??)MAP[00:[00],01:[01],02:[02],03:[03],mmc:(un)]s(0)Z?S?*/
	$A921  D0 06:       bne +		; $A929			/* A(??)X(??)Y(??)MAP[00:[00],01:[01],02:[02],03:[03],mmc:(un)]s(0)Z?S?*/
	$A923  A5 12:       lda $12			/* A(??)X(??)Y(??)MAP[00:[00],01:[01],02:[02],03:[03],mmc:(un)]s(0)Z?S?*/
	$A925  C9 A8:       cmp #$A8			/* A(??)X(??)Y(??)MAP[00:[00],01:[01],02:[02],03:[03],mmc:(un)]s(0)Z?S?*/
	$A927  90 0A:       bcc ++		; $A933 -> rts			/* A(??)X(??)Y(??)MAP[00:[00],01:[01],02:[02],03:[03],mmc:(un)]s(0)Z?S?*/
+	$A929  A5 12:       lda $12			/* A(??)X(??)Y(??)MAP[00:[00],01:[01],02:[02],03:[03],mmc:(un)]s(0)Z?S?*/
	$A92B  8D 1D 03:    sta $031D			/* A(??)X(??)Y(??)MAP[00:[00],01:[01],02:[02],03:[03],mmc:(un)]s(0)Z?S?*/
	$A92E  A5 13:       lda $13			/* A(??)X(??)Y(??)MAP[00:[00],01:[01],02:[02],03:[03],mmc:(un)]s(0)Z?S?*/
	$A930  8D 1E 03:    sta $031E			/* A(??)X(??)Y(??)MAP[00:[00],01:[01],02:[02],03:[03],mmc:(un)]s(0)Z?S?*/
++	$A933  60:          rts 			/* A(??)X(??)Y(??)MAP[00:[00],01:[01],02:[02],03:[03],mmc:(un)]s(0)Z?S?*/(barrier)
;------------------------------------------
_func_2934
	$A934  BD 05 03:    lda $0305,x			/* A(??)X(??)Y(??)MAP[00:[00],01:[01],02:[02],03:[03],mmc:(un)]s(0)Z?S?*/
	$A937  38:          sec 			/* A(??)X(??)Y(??)MAP[00:[00],01:[01],02:[02],03:[03],mmc:(un)]s(0)Z?S?*/
	$A938  E9 01:       sbc #$01			/* A(??)X(??)Y(??)MAP[00:[00],01:[01],02:[02],03:[03],mmc:(un)]s(0)Z?S?*/
	$A93A  9D 05 03:    sta $0305,x			/* A(??)X(??)Y(??)MAP[00:[00],01:[01],02:[02],03:[03],mmc:(un)]s(0)Z?S?*/
	$A93D  BD 06 03:    lda $0306,x			/* A(??)X(??)Y(??)MAP[00:[00],01:[01],02:[02],03:[03],mmc:(un)]s(0)Z?S?*/
	$A940  E9 00:       sbc #$00			/* A(??)X(??)Y(??)MAP[00:[00],01:[01],02:[02],03:[03],mmc:(un)]s(0)Z?S?*/
	$A942  9D 06 03:    sta $0306,x			/* A(??)X(??)Y(??)MAP[00:[00],01:[01],02:[02],03:[03],mmc:(un)]s(0)Z?S?*/
	$A945  60:          rts 			/* A(??)X(??)Y(??)MAP[00:[00],01:[01],02:[02],03:[03],mmc:(un)]s(0)Z?S?*/(barrier)
;------------------------------------------
_func_2946
	$A946  FE 05 03:    inc $0305,x			/* A(??)X(??)Y(??)MAP[00:[00],01:[01],02:[02],03:[03],mmc:(un)]s(0)Z?S?*/
	$A949  D0 03:       bne +		; $A94E -> rts			/* A(??)X(??)Y(??)MAP[00:[00],01:[01],02:[02],03:[03],mmc:(un)]s(0)Z?S?*/
	$A94B  FE 06 03:    inc $0306,x			/* A(??)X(??)Y(??)MAP[00:[00],01:[01],02:[02],03:[03],mmc:(un)]s(0)Z?S?*/
+	$A94E  60:          rts 			/* A(??)X(??)Y(??)MAP[00:[00],01:[01],02:[02],03:[03],mmc:(un)]s(0)Z?S?*/(barrier)
;------------------------------------------
JumpTableEntry_294F
	$A94F  BD 03 03:    lda $0303,x			/* A(??)X(un)Y(un)MAP[00:[00],01:[01],02:[02],03:[03],mmc:(un)]s(0)Z?S?*/
	$A952  A8:          tay 			/* A(??)X(un)Y(??)MAP[00:[00],01:[01],02:[02],03:[03],mmc:(un)]s(0)Z?S?*/
	$A953  A5 1D:       lda $1D			/* A(??)X(un)Y(??)MAP[00:[00],01:[01],02:[02],03:[03],mmc:(un)]s(0)Z?S?*/
	$A955  29 1F:       and #$1F			/* A(??)X(un)Y(??)MAP[00:[00],01:[01],02:[02],03:[03],mmc:(un)]s(0)Z?S?*/
	$A957  D0 1E:       bne ++		; $A977			/* A(??)X(un)Y(??)MAP[00:[00],01:[01],02:[02],03:[03],mmc:(un)]s(0)Z?S?*/
	$A959  20 4A 8F:    jsr _func_0F4A			/* A(??)X(??)Y(??)MAP[00:(??),01:(??),02:(??),03:(??),mmc:(un)]s(0)Z?S?*/
	$A95C  29 02:       and #$02			/* A(??)X(??)Y(??)MAP[00:[00],01:[01],02:[02],03:[03],mmc:(un)]s(0)Z?S?*/
	$A95E  D0 0D:       bne +		; $A96D			/* A(??)X(??)Y(??)MAP[00:[00],01:[01],02:[02],03:[03],mmc:(un)]s(0)Z?S?*/
	$A960  20 34 A9:    jsr _func_2934			/* A(??)X(??)Y(??)MAP[00:(??),01:(??),02:(??),03:(??),mmc:(un)]s(0)Z?S?*/
	$A963  98:          tya 			/* A(??)X(??)Y(??)MAP[00:[00],01:[01],02:[02],03:[03],mmc:(un)]s(0)Z?S?*/
	$A964  AA:          tax 			/* A(??)X(??)Y(??)MAP[00:[00],01:[01],02:[02],03:[03],mmc:(un)]s(0)Z?S?*/
	$A965  20 34 A9:    jsr _func_2934			/* A(??)X(??)Y(??)MAP[00:(??),01:(??),02:(??),03:(??),mmc:(un)]s(0)Z?S?*/
	$A968  A6 58:       ldx $58			/* A(??)X(??)Y(??)MAP[00:[00],01:[01],02:[02],03:[03],mmc:(un)]s(0)Z?S?*/
	$A96A  4C 77 A9:    jmp ++		; $A977			/* A(??)X(??)Y(??)MAP[00:[00],01:[01],02:[02],03:[03],mmc:(un)]s(0)Z?S?*/(barrier)

+	$A96D  20 46 A9:    jsr _func_2946			/* A(??)X(??)Y(??)MAP[00:[00],01:[01],02:[02],03:[03],mmc:(un)]s(0)Z?S?*/
	$A970  98:          tya 			/* A(??)X(??)Y(??)MAP[00:[00],01:[01],02:[02],03:[03],mmc:(un)]s(0)Z?S?*/
	$A971  AA:          tax 			/* A(??)X(??)Y(??)MAP[00:[00],01:[01],02:[02],03:[03],mmc:(un)]s(0)Z?S?*/
	$A972  20 46 A9:    jsr _func_2946			/* A(??)X(??)Y(??)MAP[00:(??),01:(??),02:(??),03:(??),mmc:(un)]s(0)Z?S?*/
	$A975  A6 58:       ldx $58			/* A(??)X(??)Y(??)MAP[00:[00],01:[01],02:[02],03:[03],mmc:(un)]s(0)Z?S?*/
++	$A977  A9 00:       lda #$00			/* A(00)<2977>X(??)Y(??)MAP[00:[00],01:[01],02:[02],03:[03],mmc:(un)]s(0)Z?S?*/
	$A979  85 11:       sta $11			/* A(00)<2977>X(un)Y(??)MAP[00:[00],01:[01],02:[02],03:[03],mmc:(un)]s(0)Z1S0*/
	$A97B  A5 1D:       lda $1D			/* A(??)X(un)Y(??)MAP[00:[00],01:[01],02:[02],03:[03],mmc:(un)]s(0)Z?S?*/
	$A97D  4A:          lsr a			/* A(??)X(un)Y(??)MAP[00:[00],01:[01],02:[02],03:[03],mmc:(un)]s(0)Z?S?*/
	$A97E  29 08:       and #$08			/* A(??)X(un)Y(??)MAP[00:[00],01:[01],02:[02],03:[03],mmc:(un)]s(0)Z?S?*/
_func_2980
	$A980  85 10:       sta $10			/* A(00)<1F0F>X(un)Y(??)MAP[00:[00],01:[01],02:[02],03:[03],mmc:(un)]s(0)Z?S?*/
	$A982  A9 A8:       lda #$A8			/* A(A8)<2982>X(??)Y(??)MAP[00:[00],01:[01],02:[02],03:[03],mmc:(un)]s(0)Z0S1*/
	$A984  18:          clc 			/* A(A8)<2982>X(??)Y(??)MAP[00:[00],01:[01],02:[02],03:[03],mmc:(un)]s(0)Z0S1*/
	$A985  65 10:       adc $10			/* A(??)X(??)Y(??)MAP[00:[00],01:[01],02:[02],03:[03],mmc:(un)]s(0)Z?S?*/
	$A987  85 12:       sta $12			/* A(??)X(??)Y(??)MAP[00:[00],01:[01],02:[02],03:[03],mmc:(un)]s(0)Z?S?*/
	$A989  A9 A9:       lda #$A9			/* A(A9)<2989>X(??)Y(??)MAP[00:[00],01:[01],02:[02],03:[03],mmc:(un)]s(0)Z0S1*/
	$A98B  65 11:       adc $11			/* A(??)X(??)Y(??)MAP[00:[00],01:[01],02:[02],03:[03],mmc:(un)]s(0)Z?S?*/
	$A98D  85 13:       sta $13			/* A(??)X(??)Y(??)MAP[00:[00],01:[01],02:[02],03:[03],mmc:(un)]s(0)Z?S?*/
	$A98F  20 0A A0:    jsr _func_200A			/* A(??)X(??)Y(??)MAP[00:(??),01:(??),02:(??),03:(??),mmc:(un)]s(0)Z?S?*/
	$A992  20 A9 9F:    jsr _func_1FA9			/* A(??)X(??)Y(??)MAP[00:(??),01:(??),02:(??),03:(??),mmc:(un)]s(0)Z?S?*/
	$A995  20 04 9E:    jsr _func_1E04			/* A(??)X(??)Y(??)MAP[00:(??),01:(??),02:(??),03:(??),mmc:(un)]s(0)Z?S?*/
	$A998  68:          pla 			/* A(??)X(??)Y(??)MAP[00:[00],01:[01],02:[02],03:[03],mmc:(un)]s(0)Z?S?*/
	$A999  68:          pla 			/* A(??)X(??)Y(??)MAP[00:[00],01:[01],02:[02],03:[03],mmc:(un)]s(0)Z?S?*/
	$A99A  60:          rts 			/* A(??)X(??)Y(??)MAP[00:[00],01:[01],02:[02],03:[03],mmc:(un)]s(0)Z?S?*/(barrier)
;------------------------------------------
JumpTableEntry_299B
	$A99B  A9 00:       lda #$00			/* A(00)<299B>X(un)Y(un)MAP[00:[00],01:[01],02:[02],03:[03],mmc:(un)]s(0)Z1S0*/
	$A99D  85 11:       sta $11			/* A(00)<299B>X(un)Y(un)MAP[00:[00],01:[01],02:[02],03:[03],mmc:(un)]s(0)Z1S0*/
	$A99F  A5 1D:       lda $1D			/* A(??)X(un)Y(un)MAP[00:[00],01:[01],02:[02],03:[03],mmc:(un)]s(0)Z?S?*/
	$A9A1  4A:          lsr a			/* A(??)X(un)Y(un)MAP[00:[00],01:[01],02:[02],03:[03],mmc:(un)]s(0)Z?S?*/
	$A9A2  29 08:       and #$08			/* A(??)X(un)Y(un)MAP[00:[00],01:[01],02:[02],03:[03],mmc:(un)]s(0)Z?S?*/
_func_29A4
	$A9A4  09 10:       ora #$10			/* A(??)X(un)Y(un)MAP[00:[00],01:[01],02:[02],03:[03],mmc:(un)]s(0)Z?S?*/
	$A9A6  D0 D8:       bne _func_2980			/* A(??)X(??)Y(??)MAP[00:[00],01:[01],02:[02],03:[03],mmc:(un)]s(0)Z?S?*/
	$A9A8  F8:          sed 			/* A(??)X(??)Y(??)MAP[00:[00],01:[01],02:[02],03:[03],mmc:(un)]s(0)Z?S?*/
	$A9A9  9A:          txs 			/* A(??)X(??)Y(??)MAP[00:[00],01:[01],02:[02],03:[03],mmc:(un)]s(0)Z?S?*/
	$A9AA  00:          brk 			/* A(??)X(??)Y(??)MAP[00:[00],01:[01],02:[02],03:[03],mmc:(un)]s(0)Z?S?*/(barrier)

	$A9AB               .byte $FC,$00,$9B,$01,$FC,$F8,$9A,$40,$FC,$00,$9B,$41,$FC,$F8,$99,$02
	$A9BB               .byte $FC,$80,$2E,$02,$FC,$F8,$99,$02,$FC,$80,$2E,$02,$FC
_func_29C8
	$A9C8  A9 03:       lda #$03			/* A(03)<29C8>X(F8)<4D6>Y(??)MAP[00:[00],01:[01],02:[02],03:[03],mmc:(un)]s(0)Z0S0*/
	$A9CA  8D 20 03:    sta $0320			/* A(03)<29C8>X(F8)<4D6>Y(??)MAP[00:[00],01:[01],02:[02],03:[03],mmc:(un)]s(0)Z0S0*/
	$A9CD  8D 40 03:    sta $0340			/* A(03)<29C8>X(F8)<4D6>Y(??)MAP[00:[00],01:[01],02:[02],03:[03],mmc:(un)]s(0)Z0S0*/
	$A9D0  A9 06:       lda #$06			/* A(06)<29D0>X(F8)<4D6>Y(??)MAP[00:[00],01:[01],02:[02],03:[03],mmc:(un)]s(0)Z0S0*/
	$A9D2  8D 48 03:    sta $0348			/* A(06)<29D0>X(F8)<4D6>Y(??)MAP[00:[00],01:[01],02:[02],03:[03],mmc:(un)]s(0)Z0S0*/
	$A9D5  8D 68 03:    sta $0368			/* A(06)<29D0>X(F8)<4D6>Y(??)MAP[00:[00],01:[01],02:[02],03:[03],mmc:(un)]s(0)Z0S0*/
	$A9D8  60:          rts 			/* A(06)<29D0>X(F8)<4D6>Y(??)MAP[00:[00],01:[01],02:[02],03:[03],mmc:(un)]s(0)Z0S0*/(barrier)
;------------------------------------------
_func_29D9
	$A9D9  A5 4E:       lda $4E			/* A(??)X(??)Y(??)MAP[00:[00],01:[01],02:[02],03:[03],mmc:(un)]s(0)Z?S?*/
	$A9DB  38:          sec 			/* A(??)X(??)Y(??)MAP[00:[00],01:[01],02:[02],03:[03],mmc:(un)]s(0)Z?S?*/
	$A9DC  E9 18:       sbc #$18			/* A(??)X(??)Y(??)MAP[00:[00],01:[01],02:[02],03:[03],mmc:(un)]s(0)Z?S?*/
	$A9DE  85 56:       sta $56			/* A(??)X(??)Y(??)MAP[00:[00],01:[01],02:[02],03:[03],mmc:(un)]s(0)Z?S?*/
	$A9E0  A5 4F:       lda $4F			/* A(??)X(??)Y(??)MAP[00:[00],01:[01],02:[02],03:[03],mmc:(un)]s(0)Z?S?*/
	$A9E2  E9 00:       sbc #$00			/* A(??)X(??)Y(??)MAP[00:[00],01:[01],02:[02],03:[03],mmc:(un)]s(0)Z?S?*/
	$A9E4  85 57:       sta $57			/* A(??)X(??)Y(??)MAP[00:[00],01:[01],02:[02],03:[03],mmc:(un)]s(0)Z?S?*/
	$A9E6  A0 47:       ldy #$47			/* A(??)X(??)Y(47)<29E6>MAP[00:[00],01:[01],02:[02],03:[03],mmc:(un)]s(0)Z0S0*/
-	$A9E8  B9 AB A0:    lda _data_20AB_indexed,y			/* A$20AB,y<29E8>X(??)Y(47)<29E6>MAP[00:[00],01:[01],02:[02],03:[03],mmc:(un)]s(0)Z?S?*/
	$A9EB  99 00 04:    sta $0400,y			/* A$20AB,y<29E8>X(??)Y(47)<29E6>MAP[00:[00],01:[01],02:[02],03:[03],mmc:(un)]s(0)Z?S?*/
	$A9EE  88:          dey 			/* A(??)X(??)Y(??)MAP[00:[00],01:[01],02:[02],03:[03],mmc:(un)]s(0)Z?S?*/
	$A9EF  10 F7:       bpl -		; $A9E8			/* A(??)X(??)Y(??)MAP[00:[00],01:[01],02:[02],03:[03],mmc:(un)]s(0)Z?S?*/
	$A9F1  A5 70:       lda $70			/* A(??)X(??)Y(??)MAP[00:[00],01:[01],02:[02],03:[03],mmc:(un)]s(0)Z?S?*/
	$A9F3  10 12:       bpl +		; $AA07			/* A(??)X(??)Y(??)MAP[00:[00],01:[01],02:[02],03:[03],mmc:(un)]s(0)Z?S?*/
	$A9F5  A9 FF:       lda #$FF			/* A(FF)<29F5>X(??)Y(??)MAP[00:[00],01:[01],02:[02],03:[03],mmc:(un)]s(0)Z0S1*/
	$A9F7  85 4E:       sta $4E			/* A(FF)<29F5>X(??)Y(??)MAP[00:[00],01:[01],02:[02],03:[03],mmc:(un)]s(0)Z0S1*/
	$A9F9  A9 97:       lda #$97			/* A(97)<29F9>X(??)Y(??)MAP[00:[00],01:[01],02:[02],03:[03],mmc:(un)]s(0)Z0S1*/
	$A9FB  85 50:       sta $50			/* A(97)<29F9>X(??)Y(??)MAP[00:[00],01:[01],02:[02],03:[03],mmc:(un)]s(0)Z0S1*/
	$A9FD  A9 0F:       lda #$0F			/* A(0F)<29FD>X(??)Y(??)MAP[00:[00],01:[01],02:[02],03:[03],mmc:(un)]s(0)Z0S0*/
	$A9FF  85 11:       sta $11			/* A(0F)<29FD>X(??)Y(??)MAP[00:[00],01:[01],02:[02],03:[03],mmc:(un)]s(0)Z0S0*/
	$AA01  A0 00:       ldy #$00			/* A(0F)<29FD>X(??)Y(00)<2A01>MAP[00:[00],01:[01],02:[02],03:[03],mmc:(un)]s(0)Z1S0*/
	$AA03  A2 18:       ldx #$18			/* A(0F)<29FD>X(18)<2A03>Y(00)<2A01>MAP[00:[00],01:[01],02:[02],03:[03],mmc:(un)]s(0)Z0S0*/
	$AA05  D0 74:       bne ++++		; $AA7B			/* A(0F)<29FD>X(18)<2A03>Y(00)<2A01>MAP[00:[00],01:[01],02:[02],03:[03],mmc:(un)]s(0)Z0S0*/(barrier)

+	$AA07  A9 00:       lda #$00			/* A(??)X(18)<2A03>Y(00)<2A01>MAP[00:[00],01:[01],02:[02],03:[03],mmc:(un)]s(0)Z?S0*/
	$AA09  85 11:       sta $11			/* A(00)<2A07>X(??)Y(??)MAP[00:[00],01:[01],02:[02],03:[03],mmc:(un)]s(0)Z1S0*/
	$AA0B  85 13:       sta $13			/* A(00)<2A07>X(??)Y(??)MAP[00:[00],01:[01],02:[02],03:[03],mmc:(un)]s(0)Z1S0*/
-	$AA0D  20 4A 8F:    jsr _func_0F4A			/* A(00)<2A07>X(??)Y(??)MAP[00:[00],01:[01],02:[02],03:[03],mmc:(un)]s(0)Z?S?*/
	$AA10  C9 B6:       cmp #$B6			/* A(00)<2A07>X(??)Y(??)MAP[00:[00],01:[01],02:[02],03:[03],mmc:(un)]s(0)Z?S?*/
	$AA12  B0 F9:       bcs -		; $AA0D			/* A(00)<2A07>X(??)Y(??)MAP[00:[00],01:[01],02:[02],03:[03],mmc:(un)]s(0)Z?S?*/
	$AA14  C9 50:       cmp #$50			/* A(00)<2A07>X(??)Y(??)MAP[00:[00],01:[01],02:[02],03:[03],mmc:(un)]s(0)Z?S?*/
	$AA16  90 12:       bcc +		; $AA2A			/* A(00)<2A07>X(??)Y(??)MAP[00:[00],01:[01],02:[02],03:[03],mmc:(un)]s(0)Z?S?*/
	$AA18  C9 AA:       cmp #$AA			/* A(00)<2A07>X(??)Y(??)MAP[00:[00],01:[01],02:[02],03:[03],mmc:(un)]s(0)Z?S?*/
	$AA1A  90 1A:       bcc ++		; $AA36			/* A(00)<2A07>X(??)Y(??)MAP[00:[00],01:[01],02:[02],03:[03],mmc:(un)]s(0)Z?S?*/
	$AA1C  E9 AA:       sbc #$AA			/* A(??)X(??)Y(??)MAP[00:[00],01:[01],02:[02],03:[03],mmc:(un)]s(0)Z?S?*/
	$AA1E  85 10:       sta $10			/* A(??)X(??)Y(??)MAP[00:[00],01:[01],02:[02],03:[03],mmc:(un)]s(0)Z?S?*/
	$AA20  A0 0A:       ldy #$0A			/* A(??)X(??)Y(0A)<2A20>MAP[00:[00],01:[01],02:[02],03:[03],mmc:(un)]s(0)Z0S0*/
	$AA22  A2 23:       ldx #$23			/* A(??)X(23)<2A22>Y(0A)<2A20>MAP[00:[00],01:[01],02:[02],03:[03],mmc:(un)]s(0)Z0S0*/
	$AA24  A9 03:       lda #$03			/* A(03)<2A24>X(23)<2A22>Y(0A)<2A20>MAP[00:[00],01:[01],02:[02],03:[03],mmc:(un)]s(0)Z0S0*/
	$AA26  85 12:       sta $12			/* A(03)<2A24>X(23)<2A22>Y(0A)<2A20>MAP[00:[00],01:[01],02:[02],03:[03],mmc:(un)]s(0)Z0S0*/
	$AA28  D0 19:       bne +++		; $AA43			/* A(03)<2A24>X(23)<2A22>Y(0A)<2A20>MAP[00:[00],01:[01],02:[02],03:[03],mmc:(un)]s(0)Z0S0*/(barrier)

+	$AA2A  85 10:       sta $10			/* A(??)X(23)<2A22>Y(0A)<2A20>MAP[00:[00],01:[01],02:[02],03:[03],mmc:(un)]s(0)Z0S0*/
	$AA2C  A0 00:       ldy #$00			/* A(00)<2A07>X(??)Y(00)<2A2C>MAP[00:[00],01:[01],02:[02],03:[03],mmc:(un)]s(0)Z1S0*/
	$AA2E  A2 00:       ldx #$00			/* A(00)<2A07>X(00)<2A2E>Y(00)<2A2C>MAP[00:[00],01:[01],02:[02],03:[03],mmc:(un)]s(0)Z1S0*/
	$AA30  A9 14:       lda #$14			/* A(14)<2A30>X(00)<2A2E>Y(00)<2A2C>MAP[00:[00],01:[01],02:[02],03:[03],mmc:(un)]s(0)Z0S0*/
	$AA32  85 12:       sta $12			/* A(14)<2A30>X(00)<2A2E>Y(00)<2A2C>MAP[00:[00],01:[01],02:[02],03:[03],mmc:(un)]s(0)Z0S0*/
	$AA34  D0 0D:       bne +++		; $AA43			/* A(14)<2A30>X(00)<2A2E>Y(00)<2A2C>MAP[00:[00],01:[01],02:[02],03:[03],mmc:(un)]s(0)Z0S0*/(barrier)

++	$AA36  38:          sec 			/* A(00)<2A07>X(00)<2A2E>Y(??)MAP[00:[00],01:[01],02:[02],03:[03],mmc:(un)]s(0)Z?S?*/
	$AA37  E9 50:       sbc #$50			/* A(??)X(00)<2A2E>Y(??)MAP[00:[00],01:[01],02:[02],03:[03],mmc:(un)]s(0)Z?S?*/
	$AA39  85 10:       sta $10			/* A(??)X(00)<2A2E>Y(??)MAP[00:[00],01:[01],02:[02],03:[03],mmc:(un)]s(0)Z?S?*/
	$AA3B  A0 04:       ldy #$04			/* A(??)X(00)<2A2E>Y(04)<2A3B>MAP[00:[00],01:[01],02:[02],03:[03],mmc:(un)]s(0)Z0S0*/
	$AA3D  A2 14:       ldx #$14			/* A(??)X(14)<2A3D>Y(04)<2A3B>MAP[00:[00],01:[01],02:[02],03:[03],mmc:(un)]s(0)Z0S0*/
	$AA3F  A9 0F:       lda #$0F			/* A(0F)<2A3F>X(14)<2A3D>Y(04)<2A3B>MAP[00:[00],01:[01],02:[02],03:[03],mmc:(un)]s(0)Z0S0*/
	$AA41  85 12:       sta $12			/* A(0F)<2A3F>X(14)<2A3D>Y(04)<2A3B>MAP[00:[00],01:[01],02:[02],03:[03],mmc:(un)]s(0)Z0S0*/
+++	$AA43  A9 00:       lda #$00			/* A(03)<2A24>X(23)<2A22>Y(0A)<2A20>MAP[00:[00],01:[01],02:[02],03:[03],mmc:(un)]s(0)Z0S0*/
	$AA45  85 14:       sta $14			/* A(00)<2A43>X(00)<2A2E>Y(00)<2A2C>MAP[00:[00],01:[01],02:[02],03:[03],mmc:(un)]s(0)Z1S0*/
-	$AA47  A5 10:       lda $10			/* A(??)X(00)<2A2E>Y(00)<2A2C>MAP[00:[00],01:[01],02:[02],03:[03],mmc:(un)]s(0)Z?S?*/
	$AA49  38:          sec 			/* A(??)X(00)<2A2E>Y(00)<2A2C>MAP[00:[00],01:[01],02:[02],03:[03],mmc:(un)]s(0)Z?S?*/
	$AA4A  E5 12:       sbc $12			/* A(??)X(00)<2A2E>Y(00)<2A2C>MAP[00:[00],01:[01],02:[02],03:[03],mmc:(un)]s(0)Z?S?*/
	$AA4C  90 06:       bcc +		; $AA54			/* A(??)X(00)<2A2E>Y(00)<2A2C>MAP[00:[00],01:[01],02:[02],03:[03],mmc:(un)]s(0)Z?S?*/
	$AA4E  85 10:       sta $10			/* A(??)X(00)<2A2E>Y(00)<2A2C>MAP[00:[00],01:[01],02:[02],03:[03],mmc:(un)]s(0)Z?S?*/
	$AA50  E6 14:       inc $14			/* A(??)X(00)<2A2E>Y(00)<2A2C>MAP[00:[00],01:[01],02:[02],03:[03],mmc:(un)]s(0)Z?S?*/
	$AA52  D0 F3:       bne -		; $AA47			/* A(??)X(00)<2A2E>Y(00)<2A2C>MAP[00:[00],01:[01],02:[02],03:[03],mmc:(un)]s(0)Z?S?*/
+	$AA54  98:          tya 			/* A(00)<2A54>X(00)<2A2E>Y(00)<2A2C>MAP[00:[00],01:[01],02:[02],03:[03],mmc:(un)]s(0)Z?S?*/
	$AA55  18:          clc 			/* A(00)<2A54>X(00)<2A2E>Y(00)<2A2C>MAP[00:[00],01:[01],02:[02],03:[03],mmc:(un)]s(0)Z1S0*/
	$AA56  65 14:       adc $14			/* A(??)X(00)<2A2E>Y(00)<2A2C>MAP[00:[00],01:[01],02:[02],03:[03],mmc:(un)]s(0)Z?S?*/
	$AA58  A8:          tay 			/* A(??)X(00)<2A2E>Y(??)MAP[00:[00],01:[01],02:[02],03:[03],mmc:(un)]s(0)Z?S?*/
	$AA59  B9 C1 AA:    lda _data_2AC1_indexed,y			/* A$2AC1,y<2A59>X(00)<2A2E>Y(??)MAP[00:[00],01:[01],02:[02],03:[03],mmc:(un)]s(0)Z?S?*/
	$AA5C  85 11:       sta $11			/* A$2AC1,y<2A59>X(00)<2A2E>Y(??)MAP[00:[00],01:[01],02:[02],03:[03],mmc:(un)]s(0)Z?S?*/
	$AA5E  8A:          txa 			/* A(00)<2A5E>X(00)<2A2E>Y(??)MAP[00:[00],01:[01],02:[02],03:[03],mmc:(un)]s(0)Z1S0*/
	$AA5F  18:          clc 			/* A(00)<2A5E>X(00)<2A2E>Y(??)MAP[00:[00],01:[01],02:[02],03:[03],mmc:(un)]s(0)Z1S0*/
	$AA60  65 10:       adc $10			/* A(??)X(00)<2A2E>Y(??)MAP[00:[00],01:[01],02:[02],03:[03],mmc:(un)]s(0)Z?S?*/
	$AA62  AA:          tax 			/* A(??)X(??)Y(??)MAP[00:[00],01:[01],02:[02],03:[03],mmc:(un)]s(0)Z?S?*/
	$AA63  BD 06 B6:    lda _data_3606_indexed,x			/* A$3606,x<2A63>X(??)Y(??)MAP[00:[00],01:[01],02:[02],03:[03],mmc:(un)]s(0)Z?S?*/
	$AA66  85 10:       sta $10			/* A$3606,x<2A63>X(??)Y(??)MAP[00:[00],01:[01],02:[02],03:[03],mmc:(un)]s(0)Z?S?*/
	$AA68  A0 00:       ldy #$00			/* A$3606,x<2A63>X(??)Y(00)<2A68>MAP[00:[00],01:[01],02:[02],03:[03],mmc:(un)]s(0)Z1S0*/
	$AA6A  A2 00:       ldx #$00			/* A$3606,x<2A63>X(00)<2A6A>Y(00)<2A68>MAP[00:[00],01:[01],02:[02],03:[03],mmc:(un)]s(0)Z1S0*/
-	$AA6C  46 10:       lsr $10			/* A(??)X(00)<2A6A>Y(00)<2A68>MAP[00:[00],01:[01],02:[02],03:[03],mmc:(un)]s(0)Z?S?*/
	$AA6E  90 03:       bcc +		; $AA73			/* A(??)X(00)<2A6A>Y(00)<2A68>MAP[00:[00],01:[01],02:[02],03:[03],mmc:(un)]s(0)Z?S?*/
	$AA70  20 CF AA:    jsr _func_2ACF			/* A(??)X(??)Y(??)MAP[00:(??),01:(??),02:(??),03:(??),mmc:(un)]s(0)Z?S?*/
+	$AA73  E8:          inx 			/* A(??)X(00)<2A6A>Y(00)<2A68>MAP[00:[00],01:[01],02:[02],03:[03],mmc:(un)]s(0)Z?S?*/
	$AA74  E8:          inx 			/* A(??)X(??)Y(00)<2A68>MAP[00:[00],01:[01],02:[02],03:[03],mmc:(un)]s(0)Z?S?*/
	$AA75  E8:          inx 			/* A(??)X(??)Y(00)<2A68>MAP[00:[00],01:[01],02:[02],03:[03],mmc:(un)]s(0)Z?S?*/
	$AA76  E8:          inx 			/* A(??)X(??)Y(00)<2A68>MAP[00:[00],01:[01],02:[02],03:[03],mmc:(un)]s(0)Z?S?*/
	$AA77  E0 18:       cpx #$18			/* A(??)X(??)Y(00)<2A68>MAP[00:[00],01:[01],02:[02],03:[03],mmc:(un)]s(0)Z?S?*/
	$AA79  90 F1:       bcc -		; $AA6C			/* A(??)X(??)Y(00)<2A68>MAP[00:[00],01:[01],02:[02],03:[03],mmc:(un)]s(0)Z?S?*/
++++ -	$AA7B  46 11:       lsr $11			/* A(0F)<29FD>X(18)<2A03>Y(00)<2A68>MAP[00:[00],01:[01],02:[02],03:[03],mmc:(un)]s(0)Z0S0*/
	$AA7D  90 03:       bcc +		; $AA82			/* A(??)X(??)Y(00)<2A68>MAP[00:[00],01:[01],02:[02],03:[03],mmc:(un)]s(0)Z?S?*/
	$AA7F  20 CF AA:    jsr _func_2ACF			/* A(??)X(??)Y(??)MAP[00:(??),01:(??),02:(??),03:(??),mmc:(un)]s(0)Z?S?*/
+	$AA82  E8:          inx 			/* A(??)X(??)Y(00)<2A68>MAP[00:[00],01:[01],02:[02],03:[03],mmc:(un)]s(0)Z?S?*/
	$AA83  E8:          inx 			/* A(??)X(??)Y(00)<2A68>MAP[00:[00],01:[01],02:[02],03:[03],mmc:(un)]s(0)Z?S?*/
	$AA84  E8:          inx 			/* A(??)X(??)Y(00)<2A68>MAP[00:[00],01:[01],02:[02],03:[03],mmc:(un)]s(0)Z?S?*/
	$AA85  E8:          inx 			/* A(??)X(??)Y(00)<2A68>MAP[00:[00],01:[01],02:[02],03:[03],mmc:(un)]s(0)Z?S?*/
	$AA86  E0 28:       cpx #$28			/* A(??)X(??)Y(00)<2A68>MAP[00:[00],01:[01],02:[02],03:[03],mmc:(un)]s(0)Z?S?*/
	$AA88  90 F1:       bcc -		; $AA7B			/* A(??)X(??)Y(00)<2A68>MAP[00:[00],01:[01],02:[02],03:[03],mmc:(un)]s(0)Z?S?*/
	$AA8A  A5 70:       lda $70			/* A(??)X(??)Y(00)<2A68>MAP[00:[00],01:[01],02:[02],03:[03],mmc:(un)]s(0)Z?S?*/
	$AA8C  30 0A:       bmi +		; $AA98 -> rts			/* A(??)X(??)Y(00)<2A68>MAP[00:[00],01:[01],02:[02],03:[03],mmc:(un)]s(0)Z?S?*/
	$AA8E  A5 1F:       lda $1F			/* A(??)X(??)Y(00)<2A68>MAP[00:[00],01:[01],02:[02],03:[03],mmc:(un)]s(0)Z?S?*/
	$AA90  29 0C:       and #$0C			/* A(??)X(??)Y(00)<2A68>MAP[00:[00],01:[01],02:[02],03:[03],mmc:(un)]s(0)Z?S?*/
	$AA92  A8:          tay 			/* A(??)X(??)Y(??)MAP[00:[00],01:[01],02:[02],03:[03],mmc:(un)]s(0)Z?S?*/
	$AA93  A9 85:       lda #$85			/* A(85)<2A93>X(??)Y(??)MAP[00:[00],01:[01],02:[02],03:[03],mmc:(un)]s(0)Z0S1*/
	$AA95  99 3B 04:    sta $043B,y			/* A(85)<2A93>X(??)Y(??)MAP[00:[00],01:[01],02:[02],03:[03],mmc:(un)]s(0)Z0S1*/
+	$AA98  60:          rts 			/* A(85)<2A93>X(??)Y(00)<2A68>MAP[00:[00],01:[01],02:[02],03:[03],mmc:(un)]s(0)Z0S1*/(barrier)
;------------------------------------------
_data_2A99_indexed
	$AA99               .byte $DE
_data_2A9A_indexed
	$AA9A               .byte $A9
_data_2A9B_indexed
	$AA9B               .byte $FF
_data_2A9C_indexed
	$AA9C               .byte $00,$22,$A9,$FF,$00,$00,$A9,$FF,$0E,$DC,$B9,$FF,$00,$24,$B9,$FF
	$AAAC               .byte $00,$00,$B9,$FF,$16,$DC,$D7,$FF,$04,$24,$D7,$FF,$04,$F4,$C7,$FF
	$AABC               .byte $04,$0C,$C7,$FF,$04
_data_2AC1_indexed
	$AAC1               .byte $08,$04,$01,$01,$0C,$0A,$09,$06,$03,$05,$0E,$07,$0B,$0D
_func_2ACF
	$AACF  20 4A 8F:    jsr _func_0F4A			/* A(??)X(00)<2A6A>Y(00)<2A68>MAP[00:[00],01:[01],02:[02],03:[03],mmc:(un)]s(0)Z?S?*/
	$AAD2  4A:          lsr a			/* A(??)X(??)Y(00)<2A68>MAP[00:[00],01:[01],02:[02],03:[03],mmc:(un)]s(0)Z?S?*/
	$AAD3  90 09:       bcc +		; $AADE			/* A(??)X(??)Y(00)<2A68>MAP[00:[00],01:[01],02:[02],03:[03],mmc:(un)]s(0)Z?S?*/
	$AAD5  BD 99 AA:    lda _data_2A99_indexed,x			/* A$2A99,x<2AD5>X(??)Y(00)<2A68>MAP[00:[00],01:[01],02:[02],03:[03],mmc:(un)]s(0)Z?S?*/
	$AAD8  FD 9C AA:    sbc _data_2A9C_indexed,x			/* A(??)X(??)Y(00)<2A68>MAP[00:[00],01:[01],02:[02],03:[03],mmc:(un)]s(0)Z?S?*/
	$AADB  4C E4 AA:    jmp ++		; $AAE4			/* A(??)X(??)Y(00)<2A68>MAP[00:[00],01:[01],02:[02],03:[03],mmc:(un)]s(0)Z?S?*/(barrier)

+	$AADE  BD 99 AA:    lda _data_2A99_indexed,x			/* A$2A99,x<2ADE>X(??)Y(00)<2A68>MAP[00:[00],01:[01],02:[02],03:[03],mmc:(un)]s(0)Z?S?*/
	$AAE1  7D 9C AA:    adc _data_2A9C_indexed,x			/* A$2A9C,xX(??)Y(00)<2A68>MAP[00:[00],01:[01],02:[02],03:[03],mmc:(un)]s(0)Z?S?*/
++	$AAE4  99 38 04:    sta $0438,y			/* A$2A9C,xX(??)Y(00)<2A68>MAP[00:[00],01:[01],02:[02],03:[03],mmc:(un)]s(0)Z?S?*/
	$AAE7  BD 9A AA:    lda _data_2A9A_indexed,x			/* A$2A9A,x<2AE7>X(??)Y(00)<2A68>MAP[00:[00],01:[01],02:[02],03:[03],mmc:(un)]s(0)Z?S?*/
	$AAEA  99 39 04:    sta $0439,y			/* A$2A9A,x<2AE7>X(??)Y(00)<2A68>MAP[00:[00],01:[01],02:[02],03:[03],mmc:(un)]s(0)Z?S?*/
	$AAED  BD 9B AA:    lda _data_2A9B_indexed,x			/* A$2A9B,x<2AED>X(??)Y(00)<2A68>MAP[00:[00],01:[01],02:[02],03:[03],mmc:(un)]s(0)Z?S?*/
	$AAF0  99 3A 04:    sta $043A,y			/* A$2A9B,x<2AED>X(??)Y(00)<2A68>MAP[00:[00],01:[01],02:[02],03:[03],mmc:(un)]s(0)Z?S?*/
_func_2AF3
	$AAF3  C8:          iny 			/* A(??)X(00)<205A>Y(00)<2A68>MAP[00:[00],01:[01],02:[02],03:[03],mmc:(un)]s(0)Z?S?*/
	$AAF4  C8:          iny 			/* A(??)X(00)<A9D>Y(??)MAP[00:[00],01:[01],02:[02],03:[03],mmc:(un)]s(0)Z?S?*/
	$AAF5  C8:          iny 			/* A(??)X(00)<A9D>Y(??)MAP[00:[00],01:[01],02:[02],03:[03],mmc:(un)]s(0)Z?S?*/
	$AAF6  C8:          iny 			/* A(??)X(00)<A9D>Y(??)MAP[00:[00],01:[01],02:[02],03:[03],mmc:(un)]s(0)Z?S?*/
	$AAF7  60:          rts 			/* A(??)X(00)<A9D>Y(??)MAP[00:[00],01:[01],02:[02],03:[03],mmc:(un)]s(0)Z?S?*/(barrier)
;------------------------------------------
JumpTableEntry_2AF8
	$AAF8  DE 03 03:    dec $0303,x			/* A(??)X(un)Y(un)MAP[00:[00],01:[01],02:[02],03:[03],mmc:(un)]s(0)Z?S?*/
	$AAFB  10 06:       bpl +		; $AB03			/* A(??)X(un)Y(un)MAP[00:[00],01:[01],02:[02],03:[03],mmc:(un)]s(0)Z?S?*/
	$AAFD  BD 02 03:    lda $0302,x			/* A(??)X(un)Y(un)MAP[00:[00],01:[01],02:[02],03:[03],mmc:(un)]s(0)Z?S?*/
	$AB00  9D 00 03:    sta $0300,x			/* A(??)X(un)Y(un)MAP[00:[00],01:[01],02:[02],03:[03],mmc:(un)]s(0)Z?S?*/
+	$AB03  BD 01 03:    lda $0301,x			/* A(??)X(un)Y(un)MAP[00:[00],01:[01],02:[02],03:[03],mmc:(un)]s(0)Z?S?*/
	$AB06  4A:          lsr a			/* A(??)X(un)Y(un)MAP[00:[00],01:[01],02:[02],03:[03],mmc:(un)]s(0)Z?S?*/
	$AB07  4A:          lsr a			/* A(??)X(un)Y(un)MAP[00:[00],01:[01],02:[02],03:[03],mmc:(un)]s(0)Z?S?*/
	$AB08  4A:          lsr a			/* A(??)X(un)Y(un)MAP[00:[00],01:[01],02:[02],03:[03],mmc:(un)]s(0)Z?S?*/
	$AB09  4A:          lsr a			/* A(??)X(un)Y(un)MAP[00:[00],01:[01],02:[02],03:[03],mmc:(un)]s(0)Z?S?*/
	$AB0A  A8:          tay 			/* A(??)X(un)Y(??)MAP[00:[00],01:[01],02:[02],03:[03],mmc:(un)]s(0)Z?S?*/
	$AB0B  B9 15 AB:    lda _data_2B15_indexed,y			/* A$2B15,y<2B0B>X(un)Y(??)MAP[00:[00],01:[01],02:[02],03:[03],mmc:(un)]s(0)Z?S?*/
	$AB0E  85 12:       sta $12			/* A$2B15,y<2B0B>X(un)Y(??)MAP[00:[00],01:[01],02:[02],03:[03],mmc:(un)]s(0)Z?S?*/
	$AB10  A9 21:       lda #$21			/* A(21)<2B10>X(un)Y(??)MAP[00:[00],01:[01],02:[02],03:[03],mmc:(un)]s(0)Z0S0*/
	$AB12  85 13:       sta $13			/* A(21)<2B10>X(un)Y(??)MAP[00:[00],01:[01],02:[02],03:[03],mmc:(un)]s(0)Z0S0*/
	$AB14  60:          rts 			/* A(21)<2B10>X(un)Y(??)MAP[00:[00],01:[01],02:[02],03:[03],mmc:(un)]s(0)Z0S0*/(barrier)
;------------------------------------------
_data_2B15_indexed
	$AB15               .byte $01,$56,$52,$01,$54,$55,$53,$01,$58,$57,$59
JumpTableEntry_2B20
	$AB20  20 D5 A5:    jsr _func_25D5			/* A(??)X(??)Y(??)MAP[00:(??),01:(??),02:(??),03:(??),mmc:(un)]s(0)Z?S?*/
	$AB23  A5 4C:       lda $4C			/* A(??)X(??)Y(??)MAP[00:[00],01:[01],02:[02],03:[03],mmc:(un)]s(0)Z?S?*/
	$AB25  29 0C:       and #$0C			/* A(??)X(??)Y(??)MAP[00:[00],01:[01],02:[02],03:[03],mmc:(un)]s(0)Z?S?*/
	$AB27  D0 05:       bne +		; $AB2E			/* A(??)X(??)Y(??)MAP[00:[00],01:[01],02:[02],03:[03],mmc:(un)]s(0)Z?S?*/
	$AB29  A9 06:       lda #$06			/* A(06)<2B29>X(??)Y(??)MAP[00:[00],01:[01],02:[02],03:[03],mmc:(un)]s(0)Z0S0*/
	$AB2B  9D 00 03:    sta $0300,x			/* A(06)<2B29>X(??)Y(??)MAP[00:[00],01:[01],02:[02],03:[03],mmc:(un)]s(0)Z0S0*/
+	$AB2E  A9 00:       lda #$00			/* A(??)X(??)Y(??)MAP[00:[00],01:[01],02:[02],03:[03],mmc:(un)]s(0)Z?S0*/
	$AB30  85 13:       sta $13			/* A(00)<2B2E>X(??)Y(??)MAP[00:[00],01:[01],02:[02],03:[03],mmc:(un)]s(0)Z1S0*/
	$AB32  A0 18:       ldy #$18			/* A(00)<2B2E>X(??)Y(18)<2B32>MAP[00:[00],01:[01],02:[02],03:[03],mmc:(un)]s(0)Z0S0*/
	$AB34  BD 04 03:    lda $0304,x			/* A(??)X(??)Y(18)<2B32>MAP[00:[00],01:[01],02:[02],03:[03],mmc:(un)]s(0)Z?S?*/
	$AB37  38:          sec 			/* A(??)X(??)Y(18)<2B32>MAP[00:[00],01:[01],02:[02],03:[03],mmc:(un)]s(0)Z?S?*/
	$AB38  F9 04 03:    sbc $0304,y			/* A(??)X(??)Y(18)<2B32>MAP[00:[00],01:[01],02:[02],03:[03],mmc:(un)]s(0)Z?S?*/
	$AB3B  85 10:       sta $10			/* A(??)X(??)Y(18)<2B32>MAP[00:[00],01:[01],02:[02],03:[03],mmc:(un)]s(0)Z?S?*/
	$AB3D  A9 00:       lda #$00			/* A(00)<2B3D>X(??)Y(18)<2B32>MAP[00:[00],01:[01],02:[02],03:[03],mmc:(un)]s(0)Z1S0*/
	$AB3F  E9 00:       sbc #$00			/* A(??)X(??)Y(18)<2B32>MAP[00:[00],01:[01],02:[02],03:[03],mmc:(un)]s(0)Z?S?*/
	$AB41  85 11:       sta $11			/* A(??)X(??)Y(18)<2B32>MAP[00:[00],01:[01],02:[02],03:[03],mmc:(un)]s(0)Z?S?*/
	$AB43  06 10:       asl $10			/* A(??)X(??)Y(18)<2B32>MAP[00:[00],01:[01],02:[02],03:[03],mmc:(un)]s(0)Z?S?*/
	$AB45  26 11:       rol $11			/* A(??)X(??)Y(18)<2B32>MAP[00:[00],01:[01],02:[02],03:[03],mmc:(un)]s(0)Z?S?*/
	$AB47  A5 10:       lda $10			/* A(??)X(??)Y(18)<2B32>MAP[00:[00],01:[01],02:[02],03:[03],mmc:(un)]s(0)Z?S?*/
	$AB49  18:          clc 			/* A(??)X(??)Y(18)<2B32>MAP[00:[00],01:[01],02:[02],03:[03],mmc:(un)]s(0)Z?S?*/
	$AB4A  69 68:       adc #$68			/* A(??)X(??)Y(18)<2B32>MAP[00:[00],01:[01],02:[02],03:[03],mmc:(un)]s(0)Z?S?*/
	$AB4C  85 12:       sta $12			/* A(??)X(??)Y(18)<2B32>MAP[00:[00],01:[01],02:[02],03:[03],mmc:(un)]s(0)Z?S?*/
	$AB4E  A5 11:       lda $11			/* A(??)X(??)Y(18)<2B32>MAP[00:[00],01:[01],02:[02],03:[03],mmc:(un)]s(0)Z?S?*/
	$AB50  69 00:       adc #$00			/* A(??)X(??)Y(18)<2B32>MAP[00:[00],01:[01],02:[02],03:[03],mmc:(un)]s(0)Z?S?*/
	$AB52  85 11:       sta $11			/* A(??)X(??)Y(18)<2B32>MAP[00:[00],01:[01],02:[02],03:[03],mmc:(un)]s(0)Z?S?*/
	$AB54  F0 0E:       beq ++		; $AB64			/* A(??)X(??)Y(18)<2B32>MAP[00:[00],01:[01],02:[02],03:[03],mmc:(un)]s(0)Z?S?*/
	$AB56  30 06:       bmi +		; $AB5E			/* A(??)X(??)Y(18)<2B32>MAP[00:[00],01:[01],02:[02],03:[03],mmc:(un)]s(0)Z?S?*/
--	$AB58  A9 40:       lda #$40			/* A(40)<2B58>X(??)Y(18)<2B32>MAP[00:[00],01:[01],02:[02],03:[03],mmc:(un)]s(0)Z0S0*/
	$AB5A  85 13:       sta $13			/* A(40)<2B58>X(??)Y(18)<2B32>MAP[00:[00],01:[01],02:[02],03:[03],mmc:(un)]s(0)Z0S0*/
	$AB5C  D0 10:       bne +++		; $AB6E			/* A(40)<2B58>X(??)Y(18)<2B32>MAP[00:[00],01:[01],02:[02],03:[03],mmc:(un)]s(0)Z0S0*/(barrier)

+ -	$AB5E  A9 80:       lda #$80			/* A(40)<2B58>X(??)Y(18)<2B32>MAP[00:[00],01:[01],02:[02],03:[03],mmc:(un)]s(0)Z0S0*/
	$AB60  85 13:       sta $13			/* A(80)<2B5E>X(??)Y(18)<2B32>MAP[00:[00],01:[01],02:[02],03:[03],mmc:(un)]s(0)Z0S1*/
	$AB62  D0 0A:       bne +++		; $AB6E			/* A(80)<2B5E>X(??)Y(18)<2B32>MAP[00:[00],01:[01],02:[02],03:[03],mmc:(un)]s(0)Z0S1*/(barrier)

++	$AB64  A5 12:       lda $12			/* A(80)<2B5E>X(??)Y(18)<2B32>MAP[00:[00],01:[01],02:[02],03:[03],mmc:(un)]s(0)Z0S1*/
	$AB66  C9 08:       cmp #$08			/* A(??)X(??)Y(18)<2B32>MAP[00:[00],01:[01],02:[02],03:[03],mmc:(un)]s(0)Z?S?*/
	$AB68  90 F4:       bcc -		; $AB5E			/* A(??)X(??)Y(18)<2B32>MAP[00:[00],01:[01],02:[02],03:[03],mmc:(un)]s(0)Z?S?*/
	$AB6A  C9 C8:       cmp #$C8			/* A(??)X(??)Y(18)<2B32>MAP[00:[00],01:[01],02:[02],03:[03],mmc:(un)]s(0)Z?S?*/
	$AB6C  B0 EA:       bcs --		; $AB58			/* A(??)X(??)Y(18)<2B32>MAP[00:[00],01:[01],02:[02],03:[03],mmc:(un)]s(0)Z?S?*/
+++	$AB6E  BD 05 03:    lda $0305,x			/* A(40)<2B58>X(??)Y(18)<2B32>MAP[00:[00],01:[01],02:[02],03:[03],mmc:(un)]s(0)Z0S0*/
	$AB71  38:          sec 			/* A(??)X(??)Y(18)<2B32>MAP[00:[00],01:[01],02:[02],03:[03],mmc:(un)]s(0)Z?S?*/
	$AB72  F9 05 03:    sbc $0305,y			/* A(??)X(??)Y(18)<2B32>MAP[00:[00],01:[01],02:[02],03:[03],mmc:(un)]s(0)Z?S?*/
	$AB75  85 10:       sta $10			/* A(??)X(??)Y(18)<2B32>MAP[00:[00],01:[01],02:[02],03:[03],mmc:(un)]s(0)Z?S?*/
	$AB77  BD 06 03:    lda $0306,x			/* A(??)X(??)Y(18)<2B32>MAP[00:[00],01:[01],02:[02],03:[03],mmc:(un)]s(0)Z?S?*/
	$AB7A  F9 06 03:    sbc $0306,y			/* A(??)X(??)Y(18)<2B32>MAP[00:[00],01:[01],02:[02],03:[03],mmc:(un)]s(0)Z?S?*/
	$AB7D  85 11:       sta $11			/* A(??)X(??)Y(18)<2B32>MAP[00:[00],01:[01],02:[02],03:[03],mmc:(un)]s(0)Z?S?*/
	$AB7F  06 10:       asl $10			/* A(??)X(??)Y(18)<2B32>MAP[00:[00],01:[01],02:[02],03:[03],mmc:(un)]s(0)Z?S?*/
	$AB81  26 11:       rol $11			/* A(??)X(??)Y(18)<2B32>MAP[00:[00],01:[01],02:[02],03:[03],mmc:(un)]s(0)Z?S?*/
	$AB83  A5 10:       lda $10			/* A(??)X(??)Y(18)<2B32>MAP[00:[00],01:[01],02:[02],03:[03],mmc:(un)]s(0)Z?S?*/
	$AB85  18:          clc 			/* A(??)X(??)Y(18)<2B32>MAP[00:[00],01:[01],02:[02],03:[03],mmc:(un)]s(0)Z?S?*/
	$AB86  69 90:       adc #$90			/* A(??)X(??)Y(18)<2B32>MAP[00:[00],01:[01],02:[02],03:[03],mmc:(un)]s(0)Z?S?*/
	$AB88  85 10:       sta $10			/* A(??)X(??)Y(18)<2B32>MAP[00:[00],01:[01],02:[02],03:[03],mmc:(un)]s(0)Z?S?*/
	$AB8A  A5 11:       lda $11			/* A(??)X(??)Y(18)<2B32>MAP[00:[00],01:[01],02:[02],03:[03],mmc:(un)]s(0)Z?S?*/
	$AB8C  69 00:       adc #$00			/* A(??)X(??)Y(18)<2B32>MAP[00:[00],01:[01],02:[02],03:[03],mmc:(un)]s(0)Z?S?*/
	$AB8E  85 11:       sta $11			/* A(??)X(??)Y(18)<2B32>MAP[00:[00],01:[01],02:[02],03:[03],mmc:(un)]s(0)Z?S?*/
	$AB90  F0 12:       beq ++		; $ABA4			/* A(??)X(??)Y(18)<2B32>MAP[00:[00],01:[01],02:[02],03:[03],mmc:(un)]s(0)Z?S?*/
	$AB92  30 08:       bmi +		; $AB9C			/* A(??)X(??)Y(18)<2B32>MAP[00:[00],01:[01],02:[02],03:[03],mmc:(un)]s(0)Z?S?*/
--	$AB94  A5 13:       lda $13			/* A(??)X(??)Y(18)<2B32>MAP[00:[00],01:[01],02:[02],03:[03],mmc:(un)]s(0)Z?S?*/
	$AB96  09 10:       ora #$10			/* A(??)X(??)Y(18)<2B32>MAP[00:[00],01:[01],02:[02],03:[03],mmc:(un)]s(0)Z?S?*/
	$AB98  85 13:       sta $13			/* A(??)X(??)Y(18)<2B32>MAP[00:[00],01:[01],02:[02],03:[03],mmc:(un)]s(0)Z?S?*/
	$AB9A  D0 12:       bne +++		; $ABAE			/* A(??)X(??)Y(18)<2B32>MAP[00:[00],01:[01],02:[02],03:[03],mmc:(un)]s(0)Z?S?*/
+ -	$AB9C  A5 13:       lda $13			/* A(??)X(??)Y(18)<2B32>MAP[00:[00],01:[01],02:[02],03:[03],mmc:(un)]s(0)Z?S?*/
	$AB9E  09 20:       ora #$20			/* A(??)X(??)Y(18)<2B32>MAP[00:[00],01:[01],02:[02],03:[03],mmc:(un)]s(0)Z?S?*/
	$ABA0  85 13:       sta $13			/* A(??)X(??)Y(18)<2B32>MAP[00:[00],01:[01],02:[02],03:[03],mmc:(un)]s(0)Z?S?*/
	$ABA2  D0 0A:       bne +++		; $ABAE			/* A(??)X(??)Y(18)<2B32>MAP[00:[00],01:[01],02:[02],03:[03],mmc:(un)]s(0)Z?S?*/
++	$ABA4  A5 10:       lda $10			/* A(??)X(??)Y(18)<2B32>MAP[00:[00],01:[01],02:[02],03:[03],mmc:(un)]s(0)Z?S?*/
	$ABA6  C9 08:       cmp #$08			/* A(??)X(??)Y(18)<2B32>MAP[00:[00],01:[01],02:[02],03:[03],mmc:(un)]s(0)Z?S?*/
	$ABA8  90 F2:       bcc -		; $AB9C			/* A(??)X(??)Y(18)<2B32>MAP[00:[00],01:[01],02:[02],03:[03],mmc:(un)]s(0)Z?S?*/
	$ABAA  C9 E8:       cmp #$E8			/* A(??)X(??)Y(18)<2B32>MAP[00:[00],01:[01],02:[02],03:[03],mmc:(un)]s(0)Z?S?*/
	$ABAC  B0 E6:       bcs --		; $AB94			/* A(??)X(??)Y(18)<2B32>MAP[00:[00],01:[01],02:[02],03:[03],mmc:(un)]s(0)Z?S?*/
+++	$ABAE  A5 13:       lda $13			/* A(??)X(??)Y(18)<2B32>MAP[00:[00],01:[01],02:[02],03:[03],mmc:(un)]s(0)Z?S?*/
	$ABB0  29 F0:       and #$F0			/* A(??)X(??)Y(18)<2B32>MAP[00:[00],01:[01],02:[02],03:[03],mmc:(un)]s(0)Z?S?*/
	$ABB2  F0 07:       beq +		; $ABBB			/* A(??)X(??)Y(18)<2B32>MAP[00:[00],01:[01],02:[02],03:[03],mmc:(un)]s(0)Z?S?*/
	$ABB4  A5 13:       lda $13			/* A(??)X(??)Y(18)<2B32>MAP[00:[00],01:[01],02:[02],03:[03],mmc:(un)]s(0)Z?S?*/
	$ABB6  09 03:       ora #$03			/* A(??)X(??)Y(18)<2B32>MAP[00:[00],01:[01],02:[02],03:[03],mmc:(un)]s(0)Z?S?*/
	$ABB8  4C F0 AB:    jmp ++		; $ABF0			/* A(??)X(??)Y(18)<2B32>MAP[00:[00],01:[01],02:[02],03:[03],mmc:(un)]s(0)Z?S?*/(barrier)

+	$ABBB  A5 10:       lda $10			/* A(??)X(??)Y(18)<2B32>MAP[00:[00],01:[01],02:[02],03:[03],mmc:(un)]s(0)Z?S?*/
	$ABBD  85 11:       sta $11			/* A(??)X(??)Y(18)<2B32>MAP[00:[00],01:[01],02:[02],03:[03],mmc:(un)]s(0)Z?S?*/
	$ABBF  A5 12:       lda $12			/* A(??)X(??)Y(18)<2B32>MAP[00:[00],01:[01],02:[02],03:[03],mmc:(un)]s(0)Z?S?*/
	$ABC1  85 10:       sta $10			/* A(??)X(??)Y(18)<2B32>MAP[00:[00],01:[01],02:[02],03:[03],mmc:(un)]s(0)Z?S?*/
	$ABC3  20 80 A7:    jsr _func_2780			/* A(??)X(??)Y(??)MAP[00:(??),01:(??),02:(??),03:(??),mmc:(un)]s(0)Z?S?*/
	$ABC6  A9 0D:       lda #$0D			/* A(0D)<2BC6>X(??)Y(18)<2B32>MAP[00:[00],01:[01],02:[02],03:[03],mmc:(un)]s(0)Z0S0*/
	$ABC8  18:          clc 			/* A(0D)<2BC6>X(??)Y(18)<2B32>MAP[00:[00],01:[01],02:[02],03:[03],mmc:(un)]s(0)Z0S0*/
	$ABC9  65 10:       adc $10			/* A(??)X(??)Y(18)<2B32>MAP[00:[00],01:[01],02:[02],03:[03],mmc:(un)]s(0)Z?S?*/
	$ABCB  85 12:       sta $12			/* A(??)X(??)Y(18)<2B32>MAP[00:[00],01:[01],02:[02],03:[03],mmc:(un)]s(0)Z?S?*/
	$ABCD  A9 BB:       lda #$BB			/* A(BB)<2BCD>X(??)Y(18)<2B32>MAP[00:[00],01:[01],02:[02],03:[03],mmc:(un)]s(0)Z0S1*/
	$ABCF  65 11:       adc $11			/* A(??)X(??)Y(18)<2B32>MAP[00:[00],01:[01],02:[02],03:[03],mmc:(un)]s(0)Z?S?*/
	$ABD1  85 13:       sta $13			/* A(??)X(??)Y(18)<2B32>MAP[00:[00],01:[01],02:[02],03:[03],mmc:(un)]s(0)Z?S?*/
	$ABD3  A0 00:       ldy #$00			/* A(??)X(??)Y(00)<2BD3>MAP[00:[00],01:[01],02:[02],03:[03],mmc:(un)]s(0)Z1S0*/
	$ABD5  B1 12:       lda ($12),y			/* A(??)X(??)Y(00)<2BD3>MAP[00:[00],01:[01],02:[02],03:[03],mmc:(un)]s(0)Z?S?*/
	$ABD7  A8:          tay 			/* A(??)X(??)Y(??)MAP[00:[00],01:[01],02:[02],03:[03],mmc:(un)]s(0)Z?S?*/
	$ABD8  A5 14:       lda $14			/* A(??)X(??)Y(??)MAP[00:[00],01:[01],02:[02],03:[03],mmc:(un)]s(0)Z?S?*/
	$ABDA  29 08:       and #$08			/* A(??)X(??)Y(??)MAP[00:[00],01:[01],02:[02],03:[03],mmc:(un)]s(0)Z?S?*/
	$ABDC  F0 06:       beq +		; $ABE4			/* A(??)X(??)Y(??)MAP[00:[00],01:[01],02:[02],03:[03],mmc:(un)]s(0)Z?S?*/
	$ABDE  98:          tya 			/* A(??)X(??)Y(??)MAP[00:[00],01:[01],02:[02],03:[03],mmc:(un)]s(0)Z?S?*/
	$ABDF  0A:          asl a			/* A(??)X(??)Y(??)MAP[00:[00],01:[01],02:[02],03:[03],mmc:(un)]s(0)Z?S?*/
	$ABE0  0A:          asl a			/* A(??)X(??)Y(??)MAP[00:[00],01:[01],02:[02],03:[03],mmc:(un)]s(0)Z?S?*/
	$ABE1  0A:          asl a			/* A(??)X(??)Y(??)MAP[00:[00],01:[01],02:[02],03:[03],mmc:(un)]s(0)Z?S?*/
	$ABE2  0A:          asl a			/* A(??)X(??)Y(??)MAP[00:[00],01:[01],02:[02],03:[03],mmc:(un)]s(0)Z?S?*/
	$ABE3  A8:          tay 			/* A(??)X(??)Y(??)MAP[00:[00],01:[01],02:[02],03:[03],mmc:(un)]s(0)Z?S?*/
+	$ABE4  98:          tya 			/* A(??)X(??)Y(??)MAP[00:[00],01:[01],02:[02],03:[03],mmc:(un)]s(0)Z?S?*/
	$ABE5  29 F0:       and #$F0			/* A(??)X(??)Y(??)MAP[00:[00],01:[01],02:[02],03:[03],mmc:(un)]s(0)Z?S?*/
	$ABE7  D0 05:       bne +		; $ABEE			/* A(??)X(??)Y(??)MAP[00:[00],01:[01],02:[02],03:[03],mmc:(un)]s(0)Z?S?*/
	$ABE9  BD 01 03:    lda $0301,x			/* A(??)X(??)Y(??)MAP[00:[00],01:[01],02:[02],03:[03],mmc:(un)]s(0)Z?S?*/
	$ABEC  29 F0:       and #$F0			/* A(??)X(??)Y(??)MAP[00:[00],01:[01],02:[02],03:[03],mmc:(un)]s(0)Z?S?*/
+	$ABEE  09 03:       ora #$03			/* A(??)X(??)Y(??)MAP[00:[00],01:[01],02:[02],03:[03],mmc:(un)]s(0)Z?S?*/
++	$ABF0  85 15:       sta $15			/* A(??)X(??)Y(18)<2B32>MAP[00:[00],01:[01],02:[02],03:[03],mmc:(un)]s(0)Z?S?*/
	$ABF2  1D 01 03:    ora $0301,x			/* A(??)X(??)Y(??)MAP[00:[00],01:[01],02:[02],03:[03],mmc:(un)]s(0)Z?S?*/
	$ABF5  85 10:       sta $10			/* A(??)X(??)Y(??)MAP[00:[00],01:[01],02:[02],03:[03],mmc:(un)]s(0)Z?S?*/
	$ABF7  29 30:       and #$30			/* A(??)X(??)Y(??)MAP[00:[00],01:[01],02:[02],03:[03],mmc:(un)]s(0)Z?S?*/
	$ABF9  C9 30:       cmp #$30			/* A(??)X(??)Y(??)MAP[00:[00],01:[01],02:[02],03:[03],mmc:(un)]s(0)Z?S?*/
	$ABFB  F0 08:       beq _loc_2C05			/* A(??)X(??)Y(??)MAP[00:[00],01:[01],02:[02],03:[03],mmc:(un)]s(0)Z?S?*/
	$ABFD  A5 10:       lda $10			/* A(??)X(??)Y(??)MAP[00:[00],01:[01],02:[02],03:[03],mmc:(un)]s(0)Z?S?*/
	$ABFF  29 C0:       and #$C0			/* A(??)X(??)Y(??)MAP[00:[00],01:[01],02:[02],03:[03],mmc:(un)]s(0)Z?S?*/
	$AC01  C9 C0:       cmp #$C0			/* A(??)X(??)Y(??)MAP[00:[00],01:[01],02:[02],03:[03],mmc:(un)]s(0)Z?S?*/
	$AC03  D0 10:       bne +		; $AC15			/* A(??)X(??)Y(??)MAP[00:[00],01:[01],02:[02],03:[03],mmc:(un)]s(0)Z?S?*/
_loc_2C05
	$AC05  BD 00 03:    lda $0300,x			/* A(??)X(??)Y(??)MAP[00:[00],01:[01],02:[02],03:[03],mmc:(un)]s(0)Z?S?*/
	$AC08  9D 02 03:    sta $0302,x			/* A(??)X(??)Y(??)MAP[00:[00],01:[01],02:[02],03:[03],mmc:(un)]s(0)Z?S?*/
	$AC0B  A9 0B:       lda #$0B			/* A(0B)<2C0B>X(??)Y(??)MAP[00:[00],01:[01],02:[02],03:[03],mmc:(un)]s(0)Z0S0*/
	$AC0D  9D 00 03:    sta $0300,x			/* A(0B)<2C0B>X(??)Y(??)MAP[00:[00],01:[01],02:[02],03:[03],mmc:(un)]s(0)Z0S0*/
	$AC10  A9 0F:       lda #$0F			/* A(0F)<2C10>X(??)Y(??)MAP[00:[00],01:[01],02:[02],03:[03],mmc:(un)]s(0)Z0S0*/
	$AC12  9D 03 03:    sta $0303,x			/* A(0F)<2C10>X(??)Y(??)MAP[00:[00],01:[01],02:[02],03:[03],mmc:(un)]s(0)Z0S0*/
+	$AC15  A5 15:       lda $15			/* A(??)X(??)Y(??)MAP[00:[00],01:[01],02:[02],03:[03],mmc:(un)]s(0)Z?S?*/
	$AC17  9D 01 03:    sta $0301,x			/* A(??)X(??)Y(??)MAP[00:[00],01:[01],02:[02],03:[03],mmc:(un)]s(0)Z?S?*/
	$AC1A  20 98 A7:    jsr _func_2798			/* A(??)X(??)Y(??)MAP[00:(??),01:(??),02:(??),03:(??),mmc:(un)]s(0)Z?S?*/
	$AC1D  A5 12:       lda $12			/* A(??)X(??)Y(??)MAP[00:[00],01:[01],02:[02],03:[03],mmc:(un)]s(0)Z?S?*/
	$AC1F  F0 08:       beq +		; $AC29			/* A(??)X(??)Y(??)MAP[00:[00],01:[01],02:[02],03:[03],mmc:(un)]s(0)Z?S?*/
	$AC21  BD 01 03:    lda $0301,x			/* A(??)X(??)Y(??)MAP[00:[00],01:[01],02:[02],03:[03],mmc:(un)]s(0)Z?S?*/
	$AC24  09 0F:       ora #$0F			/* A(??)X(??)Y(??)MAP[00:[00],01:[01],02:[02],03:[03],mmc:(un)]s(0)Z?S?*/
	$AC26  9D 01 03:    sta $0301,x			/* A(??)X(??)Y(??)MAP[00:[00],01:[01],02:[02],03:[03],mmc:(un)]s(0)Z?S?*/
+	$AC29  20 AD B0:    jsr _func_30AD			/* A(??)X(??)Y(??)MAP[00:[00],01:[01],02:[02],03:[03],mmc:(un)]s(0)Z?S?*/
	$AC2C  BD 01 03:    lda $0301,x			/* A(??)X(??)Y(??)MAP[00:[00],01:[01],02:[02],03:[03],mmc:(un)]s(0)Z?S?*/
	$AC2F  4A:          lsr a			/* A(??)X(??)Y(??)MAP[00:[00],01:[01],02:[02],03:[03],mmc:(un)]s(0)Z?S?*/
	$AC30  4A:          lsr a			/* A(??)X(??)Y(??)MAP[00:[00],01:[01],02:[02],03:[03],mmc:(un)]s(0)Z?S?*/
	$AC31  4A:          lsr a			/* A(??)X(??)Y(??)MAP[00:[00],01:[01],02:[02],03:[03],mmc:(un)]s(0)Z?S?*/
	$AC32  4A:          lsr a			/* A(??)X(??)Y(??)MAP[00:[00],01:[01],02:[02],03:[03],mmc:(un)]s(0)Z?S?*/
	$AC33  A8:          tay 			/* A(??)X(??)Y(??)MAP[00:[00],01:[01],02:[02],03:[03],mmc:(un)]s(0)Z?S?*/
	$AC34  B9 56 A4:    lda _data_2456_indexed,y			/* A$2456,y<2C34>X(??)Y(??)MAP[00:[00],01:[01],02:[02],03:[03],mmc:(un)]s(0)Z?S?*/
	$AC37  85 12:       sta $12			/* A$2456,y<2C34>X(??)Y(??)MAP[00:[00],01:[01],02:[02],03:[03],mmc:(un)]s(0)Z?S?*/
	$AC39  A9 21:       lda #$21			/* A(21)<2C39>X(??)Y(??)MAP[00:[00],01:[01],02:[02],03:[03],mmc:(un)]s(0)Z0S0*/
	$AC3B  85 13:       sta $13			/* A(21)<2C39>X(??)Y(??)MAP[00:[00],01:[01],02:[02],03:[03],mmc:(un)]s(0)Z0S0*/
	$AC3D  60:          rts 			/* A(21)<2C39>X(??)Y(??)MAP[00:[00],01:[01],02:[02],03:[03],mmc:(un)]s(0)Z0S0*/(barrier)
;------------------------------------------
_func_2C3E
	$AC3E  A5 70:       lda $70			/* A(??)X(??)Y(??)MAP[00:[00],01:[01],02:[02],03:[03],mmc:(un)]s(0)Z?S?*/
	$AC40  30 37:       bmi ++		; $AC79			/* A(??)X(??)Y(??)MAP[00:[00],01:[01],02:[02],03:[03],mmc:(un)]s(0)Z?S?*/
	$AC42  A5 35:       lda $35			/* A(??)X(??)Y(??)MAP[00:[00],01:[01],02:[02],03:[03],mmc:(un)]s(0)Z?S?*/
	$AC44  30 33:       bmi ++		; $AC79			/* A(??)X(??)Y(??)MAP[00:[00],01:[01],02:[02],03:[03],mmc:(un)]s(0)Z?S?*/
	$AC46  A5 4D:       lda $4D			/* A(??)X(??)Y(??)MAP[00:[00],01:[01],02:[02],03:[03],mmc:(un)]s(0)Z?S?*/
	$AC48  38:          sec 			/* A(??)X(??)Y(??)MAP[00:[00],01:[01],02:[02],03:[03],mmc:(un)]s(0)Z?S?*/
	$AC49  FD 04 03:    sbc $0304,x			/* A(??)X(??)Y(??)MAP[00:[00],01:[01],02:[02],03:[03],mmc:(un)]s(0)Z?S?*/
	$AC4C  B0 04:       bcs +		; $AC52			/* A(??)X(??)Y(??)MAP[00:[00],01:[01],02:[02],03:[03],mmc:(un)]s(0)Z?S?*/
	$AC4E  49 FF:       eor #$FF			/* A(??)X(??)Y(??)MAP[00:[00],01:[01],02:[02],03:[03],mmc:(un)]s(0)Z?S?*/
	$AC50  69 01:       adc #$01			/* A(??)X(??)Y(??)MAP[00:[00],01:[01],02:[02],03:[03],mmc:(un)]s(0)Z?S?*/
+	$AC52  C9 02:       cmp #$02			/* A(??)X(??)Y(??)MAP[00:[00],01:[01],02:[02],03:[03],mmc:(un)]s(0)Z?S?*/
	$AC54  B0 23:       bcs ++		; $AC79			/* A(??)X(??)Y(??)MAP[00:[00],01:[01],02:[02],03:[03],mmc:(un)]s(0)Z?S?*/
	$AC56  BD 05 03:    lda $0305,x			/* A(??)X(??)Y(??)MAP[00:[00],01:[01],02:[02],03:[03],mmc:(un)]s(0)Z?S?*/
	$AC59  38:          sec 			/* A(??)X(??)Y(??)MAP[00:[00],01:[01],02:[02],03:[03],mmc:(un)]s(0)Z?S?*/
	$AC5A  E5 4E:       sbc $4E			/* A(??)X(??)Y(??)MAP[00:[00],01:[01],02:[02],03:[03],mmc:(un)]s(0)Z?S?*/
	$AC5C  85 10:       sta $10			/* A(??)X(??)Y(??)MAP[00:[00],01:[01],02:[02],03:[03],mmc:(un)]s(0)Z?S?*/
	$AC5E  BD 06 03:    lda $0306,x			/* A(??)X(??)Y(??)MAP[00:[00],01:[01],02:[02],03:[03],mmc:(un)]s(0)Z?S?*/
	$AC61  E5 4F:       sbc $4F			/* A(??)X(??)Y(??)MAP[00:[00],01:[01],02:[02],03:[03],mmc:(un)]s(0)Z?S?*/
	$AC63  D0 14:       bne ++		; $AC79			/* A(??)X(??)Y(??)MAP[00:[00],01:[01],02:[02],03:[03],mmc:(un)]s(0)Z?S?*/
	$AC65  90 12:       bcc ++		; $AC79			/* A(??)X(??)Y(??)MAP[00:[00],01:[01],02:[02],03:[03],mmc:(un)]s(0)Z?S?*/
	$AC67  A5 10:       lda $10			/* A(??)X(??)Y(??)MAP[00:[00],01:[01],02:[02],03:[03],mmc:(un)]s(0)Z?S?*/
	$AC69  C9 00:       cmp #$00			/* A(??)X(??)Y(??)MAP[00:[00],01:[01],02:[02],03:[03],mmc:(un)]s(0)Z?S?*/
	$AC6B  90 0C:       bcc ++		; $AC79			/* A(??)X(??)Y(??)MAP[00:[00],01:[01],02:[02],03:[03],mmc:(un)]s(0)Z?S?*/
	$AC6D  C9 07:       cmp #$07			/* A(??)X(??)Y(??)MAP[00:[00],01:[01],02:[02],03:[03],mmc:(un)]s(0)Z?S?*/
	$AC6F  B0 08:       bcs ++		; $AC79			/* A(??)X(??)Y(??)MAP[00:[00],01:[01],02:[02],03:[03],mmc:(un)]s(0)Z?S?*/
	$AC71  A5 4C:       lda $4C			/* A(??)X(??)Y(??)MAP[00:[00],01:[01],02:[02],03:[03],mmc:(un)]s(0)Z?S?*/
	$AC73  29 1C:       and #$1C			/* A(??)X(??)Y(??)MAP[00:[00],01:[01],02:[02],03:[03],mmc:(un)]s(0)Z?S?*/
	$AC75  85 4C:       sta $4C			/* A(??)X(??)Y(??)MAP[00:[00],01:[01],02:[02],03:[03],mmc:(un)]s(0)Z?S?*/
	$AC77  38:          sec 			/* A(??)X(??)Y(??)MAP[00:[00],01:[01],02:[02],03:[03],mmc:(un)]s(0)Z?S?*/
	$AC78  60:          rts 			/* A(??)X(??)Y(??)MAP[00:[00],01:[01],02:[02],03:[03],mmc:(un)]s(0)Z?S?*/(barrier)

++	$AC79  18:          clc 			/* A(??)X(??)Y(??)MAP[00:[00],01:[01],02:[02],03:[03],mmc:(un)]s(0)Z?S?*/
	$AC7A  60:          rts 			/* A(??)X(??)Y(??)MAP[00:[00],01:[01],02:[02],03:[03],mmc:(un)]s(0)Z?S?*/(barrier)
;------------------------------------------
JumpTableEntry_2C7B
	$AC7B  A5 1D:       lda $1D			/* A(??)X(un)Y(un)MAP[00:[00],01:[01],02:[02],03:[03],mmc:(un)]s(0)Z?S?*/
	$AC7D  4A:          lsr a			/* A(??)X(un)Y(un)MAP[00:[00],01:[01],02:[02],03:[03],mmc:(un)]s(0)Z?S?*/
	$AC7E  90 23:       bcc ++		; $ACA3			/* A(??)X(un)Y(un)MAP[00:[00],01:[01],02:[02],03:[03],mmc:(un)]s(0)Z?S?*/
	$AC80  BD 02 03:    lda $0302,x			/* A(??)X(un)Y(un)MAP[00:[00],01:[01],02:[02],03:[03],mmc:(un)]s(0)Z?S?*/
	$AC83  10 0A:       bpl +		; $AC8F			/* A(??)X(un)Y(un)MAP[00:[00],01:[01],02:[02],03:[03],mmc:(un)]s(0)Z?S?*/
	$AC85  A5 5F:       lda $5F			/* A(??)X(un)Y(un)MAP[00:[00],01:[01],02:[02],03:[03],mmc:(un)]s(0)Z?S?*/
	$AC87  09 08:       ora #$08			/* A(??)X(un)Y(un)MAP[00:[00],01:[01],02:[02],03:[03],mmc:(un)]s(0)Z?S?*/
	$AC89  29 DF:       and #$DF			/* A(??)X(un)Y(un)MAP[00:[00],01:[01],02:[02],03:[03],mmc:(un)]s(0)Z?S?*/
	$AC8B  85 5F:       sta $5F			/* A(??)X(un)Y(un)MAP[00:[00],01:[01],02:[02],03:[03],mmc:(un)]s(0)Z?S?*/
	$AC8D  D0 14:       bne ++		; $ACA3			/* A(??)X(un)Y(un)MAP[00:[00],01:[01],02:[02],03:[03],mmc:(un)]s(0)Z?S?*/
+	$AC8F  38:          sec 			/* A(??)X(un)Y(un)MAP[00:[00],01:[01],02:[02],03:[03],mmc:(un)]s(0)Z?S?*/
	$AC90  E9 01:       sbc #$01			/* A(??)X(un)Y(un)MAP[00:[00],01:[01],02:[02],03:[03],mmc:(un)]s(0)Z?S?*/
	$AC92  9D 02 03:    sta $0302,x			/* A(??)X(un)Y(un)MAP[00:[00],01:[01],02:[02],03:[03],mmc:(un)]s(0)Z?S?*/
	$AC95  C9 48:       cmp #$48			/* A(??)X(un)Y(un)MAP[00:[00],01:[01],02:[02],03:[03],mmc:(un)]s(0)Z?S?*/
	$AC97  F0 48:       beq _loc_2CE1			/* A(??)X(un)Y(un)MAP[00:[00],01:[01],02:[02],03:[03],mmc:(un)]s(0)Z?S?*/
	$AC99  90 4B:       bcc _loc_2CE6			/* A(??)X(un)Y(un)MAP[00:[00],01:[01],02:[02],03:[03],mmc:(un)]s(0)Z?S?*/
	$AC9B  C9 4E:       cmp #$4E			/* A(??)X(un)Y(un)MAP[00:[00],01:[01],02:[02],03:[03],mmc:(un)]s(0)Z?S?*/
	$AC9D  F0 0E:       beq +++		; $ACAD			/* A(??)X(un)Y(un)MAP[00:[00],01:[01],02:[02],03:[03],mmc:(un)]s(0)Z?S?*/
	$AC9F  C9 58:       cmp #$58			/* A(??)X(un)Y(un)MAP[00:[00],01:[01],02:[02],03:[03],mmc:(un)]s(0)Z?S?*/
	$ACA1  F0 2D:       beq ++++		; $ACD0			/* A(??)X(un)Y(un)MAP[00:[00],01:[01],02:[02],03:[03],mmc:(un)]s(0)Z?S?*/
++ --	$ACA3  BD 07 03:    lda $0307,x			/* A(??)X(un)Y(46)<2CBE>MAP[00:[00],01:[01],02:[02],03:[03],mmc:(un)]s(0)Z?S?*/
	$ACA6  85 12:       sta $12			/* A(??)X(un)Y(un)MAP[00:[00],01:[01],02:[02],03:[03],mmc:(un)]s(0)Z?S?*/
	$ACA8  A9 21:       lda #$21			/* A(21)<2CA8>X(un)Y(un)MAP[00:[00],01:[01],02:[02],03:[03],mmc:(un)]s(0)Z0S0*/
	$ACAA  85 13:       sta $13			/* A(21)<2CA8>X(un)Y(un)MAP[00:[00],01:[01],02:[02],03:[03],mmc:(un)]s(0)Z0S0*/
	$ACAC  60:          rts 			/* A(21)<2CA8>X(un)Y(un)MAP[00:[00],01:[01],02:[02],03:[03],mmc:(un)]s(0)Z0S0*/(barrier)

+++	$ACAD  BD 05 03:    lda $0305,x			/* A(??)X(un)Y(un)MAP[00:[00],01:[01],02:[02],03:[03],mmc:(un)]s(0)Z?S?*/
	$ACB0  18:          clc 			/* A(??)X(un)Y(un)MAP[00:[00],01:[01],02:[02],03:[03],mmc:(un)]s(0)Z?S?*/
	$ACB1  69 04:       adc #$04			/* A(??)X(un)Y(un)MAP[00:[00],01:[01],02:[02],03:[03],mmc:(un)]s(0)Z?S?*/
	$ACB3  9D 05 03:    sta $0305,x			/* A(??)X(un)Y(un)MAP[00:[00],01:[01],02:[02],03:[03],mmc:(un)]s(0)Z?S?*/
	$ACB6  BD 06 03:    lda $0306,x			/* A(??)X(un)Y(un)MAP[00:[00],01:[01],02:[02],03:[03],mmc:(un)]s(0)Z?S?*/
	$ACB9  69 00:       adc #$00			/* A(??)X(un)Y(un)MAP[00:[00],01:[01],02:[02],03:[03],mmc:(un)]s(0)Z?S?*/
	$ACBB  9D 06 03:    sta $0306,x			/* A(??)X(un)Y(un)MAP[00:[00],01:[01],02:[02],03:[03],mmc:(un)]s(0)Z?S?*/
	$ACBE  A0 46:       ldy #$46			/* A(??)X(un)Y(46)<2CBE>MAP[00:[00],01:[01],02:[02],03:[03],mmc:(un)]s(0)Z0S0*/
	$ACC0  BD 07 03:    lda $0307,x			/* A(??)X(un)Y(46)<2CBE>MAP[00:[00],01:[01],02:[02],03:[03],mmc:(un)]s(0)Z?S?*/
	$ACC3  C9 43:       cmp #$43			/* A(??)X(un)Y(46)<2CBE>MAP[00:[00],01:[01],02:[02],03:[03],mmc:(un)]s(0)Z?S?*/
	$ACC5  F0 02:       beq +		; $ACC9			/* A(??)X(un)Y(46)<2CBE>MAP[00:[00],01:[01],02:[02],03:[03],mmc:(un)]s(0)Z?S?*/
	$ACC7  A0 49:       ldy #$49			/* A(??)X(un)Y(49)<2CC7>MAP[00:[00],01:[01],02:[02],03:[03],mmc:(un)]s(0)Z0S0*/
+	$ACC9  98:          tya 			/* A(??)X(un)Y(??)MAP[00:[00],01:[01],02:[02],03:[03],mmc:(un)]s(0)Z0S0*/
	$ACCA  9D 07 03:    sta $0307,x			/* A(46)<2CC9>X(un)Y(46)<2CBE>MAP[00:[00],01:[01],02:[02],03:[03],mmc:(un)]s(0)Z0S0*/
	$ACCD  4C A3 AC:    jmp --		; $ACA3			/* A(46)<2CC9>X(un)Y(46)<2CBE>MAP[00:[00],01:[01],02:[02],03:[03],mmc:(un)]s(0)Z0S0*/(barrier)

++++	$ACD0  BD 05 03:    lda $0305,x			/* A(??)X(un)Y(46)<2CBE>MAP[00:[00],01:[01],02:[02],03:[03],mmc:(un)]s(0)Z?S?*/
	$ACD3  38:          sec 			/* A(??)X(un)Y(46)<2CBE>MAP[00:[00],01:[01],02:[02],03:[03],mmc:(un)]s(0)Z?S?*/
	$ACD4  E9 04:       sbc #$04			/* A(??)X(un)Y(46)<2CBE>MAP[00:[00],01:[01],02:[02],03:[03],mmc:(un)]s(0)Z?S?*/
	$ACD6  9D 05 03:    sta $0305,x			/* A(??)X(un)Y(46)<2CBE>MAP[00:[00],01:[01],02:[02],03:[03],mmc:(un)]s(0)Z?S?*/
	$ACD9  BD 06 03:    lda $0306,x			/* A(??)X(un)Y(46)<2CBE>MAP[00:[00],01:[01],02:[02],03:[03],mmc:(un)]s(0)Z?S?*/
	$ACDC  E9 00:       sbc #$00			/* A(??)X(un)Y(46)<2CBE>MAP[00:[00],01:[01],02:[02],03:[03],mmc:(un)]s(0)Z?S?*/
	$ACDE  9D 06 03:    sta $0306,x			/* A(??)X(un)Y(46)<2CBE>MAP[00:[00],01:[01],02:[02],03:[03],mmc:(un)]s(0)Z?S?*/
_loc_2CE1
	$ACE1  FE 07 03:    inc $0307,x			/* A(??)X(un)Y(46)<2CBE>MAP[00:[00],01:[01],02:[02],03:[03],mmc:(un)]s(0)Z?S?*/
	$ACE4  D0 BD:       bne --		; $ACA3			/* A(??)X(un)Y(un)MAP[00:[00],01:[01],02:[02],03:[03],mmc:(un)]s(0)Z?S?*/
_loc_2CE6
	$ACE6  A8:          tay 			/* A(??)X(un)Y(un)MAP[00:[00],01:[01],02:[02],03:[03],mmc:(un)]s(0)Z?S?*/
	$ACE7  29 07:       and #$07			/* A(??)X(un)Y(??)MAP[00:[00],01:[01],02:[02],03:[03],mmc:(un)]s(0)Z?S?*/
	$ACE9  D0 B8:       bne --		; $ACA3			/* A(??)X(un)Y(??)MAP[00:[00],01:[01],02:[02],03:[03],mmc:(un)]s(0)Z?S?*/
	$ACEB  98:          tya 			/* A(??)X(un)Y(??)MAP[00:[00],01:[01],02:[02],03:[03],mmc:(un)]s(0)Z?S?*/
	$ACEC  29 08:       and #$08			/* A(??)X(un)Y(??)MAP[00:[00],01:[01],02:[02],03:[03],mmc:(un)]s(0)Z?S?*/
	$ACEE  F0 16:       beq +		; $AD06			/* A(??)X(un)Y(??)MAP[00:[00],01:[01],02:[02],03:[03],mmc:(un)]s(0)Z?S?*/
	$ACF0  BD 05 03:    lda $0305,x			/* A(??)X(un)Y(??)MAP[00:[00],01:[01],02:[02],03:[03],mmc:(un)]s(0)Z?S?*/
	$ACF3  18:          clc 			/* A(??)X(un)Y(??)MAP[00:[00],01:[01],02:[02],03:[03],mmc:(un)]s(0)Z?S?*/
	$ACF4  69 03:       adc #$03			/* A(??)X(un)Y(??)MAP[00:[00],01:[01],02:[02],03:[03],mmc:(un)]s(0)Z?S?*/
	$ACF6  9D 05 03:    sta $0305,x			/* A(??)X(un)Y(??)MAP[00:[00],01:[01],02:[02],03:[03],mmc:(un)]s(0)Z?S?*/
	$ACF9  BD 06 03:    lda $0306,x			/* A(??)X(un)Y(??)MAP[00:[00],01:[01],02:[02],03:[03],mmc:(un)]s(0)Z?S?*/
	$ACFC  69 00:       adc #$00			/* A(??)X(un)Y(??)MAP[00:[00],01:[01],02:[02],03:[03],mmc:(un)]s(0)Z?S?*/
	$ACFE  9D 06 03:    sta $0306,x			/* A(??)X(un)Y(??)MAP[00:[00],01:[01],02:[02],03:[03],mmc:(un)]s(0)Z?S?*/
	$AD01  DE 07 03:    dec $0307,x			/* A(??)X(un)Y(??)MAP[00:[00],01:[01],02:[02],03:[03],mmc:(un)]s(0)Z?S?*/
	$AD04  D0 9D:       bne --		; $ACA3			/* A(??)X(un)Y(??)MAP[00:[00],01:[01],02:[02],03:[03],mmc:(un)]s(0)Z?S?*/
+	$AD06  BD 05 03:    lda $0305,x			/* A(??)X(un)Y(??)MAP[00:[00],01:[01],02:[02],03:[03],mmc:(un)]s(0)Z?S?*/
	$AD09  38:          sec 			/* A(??)X(un)Y(??)MAP[00:[00],01:[01],02:[02],03:[03],mmc:(un)]s(0)Z?S?*/
	$AD0A  E9 03:       sbc #$03			/* A(??)X(un)Y(??)MAP[00:[00],01:[01],02:[02],03:[03],mmc:(un)]s(0)Z?S?*/
	$AD0C  9D 05 03:    sta $0305,x			/* A(??)X(un)Y(??)MAP[00:[00],01:[01],02:[02],03:[03],mmc:(un)]s(0)Z?S?*/
	$AD0F  BD 06 03:    lda $0306,x			/* A(??)X(un)Y(??)MAP[00:[00],01:[01],02:[02],03:[03],mmc:(un)]s(0)Z?S?*/
	$AD12  E9 00:       sbc #$00			/* A(??)X(un)Y(??)MAP[00:[00],01:[01],02:[02],03:[03],mmc:(un)]s(0)Z?S?*/
	$AD14  9D 06 03:    sta $0306,x			/* A(??)X(un)Y(??)MAP[00:[00],01:[01],02:[02],03:[03],mmc:(un)]s(0)Z?S?*/
	$AD17  4C E1 AC:    jmp _loc_2CE1			/* A(??)X(un)Y(??)MAP[00:[00],01:[01],02:[02],03:[03],mmc:(un)]s(0)Z?S?*/(barrier)
;------------------------------------------
JumpTableEntry_2D1A
	$AD1A  BD 02 03:    lda $0302,x			/* A(??)X(un)Y(??)MAP[00:[00],01:[01],02:[02],03:[03],mmc:(un)]s(0)Z?S?*/
	$AD1D  29 03:       and #$03			/* A(??)X(un)Y(un)MAP[00:[00],01:[01],02:[02],03:[03],mmc:(un)]s(0)Z?S?*/
	$AD1F  0A:          asl a			/* A(??)X(un)Y(un)MAP[00:[00],01:[01],02:[02],03:[03],mmc:(un)]s(0)Z?S?*/
	$AD20  A8:          tay 			/* A(??)X(un)Y(??)MAP[00:[00],01:[01],02:[02],03:[03],mmc:(un)]s(0)Z?S?*/
	$AD21  B9 2E AD:    lda _JumpPointerTable_2D2E,y			/* A$2D2E,y<2D21>X(un)Y(??)MAP[00:[00],01:[01],02:[02],03:[03],mmc:(un)]s(0)Z?S?*/
	$AD24  85 10:       sta $10			/* A$2D2E,y<2D21>X(un)Y(??)MAP[00:[00],01:[01],02:[02],03:[03],mmc:(un)]s(0)Z?S?*/
	$AD26  B9 2F AD:    lda _JumpPointerTable_2D2E+1,y			/* A$2D2F,y<2D26>X(un)Y(??)MAP[00:[00],01:[01],02:[02],03:[03],mmc:(un)]s(0)Z?S?*/
	$AD29  85 11:       sta $11			/* A$2D2F,y<2D26>X(un)Y(??)MAP[00:[00],01:[01],02:[02],03:[03],mmc:(un)]s(0)Z?S?*/
	$AD2B  6C 10 00:    jmp ($0010)			/* A$2D2F,y<2D26>X(un)Y(??)MAP[00:[00],01:[01],02:[02],03:[03],mmc:(un)]s(0)Z?S?*/
_JumpPointerTable_2D2E
	$AD2E  36 AD:       .word (JumpTableEntry_2D36) ;AD36 (2D36) ()
	$AD30  5F AD:       .word (JumpTableEntry_2D5F) ;AD5F (2D5F) ()
	$AD32  9E AD:       .word (JumpTableEntry_2D9E) ;AD9E (2D9E) ()
	$AD34  B1 AD:       .word (JumpTableEntry_2DB1) ;ADB1 (2DB1) ()
JumpTableEntry_2D36
	$AD36  DE 03 03:    dec $0303,x			/* A(??)X(un)Y(un)MAP[00:[00],01:[01],02:[02],03:[03],mmc:(un)]s(0)Z?S?*/
	$AD39  10 0B:       bpl +		; $AD46			/* A(??)X(un)Y(un)MAP[00:[00],01:[01],02:[02],03:[03],mmc:(un)]s(0)Z?S?*/
	$AD3B  FE 02 03:    inc $0302,x			/* A(??)X(un)Y(un)MAP[00:[00],01:[01],02:[02],03:[03],mmc:(un)]s(0)Z?S?*/
	$AD3E  20 57 C1:    jsr _func_4157			/* A(??)X(??)Y(??)MAP[00:(??),01:(??),02:(??),03:(??),mmc:(un)]s(0)Z?S?*/
	$AD41  A9 38:       lda #$38			/* A(38)<2D41>X(??)Y(??)MAP[00:[00],01:[01],02:[02],03:[03],mmc:(un)]s(0)Z0S0*/
	$AD43  9D 03 03:    sta $0303,x			/* A(38)<2D41>X(??)Y(??)MAP[00:[00],01:[01],02:[02],03:[03],mmc:(un)]s(0)Z0S0*/
+	$AD46  BD 01 03:    lda $0301,x			/* A(38)<2D41>X(??)Y(??)MAP[00:[00],01:[01],02:[02],03:[03],mmc:(un)]s(0)Z0S0*/
	$AD49  4A:          lsr a			/* A(??)X(un)Y(un)MAP[00:[00],01:[01],02:[02],03:[03],mmc:(un)]s(0)Z?S?*/
	$AD4A  4A:          lsr a			/* A(??)X(un)Y(un)MAP[00:[00],01:[01],02:[02],03:[03],mmc:(un)]s(0)Z?S?*/
	$AD4B  4A:          lsr a			/* A(??)X(un)Y(un)MAP[00:[00],01:[01],02:[02],03:[03],mmc:(un)]s(0)Z?S?*/
	$AD4C  4A:          lsr a			/* A(??)X(un)Y(un)MAP[00:[00],01:[01],02:[02],03:[03],mmc:(un)]s(0)Z?S?*/
	$AD4D  A8:          tay 			/* A(??)X(un)Y(??)MAP[00:[00],01:[01],02:[02],03:[03],mmc:(un)]s(0)Z?S?*/
	$AD4E  B9 54 AD:    lda _data_2D54_indexed,y			/* A$2D54,y<2D4E>X(un)Y(??)MAP[00:[00],01:[01],02:[02],03:[03],mmc:(un)]s(0)Z?S?*/
	$AD51  4C 79 A7:    jmp ---		; $A779			/* A$2D54,y<2D4E>X(un)Y(??)MAP[00:[00],01:[01],02:[02],03:[03],mmc:(un)]s(0)Z?S?*/(barrier)
;------------------------------------------
_data_2D54_indexed
	$AD54               .byte $01,$3A,$3E,$01,$40,$41,$3F,$01,$3C,$3B,$3D
JumpTableEntry_2D5F
	$AD5F  20 98 A7:    jsr _func_2798			/* A(??)X(??)Y(??)MAP[00:(??),01:(??),02:(??),03:(??),mmc:(un)]s(0)Z?S?*/
	$AD62  A5 12:       lda $12			/* A(??)X(??)Y(??)MAP[00:[00],01:[01],02:[02],03:[03],mmc:(un)]s(0)Z?S?*/
	$AD64  F0 07:       beq +		; $AD6D			/* A(??)X(??)Y(??)MAP[00:[00],01:[01],02:[02],03:[03],mmc:(un)]s(0)Z?S?*/
	$AD66  BD 01 03:    lda $0301,x			/* A(??)X(??)Y(??)MAP[00:[00],01:[01],02:[02],03:[03],mmc:(un)]s(0)Z?S?*/
	$AD69  09 0F:       ora #$0F			/* A(??)X(??)Y(??)MAP[00:[00],01:[01],02:[02],03:[03],mmc:(un)]s(0)Z?S?*/
	$AD6B  D0 12:       bne ++		; $AD7F			/* A(??)X(??)Y(??)MAP[00:[00],01:[01],02:[02],03:[03],mmc:(un)]s(0)Z?S?*/
+	$AD6D  DE 03 03:    dec $0303,x			/* A(??)X(??)Y(??)MAP[00:[00],01:[01],02:[02],03:[03],mmc:(un)]s(0)Z?S?*/
	$AD70  10 08:       bpl +		; $AD7A			/* A(??)X(??)Y(??)MAP[00:[00],01:[01],02:[02],03:[03],mmc:(un)]s(0)Z?S?*/
	$AD72  FE 02 03:    inc $0302,x			/* A(??)X(??)Y(??)MAP[00:[00],01:[01],02:[02],03:[03],mmc:(un)]s(0)Z?S?*/
	$AD75  A5 F5:       lda $F5			/* A(??)X(??)Y(??)MAP[00:[00],01:[01],02:[02],03:[03],mmc:(un)]s(0)Z?S?*/
	$AD77  9D 03 03:    sta $0303,x			/* A(??)X(??)Y(??)MAP[00:[00],01:[01],02:[02],03:[03],mmc:(un)]s(0)Z?S?*/
+	$AD7A  BD 01 03:    lda $0301,x			/* A(??)X(??)Y(??)MAP[00:[00],01:[01],02:[02],03:[03],mmc:(un)]s(0)Z?S?*/
	$AD7D  29 F0:       and #$F0			/* A(??)X(??)Y(??)MAP[00:[00],01:[01],02:[02],03:[03],mmc:(un)]s(0)Z?S?*/
++	$AD7F  9D 01 03:    sta $0301,x			/* A(??)X(??)Y(??)MAP[00:[00],01:[01],02:[02],03:[03],mmc:(un)]s(0)Z?S?*/
	$AD82  20 AD B0:    jsr _func_30AD			/* A(??)X(??)Y(??)MAP[00:(??),01:(??),02:(??),03:(??),mmc:(un)]s(0)Z?S?*/
	$AD85  BD 01 03:    lda $0301,x			/* A(??)X(??)Y(??)MAP[00:[00],01:[01],02:[02],03:[03],mmc:(un)]s(0)Z?S?*/
	$AD88  4A:          lsr a			/* A(??)X(??)Y(??)MAP[00:[00],01:[01],02:[02],03:[03],mmc:(un)]s(0)Z?S?*/
	$AD89  4A:          lsr a			/* A(??)X(??)Y(??)MAP[00:[00],01:[01],02:[02],03:[03],mmc:(un)]s(0)Z?S?*/
	$AD8A  4A:          lsr a			/* A(??)X(??)Y(??)MAP[00:[00],01:[01],02:[02],03:[03],mmc:(un)]s(0)Z?S?*/
	$AD8B  4A:          lsr a			/* A(??)X(??)Y(??)MAP[00:[00],01:[01],02:[02],03:[03],mmc:(un)]s(0)Z?S?*/
	$AD8C  A8:          tay 			/* A(??)X(??)Y(??)MAP[00:[00],01:[01],02:[02],03:[03],mmc:(un)]s(0)Z?S?*/
	$AD8D  B9 93 AD:    lda _data_2D93_indexed,y			/* A$2D93,y<2D8D>X(??)Y(??)MAP[00:[00],01:[01],02:[02],03:[03],mmc:(un)]s(0)Z?S?*/
	$AD90  4C 79 A7:    jmp ---		; $A779			/* A$2D93,y<2D8D>X(??)Y(??)MAP[00:[00],01:[01],02:[02],03:[03],mmc:(un)]s(0)Z?S?*/(barrier)
;------------------------------------------
_data_2D93_indexed
	$AD93               .byte $01,$5A,$5E,$01,$60,$61,$5F,$01,$5C,$5B,$5D
JumpTableEntry_2D9E
	$AD9E  DE 03 03:    dec $0303,x			/* A(??)X(un)Y(un)MAP[00:[00],01:[01],02:[02],03:[03],mmc:(un)]s(0)Z?S?*/
	$ADA1  10 08:       bpl +		; $ADAB			/* A(??)X(un)Y(un)MAP[00:[00],01:[01],02:[02],03:[03],mmc:(un)]s(0)Z?S?*/
	$ADA3  FE 02 03:    inc $0302,x			/* A(??)X(un)Y(un)MAP[00:[00],01:[01],02:[02],03:[03],mmc:(un)]s(0)Z?S?*/
	$ADA6  A9 0F:       lda #$0F			/* A(0F)<2DA6>X(un)Y(un)MAP[00:[00],01:[01],02:[02],03:[03],mmc:(un)]s(0)Z0S0*/
	$ADA8  9D 03 03:    sta $0303,x			/* A(0F)<2DA6>X(un)Y(un)MAP[00:[00],01:[01],02:[02],03:[03],mmc:(un)]s(0)Z0S0*/
+	$ADAB  BD 07 03:    lda $0307,x			/* A(0F)<2DA6>X(un)Y(un)MAP[00:[00],01:[01],02:[02],03:[03],mmc:(un)]s(0)Z0S0*/
	$ADAE  4C 79 A7:    jmp ---		; $A779			/* A(??)X(un)Y(un)MAP[00:[00],01:[01],02:[02],03:[03],mmc:(un)]s(0)Z?S?*/(barrier)
;------------------------------------------
JumpTableEntry_2DB1
	$ADB1  DE 03 03:    dec $0303,x			/* A(??)X(un)Y(un)MAP[00:[00],01:[01],02:[02],03:[03],mmc:(un)]s(0)Z?S?*/
	$ADB4  10 13:       bpl +++		; $ADC9			/* A(??)X(un)Y(un)MAP[00:[00],01:[01],02:[02],03:[03],mmc:(un)]s(0)Z?S?*/
	$ADB6  A5 79:       lda $79			/* A(??)X(un)Y(un)MAP[00:[00],01:[01],02:[02],03:[03],mmc:(un)]s(0)Z?S?*/
	$ADB8  C9 FF:       cmp #$FF			/* A(??)X(un)Y(un)MAP[00:[00],01:[01],02:[02],03:[03],mmc:(un)]s(0)Z?S?*/
	$ADBA  F0 08:       beq +		; $ADC4			/* A(??)X(un)Y(un)MAP[00:[00],01:[01],02:[02],03:[03],mmc:(un)]s(0)Z?S?*/
	$ADBC  E4 79:       cpx $79			/* A(??)X(un)Y(un)MAP[00:[00],01:[01],02:[02],03:[03],mmc:(un)]s(0)Z?S?*/
	$ADBE  D0 04:       bne +		; $ADC4			/* A(??)X(un)Y(un)MAP[00:[00],01:[01],02:[02],03:[03],mmc:(un)]s(0)Z?S?*/
	$ADC0  A9 0D:       lda #$0D			/* A(0D)<2DC0>X(un)Y(un)MAP[00:[00],01:[01],02:[02],03:[03],mmc:(un)]s(0)Z0S0*/
	$ADC2  D0 02:       bne ++		; $ADC6			/* A(0D)<2DC0>X(un)Y(un)MAP[00:[00],01:[01],02:[02],03:[03],mmc:(un)]s(0)Z0S0*/(barrier)

+	$ADC4  A9 06:       lda #$06			/* A(0D)<2DC0>X(un)Y(un)MAP[00:[00],01:[01],02:[02],03:[03],mmc:(un)]s(0)Z0S0*/
++	$ADC6  9D 00 03:    sta $0300,x			/* A(??)X(un)Y(un)MAP[00:[00],01:[01],02:[02],03:[03],mmc:(un)]s(0)Z0S0*/
+++	$ADC9  BD 01 03:    lda $0301,x			/* A(06)<2DC4>X(un)Y(un)MAP[00:[00],01:[01],02:[02],03:[03],mmc:(un)]s(0)Z0S0*/
	$ADCC  4A:          lsr a			/* A(??)X(un)Y(un)MAP[00:[00],01:[01],02:[02],03:[03],mmc:(un)]s(0)Z?S?*/
	$ADCD  4A:          lsr a			/* A(??)X(un)Y(un)MAP[00:[00],01:[01],02:[02],03:[03],mmc:(un)]s(0)Z?S?*/
	$ADCE  4A:          lsr a			/* A(??)X(un)Y(un)MAP[00:[00],01:[01],02:[02],03:[03],mmc:(un)]s(0)Z?S?*/
	$ADCF  4A:          lsr a			/* A(??)X(un)Y(un)MAP[00:[00],01:[01],02:[02],03:[03],mmc:(un)]s(0)Z?S?*/
	$ADD0  A8:          tay 			/* A(??)X(un)Y(??)MAP[00:[00],01:[01],02:[02],03:[03],mmc:(un)]s(0)Z?S?*/
	$ADD1  B9 D7 AD:    lda _data_2DD7_indexed,y			/* A$2DD7,y<2DD1>X(un)Y(??)MAP[00:[00],01:[01],02:[02],03:[03],mmc:(un)]s(0)Z?S?*/
	$ADD4  4C 79 A7:    jmp ---		; $A779			/* A$2DD7,y<2DD1>X(un)Y(??)MAP[00:[00],01:[01],02:[02],03:[03],mmc:(un)]s(0)Z?S?*/(barrier)
;------------------------------------------
_data_2DD7_indexed
	$ADD7               .byte $01,$31,$35,$01,$37,$38,$36,$01,$33,$32,$34
_func_2DE2
	$ADE2  A5 4C:       lda $4C			/* A(??)X(??)Y(??)MAP[00:[00],01:[01],02:[02],03:[03],mmc:(un)]s(0)Z?S?*/
	$ADE4  29 40:       and #$40			/* A(??)X(??)Y(??)MAP[00:[00],01:[01],02:[02],03:[03],mmc:(un)]s(0)Z?S?*/
	$ADE6  D0 33:       bne ++		; $AE1B -> rts			/* A(??)X(??)Y(??)MAP[00:[00],01:[01],02:[02],03:[03],mmc:(un)]s(0)Z?S?*/
	$ADE8  BD 00 03:    lda $0300,x			/* A(??)X(??)Y(??)MAP[00:[00],01:[01],02:[02],03:[03],mmc:(un)]s(0)Z?S?*/
	$ADEB  29 1F:       and #$1F			/* A(??)X(??)Y(??)MAP[00:[00],01:[01],02:[02],03:[03],mmc:(un)]s(0)Z?S?*/
	$ADED  C9 0D:       cmp #$0D			/* A(??)X(??)Y(??)MAP[00:[00],01:[01],02:[02],03:[03],mmc:(un)]s(0)Z?S?*/
	$ADEF  D0 10:       bne +		; $AE01			/* A(??)X(??)Y(??)MAP[00:[00],01:[01],02:[02],03:[03],mmc:(un)]s(0)Z?S?*/
	$ADF1  A5 EA:       lda $EA			/* A(??)X(??)Y(??)MAP[00:[00],01:[01],02:[02],03:[03],mmc:(un)]s(0)Z?S?*/
	$ADF3  29 03:       and #$03			/* A(??)X(??)Y(??)MAP[00:[00],01:[01],02:[02],03:[03],mmc:(un)]s(0)Z?S?*/
	$ADF5  F0 24:       beq ++		; $AE1B -> rts			/* A(??)X(??)Y(??)MAP[00:[00],01:[01],02:[02],03:[03],mmc:(un)]s(0)Z?S?*/
	$ADF7  A9 20:       lda #$20			/* A(20)<2DF7>X(??)Y(??)MAP[00:[00],01:[01],02:[02],03:[03],mmc:(un)]s(0)Z0S0*/
	$ADF9  8D 98 03:    sta $0398			/* A(20)<2DF7>X(??)Y(??)MAP[00:[00],01:[01],02:[02],03:[03],mmc:(un)]s(0)Z0S0*/
	$ADFC  A9 02:       lda #$02			/* A(02)<2DFC>X(??)Y(??)MAP[00:[00],01:[01],02:[02],03:[03],mmc:(un)]s(0)Z0S0*/
	$ADFE  4C 49 AE:    jmp _loc_2E49			/* A(02)<2DFC>X(??)Y(??)MAP[00:[00],01:[01],02:[02],03:[03],mmc:(un)]s(0)Z0S0*/(barrier)

+	$AE01  A5 11:       lda $11			/* A(02)<2DFC>X(??)Y(??)MAP[00:[00],01:[01],02:[02],03:[03],mmc:(un)]s(0)Z0S0*/
	$AE03  C9 01:       cmp #$01			/* A(??)X(??)Y(??)MAP[00:[00],01:[01],02:[02],03:[03],mmc:(un)]s(0)Z?S?*/
	$AE05  D0 14:       bne ++		; $AE1B -> rts			/* A(??)X(??)Y(??)MAP[00:[00],01:[01],02:[02],03:[03],mmc:(un)]s(0)Z?S?*/
	$AE07  A5 10:       lda $10			/* A(??)X(??)Y(??)MAP[00:[00],01:[01],02:[02],03:[03],mmc:(un)]s(0)Z?S?*/
	$AE09  29 F0:       and #$F0			/* A(??)X(??)Y(??)MAP[00:[00],01:[01],02:[02],03:[03],mmc:(un)]s(0)Z?S?*/
	$AE0B  C9 20:       cmp #$20			/* A(??)X(??)Y(??)MAP[00:[00],01:[01],02:[02],03:[03],mmc:(un)]s(0)Z?S?*/
	$AE0D  F0 0D:       beq +++		; $AE1C			/* A(??)X(??)Y(??)MAP[00:[00],01:[01],02:[02],03:[03],mmc:(un)]s(0)Z?S?*/
	$AE0F  C9 50:       cmp #$50			/* A(??)X(??)Y(??)MAP[00:[00],01:[01],02:[02],03:[03],mmc:(un)]s(0)Z?S?*/
	$AE11  F0 11:       beq ++++		; $AE24			/* A(??)X(??)Y(??)MAP[00:[00],01:[01],02:[02],03:[03],mmc:(un)]s(0)Z?S?*/
	$AE13  C9 60:       cmp #$60			/* A(??)X(??)Y(??)MAP[00:[00],01:[01],02:[02],03:[03],mmc:(un)]s(0)Z?S?*/
	$AE15  F0 0D:       beq ++++		; $AE24			/* A(??)X(??)Y(??)MAP[00:[00],01:[01],02:[02],03:[03],mmc:(un)]s(0)Z?S?*/
	$AE17  C9 90:       cmp #$90			/* A(??)X(??)Y(??)MAP[00:[00],01:[01],02:[02],03:[03],mmc:(un)]s(0)Z?S?*/
	$AE19  F0 01:       beq +++		; $AE1C			/* A(??)X(??)Y(??)MAP[00:[00],01:[01],02:[02],03:[03],mmc:(un)]s(0)Z?S?*/
++ -	$AE1B  60:          rts 			/* A(??)X(??)Y(??)MAP[00:[00],01:[01],02:[02],03:[03],mmc:(un)]s(0)Z?S?*/(barrier)

+++	$AE1C  A5 10:       lda $10			/* A(??)X(??)Y(??)MAP[00:[00],01:[01],02:[02],03:[03],mmc:(un)]s(0)Z?S?*/
	$AE1E  29 0F:       and #$0F			/* A(??)X(??)Y(??)MAP[00:[00],01:[01],02:[02],03:[03],mmc:(un)]s(0)Z?S?*/
	$AE20  C9 06:       cmp #$06			/* A(??)X(??)Y(??)MAP[00:[00],01:[01],02:[02],03:[03],mmc:(un)]s(0)Z?S?*/
	$AE22  F0 19:       beq _loc_2E3D			/* A(??)X(??)Y(??)MAP[00:[00],01:[01],02:[02],03:[03],mmc:(un)]s(0)Z?S?*/
++++	$AE24  A5 10:       lda $10			/* A(??)X(??)Y(??)MAP[00:[00],01:[01],02:[02],03:[03],mmc:(un)]s(0)Z?S?*/
	$AE26  29 0F:       and #$0F			/* A(??)X(??)Y(??)MAP[00:[00],01:[01],02:[02],03:[03],mmc:(un)]s(0)Z?S?*/
	$AE28  C9 05:       cmp #$05			/* A(??)X(??)Y(??)MAP[00:[00],01:[01],02:[02],03:[03],mmc:(un)]s(0)Z?S?*/
	$AE2A  F0 0B:       beq +		; $AE37			/* A(??)X(??)Y(??)MAP[00:[00],01:[01],02:[02],03:[03],mmc:(un)]s(0)Z?S?*/
	$AE2C  C9 07:       cmp #$07			/* A(??)X(??)Y(??)MAP[00:[00],01:[01],02:[02],03:[03],mmc:(un)]s(0)Z?S?*/
	$AE2E  D0 EB:       bne -		; $AE1B -> rts			/* A(??)X(??)Y(??)MAP[00:[00],01:[01],02:[02],03:[03],mmc:(un)]s(0)Z?S?*/
	$AE30  A5 14:       lda $14			/* A(??)X(??)Y(??)MAP[00:[00],01:[01],02:[02],03:[03],mmc:(un)]s(0)Z?S?*/
	$AE32  29 08:       and #$08			/* A(??)X(??)Y(??)MAP[00:[00],01:[01],02:[02],03:[03],mmc:(un)]s(0)Z?S?*/
	$AE34  D0 07:       bne _loc_2E3D			/* A(??)X(??)Y(??)MAP[00:[00],01:[01],02:[02],03:[03],mmc:(un)]s(0)Z?S?*/
	$AE36  60:          rts 			/* A(??)X(??)Y(??)MAP[00:[00],01:[01],02:[02],03:[03],mmc:(un)]s(0)Z?S?*/(barrier)

+	$AE37  A5 14:       lda $14			/* A(??)X(??)Y(??)MAP[00:[00],01:[01],02:[02],03:[03],mmc:(un)]s(0)Z?S?*/
	$AE39  29 08:       and #$08			/* A(??)X(??)Y(??)MAP[00:[00],01:[01],02:[02],03:[03],mmc:(un)]s(0)Z?S?*/
	$AE3B  D0 DE:       bne -		; $AE1B -> rts			/* A(??)X(??)Y(??)MAP[00:[00],01:[01],02:[02],03:[03],mmc:(un)]s(0)Z?S?*/
_loc_2E3D
	$AE3D  BD 04 03:    lda $0304,x			/* A(??)X(??)Y(??)MAP[00:[00],01:[01],02:[02],03:[03],mmc:(un)]s(0)Z?S?*/
	$AE40  5D 05 03:    eor $0305,x			/* A(??)X(??)Y(??)MAP[00:[00],01:[01],02:[02],03:[03],mmc:(un)]s(0)Z?S?*/
	$AE43  29 01:       and #$01			/* A(??)X(??)Y(??)MAP[00:[00],01:[01],02:[02],03:[03],mmc:(un)]s(0)Z?S?*/
	$AE45  F0 D4:       beq -		; $AE1B -> rts			/* A(??)X(??)Y(??)MAP[00:[00],01:[01],02:[02],03:[03],mmc:(un)]s(0)Z?S?*/
	$AE47  A5 F6:       lda $F6			/* A(??)X(??)Y(??)MAP[00:[00],01:[01],02:[02],03:[03],mmc:(un)]s(0)Z?S?*/
_loc_2E49
	$AE49  9D 03 03:    sta $0303,x			/* A(??)X(??)Y(??)MAP[00:[00],01:[01],02:[02],03:[03],mmc:(un)]s(0)Z?S?*/
	$AE4C  A9 09:       lda #$09			/* A(09)<2E4C>X(??)Y(??)MAP[00:[00],01:[01],02:[02],03:[03],mmc:(un)]s(0)Z0S0*/
	$AE4E  9D 00 03:    sta $0300,x			/* A(09)<2E4C>X(??)Y(??)MAP[00:[00],01:[01],02:[02],03:[03],mmc:(un)]s(0)Z0S0*/
	$AE51  A9 00:       lda #$00			/* A(00)<2E51>X(??)Y(??)MAP[00:[00],01:[01],02:[02],03:[03],mmc:(un)]s(0)Z1S0*/
	$AE53  9D 02 03:    sta $0302,x			/* A(00)<2E51>X(??)Y(??)MAP[00:[00],01:[01],02:[02],03:[03],mmc:(un)]s(0)Z1S0*/
	$AE56  68:          pla 			/* A(??)X(??)Y(??)MAP[00:[00],01:[01],02:[02],03:[03],mmc:(un)]s(0)Z?S?*/
	$AE57  68:          pla 			/* A(??)X(??)Y(??)MAP[00:[00],01:[01],02:[02],03:[03],mmc:(un)]s(0)Z?S?*/
	$AE58  BD 07 03:    lda $0307,x			/* A(??)X(??)Y(??)MAP[00:[00],01:[01],02:[02],03:[03],mmc:(un)]s(0)Z?S?*/
	$AE5B  4C 79 A7:    jmp ---		; $A779			/* A(??)X(??)Y(??)MAP[00:[00],01:[01],02:[02],03:[03],mmc:(un)]s(0)Z?S?*/(barrier)
;------------------------------------------
_func_2E5E
	$AE5E  A0 00:       ldy #$00			/* A(??)X(??)Y(??)MAP[00:[00],01:[01],02:[02],03:[03],mmc:(un)]s(0)Z?S?*/
-	$AE60  B9 00 03:    lda $0300,y			/* A(??)X(??)Y(00)<2E5E>MAP[00:[00],01:[01],02:[02],03:[03],mmc:(un)]s(0)Z?S?*/
	$AE63  09 80:       ora #$80			/* A(??)X(??)Y(00)<2E5E>MAP[00:[00],01:[01],02:[02],03:[03],mmc:(un)]s(0)Z?S?*/
	$AE65  99 00 03:    sta $0300,y			/* A(??)X(??)Y(00)<2E5E>MAP[00:[00],01:[01],02:[02],03:[03],mmc:(un)]s(0)Z?S?*/
	$AE68  98:          tya 			/* A(00)<2E68>X(??)Y(00)<2E5E>MAP[00:[00],01:[01],02:[02],03:[03],mmc:(un)]s(0)Z1S0*/
	$AE69  18:          clc 			/* A(00)<2E68>X(??)Y(00)<2E5E>MAP[00:[00],01:[01],02:[02],03:[03],mmc:(un)]s(0)Z1S0*/
	$AE6A  69 08:       adc #$08			/* A(??)X(??)Y(00)<2E5E>MAP[00:[00],01:[01],02:[02],03:[03],mmc:(un)]s(0)Z?S?*/
	$AE6C  A8:          tay 			/* A(??)X(??)Y(??)MAP[00:[00],01:[01],02:[02],03:[03],mmc:(un)]s(0)Z?S?*/
	$AE6D  C9 90:       cmp #$90			/* A(??)X(??)Y(??)MAP[00:[00],01:[01],02:[02],03:[03],mmc:(un)]s(0)Z?S?*/
	$AE6F  90 EF:       bcc -		; $AE60			/* A(??)X(??)Y(??)MAP[00:[00],01:[01],02:[02],03:[03],mmc:(un)]s(0)Z?S?*/
	$AE71  A9 0A:       lda #$0A			/* A(0A)<2E71>X(??)Y(??)MAP[00:[00],01:[01],02:[02],03:[03],mmc:(un)]s(0)Z0S0*/
	$AE73  9D 00 03:    sta $0300,x			/* A(0A)<2E71>X(??)Y(??)MAP[00:[00],01:[01],02:[02],03:[03],mmc:(un)]s(0)Z0S0*/
	$AE76  A9 0F:       lda #$0F			/* A(0F)<2E76>X(??)Y(??)MAP[00:[00],01:[01],02:[02],03:[03],mmc:(un)]s(0)Z0S0*/
	$AE78  9D 03 03:    sta $0303,x			/* A(0F)<2E76>X(??)Y(??)MAP[00:[00],01:[01],02:[02],03:[03],mmc:(un)]s(0)Z0S0*/
	$AE7B  A5 4E:       lda $4E			/* A(??)X(??)Y(??)MAP[00:[00],01:[01],02:[02],03:[03],mmc:(un)]s(0)Z?S?*/
	$AE7D  85 6D:       sta $6D			/* A(??)X(??)Y(??)MAP[00:[00],01:[01],02:[02],03:[03],mmc:(un)]s(0)Z?S?*/
	$AE7F  A5 4F:       lda $4F			/* A(??)X(??)Y(??)MAP[00:[00],01:[01],02:[02],03:[03],mmc:(un)]s(0)Z?S?*/
	$AE81  85 6E:       sta $6E			/* A(??)X(??)Y(??)MAP[00:[00],01:[01],02:[02],03:[03],mmc:(un)]s(0)Z?S?*/
	$AE83  4C 6D C1:    jmp _func_416D			/* A(??)X(??)Y(??)MAP[00:[00],01:[01],02:[02],03:[03],mmc:(un)]s(0)Z?S?*/(barrier)
;------------------------------------------
JumpTableEntry_2E86
	$AE86  DE 03 03:    dec $0303,x			/* A(??)X(??)Y(??)MAP[00:[00],01:[01],02:[02],03:[03],mmc:(un)]s(0)Z?S?*/
	$AE89  10 0B:       bpl +		; $AE96			/* A(??)X(??)Y(??)MAP[00:[00],01:[01],02:[02],03:[03],mmc:(un)]s(0)Z?S?*/
	$AE8B  A9 81:       lda #$81			/* A(81)<2E8B>X(??)Y(??)MAP[00:[00],01:[01],02:[02],03:[03],mmc:(un)]s(0)Z0S1*/
	$AE8D  9D 00 03:    sta $0300,x			/* A(81)<2E8B>X(??)Y(??)MAP[00:[00],01:[01],02:[02],03:[03],mmc:(un)]s(0)Z0S1*/
	$AE90  A5 5F:       lda $5F			/* A(??)X(??)Y(??)MAP[00:[00],01:[01],02:[02],03:[03],mmc:(un)]s(0)Z?S?*/
	$AE92  09 80:       ora #$80			/* A(??)X(??)Y(??)MAP[00:[00],01:[01],02:[02],03:[03],mmc:(un)]s(0)Z?S?*/
	$AE94  85 5F:       sta $5F			/* A(??)X(??)Y(??)MAP[00:[00],01:[01],02:[02],03:[03],mmc:(un)]s(0)Z?S?*/
+	$AE96  BD 01 03:    lda $0301,x			/* A(??)X(??)Y(??)MAP[00:[00],01:[01],02:[02],03:[03],mmc:(un)]s(0)Z?S?*/
	$AE99  4A:          lsr a			/* A(??)X(??)Y(??)MAP[00:[00],01:[01],02:[02],03:[03],mmc:(un)]s(0)Z?S?*/
	$AE9A  4A:          lsr a			/* A(??)X(??)Y(??)MAP[00:[00],01:[01],02:[02],03:[03],mmc:(un)]s(0)Z?S?*/
	$AE9B  4A:          lsr a			/* A(??)X(??)Y(??)MAP[00:[00],01:[01],02:[02],03:[03],mmc:(un)]s(0)Z?S?*/
	$AE9C  4A:          lsr a			/* A(??)X(??)Y(??)MAP[00:[00],01:[01],02:[02],03:[03],mmc:(un)]s(0)Z?S?*/
	$AE9D  A8:          tay 			/* A(??)X(??)Y(??)MAP[00:[00],01:[01],02:[02],03:[03],mmc:(un)]s(0)Z?S?*/
	$AE9E  B9 93 AD:    lda _data_2D93_indexed,y			/* A$2D93,y<2E9E>X(??)Y(??)MAP[00:[00],01:[01],02:[02],03:[03],mmc:(un)]s(0)Z?S?*/
	$AEA1  85 12:       sta $12			/* A$2D93,y<2E9E>X(??)Y(??)MAP[00:[00],01:[01],02:[02],03:[03],mmc:(un)]s(0)Z?S?*/
	$AEA3  A9 31:       lda #$31			/* A(31)<2EA3>X(??)Y(??)MAP[00:[00],01:[01],02:[02],03:[03],mmc:(un)]s(0)Z0S0*/
	$AEA5  85 13:       sta $13			/* A(31)<2EA3>X(??)Y(??)MAP[00:[00],01:[01],02:[02],03:[03],mmc:(un)]s(0)Z0S0*/
	$AEA7  60:          rts 			/* A(31)<2EA3>X(??)Y(??)MAP[00:[00],01:[01],02:[02],03:[03],mmc:(un)]s(0)Z0S0*/(barrier)
;------------------------------------------
JumpTableEntry_2EA8
	$AEA8  BD 05 03:    lda $0305,x			/* A(??)X(un)Y(un)MAP[00:[00],01:[01],02:[02],03:[03],mmc:(un)]s(0)Z?S?*/
	$AEAB  C9 AC:       cmp #$AC			/* A(??)X(un)Y(un)MAP[00:[00],01:[01],02:[02],03:[03],mmc:(un)]s(0)Z?S?*/
	$AEAD  B0 0E:       bcs +		; $AEBD			/* A(??)X(un)Y(un)MAP[00:[00],01:[01],02:[02],03:[03],mmc:(un)]s(0)Z?S?*/
	$AEAF  A5 5F:       lda $5F			/* A(??)X(un)Y(un)MAP[00:[00],01:[01],02:[02],03:[03],mmc:(un)]s(0)Z?S?*/
	$AEB1  09 20:       ora #$20			/* A(??)X(un)Y(un)MAP[00:[00],01:[01],02:[02],03:[03],mmc:(un)]s(0)Z?S?*/
	$AEB3  85 5F:       sta $5F			/* A(??)X(un)Y(un)MAP[00:[00],01:[01],02:[02],03:[03],mmc:(un)]s(0)Z?S?*/
	$AEB5  BD 00 03:    lda $0300,x			/* A(??)X(un)Y(un)MAP[00:[00],01:[01],02:[02],03:[03],mmc:(un)]s(0)Z?S?*/
	$AEB8  09 80:       ora #$80			/* A(??)X(un)Y(un)MAP[00:[00],01:[01],02:[02],03:[03],mmc:(un)]s(0)Z?S?*/
	$AEBA  9D 00 03:    sta $0300,x			/* A(??)X(un)Y(un)MAP[00:[00],01:[01],02:[02],03:[03],mmc:(un)]s(0)Z?S?*/
+	$AEBD  A9 15:       lda #$15			/* A(??)X(un)Y(un)MAP[00:[00],01:[01],02:[02],03:[03],mmc:(un)]s(0)Z?S?*/
	$AEBF  9D 01 03:    sta $0301,x			/* A(15)<2EBD>X(un)Y(un)MAP[00:[00],01:[01],02:[02],03:[03],mmc:(un)]s(0)Z0S0*/
	$AEC2  20 D6 A1:    jsr _func_21D6			/* A(??)X(??)Y(??)MAP[00:(??),01:(??),02:(??),03:(??),mmc:(un)]s(0)Z?S?*/
	$AEC5  A9 84:       lda #$84			/* A(84)<2EC5>X(??)Y(??)MAP[00:[00],01:[01],02:[02],03:[03],mmc:(un)]s(0)Z0S1*/
	$AEC7  85 12:       sta $12			/* A(84)<2EC5>X(??)Y(??)MAP[00:[00],01:[01],02:[02],03:[03],mmc:(un)]s(0)Z0S1*/
	$AEC9  A9 01:       lda #$01			/* A(01)<2EC9>X(??)Y(??)MAP[00:[00],01:[01],02:[02],03:[03],mmc:(un)]s(0)Z0S0*/
	$AECB  85 13:       sta $13			/* A(01)<2EC9>X(??)Y(??)MAP[00:[00],01:[01],02:[02],03:[03],mmc:(un)]s(0)Z0S0*/
	$AECD  60:          rts 			/* A(01)<2EC9>X(??)Y(??)MAP[00:[00],01:[01],02:[02],03:[03],mmc:(un)]s(0)Z0S0*/(barrier)
;------------------------------------------
_func_2ECE
	$AECE  A9 80:       lda #$80			/* A(80)<2ECE>X(??)Y(??)MAP[00:[00],01:[01],02:[02],03:[03],mmc:(un)]s(0)Z0S1*/
	$AED0  85 21:       sta $21			/* A(80)<2ECE>X(??)Y(??)MAP[00:[00],01:[01],02:[02],03:[03],mmc:(un)]s(0)Z0S1*/
	$AED2  A5 1D:       lda $1D			/* A(??)X(??)Y(??)MAP[00:[00],01:[01],02:[02],03:[03],mmc:(un)]s(0)Z?S?*/
	$AED4  29 0F:       and #$0F			/* A(??)X(??)Y(??)MAP[00:[00],01:[01],02:[02],03:[03],mmc:(un)]s(0)Z?S?*/
	$AED6  D0 0C:       bne ++		; $AEE4			/* A(??)X(??)Y(??)MAP[00:[00],01:[01],02:[02],03:[03],mmc:(un)]s(0)Z?S?*/
	$AED8  A5 F1:       lda $F1			/* A(??)X(??)Y(??)MAP[00:[00],01:[01],02:[02],03:[03],mmc:(un)]s(0)Z?S?*/
	$AEDA  10 06:       bpl +		; $AEE2			/* A(??)X(??)Y(??)MAP[00:[00],01:[01],02:[02],03:[03],mmc:(un)]s(0)Z?S?*/
	$AEDC  A9 00:       lda #$00			/* A(00)<2EDC>X(??)Y(??)MAP[00:[00],01:[01],02:[02],03:[03],mmc:(un)]s(0)Z1S0*/
	$AEDE  85 21:       sta $21			/* A(00)<2EDC>X(??)Y(??)MAP[00:[00],01:[01],02:[02],03:[03],mmc:(un)]s(0)Z1S0*/
	$AEE0  F0 02:       beq ++		; $AEE4			/* A(00)<2EDC>X(??)Y(??)MAP[00:[00],01:[01],02:[02],03:[03],mmc:(un)]s(0)Z1S0*/(barrier)

+	$AEE2  C6 F1:       dec $F1			/* A(00)<2EDC>X(??)Y(??)MAP[00:[00],01:[01],02:[02],03:[03],mmc:(un)]s(0)Z1S0*/
++	$AEE4  A2 00:       ldx #$00			/* A(00)<2EDC>X(00)<2EE4>Y(??)MAP[00:[00],01:[01],02:[02],03:[03],mmc:(un)]s(0)Z1S0*/
-	$AEE6  BD 00 03:    lda $0300,x			/* A(??)X(00)<2EE4>Y(??)MAP[00:[00],01:[01],02:[02],03:[03],mmc:(un)]s(0)Z?S?*/
	$AEE9  C9 8E:       cmp #$8E			/* A(??)X(00)<2EE4>Y(??)MAP[00:[00],01:[01],02:[02],03:[03],mmc:(un)]s(0)Z?S?*/
	$AEEB  D0 0D:       bne ++		; $AEFA			/* A(??)X(00)<2EE4>Y(??)MAP[00:[00],01:[01],02:[02],03:[03],mmc:(un)]s(0)Z?S?*/
	$AEED  A0 6B:       ldy #$6B			/* A(??)X(00)<2EE4>Y(6B)<2EED>MAP[00:[00],01:[01],02:[02],03:[03],mmc:(un)]s(0)Z0S0*/
	$AEEF  A5 1D:       lda $1D			/* A(??)X(00)<2EE4>Y(6B)<2EED>MAP[00:[00],01:[01],02:[02],03:[03],mmc:(un)]s(0)Z?S?*/
	$AEF1  29 10:       and #$10			/* A(??)X(00)<2EE4>Y(6B)<2EED>MAP[00:[00],01:[01],02:[02],03:[03],mmc:(un)]s(0)Z?S?*/
	$AEF3  D0 01:       bne +		; $AEF6			/* A(??)X(00)<2EE4>Y(6B)<2EED>MAP[00:[00],01:[01],02:[02],03:[03],mmc:(un)]s(0)Z?S?*/
	$AEF5  C8:          iny 			/* A(??)X(00)<2EE4>Y(??)MAP[00:[00],01:[01],02:[02],03:[03],mmc:(un)]s(0)Z?S?*/
+	$AEF6  98:          tya 			/* A(??)X(00)<2EE4>Y(6B)<2EED>MAP[00:[00],01:[01],02:[02],03:[03],mmc:(un)]s(0)Z?S?*/
	$AEF7  9D 07 03:    sta $0307,x			/* A(6B)<2EF6>X(00)<2EE4>Y(6B)<2EED>MAP[00:[00],01:[01],02:[02],03:[03],mmc:(un)]s(0)Z0S0*/
++	$AEFA  8A:          txa 			/* A(??)X(00)<2EE4>Y(6B)<2EED>MAP[00:[00],01:[01],02:[02],03:[03],mmc:(un)]s(0)Z?S0*/
	$AEFB  18:          clc 			/* A(00)<2EFA>X(00)<2EE4>Y(??)MAP[00:[00],01:[01],02:[02],03:[03],mmc:(un)]s(0)Z1S0*/
	$AEFC  69 08:       adc #$08			/* A(??)X(00)<2EE4>Y(??)MAP[00:[00],01:[01],02:[02],03:[03],mmc:(un)]s(0)Z?S?*/
	$AEFE  AA:          tax 			/* A(??)X(??)Y(??)MAP[00:[00],01:[01],02:[02],03:[03],mmc:(un)]s(0)Z?S?*/
	$AEFF  E0 90:       cpx #$90			/* A(??)X(??)Y(??)MAP[00:[00],01:[01],02:[02],03:[03],mmc:(un)]s(0)Z?S?*/
	$AF01  90 E3:       bcc -		; $AEE6			/* A(??)X(??)Y(??)MAP[00:[00],01:[01],02:[02],03:[03],mmc:(un)]s(0)Z?S?*/
	$AF03  60:          rts 			/* A(??)X(??)Y(??)MAP[00:[00],01:[01],02:[02],03:[03],mmc:(un)]s(0)Z?S?*/(barrier)
;------------------------------------------
_loc_2F04
	$AF04  A5 70:       lda $70			/* A(??)X(??)Y(00)<2058>MAP[00:[00],01:[01],02:[02],03:[03],mmc:(un)]s(0)Z?S?*/
	$AF06  10 35:       bpl +		; $AF3D -> rts			/* A(??)X(??)Y(00)<2058>MAP[00:[00],01:[01],02:[02],03:[03],mmc:(un)]s(0)Z?S?*/
	$AF08  A9 50:       lda #$50			/* A(50)<2F08>X(??)Y(00)<2058>MAP[00:[00],01:[01],02:[02],03:[03],mmc:(un)]s(0)Z0S0*/
	$AF0A  8D 0D 03:    sta $030D			/* A(50)<2F08>X(??)Y(00)<2058>MAP[00:[00],01:[01],02:[02],03:[03],mmc:(un)]s(0)Z0S0*/
	$AF0D  8D 15 03:    sta $0315			/* A(50)<2F08>X(??)Y(00)<2058>MAP[00:[00],01:[01],02:[02],03:[03],mmc:(un)]s(0)Z0S0*/
	$AF10  A9 02:       lda #$02			/* A(02)<2F10>X(??)Y(00)<2058>MAP[00:[00],01:[01],02:[02],03:[03],mmc:(un)]s(0)Z0S0*/
	$AF12  8D 0E 03:    sta $030E			/* A(02)<2F10>X(??)Y(00)<2058>MAP[00:[00],01:[01],02:[02],03:[03],mmc:(un)]s(0)Z0S0*/
	$AF15  8D 16 03:    sta $0316			/* A(02)<2F10>X(??)Y(00)<2058>MAP[00:[00],01:[01],02:[02],03:[03],mmc:(un)]s(0)Z0S0*/
	$AF18  A9 C0:       lda #$C0			/* A(C0)<2F18>X(??)Y(00)<2058>MAP[00:[00],01:[01],02:[02],03:[03],mmc:(un)]s(0)Z0S1*/
	$AF1A  85 56:       sta $56			/* A(C0)<2F18>X(??)Y(00)<2058>MAP[00:[00],01:[01],02:[02],03:[03],mmc:(un)]s(0)Z0S1*/
	$AF1C  A9 00:       lda #$00			/* A(00)<2F1C>X(??)Y(00)<2058>MAP[00:[00],01:[01],02:[02],03:[03],mmc:(un)]s(0)Z1S0*/
	$AF1E  85 57:       sta $57			/* A(00)<2F1C>X(??)Y(00)<2058>MAP[00:[00],01:[01],02:[02],03:[03],mmc:(un)]s(0)Z1S0*/
	$AF20  60:          rts 			/* A(00)<2F1C>X(??)Y(00)<2058>MAP[00:[00],01:[01],02:[02],03:[03],mmc:(un)]s(0)Z1S0*/(barrier)
;------------------------------------------
_func_2F21
	$AF21  A0 07:       ldy #$07			/* A(??)X(??)Y(07)<2F21>MAP[00:[00],01:[01],02:[02],03:[03],mmc:(un)]s(0)Z0S0*/
-	$AF23  B9 3E AF:    lda _data_2F3E_indexed,y			/* A$2F3E,y<2F23>X(??)Y(07)<2F21>MAP[00:[00],01:[01],02:[02],03:[03],mmc:(un)]s(0)Z?S?*/
	$AF26  99 18 03:    sta $0318,y			/* A$2F3E,y<2F23>X(??)Y(07)<2F21>MAP[00:[00],01:[01],02:[02],03:[03],mmc:(un)]s(0)Z?S?*/
	$AF29  88:          dey 			/* A(??)X(??)Y(??)MAP[00:[00],01:[01],02:[02],03:[03],mmc:(un)]s(0)Z?S?*/
	$AF2A  10 F7:       bpl -		; $AF23			/* A(??)X(??)Y(??)MAP[00:[00],01:[01],02:[02],03:[03],mmc:(un)]s(0)Z?S?*/
	$AF2C  A5 4D:       lda $4D			/* A(??)X(??)Y(??)MAP[00:[00],01:[01],02:[02],03:[03],mmc:(un)]s(0)Z?S?*/
	$AF2E  8D 1C 03:    sta $031C			/* A(??)X(??)Y(??)MAP[00:[00],01:[01],02:[02],03:[03],mmc:(un)]s(0)Z?S?*/
	$AF31  38:          sec 			/* A(??)X(??)Y(??)MAP[00:[00],01:[01],02:[02],03:[03],mmc:(un)]s(0)Z?S?*/
	$AF32  E9 20:       sbc #$20			/* A(??)X(??)Y(??)MAP[00:[00],01:[01],02:[02],03:[03],mmc:(un)]s(0)Z?S?*/
	$AF34  8D 1A 03:    sta $031A			/* A(??)X(??)Y(??)MAP[00:[00],01:[01],02:[02],03:[03],mmc:(un)]s(0)Z?S?*/
	$AF37  18:          clc 			/* A(??)X(??)Y(??)MAP[00:[00],01:[01],02:[02],03:[03],mmc:(un)]s(0)Z?S?*/
	$AF38  69 40:       adc #$40			/* A(??)X(??)Y(??)MAP[00:[00],01:[01],02:[02],03:[03],mmc:(un)]s(0)Z?S?*/
	$AF3A  8D 1B 03:    sta $031B			/* A(??)X(??)Y(??)MAP[00:[00],01:[01],02:[02],03:[03],mmc:(un)]s(0)Z?S?*/
+	$AF3D  60:          rts 			/* A(??)X(??)Y(??)MAP[00:[00],01:[01],02:[02],03:[03],mmc:(un)]s(0)Z?S?*/(barrier)
;------------------------------------------
_data_2F3E_indexed
	$AF3E               .byte $8F,$41,$10,$C0,$6C,$A8,$00,$39
JumpTableEntry_2F46
	$AF46  A5 4C:       lda $4C			/* A(??)X(un)Y(un)MAP[00:[00],01:[01],02:[02],03:[03],mmc:(un)]s(0)Z?S?*/
	$AF48  29 60:       and #$60			/* A(??)X(un)Y(un)MAP[00:[00],01:[01],02:[02],03:[03],mmc:(un)]s(0)Z?S?*/
	$AF4A  D0 22:       bne ++		; $AF6E			/* A(??)X(un)Y(un)MAP[00:[00],01:[01],02:[02],03:[03],mmc:(un)]s(0)Z?S?*/
	$AF4C  A5 FD:       lda $FD			/* A(??)X(un)Y(un)MAP[00:[00],01:[01],02:[02],03:[03],mmc:(un)]s(0)Z?S?*/
	$AF4E  29 C0:       and #$C0			/* A(??)X(un)Y(un)MAP[00:[00],01:[01],02:[02],03:[03],mmc:(un)]s(0)Z?S?*/
	$AF50  F0 1C:       beq ++		; $AF6E			/* A(??)X(un)Y(un)MAP[00:[00],01:[01],02:[02],03:[03],mmc:(un)]s(0)Z?S?*/
	$AF52  0A:          asl a			/* A(??)X(un)Y(un)MAP[00:[00],01:[01],02:[02],03:[03],mmc:(un)]s(0)Z?S?*/
	$AF53  B0 0E:       bcs +		; $AF63			/* A(??)X(un)Y(un)MAP[00:[00],01:[01],02:[02],03:[03],mmc:(un)]s(0)Z?S?*/
	$AF55  BD 04 03:    lda $0304,x			/* A(??)X(un)Y(un)MAP[00:[00],01:[01],02:[02],03:[03],mmc:(un)]s(0)Z?S?*/
	$AF58  DD 02 03:    cmp $0302,x			/* A(??)X(un)Y(un)MAP[00:[00],01:[01],02:[02],03:[03],mmc:(un)]s(0)Z?S?*/
	$AF5B  90 11:       bcc ++		; $AF6E			/* A(??)X(un)Y(un)MAP[00:[00],01:[01],02:[02],03:[03],mmc:(un)]s(0)Z?S?*/
	$AF5D  DE 04 03:    dec $0304,x			/* A(??)X(un)Y(un)MAP[00:[00],01:[01],02:[02],03:[03],mmc:(un)]s(0)Z?S?*/
	$AF60  4C 6E AF:    jmp ++		; $AF6E			/* A(??)X(un)Y(un)MAP[00:[00],01:[01],02:[02],03:[03],mmc:(un)]s(0)Z?S?*/(barrier)

+	$AF63  BD 04 03:    lda $0304,x			/* A(??)X(un)Y(un)MAP[00:[00],01:[01],02:[02],03:[03],mmc:(un)]s(0)Z?S?*/
	$AF66  DD 03 03:    cmp $0303,x			/* A(??)X(un)Y(un)MAP[00:[00],01:[01],02:[02],03:[03],mmc:(un)]s(0)Z?S?*/
	$AF69  B0 03:       bcs ++		; $AF6E			/* A(??)X(un)Y(un)MAP[00:[00],01:[01],02:[02],03:[03],mmc:(un)]s(0)Z?S?*/
	$AF6B  FE 04 03:    inc $0304,x			/* A(??)X(un)Y(un)MAP[00:[00],01:[01],02:[02],03:[03],mmc:(un)]s(0)Z?S?*/
++	$AF6E  A9 39:       lda #$39			/* A(??)X(un)Y(un)MAP[00:[00],01:[01],02:[02],03:[03],mmc:(un)]s(0)Z?S?*/
	$AF70  85 12:       sta $12			/* A(39)<2F6E>X(un)Y(un)MAP[00:[00],01:[01],02:[02],03:[03],mmc:(un)]s(0)Z0S0*/
	$AF72  A9 01:       lda #$01			/* A(01)<2F72>X(un)Y(un)MAP[00:[00],01:[01],02:[02],03:[03],mmc:(un)]s(0)Z0S0*/
	$AF74  85 13:       sta $13			/* A(01)<2F72>X(un)Y(un)MAP[00:[00],01:[01],02:[02],03:[03],mmc:(un)]s(0)Z0S0*/
	$AF76  60:          rts 			/* A(01)<2F72>X(un)Y(un)MAP[00:[00],01:[01],02:[02],03:[03],mmc:(un)]s(0)Z0S0*/(barrier)
;------------------------------------------
JumpTableEntry_2F77
	$AF77  20 D5 A5:    jsr _func_25D5			/* A(??)X(??)Y(??)MAP[00:(??),01:(??),02:(??),03:(??),mmc:(un)]s(0)Z?S?*/
	$AF7A  20 0A A0:    jsr _func_200A			/* A(??)X(??)Y(??)MAP[00:(??),01:(??),02:(??),03:(??),mmc:(un)]s(0)Z?S?*/
	$AF7D  A5 11:       lda $11			/* A(??)X(??)Y(??)MAP[00:[00],01:[01],02:[02],03:[03],mmc:(un)]s(0)Z?S?*/
	$AF7F  C9 F0:       cmp #$F0			/* A(??)X(??)Y(??)MAP[00:[00],01:[01],02:[02],03:[03],mmc:(un)]s(0)Z?S?*/
	$AF81  90 15:       bcc ++		; $AF98			/* A(??)X(??)Y(??)MAP[00:[00],01:[01],02:[02],03:[03],mmc:(un)]s(0)Z?S?*/
	$AF83  A5 4E:       lda $4E			/* A(??)X(??)Y(??)MAP[00:[00],01:[01],02:[02],03:[03],mmc:(un)]s(0)Z?S?*/
	$AF85  38:          sec 			/* A(??)X(??)Y(??)MAP[00:[00],01:[01],02:[02],03:[03],mmc:(un)]s(0)Z?S?*/
	$AF86  FD 05 03:    sbc $0305,x			/* A(??)X(??)Y(??)MAP[00:[00],01:[01],02:[02],03:[03],mmc:(un)]s(0)Z?S?*/
	$AF89  A5 4F:       lda $4F			/* A(??)X(??)Y(??)MAP[00:[00],01:[01],02:[02],03:[03],mmc:(un)]s(0)Z?S?*/
	$AF8B  FD 06 03:    sbc $0306,x			/* A(??)X(??)Y(??)MAP[00:[00],01:[01],02:[02],03:[03],mmc:(un)]s(0)Z?S?*/
	$AF8E  90 04:       bcc +		; $AF94			/* A(??)X(??)Y(??)MAP[00:[00],01:[01],02:[02],03:[03],mmc:(un)]s(0)Z?S?*/
	$AF90  A9 20:       lda #$20			/* A(20)<2F90>X(??)Y(??)MAP[00:[00],01:[01],02:[02],03:[03],mmc:(un)]s(0)Z0S0*/
	$AF92  D0 0F:       bne +++		; $AFA3			/* A(20)<2F90>X(??)Y(??)MAP[00:[00],01:[01],02:[02],03:[03],mmc:(un)]s(0)Z0S0*/(barrier)

+	$AF94  A9 10:       lda #$10			/* A(??)X(??)Y(??)MAP[00:[00],01:[01],02:[02],03:[03],mmc:(un)]s(0)Z0S0*/
	$AF96  D0 0B:       bne +++		; $AFA3			/* A(10)<2F94>X(??)Y(??)MAP[00:[00],01:[01],02:[02],03:[03],mmc:(un)]s(0)Z0S0*/(barrier)

++	$AF98  A5 EA:       lda $EA			/* A(10)<2F94>X(??)Y(??)MAP[00:[00],01:[01],02:[02],03:[03],mmc:(un)]s(0)Z0S0*/
	$AF9A  29 F0:       and #$F0			/* A(??)X(??)Y(??)MAP[00:[00],01:[01],02:[02],03:[03],mmc:(un)]s(0)Z?S?*/
	$AF9C  D0 05:       bne +++		; $AFA3			/* A(??)X(??)Y(??)MAP[00:[00],01:[01],02:[02],03:[03],mmc:(un)]s(0)Z?S?*/
	$AF9E  BD 01 03:    lda $0301,x			/* A(??)X(??)Y(??)MAP[00:[00],01:[01],02:[02],03:[03],mmc:(un)]s(0)Z?S?*/
	$AFA1  29 F0:       and #$F0			/* A(??)X(??)Y(??)MAP[00:[00],01:[01],02:[02],03:[03],mmc:(un)]s(0)Z?S?*/
+++	$AFA3  05 FE:       ora $FE			/* A(??)X(??)Y(??)MAP[00:[00],01:[01],02:[02],03:[03],mmc:(un)]s(0)Z0S0*/
	$AFA5  9D 01 03:    sta $0301,x			/* A(??)X(??)Y(??)MAP[00:[00],01:[01],02:[02],03:[03],mmc:(un)]s(0)Z?S?*/
	$AFA8  85 15:       sta $15			/* A(??)X(??)Y(??)MAP[00:[00],01:[01],02:[02],03:[03],mmc:(un)]s(0)Z?S?*/
	$AFAA  4C 21 A7:    jmp ----		; $A721			/* A(??)X(??)Y(??)MAP[00:[00],01:[01],02:[02],03:[03],mmc:(un)]s(0)Z?S?*/(barrier)
;------------------------------------------
_func_2FAD
	$AFAD  A5 33:       lda $33			/* A(??)X(??)Y(??)MAP[00:[00],01:[01],02:[02],03:[03],mmc:(un)]s(0)Z?S?*/
	$AFAF  30 05:       bmi +		; $AFB6			/* A(??)X(??)Y(??)MAP[00:[00],01:[01],02:[02],03:[03],mmc:(un)]s(0)Z?S?*/
	$AFB1  A5 FC:       lda $FC			/* A(??)X(??)Y(??)MAP[00:[00],01:[01],02:[02],03:[03],mmc:(un)]s(0)Z?S?*/
	$AFB3  30 01:       bmi +		; $AFB6			/* A(??)X(??)Y(??)MAP[00:[00],01:[01],02:[02],03:[03],mmc:(un)]s(0)Z?S?*/
	$AFB5  60:          rts 			/* A(??)X(??)Y(??)MAP[00:[00],01:[01],02:[02],03:[03],mmc:(un)]s(0)Z?S?*/(barrier)

+	$AFB6  20 30 8C:    jsr _func_0C30			/* A(??)X(??)Y(??)MAP[00:[00],01:[01],02:[02],03:[03],mmc:(un)]s(0)Z?S?*/
	$AFB9  A0 00:       ldy #$00			/* A(??)X(??)Y(00)<2FB9>MAP[00:[00],01:[01],02:[02],03:[03],mmc:(un)]s(0)Z1S0*/
	$AFBB  84 10:       sty $10			/* A(??)X(??)Y(00)<2FB9>MAP[00:[00],01:[01],02:[02],03:[03],mmc:(un)]s(0)Z1S0*/
	$AFBD  88:          dey 			/* A(??)X(??)Y(??)MAP[00:[00],01:[01],02:[02],03:[03],mmc:(un)]s(0)Z?S?*/
	$AFBE  84 11:       sty $11			/* A(??)X(??)Y(??)MAP[00:[00],01:[01],02:[02],03:[03],mmc:(un)]s(0)Z?S?*/
	$AFC0  84 7A:       sty $7A			/* A(??)X(??)Y(??)MAP[00:[00],01:[01],02:[02],03:[03],mmc:(un)]s(0)Z?S?*/
	$AFC2  84 7E:       sty $7E			/* A(??)X(??)Y(??)MAP[00:[00],01:[01],02:[02],03:[03],mmc:(un)]s(0)Z?S?*/
	$AFC4  A0 70:       ldy #$70			/* A(??)X(??)Y(70)<2FC4>MAP[00:[00],01:[01],02:[02],03:[03],mmc:(un)]s(0)Z0S0*/
-	$AFC6  B9 04 03:    lda $0304,y			/* A(??)X(??)Y(70)<2FC4>MAP[00:[00],01:[01],02:[02],03:[03],mmc:(un)]s(0)Z?S?*/
	$AFC9  C5 10:       cmp $10			/* A(??)X(??)Y(70)<2FC4>MAP[00:[00],01:[01],02:[02],03:[03],mmc:(un)]s(0)Z?S?*/
	$AFCB  90 0E:       bcc ++		; $AFDB			/* A(??)X(??)Y(70)<2FC4>MAP[00:[00],01:[01],02:[02],03:[03],mmc:(un)]s(0)Z?S?*/
	$AFCD  D0 05:       bne +		; $AFD4			/* A(??)X(??)Y(70)<2FC4>MAP[00:[00],01:[01],02:[02],03:[03],mmc:(un)]s(0)Z?S?*/
	$AFCF  20 31 B0:    jsr _func_3031			/* A(??)X(??)Y(??)MAP[00:(??),01:(??),02:(??),03:(??),mmc:(un)]s(0)Z?S?*/
	$AFD2  B0 07:       bcs ++		; $AFDB			/* A(??)X(??)Y(70)<2FC4>MAP[00:[00],01:[01],02:[02],03:[03],mmc:(un)]s(0)Z?S?*/
+	$AFD4  84 7A:       sty $7A			/* A(??)X(??)Y(70)<2FC4>MAP[00:[00],01:[01],02:[02],03:[03],mmc:(un)]s(0)Z?S?*/
	$AFD6  B9 04 03:    lda $0304,y			/* A(??)X(??)Y(70)<2FC4>MAP[00:[00],01:[01],02:[02],03:[03],mmc:(un)]s(0)Z?S?*/
	$AFD9  85 10:       sta $10			/* A(??)X(??)Y(70)<2FC4>MAP[00:[00],01:[01],02:[02],03:[03],mmc:(un)]s(0)Z?S?*/
++	$AFDB  B9 04 03:    lda $0304,y			/* A(??)X(??)Y(70)<2FC4>MAP[00:[00],01:[01],02:[02],03:[03],mmc:(un)]s(0)Z?S?*/
	$AFDE  C5 11:       cmp $11			/* A(??)X(??)Y(70)<2FC4>MAP[00:[00],01:[01],02:[02],03:[03],mmc:(un)]s(0)Z?S?*/
	$AFE0  F0 04:       beq +		; $AFE6			/* A(??)X(??)Y(70)<2FC4>MAP[00:[00],01:[01],02:[02],03:[03],mmc:(un)]s(0)Z?S?*/
	$AFE2  B0 0E:       bcs +++		; $AFF2			/* A(??)X(??)Y(70)<2FC4>MAP[00:[00],01:[01],02:[02],03:[03],mmc:(un)]s(0)Z?S?*/
	$AFE4  90 05:       bcc ++		; $AFEB			/* A(??)X(??)Y(70)<2FC4>MAP[00:[00],01:[01],02:[02],03:[03],mmc:(un)]s(0)Z?S?*/
+	$AFE6  20 31 B0:    jsr _func_3031			/* A(??)X(??)Y(70)<2FC4>MAP[00:[00],01:[01],02:[02],03:[03],mmc:(un)]s(0)Z?S?*/
	$AFE9  B0 07:       bcs +++		; $AFF2			/* A(??)X(??)Y(70)<2FC4>MAP[00:[00],01:[01],02:[02],03:[03],mmc:(un)]s(0)Z?S?*/
++	$AFEB  84 7E:       sty $7E			/* A(??)X(??)Y(70)<2FC4>MAP[00:[00],01:[01],02:[02],03:[03],mmc:(un)]s(0)Z?S?*/
	$AFED  B9 04 03:    lda $0304,y			/* A(??)X(??)Y(70)<2FC4>MAP[00:[00],01:[01],02:[02],03:[03],mmc:(un)]s(0)Z?S?*/
	$AFF0  85 11:       sta $11			/* A(??)X(??)Y(70)<2FC4>MAP[00:[00],01:[01],02:[02],03:[03],mmc:(un)]s(0)Z?S?*/
+++	$AFF2  98:          tya 			/* A(??)X(??)Y(70)<2FC4>MAP[00:[00],01:[01],02:[02],03:[03],mmc:(un)]s(0)Z?S?*/
	$AFF3  18:          clc 			/* A(70)<2FF2>X(??)Y(70)<2FC4>MAP[00:[00],01:[01],02:[02],03:[03],mmc:(un)]s(0)Z0S0*/
	$AFF4  69 08:       adc #$08			/* A(??)X(??)Y(70)<2FC4>MAP[00:[00],01:[01],02:[02],03:[03],mmc:(un)]s(0)Z?S?*/
	$AFF6  A8:          tay 			/* A(??)X(??)Y(??)MAP[00:[00],01:[01],02:[02],03:[03],mmc:(un)]s(0)Z?S?*/
	$AFF7  C9 90:       cmp #$90			/* A(??)X(??)Y(??)MAP[00:[00],01:[01],02:[02],03:[03],mmc:(un)]s(0)Z?S?*/
	$AFF9  90 CB:       bcc -		; $AFC6			/* A(??)X(??)Y(??)MAP[00:[00],01:[01],02:[02],03:[03],mmc:(un)]s(0)Z?S?*/
	$AFFB  A0 0A:       ldy #$0A			/* A(??)X(??)Y(0A)<2FFB>MAP[00:[00],01:[01],02:[02],03:[03],mmc:(un)]s(0)Z0S0*/
	$AFFD  8C 01 07:    sty $0701			/* A(??)X(??)Y(0A)<2FFB>MAP[00:[00],01:[01],02:[02],03:[03],mmc:(un)]s(0)Z0S0*/
	$B000  C8:          iny 			/* A(??)X(??)Y(??)MAP[00:[00],01:[01],02:[02],03:[03],mmc:(un)]s(0)Z?S?*/
	$B001  8C 05 07:    sty $0705			/* A(??)X(??)Y(??)MAP[00:[00],01:[01],02:[02],03:[03],mmc:(un)]s(0)Z?S?*/
	$B004  A9 01:       lda #$01			/* A(01)<3004>X(??)Y(??)MAP[00:[00],01:[01],02:[02],03:[03],mmc:(un)]s(0)Z0S0*/
	$B006  8D 02 07:    sta $0702			/* A(01)<3004>X(??)Y(??)MAP[00:[00],01:[01],02:[02],03:[03],mmc:(un)]s(0)Z0S0*/
	$B009  8D 06 07:    sta $0706			/* A(01)<3004>X(??)Y(??)MAP[00:[00],01:[01],02:[02],03:[03],mmc:(un)]s(0)Z0S0*/
	$B00C  A5 7A:       lda $7A			/* A(??)X(??)Y(??)MAP[00:[00],01:[01],02:[02],03:[03],mmc:(un)]s(0)Z?S?*/
	$B00E  85 58:       sta $58			/* A(??)X(??)Y(??)MAP[00:[00],01:[01],02:[02],03:[03],mmc:(un)]s(0)Z?S?*/
	$B010  20 0A A0:    jsr _func_200A			/* A(??)X(??)Y(??)MAP[00:(??),01:(??),02:(??),03:(??),mmc:(un)]s(0)Z?S?*/
	$B013  8D 03 07:    sta $0703			/* A(??)X(??)Y(??)MAP[00:[00],01:[01],02:[02],03:[03],mmc:(un)]s(0)Z?S?*/
	$B016  A5 11:       lda $11			/* A(??)X(??)Y(??)MAP[00:[00],01:[01],02:[02],03:[03],mmc:(un)]s(0)Z?S?*/
	$B018  38:          sec 			/* A(??)X(??)Y(??)MAP[00:[00],01:[01],02:[02],03:[03],mmc:(un)]s(0)Z?S?*/
	$B019  E9 10:       sbc #$10			/* A(??)X(??)Y(??)MAP[00:[00],01:[01],02:[02],03:[03],mmc:(un)]s(0)Z?S?*/
	$B01B  8D 00 07:    sta $0700			/* A(??)X(??)Y(??)MAP[00:[00],01:[01],02:[02],03:[03],mmc:(un)]s(0)Z?S?*/
	$B01E  A5 7E:       lda $7E			/* A(??)X(??)Y(??)MAP[00:[00],01:[01],02:[02],03:[03],mmc:(un)]s(0)Z?S?*/
	$B020  85 58:       sta $58			/* A(??)X(??)Y(??)MAP[00:[00],01:[01],02:[02],03:[03],mmc:(un)]s(0)Z?S?*/
	$B022  20 0A A0:    jsr _func_200A			/* A(??)X(??)Y(??)MAP[00:(??),01:(??),02:(??),03:(??),mmc:(un)]s(0)Z?S?*/
	$B025  8D 07 07:    sta $0707			/* A(??)X(??)Y(??)MAP[00:[00],01:[01],02:[02],03:[03],mmc:(un)]s(0)Z?S?*/
	$B028  A5 11:       lda $11			/* A(??)X(??)Y(??)MAP[00:[00],01:[01],02:[02],03:[03],mmc:(un)]s(0)Z?S?*/
	$B02A  38:          sec 			/* A(??)X(??)Y(??)MAP[00:[00],01:[01],02:[02],03:[03],mmc:(un)]s(0)Z?S?*/
	$B02B  E9 10:       sbc #$10			/* A(??)X(??)Y(??)MAP[00:[00],01:[01],02:[02],03:[03],mmc:(un)]s(0)Z?S?*/
	$B02D  8D 04 07:    sta $0704			/* A(??)X(??)Y(??)MAP[00:[00],01:[01],02:[02],03:[03],mmc:(un)]s(0)Z?S?*/
	$B030  60:          rts 			/* A(??)X(??)Y(??)MAP[00:[00],01:[01],02:[02],03:[03],mmc:(un)]s(0)Z?S?*/(barrier)
;------------------------------------------
_func_3031
	$B031  B9 05 03:    lda $0305,y			/* A(??)X(??)Y(70)<2FC4>MAP[00:[00],01:[01],02:[02],03:[03],mmc:(un)]s(0)Z?S?*/
	$B034  38:          sec 			/* A(??)X(??)Y(70)<2FC4>MAP[00:[00],01:[01],02:[02],03:[03],mmc:(un)]s(0)Z?S?*/
	$B035  FD 05 03:    sbc $0305,x			/* A(??)X(??)Y(70)<2FC4>MAP[00:[00],01:[01],02:[02],03:[03],mmc:(un)]s(0)Z?S?*/
	$B038  B9 06 03:    lda $0306,y			/* A(??)X(??)Y(70)<2FC4>MAP[00:[00],01:[01],02:[02],03:[03],mmc:(un)]s(0)Z?S?*/
	$B03B  FD 06 03:    sbc $0306,x			/* A(??)X(??)Y(70)<2FC4>MAP[00:[00],01:[01],02:[02],03:[03],mmc:(un)]s(0)Z?S?*/
-	$B03E  60:          rts 			/* A(??)X(??)Y(??)MAP[00:[00],01:[01],02:[02],03:[03],mmc:(un)]s(0)Z?S?*/(barrier)
;------------------------------------------
_func_303F
	$B03F  A5 33:       lda $33			/* A(00)<1D5>X(??)Y(??)MAP[00:[00],01:[01],02:[02],03:[03],mmc:(un)]s(0)Z?S?*/
	$B041  30 04:       bmi +		; $B047			/* A(??)X(??)Y(??)MAP[00:[00],01:[01],02:[02],03:[03],mmc:(un)]s(0)Z?S?*/
	$B043  A5 FC:       lda $FC			/* A(??)X(??)Y(??)MAP[00:[00],01:[01],02:[02],03:[03],mmc:(un)]s(0)Z?S?*/
	$B045  10 F7:       bpl -		; $B03E -> rts			/* A(??)X(??)Y(??)MAP[00:[00],01:[01],02:[02],03:[03],mmc:(un)]s(0)Z?S?*/
+	$B047  A9 00:       lda #$00			/* A(00)<3047>X(??)Y(??)MAP[00:[00],01:[01],02:[02],03:[03],mmc:(un)]s(0)Z?S?*/
	$B049  85 21:       sta $21			/* A(00)<3047>X(??)Y(??)MAP[00:[00],01:[01],02:[02],03:[03],mmc:(un)]s(0)Z1S0*/
	$B04B  20 AD 89:    jsr _func_09AD			/* A(??)X(??)Y(??)MAP[00:(??),01:(??),02:(??),03:(??),mmc:(un)]s(0)Z?S?*/
-	$B04E  20 4A 8F:    jsr _func_0F4A			/* A(FF)<3062>X(??)Y(??)MAP[00:[00],01:[01],02:[02],03:[03],mmc:(un)]s(0)Z0S1*/
	$B051  A5 EA:       lda $EA			/* A(??)X(??)Y(??)MAP[00:[00],01:[01],02:[02],03:[03],mmc:(un)]s(0)Z?S?*/
	$B053  A8:          tay 			/* A(??)X(??)Y(??)MAP[00:[00],01:[01],02:[02],03:[03],mmc:(un)]s(0)Z?S?*/
	$B054  29 03:       and #$03			/* A(??)X(??)Y(??)MAP[00:[00],01:[01],02:[02],03:[03],mmc:(un)]s(0)Z?S?*/
	$B056  D0 22:       bne +++		; $B07A			/* A(??)X(??)Y(??)MAP[00:[00],01:[01],02:[02],03:[03],mmc:(un)]s(0)Z?S?*/
	$B058  A5 21:       lda $21			/* A(??)X(??)Y(??)MAP[00:[00],01:[01],02:[02],03:[03],mmc:(un)]s(0)Z?S?*/
	$B05A  C9 FC:       cmp #$FC			/* A(??)X(??)Y(??)MAP[00:[00],01:[01],02:[02],03:[03],mmc:(un)]s(0)Z?S?*/
	$B05C  B0 19:       bcs ++		; $B077			/* A(??)X(??)Y(??)MAP[00:[00],01:[01],02:[02],03:[03],mmc:(un)]s(0)Z?S?*/
	$B05E  29 20:       and #$20			/* A(??)X(??)Y(??)MAP[00:[00],01:[01],02:[02],03:[03],mmc:(un)]s(0)Z?S?*/
	$B060  F0 0A:       beq +		; $B06C			/* A(??)X(??)Y(??)MAP[00:[00],01:[01],02:[02],03:[03],mmc:(un)]s(0)Z?S?*/
	$B062  A9 FF:       lda #$FF			/* A(FF)<3062>X(??)Y(??)MAP[00:[00],01:[01],02:[02],03:[03],mmc:(un)]s(0)Z0S1*/
	$B064  8D 01 07:    sta $0701			/* A(FF)<3062>X(??)Y(??)MAP[00:[00],01:[01],02:[02],03:[03],mmc:(un)]s(0)Z0S1*/
	$B067  8D 05 07:    sta $0705			/* A(FF)<3062>X(??)Y(??)MAP[00:[00],01:[01],02:[02],03:[03],mmc:(un)]s(0)Z0S1*/
	$B06A  D0 E2:       bne -		; $B04E			/* A(FF)<3062>X(??)Y(??)MAP[00:[00],01:[01],02:[02],03:[03],mmc:(un)]s(0)Z0S1*/(barrier)

+	$B06C  A0 0A:       ldy #$0A			/* A(FF)<3062>X(??)Y(??)MAP[00:[00],01:[01],02:[02],03:[03],mmc:(un)]s(0)Z0S?*/
	$B06E  8C 01 07:    sty $0701			/* A(??)X(??)Y(0A)<306C>MAP[00:[00],01:[01],02:[02],03:[03],mmc:(un)]s(0)Z0S0*/
	$B071  C8:          iny 			/* A(??)X(??)Y(??)MAP[00:[00],01:[01],02:[02],03:[03],mmc:(un)]s(0)Z?S?*/
	$B072  8C 05 07:    sty $0705			/* A(??)X(??)Y(??)MAP[00:[00],01:[01],02:[02],03:[03],mmc:(un)]s(0)Z?S?*/
	$B075  D0 D7:       bne -		; $B04E			/* A(??)X(??)Y(??)MAP[00:[00],01:[01],02:[02],03:[03],mmc:(un)]s(0)Z?S?*/
++	$B077  A5 0F:       lda $0F			/* A(??)X(??)Y(??)MAP[00:[00],01:[01],02:[02],03:[03],mmc:(un)]s(0)Z?S?*/
	$B079  A8:          tay 			/* A(??)X(??)Y(??)MAP[00:[00],01:[01],02:[02],03:[03],mmc:(un)]s(0)Z?S?*/
+++	$B07A  20 B7 89:    jsr _func_09B7			/* A(??)X(??)Y(??)MAP[00:[00],01:[01],02:[02],03:[03],mmc:(un)]s(0)Z?S?*/
	$B07D  A2 00:       ldx #$00			/* A(??)X(00)<307D>Y(??)MAP[00:[00],01:[01],02:[02],03:[03],mmc:(un)]s(0)Z1S0*/
	$B07F  98:          tya 			/* A(??)X(00)<307D>Y(??)MAP[00:[00],01:[01],02:[02],03:[03],mmc:(un)]s(0)Z1S0*/
	$B080  4A:          lsr a			/* A(??)X(00)<307D>Y(??)MAP[00:[00],01:[01],02:[02],03:[03],mmc:(un)]s(0)Z1S0*/
	$B081  B0 02:       bcs +		; $B085			/* A(??)X(00)<307D>Y(??)MAP[00:[00],01:[01],02:[02],03:[03],mmc:(un)]s(0)Z1S0*/
	$B083  A2 04:       ldx #$04			/* A(??)X(04)<3083>Y(??)MAP[00:[00],01:[01],02:[02],03:[03],mmc:(un)]s(0)Z0S0*/
+	$B085  B4 7A:       ldy $7A,x			/* A(??)X(??)Y(??)MAP[00:[00],01:[01],02:[02],03:[03],mmc:(un)]s(0)Z0S0*/
	$B087  84 79:       sty $79			/* A(??)X(00)<307D>Y(??)MAP[00:[00],01:[01],02:[02],03:[03],mmc:(un)]s(0)Z?S?*/
	$B089  A9 8D:       lda #$8D			/* A(8D)<3089>X(00)<307D>Y(??)MAP[00:[00],01:[01],02:[02],03:[03],mmc:(un)]s(0)Z0S1*/
	$B08B  99 00 03:    sta $0300,y			/* A(8D)<3089>X(00)<307D>Y(??)MAP[00:[00],01:[01],02:[02],03:[03],mmc:(un)]s(0)Z0S1*/
	$B08E  A9 F0:       lda #$F0			/* A(F0)<308E>X(00)<307D>Y(??)MAP[00:[00],01:[01],02:[02],03:[03],mmc:(un)]s(0)Z0S1*/
	$B090  8D 00 07:    sta $0700			/* A(F0)<308E>X(00)<307D>Y(??)MAP[00:[00],01:[01],02:[02],03:[03],mmc:(un)]s(0)Z0S1*/
	$B093  8D 04 07:    sta $0704			/* A(F0)<308E>X(00)<307D>Y(??)MAP[00:[00],01:[01],02:[02],03:[03],mmc:(un)]s(0)Z0S1*/
	$B096  60:          rts 			/* A(F0)<308E>X(00)<307D>Y(??)MAP[00:[00],01:[01],02:[02],03:[03],mmc:(un)]s(0)Z0S1*/(barrier)
;------------------------------------------
_func_3097
	$B097  A5 33:       lda $33			/* A(??)X(??)Y(??)MAP[00:[00],01:[01],02:[02],03:[03],mmc:(un)]s(0)Z?S?*/
	$B099  30 0E:       bmi +		; $B0A9			/* A(??)X(??)Y(??)MAP[00:[00],01:[01],02:[02],03:[03],mmc:(un)]s(0)Z?S?*/
	$B09B  A5 FC:       lda $FC			/* A(??)X(??)Y(??)MAP[00:[00],01:[01],02:[02],03:[03],mmc:(un)]s(0)Z?S?*/
	$B09D  30 0A:       bmi +		; $B0A9			/* A(??)X(??)Y(??)MAP[00:[00],01:[01],02:[02],03:[03],mmc:(un)]s(0)Z?S?*/
	$B09F  A5 2D:       lda $2D			/* A(??)X(??)Y(??)MAP[00:[00],01:[01],02:[02],03:[03],mmc:(un)]s(0)Z?S?*/
	$B0A1  C9 02:       cmp #$02			/* A(??)X(??)Y(??)MAP[00:[00],01:[01],02:[02],03:[03],mmc:(un)]s(0)Z?S?*/
	$B0A3  90 04:       bcc +		; $B0A9			/* A(??)X(??)Y(??)MAP[00:[00],01:[01],02:[02],03:[03],mmc:(un)]s(0)Z?S?*/
	$B0A5  B9 26 B1:    lda _data_3126_indexed,y			/* A$3126,y<30A5>X(??)Y(??)MAP[00:[00],01:[01],02:[02],03:[03],mmc:(un)]s(0)Z?S?*/
	$B0A8  60:          rts 			/* A$3126,y<30A5>X(??)Y(??)MAP[00:[00],01:[01],02:[02],03:[03],mmc:(un)]s(0)Z?S?*/(barrier)

+	$B0A9  B9 98 A2:    lda _data_2298_indexed,y			/* A$2298,y<30A9>X(??)Y(??)MAP[00:[00],01:[01],02:[02],03:[03],mmc:(un)]s(0)Z?S?*/
	$B0AC  60:          rts 			/* A$2298,y<30A9>X(??)Y(??)MAP[00:[00],01:[01],02:[02],03:[03],mmc:(un)]s(0)Z?S?*/(barrier)
;------------------------------------------
_func_30AD
	$B0AD  A5 F4:       lda $F4			/* A(??)X(??)Y(??)MAP[00:[00],01:[01],02:[02],03:[03],mmc:(un)]s(0)Z?S?*/
	$B0AF  C9 03:       cmp #$03			/* A(??)X(??)Y(??)MAP[00:[00],01:[01],02:[02],03:[03],mmc:(un)]s(0)Z?S?*/
	$B0B1  F0 72:       beq ++		; $B125 -> rts			/* A(??)X(??)Y(??)MAP[00:[00],01:[01],02:[02],03:[03],mmc:(un)]s(0)Z?S?*/
	$B0B3  BD 01 03:    lda $0301,x			/* A(??)X(??)Y(??)MAP[00:[00],01:[01],02:[02],03:[03],mmc:(un)]s(0)Z?S?*/
	$B0B6  0A:          asl a			/* A(??)X(??)Y(??)MAP[00:[00],01:[01],02:[02],03:[03],mmc:(un)]s(0)Z?S?*/
	$B0B7  0A:          asl a			/* A(??)X(??)Y(??)MAP[00:[00],01:[01],02:[02],03:[03],mmc:(un)]s(0)Z?S?*/
	$B0B8  0A:          asl a			/* A(??)X(??)Y(??)MAP[00:[00],01:[01],02:[02],03:[03],mmc:(un)]s(0)Z?S?*/
	$B0B9  0A:          asl a			/* A(??)X(??)Y(??)MAP[00:[00],01:[01],02:[02],03:[03],mmc:(un)]s(0)Z?S?*/
	$B0BA  85 10:       sta $10			/* A(??)X(??)Y(??)MAP[00:[00],01:[01],02:[02],03:[03],mmc:(un)]s(0)Z?S?*/
	$B0BC  C9 F0:       cmp #$F0			/* A(??)X(??)Y(??)MAP[00:[00],01:[01],02:[02],03:[03],mmc:(un)]s(0)Z?S?*/
	$B0BE  D0 0A:       bne +		; $B0CA			/* A(??)X(??)Y(??)MAP[00:[00],01:[01],02:[02],03:[03],mmc:(un)]s(0)Z?S?*/
	$B0C0  A9 00:       lda #$00			/* A(00)<30C0>X(??)Y(??)MAP[00:[00],01:[01],02:[02],03:[03],mmc:(un)]s(0)Z1S0*/
	$B0C2  85 10:       sta $10			/* A(00)<30C0>X(??)Y(??)MAP[00:[00],01:[01],02:[02],03:[03],mmc:(un)]s(0)Z1S0*/
	$B0C4  A5 1D:       lda $1D			/* A(??)X(??)Y(??)MAP[00:[00],01:[01],02:[02],03:[03],mmc:(un)]s(0)Z?S?*/
	$B0C6  29 0F:       and #$0F			/* A(??)X(??)Y(??)MAP[00:[00],01:[01],02:[02],03:[03],mmc:(un)]s(0)Z?S?*/
	$B0C8  D0 5B:       bne ++		; $B125 -> rts			/* A(??)X(??)Y(??)MAP[00:[00],01:[01],02:[02],03:[03],mmc:(un)]s(0)Z?S?*/
+	$B0CA  A5 1D:       lda $1D			/* A(??)X(??)Y(??)MAP[00:[00],01:[01],02:[02],03:[03],mmc:(un)]s(0)Z?S?*/
	$B0CC  29 0F:       and #$0F			/* A(??)X(??)Y(??)MAP[00:[00],01:[01],02:[02],03:[03],mmc:(un)]s(0)Z?S?*/
	$B0CE  05 10:       ora $10			/* A(??)X(??)Y(??)MAP[00:[00],01:[01],02:[02],03:[03],mmc:(un)]s(0)Z?S?*/
	$B0D0  A8:          tay 			/* A(??)X(??)Y(??)MAP[00:[00],01:[01],02:[02],03:[03],mmc:(un)]s(0)Z?S?*/
	$B0D1  20 97 B0:    jsr _func_3097			/* A(??)X(??)Y(??)MAP[00:(??),01:(??),02:(??),03:(??),mmc:(un)]s(0)Z?S?*/
	$B0D4  F0 4F:       beq ++		; $B125 -> rts			/* A(??)X(??)Y(??)MAP[00:[00],01:[01],02:[02],03:[03],mmc:(un)]s(0)Z?S?*/
	$B0D6  BD 01 03:    lda $0301,x			/* A(??)X(??)Y(??)MAP[00:[00],01:[01],02:[02],03:[03],mmc:(un)]s(0)Z?S?*/
	$B0D9  85 10:       sta $10			/* A(??)X(??)Y(??)MAP[00:[00],01:[01],02:[02],03:[03],mmc:(un)]s(0)Z?S?*/
	$B0DB  06 10:       asl $10			/* A(??)X(??)Y(??)MAP[00:[00],01:[01],02:[02],03:[03],mmc:(un)]s(0)Z?S?*/
	$B0DD  90 0C:       bcc +		; $B0EB			/* A(??)X(??)Y(??)MAP[00:[00],01:[01],02:[02],03:[03],mmc:(un)]s(0)Z?S?*/
	$B0DF  BD 04 03:    lda $0304,x			/* A(??)X(??)Y(??)MAP[00:[00],01:[01],02:[02],03:[03],mmc:(un)]s(0)Z?S?*/
	$B0E2  C9 C6:       cmp #$C6			/* A(??)X(??)Y(??)MAP[00:[00],01:[01],02:[02],03:[03],mmc:(un)]s(0)Z?S?*/
	$B0E4  B0 05:       bcs +		; $B0EB			/* A(??)X(??)Y(??)MAP[00:[00],01:[01],02:[02],03:[03],mmc:(un)]s(0)Z?S?*/
	$B0E6  69 01:       adc #$01			/* A(??)X(??)Y(??)MAP[00:[00],01:[01],02:[02],03:[03],mmc:(un)]s(0)Z?S?*/
	$B0E8  9D 04 03:    sta $0304,x			/* A(??)X(??)Y(??)MAP[00:[00],01:[01],02:[02],03:[03],mmc:(un)]s(0)Z?S?*/
+	$B0EB  06 10:       asl $10			/* A(??)X(??)Y(??)MAP[00:[00],01:[01],02:[02],03:[03],mmc:(un)]s(0)Z?S?*/
	$B0ED  90 0C:       bcc +		; $B0FB			/* A(??)X(??)Y(??)MAP[00:[00],01:[01],02:[02],03:[03],mmc:(un)]s(0)Z?S?*/
	$B0EF  BD 04 03:    lda $0304,x			/* A(??)X(??)Y(??)MAP[00:[00],01:[01],02:[02],03:[03],mmc:(un)]s(0)Z?S?*/
	$B0F2  C9 13:       cmp #$13			/* A(??)X(??)Y(??)MAP[00:[00],01:[01],02:[02],03:[03],mmc:(un)]s(0)Z?S?*/
	$B0F4  90 05:       bcc +		; $B0FB			/* A(??)X(??)Y(??)MAP[00:[00],01:[01],02:[02],03:[03],mmc:(un)]s(0)Z?S?*/
	$B0F6  E9 01:       sbc #$01			/* A(??)X(??)Y(??)MAP[00:[00],01:[01],02:[02],03:[03],mmc:(un)]s(0)Z?S?*/
	$B0F8  9D 04 03:    sta $0304,x			/* A(??)X(??)Y(??)MAP[00:[00],01:[01],02:[02],03:[03],mmc:(un)]s(0)Z?S?*/
+	$B0FB  06 10:       asl $10			/* A(??)X(??)Y(??)MAP[00:[00],01:[01],02:[02],03:[03],mmc:(un)]s(0)Z?S?*/
	$B0FD  90 11:       bcc +		; $B110			/* A(??)X(??)Y(??)MAP[00:[00],01:[01],02:[02],03:[03],mmc:(un)]s(0)Z?S?*/
	$B0FF  BD 05 03:    lda $0305,x			/* A(??)X(??)Y(??)MAP[00:[00],01:[01],02:[02],03:[03],mmc:(un)]s(0)Z?S?*/
	$B102  18:          clc 			/* A(??)X(??)Y(??)MAP[00:[00],01:[01],02:[02],03:[03],mmc:(un)]s(0)Z?S?*/
	$B103  69 01:       adc #$01			/* A(??)X(??)Y(??)MAP[00:[00],01:[01],02:[02],03:[03],mmc:(un)]s(0)Z?S?*/
	$B105  9D 05 03:    sta $0305,x			/* A(??)X(??)Y(??)MAP[00:[00],01:[01],02:[02],03:[03],mmc:(un)]s(0)Z?S?*/
	$B108  BD 06 03:    lda $0306,x			/* A(??)X(??)Y(??)MAP[00:[00],01:[01],02:[02],03:[03],mmc:(un)]s(0)Z?S?*/
	$B10B  69 00:       adc #$00			/* A(??)X(??)Y(??)MAP[00:[00],01:[01],02:[02],03:[03],mmc:(un)]s(0)Z?S?*/
	$B10D  9D 06 03:    sta $0306,x			/* A(??)X(??)Y(??)MAP[00:[00],01:[01],02:[02],03:[03],mmc:(un)]s(0)Z?S?*/
+	$B110  06 10:       asl $10			/* A(??)X(??)Y(??)MAP[00:[00],01:[01],02:[02],03:[03],mmc:(un)]s(0)Z?S?*/
	$B112  90 11:       bcc ++		; $B125 -> rts			/* A(??)X(??)Y(??)MAP[00:[00],01:[01],02:[02],03:[03],mmc:(un)]s(0)Z?S?*/
	$B114  BD 05 03:    lda $0305,x			/* A(??)X(??)Y(??)MAP[00:[00],01:[01],02:[02],03:[03],mmc:(un)]s(0)Z?S?*/
	$B117  38:          sec 			/* A(??)X(??)Y(??)MAP[00:[00],01:[01],02:[02],03:[03],mmc:(un)]s(0)Z?S?*/
	$B118  E9 01:       sbc #$01			/* A(??)X(??)Y(??)MAP[00:[00],01:[01],02:[02],03:[03],mmc:(un)]s(0)Z?S?*/
	$B11A  9D 05 03:    sta $0305,x			/* A(??)X(??)Y(??)MAP[00:[00],01:[01],02:[02],03:[03],mmc:(un)]s(0)Z?S?*/
	$B11D  BD 06 03:    lda $0306,x			/* A(??)X(??)Y(??)MAP[00:[00],01:[01],02:[02],03:[03],mmc:(un)]s(0)Z?S?*/
	$B120  E9 00:       sbc #$00			/* A(??)X(??)Y(??)MAP[00:[00],01:[01],02:[02],03:[03],mmc:(un)]s(0)Z?S?*/
	$B122  9D 06 03:    sta $0306,x			/* A(??)X(??)Y(??)MAP[00:[00],01:[01],02:[02],03:[03],mmc:(un)]s(0)Z?S?*/
++	$B125  60:          rts 			/* A(??)X(??)Y(??)MAP[00:[00],01:[01],02:[02],03:[03],mmc:(un)]s(0)Z?S?*/(barrier)
;------------------------------------------
_data_3126_indexed
	$B126               .byte $FF,$FF,$FF,$00,$FF,$FF,$FF,$00,$FF,$FF,$FF,$00,$FF,$FF,$FF,$00
	$B136               .byte $FF,$00,$FF,$00,$FF,$00,$FF,$00,$FF,$00,$FF,$00,$00,$FF,$00,$00
	$B146               .byte $FF,$00,$FF,$00,$00,$FF,$00,$00,$FF,$00,$FF,$00,$00,$FF,$00,$00
	$B156               .byte $FF,$00,$00,$00,$FF,$00,$00,$FF,$00,$00,$FF,$00,$00,$FF,$00,$00
	$B166               .byte $FF,$00,$00,$FF,$00,$00,$FF,$00,$00,$FF,$00,$00,$FF,$00,$00,$00
	$B176               .byte $FF,$00,$00,$00,$FF,$00,$00,$00,$FF,$00,$00,$00,$FF,$00,$00,$00
	$B186               .byte $FF,$00,$00,$00,$00,$FF,$00,$00,$00,$00,$FF,$00,$00,$00,$00,$00
	$B196               .byte $FF,$00,$00,$00,$00,$00,$00,$00,$FF,$00,$00,$00,$00,$00,$00,$00
_data_31A6_indexed
	$B1A6               .byte $7D,$7E,$7F,$7E,$72,$73,$74,$73,$75,$76,$77,$76,$78,$79,$7A,$79
	$B1B6               .byte $01,$02,$01,$02,$03,$04,$05,$04,$06,$07,$08,$07,$09,$0A,$0B,$0A
	$B1C6               .byte $0C,$0D,$0C,$0D,$0E,$0F,$10,$0F,$11,$12,$13,$12,$14,$15,$16,$15
	$B1D6               .byte $01,$02,$01,$02,$17,$18,$17,$18,$19,$1A,$19,$1A,$1B,$1C,$1B,$1C
	$B1E6               .byte $1D,$1E,$1D,$1E,$1F,$20,$1F,$20,$21,$22,$21,$22,$23,$24,$25,$24
	$B1F6               .byte $26,$27,$28,$27,$29,$2A,$29,$2A,$2B,$2C,$2D,$2C,$2E,$2F,$30,$2F
	$B206               .byte $F8,$FF,$00,$FC,$00,$FF,$00,$FC,$F8,$32,$00,$FC,$00,$33,$00,$FC
	$B216               .byte $F8,$32,$40,$FC,$00,$33,$40,$FC,$F8,$C6,$40,$FC,$00,$42,$40,$FC
	$B226               .byte $F8,$C7,$40,$FC,$00,$43,$40,$FC,$F8,$C8,$40,$FC,$00,$44,$40,$FC
	$B236               .byte $F8,$79,$00,$FC,$00,$7C,$00,$FC,$F8,$7A,$00,$FC,$00,$7D,$00,$FC
	$B246               .byte $F8,$7B,$00,$FC,$00,$7E,$00,$FC,$F8,$49,$00,$FC,$00,$4A,$00,$FC
	$B256               .byte $F8,$4B,$00,$FC,$00,$4C,$00,$FC,$F8,$4D,$00,$FC,$00,$4E,$00,$FC
	$B266               .byte $F8,$C3,$00,$FC,$00,$31,$00,$FC,$F8,$C3,$40,$FC,$00,$31,$40,$FC
	$B276               .byte $F8,$49,$40,$FC,$00,$4A,$40,$FC,$F8,$4B,$40,$FC,$00,$4C,$40,$FC
	$B286               .byte $F8,$4D,$40,$FC,$00,$4E,$40,$FC,$F8,$79,$40,$FC,$00,$7C,$40,$FC
	$B296               .byte $F8,$7A,$40,$FC,$00,$7D,$40,$FC,$F8,$7B,$40,$FC,$00,$7E,$40,$FC
	$B2A6               .byte $F8,$C6,$00,$FC,$00,$42,$00,$FC,$F8,$C7,$00,$FC,$00,$43,$00,$FC
	$B2B6               .byte $F8,$C8,$00,$FC,$00,$44,$00,$FC,$F8,$34,$00,$FD,$00,$35,$00,$FB
	$B2C6               .byte $F8,$34,$00,$FD,$00,$36,$00,$FC,$F8,$4F,$00,$FD,$00,$50,$00,$FC
	$B2D6               .byte $F8,$4F,$00,$FD,$00,$51,$00,$FB,$F8,$4F,$40,$FB,$00,$50,$40,$FC
	$B2E6               .byte $F8,$4F,$40,$FB,$00,$51,$40,$FC,$F8,$34,$40,$FB,$00,$35,$40,$FD
	$B2F6               .byte $F8,$34,$40,$FB,$00,$36,$40,$FC,$F8,$52,$00,$FC,$00,$33,$00,$FC
	$B306               .byte $F8,$53,$00,$FC,$00,$33,$40,$FC,$F8,$52,$40,$FC,$00,$33,$00,$FC
	$B316               .byte $F8,$53,$40,$FC,$00,$33,$40,$FC,$F8,$41,$40,$FC,$00,$42,$40,$FC
	$B326               .byte $F8,$41,$40,$FC,$00,$43,$40,$FC,$F8,$41,$40,$FC,$00,$44,$40,$FC
	$B336               .byte $F8,$56,$00,$FC,$00,$4A,$00,$FC,$F8,$56,$00,$FC,$00,$4C,$00,$FC
	$B346               .byte $F8,$57,$00,$FC,$00,$4E,$00,$FC,$F8,$58,$00,$FC,$00,$31,$00,$FC
	$B356               .byte $F8,$59,$00,$FC,$00,$31,$40,$FC,$F8,$56,$40,$FC,$00,$4A,$40,$FC
	$B366               .byte $F8,$56,$40,$FC,$00,$4C,$40,$FC,$F8,$57,$40,$FC,$00,$4E,$40,$FC
	$B376               .byte $F8,$41,$00,$FC,$00,$42,$00,$FC,$F8,$41,$00,$FC,$00,$43,$00,$FC
	$B386               .byte $F8,$41,$00,$FC,$00,$44,$00,$FC,$F8,$6A,$00,$FD,$00,$6B,$00,$FD
	$B396               .byte $F8,$6E,$40,$FC,$00,$6F,$40,$FB,$F8,$6C,$40,$FD,$00,$6D,$40,$FC
	$B3A6               .byte $F8,$72,$40,$FC,$00,$73,$40,$FC,$F8,$70,$00,$FC,$00,$71,$00,$FC
	$B3B6               .byte $F8,$72,$00,$FC,$00,$73,$00,$FC,$F8,$6C,$00,$FB,$00,$6D,$00,$FC
	$B3C6               .byte $F8,$6E,$00,$FC,$00,$6F,$00,$FD,$FC,$BC,$00,$FC,$80,$FF,$00,$FC
	$B3D6               .byte $F8,$60,$00,$FC,$00,$61,$00,$FC,$F8,$66,$40,$FC,$00,$67,$40,$FC
	$B3E6               .byte $F8,$68,$40,$FC,$00,$69,$40,$FC,$F8,$64,$00,$FC,$00,$65,$00,$FC
	$B3F6               .byte $F8,$62,$00,$FC,$00,$63,$00,$FC,$F8,$64,$40,$FC,$00,$65,$40,$FC
	$B406               .byte $F8,$68,$00,$FC,$00,$69,$00,$FC,$F8,$66,$00,$FC,$00,$67,$00,$FC
	$B416               .byte $F8,$8B,$40,$FC,$00,$8C,$40,$FC,$F8,$8D,$40,$FD,$00,$8E,$40,$FC
	$B426               .byte $F8,$8B,$00,$FC,$00,$8C,$00,$FC,$F8,$8D,$00,$FB,$00,$8E,$00,$FC
	$B436               .byte $F8,$8F,$40,$FD,$00,$90,$40,$FD,$F8,$91,$40,$FC,$00,$92,$40,$FC
	$B446               .byte $F8,$91,$40,$FC,$00,$94,$40,$FC,$F8,$8F,$00,$FB,$00,$90,$00,$FB
	$B456               .byte $F8,$91,$00,$FC,$00,$92,$00,$FC,$F8,$91,$00,$FC,$00,$94,$00,$FC
	$B466               .byte $F8,$9C,$00,$FB,$00,$9D,$00,$FB,$F8,$9E,$00,$FB,$00,$9F,$00,$FB
	$B476               .byte $F8,$A0,$00,$FC,$00,$50,$00,$FC,$F8,$A1,$00,$FC,$00,$51,$00,$FB
	$B486               .byte $F8,$A0,$40,$FC,$00,$50,$40,$FC,$F8,$A1,$40,$FC,$00,$51,$40,$FD
	$B496               .byte $F8,$37,$00,$FC,$00,$38,$00,$FC,$F8,$3B,$40,$FC,$00,$3C,$40,$FC
	$B4A6               .byte $F8,$39,$40,$FC,$00,$3A,$40,$FC,$F8,$3D,$40,$FC,$00,$3E,$40,$FC
	$B4B6               .byte $F8,$3F,$00,$FC,$00,$40,$00,$FC,$F8,$3D,$00,$FC,$00,$3E,$00,$FC
	$B4C6               .byte $F8,$39,$00,$FC,$00,$3A,$00,$FC,$F8,$3B,$00,$FC,$00,$3C,$00,$FC
	$B4D6               .byte $F8,$AC,$00,$FC,$00,$AD,$00,$FC,$FA,$AB,$00,$FF,$FF,$AA,$00,$F9
	$B4E6               .byte $FC,$A9,$00,$00,$FC,$A8,$00,$F8,$FE,$A7,$00,$FE,$FA,$A6,$00,$FA
	$B4F6               .byte $00,$A5,$00,$FC,$F8,$93,$00,$FC,$FE,$A7,$40,$FA,$FA,$A6,$40,$FE
	$B506               .byte $FC,$A9,$40,$F8,$FC,$A8,$40,$00,$FA,$AB,$40,$F9,$FF,$AA,$40,$00
	$B516               .byte $F8,$5D,$00,$FC,$00,$5F,$00,$FD,$F8,$5C,$00,$FC,$00,$5E,$00,$FD
	$B526               .byte $F7,$97,$00,$FC,$FF,$98,$00,$FC,$F8,$95,$00,$FC,$00,$96,$00,$FC
	$B536               .byte $F8,$83,$00,$FC,$00,$84,$00,$FC,$F8,$85,$00,$FC,$00,$86,$00,$FC
	$B546               .byte $F8,$77,$00,$FC,$00,$88,$00,$FC,$F8,$89,$00,$FC,$00,$8A,$00,$FC
	$B556               .byte $F8,$7F,$00,$FC,$00,$33,$00,$FC,$F5,$80,$00,$FC,$FD,$81,$00,$FC
	$B566               .byte $F8,$80,$00,$FC,$00,$82,$00,$FC,$F8,$97,$00,$FC,$00,$A2,$00,$FC
	$B576               .byte $F8,$A3,$00,$FC,$00,$A4,$00,$FC,$F8,$74,$00,$FC,$00,$87,$00,$FC
	$B586               .byte $F8,$75,$00,$FC,$00,$87,$00,$FC,$F8,$74,$40,$FC,$00,$87,$00,$FC
	$B596               .byte $F8,$2F,$40,$FC,$00,$7C,$40,$FC,$F8,$2F,$40,$FC,$00,$7D,$40,$FC
	$B5A6               .byte $F8,$2F,$40,$FC,$00,$7E,$40,$FC,$F8,$AE,$00,$FC,$00,$AF,$00,$FC
	$B5B6               .byte $F8,$B0,$00,$FC,$00,$B1,$00,$FC,$F8,$B2,$00,$FC,$00,$B3,$00,$FC
	$B5C6               .byte $F8,$AE,$40,$FC,$00,$AF,$40,$FC,$F8,$B0,$40,$FC,$00,$B1,$40,$FC
	$B5D6               .byte $F8,$B2,$40,$FC,$00,$B3,$40,$FC,$F8,$5D,$40,$FC,$00,$5F,$40,$FB
	$B5E6               .byte $F8,$5C,$40,$FC,$00,$5E,$40,$FB,$F8,$2F,$00,$FC,$00,$7C,$00,$FC
	$B5F6               .byte $F8,$2F,$00,$FC,$00,$7D,$00,$FC,$F8,$2F,$00,$FC,$00,$7E,$00,$FC
_data_3606_indexed
	$B606               .byte $26,$23,$25,$16,$13,$15,$0E,$0B,$0D,$34,$32,$31,$2C,$2A,$29,$1C
	$B616               .byte $1A,$19,$07,$38,$24,$22,$21,$14,$12,$11,$0C,$0A,$09,$06,$03,$05
	$B626               .byte $30,$18,$28,$04,$02,$01
_func_362C
	$B62C  A9 20:       lda #$20			/* A(20)<362C>X(??)Y(??)MAP[00:[00],01:[01],02:[02],03:[03],mmc:(un)]s(0)Z0S0*/
	$B62E  24 4C:       bit $4C			/* A(??)X(??)Y(??)MAP[00:[00],01:[01],02:[02],03:[03],mmc:(un)]s(0)Z?S?*/
	$B630  70 0B:       bvs ++		; $B63D			/* A(??)X(??)Y(??)MAP[00:[00],01:[01],02:[02],03:[03],mmc:(un)]s(0)Z?S?*/
	$B632  D0 06:       bne +		; $B63A -> $B72D			/* A(??)X(??)Y(??)MAP[00:[00],01:[01],02:[02],03:[03],mmc:(un)]s(0)Z?S?*/
	$B634  20 13 B8:    jsr _func_3813			/* A(??)X(??)Y(??)MAP[00:(??),01:(??),02:(??),03:(??),mmc:(un)]s(0)Z?S?*/
	$B637  4C 97 B6:    jmp +++		; $B697			/* A(??)X(??)Y(??)MAP[00:[00],01:[01],02:[02],03:[03],mmc:(un)]s(0)Z?S?*/(barrier)

+	$B63A  4C 2D B7:    jmp ++++		; $B72D			/* A(??)X(??)Y(??)MAP[00:[00],01:[01],02:[02],03:[03],mmc:(un)]s(0)Z?S?*/(barrier)

++	$B63D  20 13 B8:    jsr _func_3813			/* A(??)X(??)Y(??)MAP[00:[00],01:[01],02:[02],03:[03],mmc:(un)]s(0)Z?S?*/
	$B640  90 01:       bcc +		; $B643			/* A(??)X(??)Y(??)MAP[00:[00],01:[01],02:[02],03:[03],mmc:(un)]s(0)Z?S?*/
	$B642  60:          rts 			/* A(??)X(??)Y(??)MAP[00:[00],01:[01],02:[02],03:[03],mmc:(un)]s(0)Z?S?*/(barrier)

+	$B643  A5 35:       lda $35			/* A(??)X(??)Y(??)MAP[00:[00],01:[01],02:[02],03:[03],mmc:(un)]s(0)Z?S?*/
	$B645  10 0F:       bpl +		; $B656			/* A(??)X(??)Y(??)MAP[00:[00],01:[01],02:[02],03:[03],mmc:(un)]s(0)Z?S?*/
	$B647  A5 F7:       lda $F7			/* A(??)X(??)Y(??)MAP[00:[00],01:[01],02:[02],03:[03],mmc:(un)]s(0)Z?S?*/
	$B649  D0 0B:       bne +		; $B656			/* A(??)X(??)Y(??)MAP[00:[00],01:[01],02:[02],03:[03],mmc:(un)]s(0)Z?S?*/
	$B64B  A5 5F:       lda $5F			/* A(??)X(??)Y(??)MAP[00:[00],01:[01],02:[02],03:[03],mmc:(un)]s(0)Z?S?*/
	$B64D  30 48:       bmi +++		; $B697			/* A(??)X(??)Y(??)MAP[00:[00],01:[01],02:[02],03:[03],mmc:(un)]s(0)Z?S?*/
	$B64F  09 80:       ora #$80			/* A(??)X(??)Y(??)MAP[00:[00],01:[01],02:[02],03:[03],mmc:(un)]s(0)Z?S?*/
	$B651  85 5F:       sta $5F			/* A(??)X(??)Y(??)MAP[00:[00],01:[01],02:[02],03:[03],mmc:(un)]s(0)Z?S?*/
	$B653  4C 97 B6:    jmp +++		; $B697			/* A(??)X(??)Y(??)MAP[00:[00],01:[01],02:[02],03:[03],mmc:(un)]s(0)Z?S?*/(barrier)

+	$B656  C6 F7:       dec $F7			/* A(??)X(??)Y(??)MAP[00:[00],01:[01],02:[02],03:[03],mmc:(un)]s(0)Z?S?*/
	$B658  A5 52:       lda $52			/* A(??)X(??)Y(??)MAP[00:[00],01:[01],02:[02],03:[03],mmc:(un)]s(0)Z?S?*/
	$B65A  18:          clc 			/* A(??)X(??)Y(??)MAP[00:[00],01:[01],02:[02],03:[03],mmc:(un)]s(0)Z?S?*/
	$B65B  65 54:       adc $54			/* A(??)X(??)Y(??)MAP[00:[00],01:[01],02:[02],03:[03],mmc:(un)]s(0)Z?S?*/
	$B65D  85 54:       sta $54			/* A(??)X(??)Y(??)MAP[00:[00],01:[01],02:[02],03:[03],mmc:(un)]s(0)Z?S?*/
	$B65F  90 21:       bcc ++		; $B682			/* A(??)X(??)Y(??)MAP[00:[00],01:[01],02:[02],03:[03],mmc:(un)]s(0)Z?S?*/
	$B661  A5 4C:       lda $4C			/* A(??)X(??)Y(??)MAP[00:[00],01:[01],02:[02],03:[03],mmc:(un)]s(0)Z?S?*/
	$B663  4A:          lsr a			/* A(??)X(??)Y(??)MAP[00:[00],01:[01],02:[02],03:[03],mmc:(un)]s(0)Z?S?*/
	$B664  B0 0E:       bcs +		; $B674			/* A(??)X(??)Y(??)MAP[00:[00],01:[01],02:[02],03:[03],mmc:(un)]s(0)Z?S?*/
	$B666  20 D7 B6:    jsr _func_36D7			/* A(??)X(??)Y(??)MAP[00:(??),01:(??),02:(??),03:(??),mmc:(un)]s(0)Z?S?*/
	$B669  90 17:       bcc ++		; $B682			/* A(??)X(??)Y(??)MAP[00:[00],01:[01],02:[02],03:[03],mmc:(un)]s(0)Z?S?*/
	$B66B  A5 54:       lda $54			/* A(??)X(??)Y(??)MAP[00:[00],01:[01],02:[02],03:[03],mmc:(un)]s(0)Z?S?*/
	$B66D  E5 52:       sbc $52			/* A(??)X(??)Y(??)MAP[00:[00],01:[01],02:[02],03:[03],mmc:(un)]s(0)Z?S?*/
	$B66F  85 54:       sta $54			/* A(??)X(??)Y(??)MAP[00:[00],01:[01],02:[02],03:[03],mmc:(un)]s(0)Z?S?*/
	$B671  4C 97 B6:    jmp +++		; $B697			/* A(??)X(??)Y(??)MAP[00:[00],01:[01],02:[02],03:[03],mmc:(un)]s(0)Z?S?*/(barrier)

+	$B674  20 03 B7:    jsr _func_3703			/* A(??)X(??)Y(??)MAP[00:[00],01:[01],02:[02],03:[03],mmc:(un)]s(0)Z?S?*/
	$B677  90 09:       bcc ++		; $B682			/* A(??)X(??)Y(??)MAP[00:[00],01:[01],02:[02],03:[03],mmc:(un)]s(0)Z?S?*/
	$B679  A5 54:       lda $54			/* A(??)X(??)Y(??)MAP[00:[00],01:[01],02:[02],03:[03],mmc:(un)]s(0)Z?S?*/
	$B67B  E5 52:       sbc $52			/* A(??)X(??)Y(??)MAP[00:[00],01:[01],02:[02],03:[03],mmc:(un)]s(0)Z?S?*/
	$B67D  85 54:       sta $54			/* A(??)X(??)Y(??)MAP[00:[00],01:[01],02:[02],03:[03],mmc:(un)]s(0)Z?S?*/
	$B67F  4C 97 B6:    jmp +++		; $B697			/* A(??)X(??)Y(??)MAP[00:[00],01:[01],02:[02],03:[03],mmc:(un)]s(0)Z?S?*/(barrier)

++	$B682  A5 51:       lda $51			/* A(??)X(??)Y(??)MAP[00:[00],01:[01],02:[02],03:[03],mmc:(un)]s(0)Z?S?*/
	$B684  18:          clc 			/* A(??)X(??)Y(??)MAP[00:[00],01:[01],02:[02],03:[03],mmc:(un)]s(0)Z?S?*/
	$B685  65 53:       adc $53			/* A(??)X(??)Y(??)MAP[00:[00],01:[01],02:[02],03:[03],mmc:(un)]s(0)Z?S?*/
	$B687  85 53:       sta $53			/* A(??)X(??)Y(??)MAP[00:[00],01:[01],02:[02],03:[03],mmc:(un)]s(0)Z?S?*/
	$B689  90 0C:       bcc +++		; $B697			/* A(??)X(??)Y(??)MAP[00:[00],01:[01],02:[02],03:[03],mmc:(un)]s(0)Z?S?*/
	$B68B  A5 4C:       lda $4C			/* A(??)X(??)Y(??)MAP[00:[00],01:[01],02:[02],03:[03],mmc:(un)]s(0)Z?S?*/
	$B68D  4A:          lsr a			/* A(??)X(??)Y(??)MAP[00:[00],01:[01],02:[02],03:[03],mmc:(un)]s(0)Z?S?*/
	$B68E  4A:          lsr a			/* A(??)X(??)Y(??)MAP[00:[00],01:[01],02:[02],03:[03],mmc:(un)]s(0)Z?S?*/
	$B68F  B0 04:       bcs +		; $B695			/* A(??)X(??)Y(??)MAP[00:[00],01:[01],02:[02],03:[03],mmc:(un)]s(0)Z?S?*/
	$B691  E6 4D:       inc $4D			/* A(??)X(??)Y(??)MAP[00:[00],01:[01],02:[02],03:[03],mmc:(un)]s(0)Z?S?*/
	$B693  D0 02:       bne +++		; $B697			/* A(??)X(??)Y(??)MAP[00:[00],01:[01],02:[02],03:[03],mmc:(un)]s(0)Z?S?*/
+	$B695  C6 4D:       dec $4D			/* A(??)X(??)Y(??)MAP[00:[00],01:[01],02:[02],03:[03],mmc:(un)]s(0)Z?S?*/
+++ -	$B697  A5 4E:       lda $4E			/* A(??)X(??)Y(??)MAP[00:[00],01:[01],02:[02],03:[03],mmc:(un)]s(0)Z?S?*/
	$B699  38:          sec 			/* A(??)X(??)Y(??)MAP[00:[00],01:[01],02:[02],03:[03],mmc:(un)]s(0)Z?S?*/
	$B69A  E9 18:       sbc #$18			/* A(??)X(??)Y(??)MAP[00:[00],01:[01],02:[02],03:[03],mmc:(un)]s(0)Z?S?*/
	$B69C  A5 4F:       lda $4F			/* A(??)X(??)Y(??)MAP[00:[00],01:[01],02:[02],03:[03],mmc:(un)]s(0)Z?S?*/
	$B69E  E9 01:       sbc #$01			/* A(??)X(??)Y(??)MAP[00:[00],01:[01],02:[02],03:[03],mmc:(un)]s(0)Z?S?*/
	$B6A0  B0 07:       bcs +		; $B6A9			/* A(??)X(??)Y(??)MAP[00:[00],01:[01],02:[02],03:[03],mmc:(un)]s(0)Z?S?*/
	$B6A2  A5 4E:       lda $4E			/* A(??)X(??)Y(??)MAP[00:[00],01:[01],02:[02],03:[03],mmc:(un)]s(0)Z?S?*/
	$B6A4  38:          sec 			/* A(??)X(??)Y(??)MAP[00:[00],01:[01],02:[02],03:[03],mmc:(un)]s(0)Z?S?*/
	$B6A5  E9 68:       sbc #$68			/* A(??)X(??)Y(??)MAP[00:[00],01:[01],02:[02],03:[03],mmc:(un)]s(0)Z?S?*/
	$B6A7  D0 02:       bne ++		; $B6AB			/* A(??)X(??)Y(??)MAP[00:[00],01:[01],02:[02],03:[03],mmc:(un)]s(0)Z?S?*/
+	$B6A9  A9 B0:       lda #$B0			/* A(??)X(??)Y(??)MAP[00:[00],01:[01],02:[02],03:[03],mmc:(un)]s(0)Z?S?*/
++	$B6AB  85 50:       sta $50			/* A(??)X(??)Y(??)MAP[00:[00],01:[01],02:[02],03:[03],mmc:(un)]s(0)Z?S?*/
	$B6AD  A4 4C:       ldy $4C			/* A(B0)<36A9>X(??)Y(??)MAP[00:[00],01:[01],02:[02],03:[03],mmc:(un)]s(0)Z?S?*/
	$B6AF  30 02:       bmi +		; $B6B3			/* A(B0)<36A9>X(??)Y(??)MAP[00:[00],01:[01],02:[02],03:[03],mmc:(un)]s(0)Z?S?*/
	$B6B1  A9 F8:       lda #$F8			/* A(F8)<36B1>X(??)Y(??)MAP[00:[00],01:[01],02:[02],03:[03],mmc:(un)]s(0)Z0S1*/
+	$B6B3  38:          sec 			/* A(??)X(??)Y(??)MAP[00:[00],01:[01],02:[02],03:[03],mmc:(un)]s(0)Z0S1*/
	$B6B4  E9 08:       sbc #$08			/* A(??)X(??)Y(??)MAP[00:[00],01:[01],02:[02],03:[03],mmc:(un)]s(0)Z?S?*/
	$B6B6  8D 48 07:    sta $0748			/* A(??)X(??)Y(??)MAP[00:[00],01:[01],02:[02],03:[03],mmc:(un)]s(0)Z?S?*/
	$B6B9  A5 4D:       lda $4D			/* A(??)X(??)Y(??)MAP[00:[00],01:[01],02:[02],03:[03],mmc:(un)]s(0)Z?S?*/
	$B6BB  38:          sec 			/* A(??)X(??)Y(??)MAP[00:[00],01:[01],02:[02],03:[03],mmc:(un)]s(0)Z?S?*/
	$B6BC  E9 04:       sbc #$04			/* A(??)X(??)Y(??)MAP[00:[00],01:[01],02:[02],03:[03],mmc:(un)]s(0)Z?S?*/
	$B6BE  8D 4B 07:    sta $074B			/* A(??)X(??)Y(??)MAP[00:[00],01:[01],02:[02],03:[03],mmc:(un)]s(0)Z?S?*/
	$B6C1  A5 F4:       lda $F4			/* A(??)X(??)Y(??)MAP[00:[00],01:[01],02:[02],03:[03],mmc:(un)]s(0)Z?S?*/
	$B6C3  D0 11:       bne +		; $B6D6 -> rts			/* A(??)X(??)Y(??)MAP[00:[00],01:[01],02:[02],03:[03],mmc:(un)]s(0)Z?S?*/
	$B6C5  A5 4E:       lda $4E			/* A(??)X(??)Y(??)MAP[00:[00],01:[01],02:[02],03:[03],mmc:(un)]s(0)Z?S?*/
	$B6C7  38:          sec 			/* A(??)X(??)Y(??)MAP[00:[00],01:[01],02:[02],03:[03],mmc:(un)]s(0)Z?S?*/
	$B6C8  E5 56:       sbc $56			/* A(??)X(??)Y(??)MAP[00:[00],01:[01],02:[02],03:[03],mmc:(un)]s(0)Z?S?*/
	$B6CA  A5 4F:       lda $4F			/* A(??)X(??)Y(??)MAP[00:[00],01:[01],02:[02],03:[03],mmc:(un)]s(0)Z?S?*/
	$B6CC  E5 57:       sbc $57			/* A(??)X(??)Y(??)MAP[00:[00],01:[01],02:[02],03:[03],mmc:(un)]s(0)Z?S?*/
	$B6CE  B0 06:       bcs +		; $B6D6 -> rts			/* A(??)X(??)Y(??)MAP[00:[00],01:[01],02:[02],03:[03],mmc:(un)]s(0)Z?S?*/
	$B6D0  A5 4C:       lda $4C			/* A(??)X(??)Y(??)MAP[00:[00],01:[01],02:[02],03:[03],mmc:(un)]s(0)Z?S?*/
	$B6D2  29 F3:       and #$F3			/* A(??)X(??)Y(??)MAP[00:[00],01:[01],02:[02],03:[03],mmc:(un)]s(0)Z?S?*/
	$B6D4  85 4C:       sta $4C			/* A(??)X(??)Y(??)MAP[00:[00],01:[01],02:[02],03:[03],mmc:(un)]s(0)Z?S?*/
+	$B6D6  60:          rts 			/* A(??)X(??)Y(??)MAP[00:[00],01:[01],02:[02],03:[03],mmc:(un)]s(0)Z?S?*/(barrier)
;------------------------------------------
_func_36D7
	$B6D7  A5 1D:       lda $1D			/* A(??)X(48)<73D>Y(??)MAP[00:[00],01:[01],02:[02],03:[03],mmc:(un)]s(0)Z?S?*/
	$B6D9  4A:          lsr a			/* A(??)X(??)Y(??)MAP[00:[00],01:[01],02:[02],03:[03],mmc:(un)]s(0)Z?S?*/
	$B6DA  90 08:       bcc +		; $B6E4			/* A(??)X(??)Y(??)MAP[00:[00],01:[01],02:[02],03:[03],mmc:(un)]s(0)Z?S?*/
	$B6DC  A5 4E:       lda $4E			/* A(??)X(??)Y(??)MAP[00:[00],01:[01],02:[02],03:[03],mmc:(un)]s(0)Z?S?*/
	$B6DE  29 03:       and #$03			/* A(??)X(??)Y(??)MAP[00:[00],01:[01],02:[02],03:[03],mmc:(un)]s(0)Z?S?*/
	$B6E0  C9 03:       cmp #$03			/* A(??)X(??)Y(??)MAP[00:[00],01:[01],02:[02],03:[03],mmc:(un)]s(0)Z?S?*/
	$B6E2  F0 1E:       beq ++		; $B702 -> rts			/* A(??)X(??)Y(??)MAP[00:[00],01:[01],02:[02],03:[03],mmc:(un)]s(0)Z?S?*/
+	$B6E4  A5 4A:       lda $4A			/* A(??)X(??)Y(??)MAP[00:[00],01:[01],02:[02],03:[03],mmc:(un)]s(0)Z?S?*/
	$B6E6  09 80:       ora #$80			/* A(??)X(??)Y(??)MAP[00:[00],01:[01],02:[02],03:[03],mmc:(un)]s(0)Z?S?*/
	$B6E8  85 4A:       sta $4A			/* A(??)X(??)Y(??)MAP[00:[00],01:[01],02:[02],03:[03],mmc:(un)]s(0)Z?S?*/
	$B6EA  A5 4E:       lda $4E			/* A(??)X(??)Y(??)MAP[00:[00],01:[01],02:[02],03:[03],mmc:(un)]s(0)Z?S?*/
	$B6EC  18:          clc 			/* A(??)X(??)Y(??)MAP[00:[00],01:[01],02:[02],03:[03],mmc:(un)]s(0)Z?S?*/
	$B6ED  69 01:       adc #$01			/* A(??)X(??)Y(??)MAP[00:[00],01:[01],02:[02],03:[03],mmc:(un)]s(0)Z?S?*/
	$B6EF  85 4E:       sta $4E			/* A(??)X(??)Y(??)MAP[00:[00],01:[01],02:[02],03:[03],mmc:(un)]s(0)Z?S?*/
	$B6F1  A5 4F:       lda $4F			/* A(??)X(??)Y(??)MAP[00:[00],01:[01],02:[02],03:[03],mmc:(un)]s(0)Z?S?*/
	$B6F3  69 00:       adc #$00			/* A(??)X(??)Y(??)MAP[00:[00],01:[01],02:[02],03:[03],mmc:(un)]s(0)Z?S?*/
	$B6F5  85 4F:       sta $4F			/* A(??)X(??)Y(??)MAP[00:[00],01:[01],02:[02],03:[03],mmc:(un)]s(0)Z?S?*/
	$B6F7  A9 01:       lda #$01			/* A(01)<36F7>X(??)Y(??)MAP[00:[00],01:[01],02:[02],03:[03],mmc:(un)]s(0)Z0S0*/
	$B6F9  8D 9A 03:    sta $039A			/* A(01)<36F7>X(??)Y(??)MAP[00:[00],01:[01],02:[02],03:[03],mmc:(un)]s(0)Z0S0*/
	$B6FC  A9 00:       lda #$00			/* A(00)<36FC>X(??)Y(??)MAP[00:[00],01:[01],02:[02],03:[03],mmc:(un)]s(0)Z1S0*/
	$B6FE  8D 9B 03:    sta $039B			/* A(00)<36FC>X(??)Y(??)MAP[00:[00],01:[01],02:[02],03:[03],mmc:(un)]s(0)Z1S0*/
	$B701  18:          clc 			/* A(00)<36FC>X(??)Y(??)MAP[00:[00],01:[01],02:[02],03:[03],mmc:(un)]s(0)Z1S0*/
++	$B702  60:          rts 			/* A(??)X(??)Y(??)MAP[00:[00],01:[01],02:[02],03:[03],mmc:(un)]s(0)Z?S?*/(barrier)
;------------------------------------------
_func_3703
	$B703  A5 1D:       lda $1D			/* A(??)X(??)Y(??)MAP[00:[00],01:[01],02:[02],03:[03],mmc:(un)]s(0)Z?S?*/
	$B705  4A:          lsr a			/* A(??)X(??)Y(??)MAP[00:[00],01:[01],02:[02],03:[03],mmc:(un)]s(0)Z?S?*/
	$B706  90 08:       bcc +		; $B710			/* A(??)X(??)Y(??)MAP[00:[00],01:[01],02:[02],03:[03],mmc:(un)]s(0)Z?S?*/
	$B708  A5 4E:       lda $4E			/* A(??)X(??)Y(??)MAP[00:[00],01:[01],02:[02],03:[03],mmc:(un)]s(0)Z?S?*/
	$B70A  29 03:       and #$03			/* A(??)X(??)Y(??)MAP[00:[00],01:[01],02:[02],03:[03],mmc:(un)]s(0)Z?S?*/
	$B70C  C9 01:       cmp #$01			/* A(??)X(??)Y(??)MAP[00:[00],01:[01],02:[02],03:[03],mmc:(un)]s(0)Z?S?*/
	$B70E  F0 1C:       beq ++		; $B72C -> rts			/* A(??)X(??)Y(??)MAP[00:[00],01:[01],02:[02],03:[03],mmc:(un)]s(0)Z?S?*/
+	$B710  A5 4A:       lda $4A			/* A(??)X(??)Y(??)MAP[00:[00],01:[01],02:[02],03:[03],mmc:(un)]s(0)Z?S?*/
	$B712  29 0F:       and #$0F			/* A(??)X(??)Y(??)MAP[00:[00],01:[01],02:[02],03:[03],mmc:(un)]s(0)Z?S?*/
	$B714  85 4A:       sta $4A			/* A(??)X(??)Y(??)MAP[00:[00],01:[01],02:[02],03:[03],mmc:(un)]s(0)Z?S?*/
	$B716  A5 4E:       lda $4E			/* A(??)X(??)Y(??)MAP[00:[00],01:[01],02:[02],03:[03],mmc:(un)]s(0)Z?S?*/
	$B718  38:          sec 			/* A(??)X(??)Y(??)MAP[00:[00],01:[01],02:[02],03:[03],mmc:(un)]s(0)Z?S?*/
	$B719  E9 01:       sbc #$01			/* A(??)X(??)Y(??)MAP[00:[00],01:[01],02:[02],03:[03],mmc:(un)]s(0)Z?S?*/
	$B71B  85 4E:       sta $4E			/* A(??)X(??)Y(??)MAP[00:[00],01:[01],02:[02],03:[03],mmc:(un)]s(0)Z?S?*/
	$B71D  A5 4F:       lda $4F			/* A(??)X(??)Y(??)MAP[00:[00],01:[01],02:[02],03:[03],mmc:(un)]s(0)Z?S?*/
	$B71F  E9 00:       sbc #$00			/* A(??)X(??)Y(??)MAP[00:[00],01:[01],02:[02],03:[03],mmc:(un)]s(0)Z?S?*/
	$B721  85 4F:       sta $4F			/* A(??)X(??)Y(??)MAP[00:[00],01:[01],02:[02],03:[03],mmc:(un)]s(0)Z?S?*/
	$B723  A9 FF:       lda #$FF			/* A(FF)<3723>X(??)Y(??)MAP[00:[00],01:[01],02:[02],03:[03],mmc:(un)]s(0)Z0S1*/
	$B725  8D 9A 03:    sta $039A			/* A(FF)<3723>X(??)Y(??)MAP[00:[00],01:[01],02:[02],03:[03],mmc:(un)]s(0)Z0S1*/
	$B728  8D 9B 03:    sta $039B			/* A(FF)<3723>X(??)Y(??)MAP[00:[00],01:[01],02:[02],03:[03],mmc:(un)]s(0)Z0S1*/
	$B72B  18:          clc 			/* A(FF)<3723>X(??)Y(??)MAP[00:[00],01:[01],02:[02],03:[03],mmc:(un)]s(0)Z0S1*/
++	$B72C  60:          rts 			/* A(??)X(??)Y(??)MAP[00:[00],01:[01],02:[02],03:[03],mmc:(un)]s(0)Z?S?*/(barrier)

++++	$B72D  A5 5A:       lda $5A			/* A(??)X(??)Y(??)MAP[00:[00],01:[01],02:[02],03:[03],mmc:(un)]s(0)Z?S?*/
	$B72F  85 10:       sta $10			/* A(??)X(??)Y(??)MAP[00:[00],01:[01],02:[02],03:[03],mmc:(un)]s(0)Z?S?*/
	$B731  A5 5B:       lda $5B			/* A(??)X(??)Y(??)MAP[00:[00],01:[01],02:[02],03:[03],mmc:(un)]s(0)Z?S?*/
	$B733  85 11:       sta $11			/* A(??)X(??)Y(??)MAP[00:[00],01:[01],02:[02],03:[03],mmc:(un)]s(0)Z?S?*/
	$B735  A5 5C:       lda $5C			/* A(??)X(??)Y(??)MAP[00:[00],01:[01],02:[02],03:[03],mmc:(un)]s(0)Z?S?*/
	$B737  85 12:       sta $12			/* A(??)X(??)Y(??)MAP[00:[00],01:[01],02:[02],03:[03],mmc:(un)]s(0)Z?S?*/
	$B739  A9 00:       lda #$00			/* A(00)<3739>X(??)Y(??)MAP[00:[00],01:[01],02:[02],03:[03],mmc:(un)]s(0)Z1S0*/
	$B73B  85 53:       sta $53			/* A(00)<3739>X(??)Y(??)MAP[00:[00],01:[01],02:[02],03:[03],mmc:(un)]s(0)Z1S0*/
	$B73D  A5 11:       lda $11			/* A(??)X(??)Y(??)MAP[00:[00],01:[01],02:[02],03:[03],mmc:(un)]s(0)Z?S?*/
	$B73F  38:          sec 			/* A(??)X(??)Y(??)MAP[00:[00],01:[01],02:[02],03:[03],mmc:(un)]s(0)Z?S?*/
	$B740  E5 4E:       sbc $4E			/* A(??)X(??)Y(??)MAP[00:[00],01:[01],02:[02],03:[03],mmc:(un)]s(0)Z?S?*/
	$B742  85 11:       sta $11			/* A(??)X(??)Y(??)MAP[00:[00],01:[01],02:[02],03:[03],mmc:(un)]s(0)Z?S?*/
	$B744  85 51:       sta $51			/* A(??)X(??)Y(??)MAP[00:[00],01:[01],02:[02],03:[03],mmc:(un)]s(0)Z?S?*/
	$B746  A5 12:       lda $12			/* A(??)X(??)Y(??)MAP[00:[00],01:[01],02:[02],03:[03],mmc:(un)]s(0)Z?S?*/
	$B748  E5 4F:       sbc $4F			/* A(??)X(??)Y(??)MAP[00:[00],01:[01],02:[02],03:[03],mmc:(un)]s(0)Z?S?*/
	$B74A  85 12:       sta $12			/* A(??)X(??)Y(??)MAP[00:[00],01:[01],02:[02],03:[03],mmc:(un)]s(0)Z?S?*/
	$B74C  85 52:       sta $52			/* A(??)X(??)Y(??)MAP[00:[00],01:[01],02:[02],03:[03],mmc:(un)]s(0)Z?S?*/
	$B74E  B0 1B:       bcs +		; $B76B			/* A(??)X(??)Y(??)MAP[00:[00],01:[01],02:[02],03:[03],mmc:(un)]s(0)Z?S?*/
	$B750  49 FF:       eor #$FF			/* A(??)X(??)Y(??)MAP[00:[00],01:[01],02:[02],03:[03],mmc:(un)]s(0)Z?S?*/
	$B752  85 12:       sta $12			/* A(??)X(??)Y(??)MAP[00:[00],01:[01],02:[02],03:[03],mmc:(un)]s(0)Z?S?*/
	$B754  A5 11:       lda $11			/* A(??)X(??)Y(??)MAP[00:[00],01:[01],02:[02],03:[03],mmc:(un)]s(0)Z?S?*/
	$B756  49 FF:       eor #$FF			/* A(??)X(??)Y(??)MAP[00:[00],01:[01],02:[02],03:[03],mmc:(un)]s(0)Z?S?*/
	$B758  18:          clc 			/* A(??)X(??)Y(??)MAP[00:[00],01:[01],02:[02],03:[03],mmc:(un)]s(0)Z?S?*/
	$B759  69 01:       adc #$01			/* A(??)X(??)Y(??)MAP[00:[00],01:[01],02:[02],03:[03],mmc:(un)]s(0)Z?S?*/
	$B75B  85 11:       sta $11			/* A(??)X(??)Y(??)MAP[00:[00],01:[01],02:[02],03:[03],mmc:(un)]s(0)Z?S?*/
	$B75D  85 51:       sta $51			/* A(??)X(??)Y(??)MAP[00:[00],01:[01],02:[02],03:[03],mmc:(un)]s(0)Z?S?*/
	$B75F  A5 12:       lda $12			/* A(??)X(??)Y(??)MAP[00:[00],01:[01],02:[02],03:[03],mmc:(un)]s(0)Z?S?*/
	$B761  69 00:       adc #$00			/* A(??)X(??)Y(??)MAP[00:[00],01:[01],02:[02],03:[03],mmc:(un)]s(0)Z?S?*/
	$B763  85 12:       sta $12			/* A(??)X(??)Y(??)MAP[00:[00],01:[01],02:[02],03:[03],mmc:(un)]s(0)Z?S?*/
	$B765  85 52:       sta $52			/* A(??)X(??)Y(??)MAP[00:[00],01:[01],02:[02],03:[03],mmc:(un)]s(0)Z?S?*/
	$B767  A9 01:       lda #$01			/* A(01)<3767>X(??)Y(??)MAP[00:[00],01:[01],02:[02],03:[03],mmc:(un)]s(0)Z0S0*/
	$B769  85 53:       sta $53			/* A(01)<3767>X(??)Y(??)MAP[00:[00],01:[01],02:[02],03:[03],mmc:(un)]s(0)Z0S0*/
+	$B76B  A5 51:       lda $51			/* A(01)<3767>X(??)Y(??)MAP[00:[00],01:[01],02:[02],03:[03],mmc:(un)]s(0)Z0S0*/
	$B76D  85 11:       sta $11			/* A(??)X(??)Y(??)MAP[00:[00],01:[01],02:[02],03:[03],mmc:(un)]s(0)Z?S?*/
	$B76F  A5 52:       lda $52			/* A(??)X(??)Y(??)MAP[00:[00],01:[01],02:[02],03:[03],mmc:(un)]s(0)Z?S?*/
	$B771  85 12:       sta $12			/* A(??)X(??)Y(??)MAP[00:[00],01:[01],02:[02],03:[03],mmc:(un)]s(0)Z?S?*/
	$B773  85 55:       sta $55			/* A(??)X(??)Y(??)MAP[00:[00],01:[01],02:[02],03:[03],mmc:(un)]s(0)Z?S?*/
	$B775  A5 11:       lda $11			/* A(??)X(??)Y(??)MAP[00:[00],01:[01],02:[02],03:[03],mmc:(un)]s(0)Z?S?*/
	$B777  85 52:       sta $52			/* A(??)X(??)Y(??)MAP[00:[00],01:[01],02:[02],03:[03],mmc:(un)]s(0)Z?S?*/
	$B779  A5 10:       lda $10			/* A(??)X(??)Y(??)MAP[00:[00],01:[01],02:[02],03:[03],mmc:(un)]s(0)Z?S?*/
	$B77B  38:          sec 			/* A(??)X(??)Y(??)MAP[00:[00],01:[01],02:[02],03:[03],mmc:(un)]s(0)Z?S?*/
	$B77C  E5 4D:       sbc $4D			/* A(??)X(??)Y(??)MAP[00:[00],01:[01],02:[02],03:[03],mmc:(un)]s(0)Z?S?*/
	$B77E  85 10:       sta $10			/* A(??)X(??)Y(??)MAP[00:[00],01:[01],02:[02],03:[03],mmc:(un)]s(0)Z?S?*/
	$B780  B0 0C:       bcs +		; $B78E			/* A(??)X(??)Y(??)MAP[00:[00],01:[01],02:[02],03:[03],mmc:(un)]s(0)Z?S?*/
	$B782  49 FF:       eor #$FF			/* A(??)X(??)Y(??)MAP[00:[00],01:[01],02:[02],03:[03],mmc:(un)]s(0)Z?S?*/
	$B784  69 01:       adc #$01			/* A(??)X(??)Y(??)MAP[00:[00],01:[01],02:[02],03:[03],mmc:(un)]s(0)Z?S?*/
	$B786  85 10:       sta $10			/* A(??)X(??)Y(??)MAP[00:[00],01:[01],02:[02],03:[03],mmc:(un)]s(0)Z?S?*/
	$B788  A5 53:       lda $53			/* A(??)X(??)Y(??)MAP[00:[00],01:[01],02:[02],03:[03],mmc:(un)]s(0)Z?S?*/
	$B78A  09 02:       ora #$02			/* A(??)X(??)Y(??)MAP[00:[00],01:[01],02:[02],03:[03],mmc:(un)]s(0)Z?S?*/
	$B78C  85 53:       sta $53			/* A(??)X(??)Y(??)MAP[00:[00],01:[01],02:[02],03:[03],mmc:(un)]s(0)Z?S?*/
+	$B78E  A5 10:       lda $10			/* A(??)X(??)Y(??)MAP[00:[00],01:[01],02:[02],03:[03],mmc:(un)]s(0)Z?S?*/
	$B790  85 51:       sta $51			/* A(??)X(??)Y(??)MAP[00:[00],01:[01],02:[02],03:[03],mmc:(un)]s(0)Z?S?*/
	$B792  A9 00:       lda #$00			/* A(00)<3792>X(??)Y(??)MAP[00:[00],01:[01],02:[02],03:[03],mmc:(un)]s(0)Z1S0*/
	$B794  85 10:       sta $10			/* A(00)<3792>X(??)Y(??)MAP[00:[00],01:[01],02:[02],03:[03],mmc:(un)]s(0)Z1S0*/
	$B796  85 13:       sta $13			/* A(00)<3792>X(??)Y(??)MAP[00:[00],01:[01],02:[02],03:[03],mmc:(un)]s(0)Z1S0*/
	$B798  A5 55:       lda $55			/* A(??)X(??)Y(??)MAP[00:[00],01:[01],02:[02],03:[03],mmc:(un)]s(0)Z?S?*/
	$B79A  D0 2B:       bne ++		; $B7C7			/* A(??)X(??)Y(??)MAP[00:[00],01:[01],02:[02],03:[03],mmc:(un)]s(0)Z?S?*/
	$B79C  A5 51:       lda $51			/* A(??)X(??)Y(??)MAP[00:[00],01:[01],02:[02],03:[03],mmc:(un)]s(0)Z?S?*/
	$B79E  C5 52:       cmp $52			/* A(??)X(??)Y(??)MAP[00:[00],01:[01],02:[02],03:[03],mmc:(un)]s(0)Z?S?*/
	$B7A0  F0 1D:       beq +		; $B7BF			/* A(??)X(??)Y(??)MAP[00:[00],01:[01],02:[02],03:[03],mmc:(un)]s(0)Z?S?*/
	$B7A2  90 23:       bcc ++		; $B7C7			/* A(??)X(??)Y(??)MAP[00:[00],01:[01],02:[02],03:[03],mmc:(un)]s(0)Z?S?*/
	$B7A4  A5 51:       lda $51			/* A(??)X(??)Y(??)MAP[00:[00],01:[01],02:[02],03:[03],mmc:(un)]s(0)Z?S?*/
	$B7A6  85 12:       sta $12			/* A(??)X(??)Y(??)MAP[00:[00],01:[01],02:[02],03:[03],mmc:(un)]s(0)Z?S?*/
	$B7A8  A5 52:       lda $52			/* A(??)X(??)Y(??)MAP[00:[00],01:[01],02:[02],03:[03],mmc:(un)]s(0)Z?S?*/
	$B7AA  85 11:       sta $11			/* A(??)X(??)Y(??)MAP[00:[00],01:[01],02:[02],03:[03],mmc:(un)]s(0)Z?S?*/
	$B7AC  20 09 91:    jsr _func_1109			/* A(??)X(??)Y(??)MAP[00:(??),01:(??),02:(??),03:(??),mmc:(un)]s(0)Z?S?*/
	$B7AF  A5 14:       lda $14			/* A(??)X(??)Y(??)MAP[00:[00],01:[01],02:[02],03:[03],mmc:(un)]s(0)Z?S?*/
	$B7B1  85 52:       sta $52			/* A(??)X(??)Y(??)MAP[00:[00],01:[01],02:[02],03:[03],mmc:(un)]s(0)Z?S?*/
	$B7B3  A9 FF:       lda #$FF			/* A(FF)<37B3>X(??)Y(??)MAP[00:[00],01:[01],02:[02],03:[03],mmc:(un)]s(0)Z0S1*/
	$B7B5  85 51:       sta $51			/* A(FF)<37B3>X(??)Y(??)MAP[00:[00],01:[01],02:[02],03:[03],mmc:(un)]s(0)Z0S1*/
	$B7B7  A9 C4:       lda #$C4			/* A(C4)<37B7>X(??)Y(??)MAP[00:[00],01:[01],02:[02],03:[03],mmc:(un)]s(0)Z0S1*/
	$B7B9  8D 49 07:    sta $0749			/* A(C4)<37B7>X(??)Y(??)MAP[00:[00],01:[01],02:[02],03:[03],mmc:(un)]s(0)Z0S1*/
	$B7BC  D0 25:       bne ++++		; $B7E3			/* A(C4)<37B7>X(??)Y(??)MAP[00:[00],01:[01],02:[02],03:[03],mmc:(un)]s(0)Z0S1*/(barrier)

	$B7BE               .byte $60
+	$B7BF  A9 FF:       lda #$FF			/* A(FF)<37BF>X(??)Y(??)MAP[00:[00],01:[01],02:[02],03:[03],mmc:(un)]s(0)Z0S1*/
	$B7C1  85 51:       sta $51			/* A(FF)<37BF>X(??)Y(??)MAP[00:[00],01:[01],02:[02],03:[03],mmc:(un)]s(0)Z0S1*/
	$B7C3  85 52:       sta $52			/* A(FF)<37BF>X(??)Y(??)MAP[00:[00],01:[01],02:[02],03:[03],mmc:(un)]s(0)Z0S1*/
	$B7C5  D0 17:       bne +++		; $B7DE			/* A(FF)<37BF>X(??)Y(??)MAP[00:[00],01:[01],02:[02],03:[03],mmc:(un)]s(0)Z0S1*/(barrier)

++	$B7C7  A5 52:       lda $52			/* A(??)X(??)Y(??)MAP[00:[00],01:[01],02:[02],03:[03],mmc:(un)]s(0)Z?S?*/
	$B7C9  85 12:       sta $12			/* A(??)X(??)Y(??)MAP[00:[00],01:[01],02:[02],03:[03],mmc:(un)]s(0)Z?S?*/
	$B7CB  A5 55:       lda $55			/* A(??)X(??)Y(??)MAP[00:[00],01:[01],02:[02],03:[03],mmc:(un)]s(0)Z?S?*/
	$B7CD  85 13:       sta $13			/* A(??)X(??)Y(??)MAP[00:[00],01:[01],02:[02],03:[03],mmc:(un)]s(0)Z?S?*/
	$B7CF  A5 51:       lda $51			/* A(??)X(??)Y(??)MAP[00:[00],01:[01],02:[02],03:[03],mmc:(un)]s(0)Z?S?*/
	$B7D1  85 11:       sta $11			/* A(??)X(??)Y(??)MAP[00:[00],01:[01],02:[02],03:[03],mmc:(un)]s(0)Z?S?*/
	$B7D3  20 09 91:    jsr _func_1109			/* A(??)X(??)Y(??)MAP[00:(??),01:(??),02:(??),03:(??),mmc:(un)]s(0)Z?S?*/
	$B7D6  A5 14:       lda $14			/* A(??)X(??)Y(??)MAP[00:[00],01:[01],02:[02],03:[03],mmc:(un)]s(0)Z?S?*/
	$B7D8  85 51:       sta $51			/* A(??)X(??)Y(??)MAP[00:[00],01:[01],02:[02],03:[03],mmc:(un)]s(0)Z?S?*/
	$B7DA  A9 FF:       lda #$FF			/* A(FF)<37DA>X(??)Y(??)MAP[00:[00],01:[01],02:[02],03:[03],mmc:(un)]s(0)Z0S1*/
	$B7DC  85 52:       sta $52			/* A(FF)<37DA>X(??)Y(??)MAP[00:[00],01:[01],02:[02],03:[03],mmc:(un)]s(0)Z0S1*/
+++	$B7DE  A9 BE:       lda #$BE			/* A(??)X(??)Y(??)MAP[00:[00],01:[01],02:[02],03:[03],mmc:(un)]s(0)Z0S1*/
	$B7E0  8D 49 07:    sta $0749			/* A(BE)<37DE>X(??)Y(??)MAP[00:[00],01:[01],02:[02],03:[03],mmc:(un)]s(0)Z0S1*/
++++	$B7E3  A9 01:       lda #$01			/* A(??)X(??)Y(??)MAP[00:[00],01:[01],02:[02],03:[03],mmc:(un)]s(0)Z0S?*/
	$B7E5  8D 4A 07:    sta $074A			/* A(01)<37E3>X(??)Y(??)MAP[00:[00],01:[01],02:[02],03:[03],mmc:(un)]s(0)Z0S0*/
	$B7E8  A5 53:       lda $53			/* A(??)X(??)Y(??)MAP[00:[00],01:[01],02:[02],03:[03],mmc:(un)]s(0)Z?S?*/
	$B7EA  09 C0:       ora #$C0			/* A(??)X(??)Y(??)MAP[00:[00],01:[01],02:[02],03:[03],mmc:(un)]s(0)Z?S?*/
	$B7EC  85 15:       sta $15			/* A(??)X(??)Y(??)MAP[00:[00],01:[01],02:[02],03:[03],mmc:(un)]s(0)Z?S?*/
	$B7EE  A5 4C:       lda $4C			/* A(??)X(??)Y(??)MAP[00:[00],01:[01],02:[02],03:[03],mmc:(un)]s(0)Z?S?*/
	$B7F0  29 0C:       and #$0C			/* A(??)X(??)Y(??)MAP[00:[00],01:[01],02:[02],03:[03],mmc:(un)]s(0)Z?S?*/
	$B7F2  05 15:       ora $15			/* A(??)X(??)Y(??)MAP[00:[00],01:[01],02:[02],03:[03],mmc:(un)]s(0)Z?S?*/
	$B7F4  85 4C:       sta $4C			/* A(??)X(??)Y(??)MAP[00:[00],01:[01],02:[02],03:[03],mmc:(un)]s(0)Z?S?*/
	$B7F6  20 4A 8F:    jsr _func_0F4A			/* A(??)X(??)Y(??)MAP[00:(??),01:(??),02:(??),03:(??),mmc:(un)]s(0)Z?S?*/
	$B7F9  4A:          lsr a			/* A(??)X(??)Y(??)MAP[00:[00],01:[01],02:[02],03:[03],mmc:(un)]s(0)Z?S?*/
	$B7FA  4A:          lsr a			/* A(??)X(??)Y(??)MAP[00:[00],01:[01],02:[02],03:[03],mmc:(un)]s(0)Z?S?*/
	$B7FB  69 A0:       adc #$A0			/* A(??)X(??)Y(??)MAP[00:[00],01:[01],02:[02],03:[03],mmc:(un)]s(0)Z?S?*/
	$B7FD  85 F7:       sta $F7			/* A(??)X(??)Y(??)MAP[00:[00],01:[01],02:[02],03:[03],mmc:(un)]s(0)Z?S?*/
	$B7FF  A9 00:       lda #$00			/* A(00)<37FF>X(??)Y(??)MAP[00:[00],01:[01],02:[02],03:[03],mmc:(un)]s(0)Z1S0*/
	$B801  85 53:       sta $53			/* A(00)<37FF>X(??)Y(??)MAP[00:[00],01:[01],02:[02],03:[03],mmc:(un)]s(0)Z1S0*/
	$B803  85 54:       sta $54			/* A(00)<37FF>X(??)Y(??)MAP[00:[00],01:[01],02:[02],03:[03],mmc:(un)]s(0)Z1S0*/
	$B805  A5 4E:       lda $4E			/* A(??)X(??)Y(??)MAP[00:[00],01:[01],02:[02],03:[03],mmc:(un)]s(0)Z?S?*/
	$B807  85 6D:       sta $6D			/* A(??)X(??)Y(??)MAP[00:[00],01:[01],02:[02],03:[03],mmc:(un)]s(0)Z?S?*/
	$B809  A5 4F:       lda $4F			/* A(??)X(??)Y(??)MAP[00:[00],01:[01],02:[02],03:[03],mmc:(un)]s(0)Z?S?*/
	$B80B  85 6E:       sta $6E			/* A(??)X(??)Y(??)MAP[00:[00],01:[01],02:[02],03:[03],mmc:(un)]s(0)Z?S?*/
	$B80D  20 F1 C0:    jsr _func_40F1			/* A(??)X(??)Y(??)MAP[00:(??),01:(??),02:(??),03:(??),mmc:(un)]s(0)Z?S?*/
	$B810  4C 97 B6:    jmp -		; $B697			/* A(??)X(??)Y(??)MAP[00:[00],01:[01],02:[02],03:[03],mmc:(un)]s(0)Z?S?*/(barrier)
;------------------------------------------
_func_3813
	$B813  A5 4D:       lda $4D			/* A(??)X(??)Y(??)MAP[00:[00],01:[01],02:[02],03:[03],mmc:(un)]s(0)Z?S?*/
	$B815  C9 14:       cmp #$14			/* A(??)X(??)Y(??)MAP[00:[00],01:[01],02:[02],03:[03],mmc:(un)]s(0)Z?S?*/
	$B817  90 3D:       bcc ++		; $B856			/* A(??)X(??)Y(??)MAP[00:[00],01:[01],02:[02],03:[03],mmc:(un)]s(0)Z?S?*/
	$B819  C9 C5:       cmp #$C5			/* A(??)X(??)Y(??)MAP[00:[00],01:[01],02:[02],03:[03],mmc:(un)]s(0)Z?S?*/
	$B81B  B0 39:       bcs ++		; $B856			/* A(??)X(??)Y(??)MAP[00:[00],01:[01],02:[02],03:[03],mmc:(un)]s(0)Z?S?*/
	$B81D  A5 4E:       lda $4E			/* A(??)X(??)Y(??)MAP[00:[00],01:[01],02:[02],03:[03],mmc:(un)]s(0)Z?S?*/
	$B81F  38:          sec 			/* A(??)X(??)Y(??)MAP[00:[00],01:[01],02:[02],03:[03],mmc:(un)]s(0)Z?S?*/
	$B820  E9 70:       sbc #$70			/* A(??)X(??)Y(??)MAP[00:[00],01:[01],02:[02],03:[03],mmc:(un)]s(0)Z?S?*/
	$B822  A5 4F:       lda $4F			/* A(??)X(??)Y(??)MAP[00:[00],01:[01],02:[02],03:[03],mmc:(un)]s(0)Z?S?*/
	$B824  E9 00:       sbc #$00			/* A(??)X(??)Y(??)MAP[00:[00],01:[01],02:[02],03:[03],mmc:(un)]s(0)Z?S?*/
	$B826  B0 0A:       bcs +		; $B832			/* A(??)X(??)Y(??)MAP[00:[00],01:[01],02:[02],03:[03],mmc:(un)]s(0)Z?S?*/
	$B828  A9 80:       lda #$80			/* A(80)<3828>X(??)Y(??)MAP[00:[00],01:[01],02:[02],03:[03],mmc:(un)]s(0)Z0S1*/
	$B82A  05 5F:       ora $5F			/* A(??)X(??)Y(??)MAP[00:[00],01:[01],02:[02],03:[03],mmc:(un)]s(0)Z?S?*/
	$B82C  29 82:       and #$82			/* A(??)X(??)Y(??)MAP[00:[00],01:[01],02:[02],03:[03],mmc:(un)]s(0)Z?S?*/
	$B82E  85 5F:       sta $5F			/* A(??)X(??)Y(??)MAP[00:[00],01:[01],02:[02],03:[03],mmc:(un)]s(0)Z?S?*/
	$B830  38:          sec 			/* A(??)X(??)Y(??)MAP[00:[00],01:[01],02:[02],03:[03],mmc:(un)]s(0)Z?S?*/
	$B831  60:          rts 			/* A(??)X(??)Y(??)MAP[00:[00],01:[01],02:[02],03:[03],mmc:(un)]s(0)Z?S?*/(barrier)

+	$B832  A5 4F:       lda $4F			/* A(??)X(??)Y(??)MAP[00:[00],01:[01],02:[02],03:[03],mmc:(un)]s(0)Z?S?*/
	$B834  D0 0D:       bne +		; $B843			/* A(??)X(??)Y(??)MAP[00:[00],01:[01],02:[02],03:[03],mmc:(un)]s(0)Z?S?*/
	$B836  A5 4E:       lda $4E			/* A(??)X(??)Y(??)MAP[00:[00],01:[01],02:[02],03:[03],mmc:(un)]s(0)Z?S?*/
	$B838  C9 C0:       cmp #$C0			/* A(??)X(??)Y(??)MAP[00:[00],01:[01],02:[02],03:[03],mmc:(un)]s(0)Z?S?*/
	$B83A  B0 07:       bcs +		; $B843			/* A(??)X(??)Y(??)MAP[00:[00],01:[01],02:[02],03:[03],mmc:(un)]s(0)Z?S?*/
	$B83C  A9 FF:       lda #$FF			/* A(FF)<383C>X(??)Y(??)MAP[00:[00],01:[01],02:[02],03:[03],mmc:(un)]s(0)Z0S1*/
	$B83E  85 F7:       sta $F7			/* A(FF)<383C>X(??)Y(??)MAP[00:[00],01:[01],02:[02],03:[03],mmc:(un)]s(0)Z0S1*/
	$B840  20 FC B8:    jsr _func_38FC			/* A(??)X(??)Y(??)MAP[00:(??),01:(??),02:(??),03:(??),mmc:(un)]s(0)Z?S?*/
+	$B843  A5 4E:       lda $4E			/* A(FF)<383C>X(??)Y(??)MAP[00:[00],01:[01],02:[02],03:[03],mmc:(un)]s(0)Z?S?*/
	$B845  38:          sec 			/* A(??)X(??)Y(??)MAP[00:[00],01:[01],02:[02],03:[03],mmc:(un)]s(0)Z?S?*/
	$B846  E9 00:       sbc #$00			/* A(??)X(??)Y(??)MAP[00:[00],01:[01],02:[02],03:[03],mmc:(un)]s(0)Z?S?*/
	$B848  A5 4F:       lda $4F			/* A(??)X(??)Y(??)MAP[00:[00],01:[01],02:[02],03:[03],mmc:(un)]s(0)Z?S?*/
	$B84A  E9 04:       sbc #$04			/* A(??)X(??)Y(??)MAP[00:[00],01:[01],02:[02],03:[03],mmc:(un)]s(0)Z?S?*/
	$B84C  90 23:       bcc +++		; $B871 -> rts			/* A(??)X(??)Y(??)MAP[00:[00],01:[01],02:[02],03:[03],mmc:(un)]s(0)Z?S?*/
	$B84E  A9 FC:       lda #$FC			/* A(FC)<384E>X(??)Y(??)MAP[00:[00],01:[01],02:[02],03:[03],mmc:(un)]s(0)Z0S1*/
	$B850  85 4E:       sta $4E			/* A(FC)<384E>X(??)Y(??)MAP[00:[00],01:[01],02:[02],03:[03],mmc:(un)]s(0)Z0S1*/
	$B852  A9 03:       lda #$03			/* A(03)<3852>X(??)Y(??)MAP[00:[00],01:[01],02:[02],03:[03],mmc:(un)]s(0)Z0S0*/
	$B854  85 4F:       sta $4F			/* A(03)<3852>X(??)Y(??)MAP[00:[00],01:[01],02:[02],03:[03],mmc:(un)]s(0)Z0S0*/
++	$B856  A5 4C:       lda $4C			/* A(03)<3852>X(??)Y(??)MAP[00:[00],01:[01],02:[02],03:[03],mmc:(un)]s(0)Z0S0*/
	$B858  29 03:       and #$03			/* A(??)X(??)Y(??)MAP[00:[00],01:[01],02:[02],03:[03],mmc:(un)]s(0)Z?S?*/
	$B85A  09 10:       ora #$10			/* A(??)X(??)Y(??)MAP[00:[00],01:[01],02:[02],03:[03],mmc:(un)]s(0)Z?S?*/
	$B85C  85 4C:       sta $4C			/* A(??)X(??)Y(??)MAP[00:[00],01:[01],02:[02],03:[03],mmc:(un)]s(0)Z?S?*/
	$B85E  A9 00:       lda #$00			/* A(00)<385E>X(??)Y(??)MAP[00:[00],01:[01],02:[02],03:[03],mmc:(un)]s(0)Z1S0*/
	$B860  85 22:       sta $22			/* A(00)<385E>X(??)Y(??)MAP[00:[00],01:[01],02:[02],03:[03],mmc:(un)]s(0)Z1S0*/
	$B862  A5 5F:       lda $5F			/* A(??)X(??)Y(??)MAP[00:[00],01:[01],02:[02],03:[03],mmc:(un)]s(0)Z?S?*/
	$B864  09 40:       ora #$40			/* A(??)X(??)Y(??)MAP[00:[00],01:[01],02:[02],03:[03],mmc:(un)]s(0)Z?S?*/
	$B866  85 5F:       sta $5F			/* A(??)X(??)Y(??)MAP[00:[00],01:[01],02:[02],03:[03],mmc:(un)]s(0)Z?S?*/
	$B868  A5 4E:       lda $4E			/* A(??)X(??)Y(??)MAP[00:[00],01:[01],02:[02],03:[03],mmc:(un)]s(0)Z?S?*/
	$B86A  85 6D:       sta $6D			/* A(??)X(??)Y(??)MAP[00:[00],01:[01],02:[02],03:[03],mmc:(un)]s(0)Z?S?*/
	$B86C  A5 4F:       lda $4F			/* A(??)X(??)Y(??)MAP[00:[00],01:[01],02:[02],03:[03],mmc:(un)]s(0)Z?S?*/
	$B86E  85 6E:       sta $6E			/* A(??)X(??)Y(??)MAP[00:[00],01:[01],02:[02],03:[03],mmc:(un)]s(0)Z?S?*/
	$B870  38:          sec 			/* A(??)X(??)Y(??)MAP[00:[00],01:[01],02:[02],03:[03],mmc:(un)]s(0)Z?S?*/
+++	$B871  60:          rts 			/* A(??)X(??)Y(??)MAP[00:[00],01:[01],02:[02],03:[03],mmc:(un)]s(0)Z?S?*/(barrier)
;------------------------------------------
_func_3872
	$B872  A5 10:       lda $10			/* A(??)X(??)Y(??)MAP[00:[00],01:[01],02:[02],03:[03],mmc:(un)]s(0)Z?S?*/
	$B874  38:          sec 			/* A(??)X(F8)<4D6>Y(??)MAP[00:[00],01:[01],02:[02],03:[03],mmc:(un)]s(0)Z?S?*/
	$B875  E9 E5:       sbc #$E5			/* A(??)X(F8)<4D6>Y(??)MAP[00:[00],01:[01],02:[02],03:[03],mmc:(un)]s(0)Z?S?*/
	$B877  A5 11:       lda $11			/* A(??)X(F8)<4D6>Y(??)MAP[00:[00],01:[01],02:[02],03:[03],mmc:(un)]s(0)Z?S?*/
	$B879  E9 03:       sbc #$03			/* A(??)X(F8)<4D6>Y(??)MAP[00:[00],01:[01],02:[02],03:[03],mmc:(un)]s(0)Z?S?*/
	$B87B  B0 20:       bcs +		; $B89D			/* A(??)X(F8)<4D6>Y(??)MAP[00:[00],01:[01],02:[02],03:[03],mmc:(un)]s(0)Z?S?*/
	$B87D  A5 10:       lda $10			/* A(??)X(F8)<4D6>Y(??)MAP[00:[00],01:[01],02:[02],03:[03],mmc:(un)]s(0)Z?S?*/
	$B87F  38:          sec 			/* A(??)X(F8)<4D6>Y(??)MAP[00:[00],01:[01],02:[02],03:[03],mmc:(un)]s(0)Z?S?*/
	$B880  E9 C0:       sbc #$C0			/* A(??)X(F8)<4D6>Y(??)MAP[00:[00],01:[01],02:[02],03:[03],mmc:(un)]s(0)Z?S?*/
	$B882  85 10:       sta $10			/* A(??)X(F8)<4D6>Y(??)MAP[00:[00],01:[01],02:[02],03:[03],mmc:(un)]s(0)Z?S?*/
	$B884  A5 11:       lda $11			/* A(??)X(F8)<4D6>Y(??)MAP[00:[00],01:[01],02:[02],03:[03],mmc:(un)]s(0)Z?S?*/
	$B886  E9 00:       sbc #$00			/* A(??)X(F8)<4D6>Y(??)MAP[00:[00],01:[01],02:[02],03:[03],mmc:(un)]s(0)Z?S?*/
	$B888  85 11:       sta $11			/* A(??)X(F8)<4D6>Y(??)MAP[00:[00],01:[01],02:[02],03:[03],mmc:(un)]s(0)Z?S?*/
	$B88A  90 14:       bcc ++		; $B8A0			/* A(??)X(F8)<4D6>Y(??)MAP[00:[00],01:[01],02:[02],03:[03],mmc:(un)]s(0)Z?S?*/
	$B88C  A9 00:       lda #$00			/* A(00)<388C>X(F8)<4D6>Y(??)MAP[00:[00],01:[01],02:[02],03:[03],mmc:(un)]s(0)Z1S0*/
	$B88E  85 13:       sta $13			/* A(00)<388C>X(F8)<4D6>Y(??)MAP[00:[00],01:[01],02:[02],03:[03],mmc:(un)]s(0)Z1S0*/
	$B890  A9 0A:       lda #$0A			/* A(0A)<3890>X(F8)<4D6>Y(??)MAP[00:[00],01:[01],02:[02],03:[03],mmc:(un)]s(0)Z0S0*/
	$B892  85 12:       sta $12			/* A(0A)<3890>X(F8)<4D6>Y(??)MAP[00:[00],01:[01],02:[02],03:[03],mmc:(un)]s(0)Z0S0*/
	$B894  20 09 91:    jsr _func_1109			/* A(??)X(??)Y(??)MAP[00:(??),01:(??),02:(??),03:(??),mmc:(un)]s(0)Z?S?*/
	$B897  A5 14:       lda $14			/* A(??)X(F8)<4D6>Y(??)MAP[00:[00],01:[01],02:[02],03:[03],mmc:(un)]s(0)Z?S?*/
	$B899  18:          clc 			/* A(??)X(F8)<4D6>Y(??)MAP[00:[00],01:[01],02:[02],03:[03],mmc:(un)]s(0)Z?S?*/
	$B89A  69 5F:       adc #$5F			/* A(??)X(F8)<4D6>Y(??)MAP[00:[00],01:[01],02:[02],03:[03],mmc:(un)]s(0)Z?S?*/
	$B89C  60:          rts 			/* A(??)X(F8)<4D6>Y(??)MAP[00:[00],01:[01],02:[02],03:[03],mmc:(un)]s(0)Z?S?*/(barrier)

+	$B89D  A9 AF:       lda #$AF			/* A(AF)<389D>X(F8)<4D6>Y(??)MAP[00:[00],01:[01],02:[02],03:[03],mmc:(un)]s(0)Z0S1*/
	$B89F  60:          rts 			/* A(AF)<389D>X(F8)<4D6>Y(??)MAP[00:[00],01:[01],02:[02],03:[03],mmc:(un)]s(0)Z0S1*/(barrier)

++	$B8A0  A9 5F:       lda #$5F			/* A(5F)<38A0>X(F8)<4D6>Y(??)MAP[00:[00],01:[01],02:[02],03:[03],mmc:(un)]s(0)Z0S0*/
	$B8A2  60:          rts 			/* A(5F)<38A0>X(F8)<4D6>Y(??)MAP[00:[00],01:[01],02:[02],03:[03],mmc:(un)]s(0)Z0S0*/(barrier)
;------------------------------------------
_func_38A3
	$B8A3  A5 4E:       lda $4E			/* A(??)X(F8)<4D6>Y(??)MAP[00:[00],01:[01],02:[02],03:[03],mmc:(un)]s(0)Z?S?*/
	$B8A5  85 10:       sta $10			/* A(??)X(F8)<4D6>Y(??)MAP[00:[00],01:[01],02:[02],03:[03],mmc:(un)]s(0)Z?S?*/
	$B8A7  A5 4F:       lda $4F			/* A(??)X(F8)<4D6>Y(??)MAP[00:[00],01:[01],02:[02],03:[03],mmc:(un)]s(0)Z?S?*/
	$B8A9  85 11:       sta $11			/* A(??)X(F8)<4D6>Y(??)MAP[00:[00],01:[01],02:[02],03:[03],mmc:(un)]s(0)Z?S?*/
	$B8AB  20 72 B8:    jsr _func_3872			/* A(??)X(??)Y(??)MAP[00:(??),01:(??),02:(??),03:(??),mmc:(un)]s(0)Z?S?*/
	$B8AE  38:          sec 			/* A(??)X(F8)<4D6>Y(??)MAP[00:[00],01:[01],02:[02],03:[03],mmc:(un)]s(0)Z?S?*/
	$B8AF  E9 02:       sbc #$02			/* A(??)X(F8)<4D6>Y(??)MAP[00:[00],01:[01],02:[02],03:[03],mmc:(un)]s(0)Z?S?*/
	$B8B1  8D 4C 07:    sta $074C			/* A(??)X(F8)<4D6>Y(??)MAP[00:[00],01:[01],02:[02],03:[03],mmc:(un)]s(0)Z?S?*/
---	$B8B4  60:          rts 			/* A(??)X(??)Y(??)MAP[00:[00],01:[01],02:[02],03:[03],mmc:(un)]s(0)Z?S?*/(barrier)

--	$B8B5  A5 4E:       lda $4E			/* A(??)X(??)Y(??)MAP[00:[00],01:[01],02:[02],03:[03],mmc:(un)]s(0)Z?S?*/
	$B8B7  38:          sec 			/* A(??)X(??)Y(??)MAP[00:[00],01:[01],02:[02],03:[03],mmc:(un)]s(0)Z?S?*/
	$B8B8  E9 8D:       sbc #$8D			/* A(??)X(??)Y(??)MAP[00:[00],01:[01],02:[02],03:[03],mmc:(un)]s(0)Z?S?*/
	$B8BA  A5 4F:       lda $4F			/* A(??)X(??)Y(??)MAP[00:[00],01:[01],02:[02],03:[03],mmc:(un)]s(0)Z?S?*/
	$B8BC  E9 00:       sbc #$00			/* A(??)X(??)Y(??)MAP[00:[00],01:[01],02:[02],03:[03],mmc:(un)]s(0)Z?S?*/
	$B8BE  B0 F4:       bcs ---		; $B8B4 -> rts			/* A(??)X(??)Y(??)MAP[00:[00],01:[01],02:[02],03:[03],mmc:(un)]s(0)Z?S?*/
	$B8C0  A5 4E:       lda $4E			/* A(??)X(??)Y(??)MAP[00:[00],01:[01],02:[02],03:[03],mmc:(un)]s(0)Z?S?*/
	$B8C2  38:          sec 			/* A(??)X(??)Y(??)MAP[00:[00],01:[01],02:[02],03:[03],mmc:(un)]s(0)Z?S?*/
	$B8C3  E9 80:       sbc #$80			/* A(??)X(??)Y(??)MAP[00:[00],01:[01],02:[02],03:[03],mmc:(un)]s(0)Z?S?*/
	$B8C5  A5 4F:       lda $4F			/* A(??)X(??)Y(??)MAP[00:[00],01:[01],02:[02],03:[03],mmc:(un)]s(0)Z?S?*/
	$B8C7  E9 00:       sbc #$00			/* A(??)X(??)Y(??)MAP[00:[00],01:[01],02:[02],03:[03],mmc:(un)]s(0)Z?S?*/
	$B8C9  90 E9:       bcc ---		; $B8B4 -> rts			/* A(??)X(??)Y(??)MAP[00:[00],01:[01],02:[02],03:[03],mmc:(un)]s(0)Z?S?*/
	$B8CB  A5 4D:       lda $4D			/* A(??)X(??)Y(??)MAP[00:[00],01:[01],02:[02],03:[03],mmc:(un)]s(0)Z?S?*/
	$B8CD  C9 53:       cmp #$53			/* A(??)X(??)Y(??)MAP[00:[00],01:[01],02:[02],03:[03],mmc:(un)]s(0)Z?S?*/
	$B8CF  90 E3:       bcc ---		; $B8B4 -> rts			/* A(??)X(??)Y(??)MAP[00:[00],01:[01],02:[02],03:[03],mmc:(un)]s(0)Z?S?*/
	$B8D1  C9 85:       cmp #$85			/* A(??)X(??)Y(??)MAP[00:[00],01:[01],02:[02],03:[03],mmc:(un)]s(0)Z?S?*/
	$B8D3  B0 DF:       bcs ---		; $B8B4 -> rts			/* A(??)X(??)Y(??)MAP[00:[00],01:[01],02:[02],03:[03],mmc:(un)]s(0)Z?S?*/
	$B8D5  A0 03:       ldy #$03			/* A(??)X(??)Y(03)<38D5>MAP[00:[00],01:[01],02:[02],03:[03],mmc:(un)]s(0)Z0S0*/
	$B8D7  84 6F:       sty $6F			/* A(??)X(??)Y(03)<38D5>MAP[00:[00],01:[01],02:[02],03:[03],mmc:(un)]s(0)Z0S0*/
	$B8D9  A5 5F:       lda $5F			/* A(??)X(??)Y(03)<38D5>MAP[00:[00],01:[01],02:[02],03:[03],mmc:(un)]s(0)Z?S?*/
	$B8DB  09 02:       ora #$02			/* A(??)X(??)Y(03)<38D5>MAP[00:[00],01:[01],02:[02],03:[03],mmc:(un)]s(0)Z?S?*/
	$B8DD  85 5F:       sta $5F			/* A(??)X(??)Y(03)<38D5>MAP[00:[00],01:[01],02:[02],03:[03],mmc:(un)]s(0)Z?S?*/
	$B8DF  A5 70:       lda $70			/* A(??)X(??)Y(03)<38D5>MAP[00:[00],01:[01],02:[02],03:[03],mmc:(un)]s(0)Z?S?*/
	$B8E1  10 08:       bpl +		; $B8EB			/* A(??)X(??)Y(03)<38D5>MAP[00:[00],01:[01],02:[02],03:[03],mmc:(un)]s(0)Z?S?*/
	$B8E3  A5 5F:       lda $5F			/* A(??)X(??)Y(03)<38D5>MAP[00:[00],01:[01],02:[02],03:[03],mmc:(un)]s(0)Z?S?*/
	$B8E5  29 FD:       and #$FD			/* A(??)X(??)Y(03)<38D5>MAP[00:[00],01:[01],02:[02],03:[03],mmc:(un)]s(0)Z?S?*/
	$B8E7  85 5F:       sta $5F			/* A(??)X(??)Y(03)<38D5>MAP[00:[00],01:[01],02:[02],03:[03],mmc:(un)]s(0)Z?S?*/
	$B8E9  A0 01:       ldy #$01			/* A(??)X(??)Y(01)<38E9>MAP[00:[00],01:[01],02:[02],03:[03],mmc:(un)]s(0)Z0S0*/
+	$B8EB  98:          tya 			/* A(??)X(??)Y(??)MAP[00:[00],01:[01],02:[02],03:[03],mmc:(un)]s(0)Z0S0*/
	$B8EC  20 A1 88:    jsr _func_08A1			/* A(??)X(??)Y(??)MAP[00:(??),01:(??),02:(??),03:(??),mmc:(un)]s(0)Z?S?*/
	$B8EF  A9 00:       lda #$00			/* A(00)<38EF>X(??)Y(03)<38D5>MAP[00:[00],01:[01],02:[02],03:[03],mmc:(un)]s(0)Z1S0*/
	$B8F1  85 22:       sta $22			/* A(00)<38EF>X(??)Y(03)<38D5>MAP[00:[00],01:[01],02:[02],03:[03],mmc:(un)]s(0)Z1S0*/
	$B8F3  4C 61 C1:    jmp _func_4161			/* A(00)<38EF>X(??)Y(03)<38D5>MAP[00:[00],01:[01],02:[02],03:[03],mmc:(un)]s(0)Z1S0*/(barrier)

-	$B8F6  24 4C:       bit $4C			/* A(00)<38EF>X(??)Y(03)<38D5>MAP[00:[00],01:[01],02:[02],03:[03],mmc:(un)]s(0)Z1S0*/
	$B8F8  70 BB:       bvs --		; $B8B5			/* A(??)X(??)Y(??)MAP[00:[00],01:[01],02:[02],03:[03],mmc:(un)]s(0)Z?S?*/
	$B8FA  50 10:       bvc +		; $B90C			/* A(??)X(??)Y(??)MAP[00:[00],01:[01],02:[02],03:[03],mmc:(un)]s(0)Z?S?*/
_func_38FC
	$B8FC  A5 6F:       lda $6F			/* A(??)X(??)Y(??)MAP[00:[00],01:[01],02:[02],03:[03],mmc:(un)]s(0)Z?S?*/
	$B8FE  D0 B4:       bne ---		; $B8B4 -> rts			/* A(??)X(??)Y(??)MAP[00:[00],01:[01],02:[02],03:[03],mmc:(un)]s(0)Z?S?*/
	$B900  A5 70:       lda $70			/* A(??)X(??)Y(??)MAP[00:[00],01:[01],02:[02],03:[03],mmc:(un)]s(0)Z?S?*/
	$B902  30 F2:       bmi -		; $B8F6			/* A(??)X(??)Y(??)MAP[00:[00],01:[01],02:[02],03:[03],mmc:(un)]s(0)Z?S?*/
	$B904  A5 35:       lda $35			/* A(??)X(??)Y(??)MAP[00:[00],01:[01],02:[02],03:[03],mmc:(un)]s(0)Z?S?*/
	$B906  30 EE:       bmi -		; $B8F6			/* A(??)X(??)Y(??)MAP[00:[00],01:[01],02:[02],03:[03],mmc:(un)]s(0)Z?S?*/
	$B908  24 4C:       bit $4C			/* A(??)X(??)Y(??)MAP[00:[00],01:[01],02:[02],03:[03],mmc:(un)]s(0)Z?S?*/
	$B90A  70 A8:       bvs ---		; $B8B4 -> rts			/* A(??)X(??)Y(??)MAP[00:[00],01:[01],02:[02],03:[03],mmc:(un)]s(0)Z?S?*/
+	$B90C  A2 00:       ldx #$00			/* A(??)X(00)<390C>Y(??)MAP[00:[00],01:[01],02:[02],03:[03],mmc:(un)]s(0)Z?S?*/
-	$B90E  BD 00 03:    lda $0300,x			/* A(??)X(00)<390C>Y(??)MAP[00:[00],01:[01],02:[02],03:[03],mmc:(un)]s(0)Z?S?*/
	$B911  C9 81:       cmp #$81			/* A(??)X(00)<390C>Y(??)MAP[00:[00],01:[01],02:[02],03:[03],mmc:(un)]s(0)Z?S?*/
	$B913  F0 9F:       beq ---		; $B8B4 -> rts			/* A(??)X(00)<390C>Y(??)MAP[00:[00],01:[01],02:[02],03:[03],mmc:(un)]s(0)Z?S?*/
	$B915  C9 01:       cmp #$01			/* A(??)X(00)<390C>Y(??)MAP[00:[00],01:[01],02:[02],03:[03],mmc:(un)]s(0)Z?S?*/
	$B917  D0 10:       bne +		; $B929			/* A(??)X(00)<390C>Y(??)MAP[00:[00],01:[01],02:[02],03:[03],mmc:(un)]s(0)Z?S?*/
	$B919  BD 04 03:    lda $0304,x			/* A(??)X(00)<390C>Y(??)MAP[00:[00],01:[01],02:[02],03:[03],mmc:(un)]s(0)Z?S?*/
	$B91C  85 10:       sta $10			/* A(??)X(00)<390C>Y(??)MAP[00:[00],01:[01],02:[02],03:[03],mmc:(un)]s(0)Z?S?*/
	$B91E  A9 48:       lda #$48			/* A(48)<391E>X(00)<390C>Y(??)MAP[00:[00],01:[01],02:[02],03:[03],mmc:(un)]s(0)Z0S0*/
	$B920  85 11:       sta $11			/* A(48)<391E>X(00)<390C>Y(??)MAP[00:[00],01:[01],02:[02],03:[03],mmc:(un)]s(0)Z0S0*/
	$B922  A9 0E:       lda #$0E			/* A(0E)<3922>X(00)<390C>Y(??)MAP[00:[00],01:[01],02:[02],03:[03],mmc:(un)]s(0)Z0S0*/
	$B924  9D 00 03:    sta $0300,x			/* A(0E)<3922>X(00)<390C>Y(??)MAP[00:[00],01:[01],02:[02],03:[03],mmc:(un)]s(0)Z0S0*/
	$B927  D0 05:       bne ++		; $B92E			/* A(0E)<3922>X(00)<390C>Y(??)MAP[00:[00],01:[01],02:[02],03:[03],mmc:(un)]s(0)Z0S0*/(barrier)

+	$B929  09 80:       ora #$80			/* A(0E)<3922>X(00)<390C>Y(??)MAP[00:[00],01:[01],02:[02],03:[03],mmc:(un)]s(0)Z0S0*/
	$B92B  9D 00 03:    sta $0300,x			/* A(??)X(00)<390C>Y(??)MAP[00:[00],01:[01],02:[02],03:[03],mmc:(un)]s(0)Z?S?*/
++	$B92E  8A:          txa 			/* A(??)X(00)<390C>Y(??)MAP[00:[00],01:[01],02:[02],03:[03],mmc:(un)]s(0)Z?S0*/
	$B92F  18:          clc 			/* A(00)<392E>X(00)<390C>Y(??)MAP[00:[00],01:[01],02:[02],03:[03],mmc:(un)]s(0)Z1S0*/
	$B930  69 08:       adc #$08			/* A(??)X(00)<390C>Y(??)MAP[00:[00],01:[01],02:[02],03:[03],mmc:(un)]s(0)Z?S?*/
	$B932  AA:          tax 			/* A(??)X(??)Y(??)MAP[00:[00],01:[01],02:[02],03:[03],mmc:(un)]s(0)Z?S?*/
	$B933  E0 90:       cpx #$90			/* A(??)X(??)Y(??)MAP[00:[00],01:[01],02:[02],03:[03],mmc:(un)]s(0)Z?S?*/
	$B935  90 D7:       bcc -		; $B90E			/* A(??)X(??)Y(??)MAP[00:[00],01:[01],02:[02],03:[03],mmc:(un)]s(0)Z?S?*/
	$B937  20 61 C1:    jsr _func_4161			/* A(??)X(??)Y(??)MAP[00:(??),01:(??),02:(??),03:(??),mmc:(un)]s(0)Z?S?*/
	$B93A  A0 06:       ldy #$06			/* A(??)X(??)Y(06)<393A>MAP[00:[00],01:[01],02:[02],03:[03],mmc:(un)]s(0)Z0S0*/
	$B93C  84 6F:       sty $6F			/* A(??)X(??)Y(06)<393A>MAP[00:[00],01:[01],02:[02],03:[03],mmc:(un)]s(0)Z0S0*/
	$B93E  A5 70:       lda $70			/* A(??)X(??)Y(06)<393A>MAP[00:[00],01:[01],02:[02],03:[03],mmc:(un)]s(0)Z?S?*/
	$B940  10 02:       bpl +		; $B944			/* A(??)X(??)Y(06)<393A>MAP[00:[00],01:[01],02:[02],03:[03],mmc:(un)]s(0)Z?S?*/
	$B942  A0 00:       ldy #$00			/* A(??)X(??)Y(00)<3942>MAP[00:[00],01:[01],02:[02],03:[03],mmc:(un)]s(0)Z1S0*/
+	$B944  98:          tya 			/* A(??)X(??)Y(??)MAP[00:[00],01:[01],02:[02],03:[03],mmc:(un)]s(0)Z?S0*/
	$B945  20 A1 88:    jsr _func_08A1			/* A(??)X(??)Y(??)MAP[00:(??),01:(??),02:(??),03:(??),mmc:(un)]s(0)Z?S?*/
	$B948  A9 00:       lda #$00			/* A(00)<3948>X(??)Y(06)<393A>MAP[00:[00],01:[01],02:[02],03:[03],mmc:(un)]s(0)Z1S0*/
	$B94A  85 22:       sta $22			/* A(00)<3948>X(??)Y(06)<393A>MAP[00:[00],01:[01],02:[02],03:[03],mmc:(un)]s(0)Z1S0*/
	$B94C  60:          rts 			/* A(00)<3948>X(??)Y(06)<393A>MAP[00:[00],01:[01],02:[02],03:[03],mmc:(un)]s(0)Z1S0*/(barrier)

	$B94D               .byte $F2,$77,$77,$77,$77,$77,$77,$77,$77,$77,$77,$77,$2F,$FF,$FF,$FF
	$B95D               .byte $F2,$77,$77,$77,$77,$77,$77,$77,$77,$77,$77,$77,$2F,$FF,$FF,$FF
	$B96D               .byte $F2,$76,$66,$66,$66,$66,$66,$66,$66,$66,$66,$67,$2F,$FF,$FF,$FF
	$B97D               .byte $F2,$76,$FF,$FF,$6F,$FF,$FF,$FF,$F6,$FF,$FF,$67,$2F,$FF,$FF,$FF
	$B98D               .byte $F2,$76,$55,$55,$55,$55,$55,$55,$55,$55,$55,$67,$2F,$FF,$FF,$FF
	$B99D               .byte $F2,$76,$FF,$FF,$5F,$FF,$FF,$FF,$F5,$FF,$FF,$67,$2F,$FF,$FF,$FF
	$B9AD               .byte $F2,$66,$66,$66,$66,$66,$66,$66,$66,$66,$66,$66,$2F,$FF,$FF,$FF
	$B9BD               .byte $F2,$6F,$FF,$FF,$6F,$FF,$FF,$FF,$F6,$FF,$FF,$F6,$2F,$FF,$FF,$FF
	$B9CD               .byte $F2,$55,$55,$55,$55,$55,$55,$55,$55,$55,$55,$55,$2F,$FF,$FF,$FF
	$B9DD               .byte $F2,$5F,$FF,$FF,$5F,$FF,$FF,$FF,$F5,$FF,$FF,$F5,$2F,$FF,$FF,$FF
	$B9ED               .byte $F2,$5F,$FF,$FF,$5F,$FF,$FF,$FF,$F5,$FF,$FF,$F5,$2F,$FF,$FF,$FF
	$B9FD               .byte $F2,$44,$44,$45,$55,$55,$55,$55,$55,$54,$44,$44,$2F,$FF,$FF,$FF
	$BA0D               .byte $F1,$2F,$FF,$4F,$FF,$FF,$FF,$FF,$FF,$F4,$FF,$F2,$1F,$FF,$FF,$FF
	$BA1D               .byte $F1,$2F,$FF,$44,$44,$44,$44,$44,$44,$44,$FF,$F2,$1F,$FF,$FF,$FF
	$BA2D               .byte $F1,$2F,$FF,$4F,$FF,$FF,$FF,$FF,$FF,$F4,$FF,$F2,$1F,$FF,$FF,$FF
	$BA3D               .byte $F0,$2F,$FF,$33,$33,$33,$33,$33,$33,$33,$FF,$F2,$0F,$FF,$FF,$FF
	$BA4D               .byte $F0,$2F,$FF,$22,$22,$22,$22,$22,$22,$22,$FF,$F2,$0F,$FF,$FF,$FF
	$BA5D               .byte $F0,$2F,$FF,$22,$2F,$11,$11,$11,$F2,$22,$FF,$F2,$0F,$FF,$FF,$FF
	$BA6D               .byte $F0,$22,$22,$22,$F1,$1F,$FF,$F1,$1F,$22,$22,$22,$0F,$FF,$FF,$FF
	$BA7D               .byte $F0,$22,$22,$22,$F1,$FF,$FF,$FF,$1F,$22,$22,$22,$0F,$FF,$FF,$FF
	$BA8D               .byte $F0,$2F,$FF,$F2,$F1,$FF,$FF,$FF,$1F,$2F,$FF,$F2,$0F,$FF,$FF,$FF
	$BA9D               .byte $F0,$22,$FF,$F2,$F1,$FF,$FF,$FF,$1F,$2F,$FF,$22,$0F,$FF,$FF,$FF
	$BAAD               .byte $F0,$12,$FF,$F2,$F1,$FF,$FF,$FF,$1F,$2F,$FF,$21,$0F,$FF,$FF,$FF
	$BABD               .byte $F0,$12,$FF,$F2,$F1,$1F,$FF,$F1,$1F,$2F,$FF,$21,$0F,$FF,$FF,$FF
	$BACD               .byte $F0,$12,$22,$22,$11,$11,$11,$11,$11,$22,$22,$21,$0F,$FF,$FF,$FF
	$BADD               .byte $F0,$1F,$FF,$FF,$F1,$11,$11,$11,$1F,$FF,$FF,$F1,$0F,$FF,$FF,$FF
	$BAED               .byte $F0,$11,$11,$11,$11,$11,$11,$11,$11,$11,$11,$11,$0F,$FF,$FF,$FF
	$BAFD               .byte $F0,$00,$00,$00,$00,$00,$00,$00,$00,$00,$00,$00,$0F,$FF,$FF,$FF
	$BB0D               .byte $0A,$AA,$AA,$AA,$A2,$22,$22,$22,$26,$66,$66,$66,$60,$00,$00,$00
	$BB1D               .byte $0A,$00,$00,$0A,$02,$00,$00,$00,$20,$60,$00,$00,$60,$00,$00,$00
	$BB2D               .byte $0A,$AA,$AA,$AA,$A2,$22,$22,$22,$26,$66,$66,$66,$60,$00,$00,$00
	$BB3D               .byte $08,$00,$00,$0A,$02,$00,$00,$00,$20,$60,$00,$00,$40,$00,$00,$00
	$BB4D               .byte $08,$00,$00,$0A,$02,$00,$00,$00,$20,$60,$00,$00,$40,$00,$00,$00
	$BB5D               .byte $08,$88,$88,$8A,$A2,$22,$22,$22,$26,$64,$44,$44,$40,$00,$00,$00
	$BB6D               .byte $08,$00,$00,$0A,$02,$00,$00,$00,$20,$60,$00,$00,$40,$00,$00,$00
	$BB7D               .byte $08,$00,$00,$0A,$A2,$22,$22,$22,$26,$60,$00,$00,$40,$00,$00,$00
	$BB8D               .byte $08,$00,$00,$0A,$02,$00,$00,$00,$20,$60,$00,$00,$40,$00,$00,$00
	$BB9D               .byte $08,$00,$00,$0A,$A2,$22,$22,$22,$26,$60,$00,$00,$40,$00,$00,$00
	$BBAD               .byte $08,$00,$00,$0A,$02,$00,$00,$00,$20,$60,$00,$00,$40,$00,$00,$00
	$BBBD               .byte $08,$00,$00,$0A,$22,$22,$22,$22,$22,$60,$00,$00,$40,$00,$00,$00
	$BBCD               .byte $08,$00,$00,$0A,$00,$20,$00,$02,$00,$60,$00,$00,$40,$00,$00,$00
	$BBDD               .byte $08,$00,$00,$0A,$20,$66,$6A,$AA,$02,$60,$00,$00,$40,$00,$00,$00
	$BBED               .byte $08,$00,$00,$0A,$00,$60,$00,$0A,$00,$60,$00,$00,$40,$00,$00,$00
	$BBFD               .byte $08,$80,$00,$0A,$20,$66,$6A,$AA,$02,$60,$00,$04,$40,$00,$00,$00
	$BC0D               .byte $08,$88,$00,$0A,$00,$60,$00,$0A,$00,$60,$00,$44,$40,$00,$00,$00
	$BC1D               .byte $08,$08,$80,$0A,$20,$66,$6A,$AA,$02,$60,$04,$40,$40,$00,$00,$00
	$BC2D               .byte $08,$00,$88,$0A,$00,$66,$6A,$AA,$00,$60,$44,$00,$40,$00,$00,$00
	$BC3D               .byte $09,$00,$08,$8A,$26,$66,$00,$AA,$A2,$64,$40,$00,$50,$00,$00,$00
	$BC4D               .byte $09,$00,$00,$8A,$20,$44,$48,$88,$02,$64,$00,$00,$50,$00,$00,$00
	$BC5D               .byte $09,$00,$00,$08,$88,$00,$00,$00,$44,$40,$00,$00,$50,$00,$00,$00
	$BC6D               .byte $09,$00,$00,$09,$00,$00,$00,$00,$00,$50,$00,$00,$50,$00,$00,$00
	$BC7D               .byte $09,$00,$00,$01,$10,$00,$10,$00,$01,$10,$00,$00,$50,$00,$00,$00
	$BC8D               .byte $09,$00,$00,$00,$15,$00,$01,$00,$91,$00,$00,$00,$50,$00,$00,$00
	$BC9D               .byte $09,$00,$00,$00,$15,$59,$11,$59,$91,$00,$00,$00,$50,$00,$00,$00
	$BCAD               .byte $09,$00,$00,$00,$11,$00,$00,$00,$11,$00,$00,$00,$50,$00,$00,$00
	$BCBD               .byte $09,$99,$99,$99,$11,$11,$11,$11,$11,$55,$55,$55,$50,$00,$00,$00
	$BCCD               .byte $0A,$AA,$A2,$22,$22,$22,$22,$22,$22,$22,$26,$66,$60,$00,$00,$00
	$BCDD               .byte $0A,$00,$00,$00,$20,$00,$00,$00,$02,$00,$00,$00,$60,$00,$00,$00
	$BCED               .byte $0A,$00,$00,$00,$20,$00,$00,$00,$02,$00,$00,$00,$60,$00,$00,$00
	$BCFD               .byte $0A,$00,$00,$00,$20,$00,$00,$00,$02,$00,$00,$00,$60,$00,$00,$00
	$BD0D               .byte $0A,$00,$00,$00,$20,$00,$00,$00,$02,$00,$00,$00,$60,$00,$00,$00
	$BD1D               .byte $0A,$00,$00,$00,$20,$00,$00,$00,$02,$00,$00,$00,$60,$00,$00,$00
	$BD2D               .byte $0A,$AA,$AA,$AA,$22,$22,$22,$22,$22,$66,$66,$66,$60,$00,$00,$00
	$BD3D               .byte $0A,$00,$00,$0A,$00,$00,$00,$00,$00,$60,$00,$00,$60,$00,$00,$00
	$BD4D               .byte $08,$00,$00,$0A,$00,$00,$00,$00,$00,$60,$00,$00,$40,$00,$00,$00
	$BD5D               .byte $08,$00,$00,$0A,$00,$00,$00,$00,$00,$60,$00,$00,$40,$00,$00,$00
	$BD6D               .byte $08,$00,$00,$0A,$00,$00,$00,$00,$00,$60,$00,$00,$40,$00,$00,$00
	$BD7D               .byte $08,$AA,$AA,$AA,$00,$00,$00,$00,$00,$66,$66,$66,$40,$00,$00,$00
	$BD8D               .byte $08,$00,$00,$0A,$AA,$A2,$22,$26,$66,$60,$00,$00,$40,$00,$00,$00
	$BD9D               .byte $08,$00,$00,$0A,$00,$00,$00,$00,$00,$60,$00,$00,$40,$00,$00,$00
	$BDAD               .byte $08,$00,$00,$0A,$00,$00,$00,$00,$00,$60,$00,$00,$40,$00,$00,$00
	$BDBD               .byte $09,$00,$00,$AA,$00,$00,$00,$00,$00,$66,$00,$00,$50,$00,$00,$00
	$BDCD               .byte $09,$00,$00,$AA,$AA,$A0,$00,$06,$66,$66,$00,$00,$50,$00,$00,$00
	$BDDD               .byte $09,$00,$00,$AA,$00,$AA,$22,$66,$00,$66,$00,$00,$50,$00,$00,$00
	$BDED               .byte $09,$22,$2A,$A8,$00,$A0,$00,$06,$00,$46,$46,$22,$50,$00,$00,$00
	$BDFD               .byte $09,$AA,$AA,$88,$00,$80,$00,$04,$00,$44,$66,$66,$50,$00,$00,$00
	$BE0D               .byte $09,$00,$00,$08,$00,$80,$00,$04,$00,$40,$00,$00,$50,$00,$00,$00
	$BE1D               .byte $09,$00,$00,$08,$00,$80,$00,$04,$00,$40,$00,$00,$50,$00,$00,$00
	$BE2D               .byte $09,$90,$00,$08,$00,$90,$00,$05,$00,$40,$00,$05,$50,$00,$00,$00
	$BE3D               .byte $09,$99,$00,$08,$00,$99,$00,$55,$00,$40,$00,$55,$50,$00,$00,$00
	$BE4D               .byte $09,$09,$88,$99,$11,$09,$11,$50,$11,$55,$44,$50,$50,$00,$00,$00
	$BE5D               .byte $09,$00,$00,$00,$00,$11,$11,$11,$00,$00,$00,$00,$50,$00,$00,$00
	$BE6D               .byte $09,$00,$00,$00,$00,$00,$00,$00,$00,$00,$00,$00,$50,$00,$00,$00
	$BE7D               .byte $09,$99,$99,$99,$11,$11,$11,$11,$11,$55,$55,$55,$50,$00,$00,$00
_func_3E8D
	$BE8D  A9 00:       lda #$00			/* A(??)X(??)Y(??)MAP[00:[00],01:[01],02:[02],03:[03],mmc:(un)]s(0)Z?S?*/
	$BE8F  8D 15 40:    sta $4015			/* A(00)<3E8D>X(??)Y(??)MAP[00:[00],01:[01],02:[02],03:[03],mmc:(un)]s(0)Z1S0*/
	$BE92  85 E8:       sta $E8			/* A(00)<3E8D>X(??)Y(??)MAP[00:[00],01:[01],02:[02],03:[03],mmc:(un)]s(0)Z1S0*/
	$BE94  A9 FF:       lda #$FF			/* A(FF)<3E94>X(??)Y(??)MAP[00:[00],01:[01],02:[02],03:[03],mmc:(un)]s(0)Z0S1*/
	$BE96  85 D3:       sta $D3			/* A(FF)<3E94>X(??)Y(??)MAP[00:[00],01:[01],02:[02],03:[03],mmc:(un)]s(0)Z0S1*/
	$BE98  85 D4:       sta $D4			/* A(FF)<3E94>X(??)Y(??)MAP[00:[00],01:[01],02:[02],03:[03],mmc:(un)]s(0)Z0S1*/
	$BE9A  85 D5:       sta $D5			/* A(FF)<3E94>X(??)Y(??)MAP[00:[00],01:[01],02:[02],03:[03],mmc:(un)]s(0)Z0S1*/
	$BE9C  85 D6:       sta $D6			/* A(FF)<3E94>X(??)Y(??)MAP[00:[00],01:[01],02:[02],03:[03],mmc:(un)]s(0)Z0S1*/
	$BE9E  60:          rts 			/* A(FF)<3E94>X(??)Y(??)MAP[00:[00],01:[01],02:[02],03:[03],mmc:(un)]s(0)Z0S1*/(barrier)

	$BE9F               .byte $A5,$31,$D0,$FB
_func_3EA3
	$BEA3  A2 00:       ldx #$00			/* A(??)X(00)<3EA3>Y(??)MAP[00:[00],01:[01],02:[02],03:[03],mmc:(un)]s(0)Z1S0*/
	$BEA5  20 B4 BE:    jsr _func_3EB4			/* A(??)X(??)Y(??)MAP[00:(??),01:(??),02:(??),03:(??),mmc:(un)]s(0)Z?S?*/
	$BEA8  A2 01:       ldx #$01			/* A(??)X(01)<3EA8>Y(??)MAP[00:[00],01:[01],02:[02],03:[03],mmc:(un)]s(0)Z0S0*/
	$BEAA  20 B4 BE:    jsr _func_3EB4			/* A(??)X(??)Y(??)MAP[00:(??),01:(??),02:(??),03:(??),mmc:(un)]s(0)Z?S?*/
	$BEAD  A2 02:       ldx #$02			/* A(??)X(02)<3EAD>Y(??)MAP[00:[00],01:[01],02:[02],03:[03],mmc:(un)]s(0)Z0S0*/
	$BEAF  20 B4 BE:    jsr _func_3EB4			/* A(??)X(??)Y(??)MAP[00:(??),01:(??),02:(??),03:(??),mmc:(un)]s(0)Z?S?*/
	$BEB2  A2 03:       ldx #$03			/* A(??)X(03)<3EB2>Y(??)MAP[00:[00],01:[01],02:[02],03:[03],mmc:(un)]s(0)Z0S0*/
_func_3EB4
	$BEB4  8A:          txa 			/* A(??)X(??)Y(??)MAP[00:[00],01:[01],02:[02],03:[03],mmc:(un)]s(0)Z0S0*/
	$BEB5  0A:          asl a			/* A(??)X(00)<3EA3>Y(??)MAP[00:[00],01:[01],02:[02],03:[03],mmc:(un)]s(0)Z?S?*/
	$BEB6  0A:          asl a			/* A(??)X(00)<3EA3>Y(??)MAP[00:[00],01:[01],02:[02],03:[03],mmc:(un)]s(0)Z?S?*/
	$BEB7  85 E7:       sta $E7			/* A(??)X(00)<3EA3>Y(??)MAP[00:[00],01:[01],02:[02],03:[03],mmc:(un)]s(0)Z?S?*/
	$BEB9  B5 D3:       lda $D3,x			/* A(??)X(00)<3EA3>Y(??)MAP[00:[00],01:[01],02:[02],03:[03],mmc:(un)]s(0)Z?S?*/
	$BEBB  F0 23:       beq +++		; $BEE0			/* A(??)X(00)<3EA3>Y(??)MAP[00:[00],01:[01],02:[02],03:[03],mmc:(un)]s(0)Z?S?*/
	$BEBD  C9 FF:       cmp #$FF			/* A(??)X(00)<3EA3>Y(??)MAP[00:[00],01:[01],02:[02],03:[03],mmc:(un)]s(0)Z?S?*/
	$BEBF  F0 17:       beq +		; $BED8 -> rts			/* A(??)X(00)<3EA3>Y(??)MAP[00:[00],01:[01],02:[02],03:[03],mmc:(un)]s(0)Z?S?*/
	$BEC1  D6 CB:       dec $CB,x			/* A(??)X(00)<3EA3>Y(??)MAP[00:[00],01:[01],02:[02],03:[03],mmc:(un)]s(0)Z?S?*/
	$BEC3  D0 13:       bne +		; $BED8 -> rts			/* A(??)X(00)<3EA3>Y(??)MAP[00:[00],01:[01],02:[02],03:[03],mmc:(un)]s(0)Z?S?*/
-	$BEC5  20 19 BF:    jsr _func_3F19			/* A(??)X(00)<3EA3>Y(??)MAP[00:[00],01:[01],02:[02],03:[03],mmc:(un)]s(0)Z?S?*/
	$BEC8  A0 00:       ldy #$00			/* A(FF)<3F12>X(00)<3EA3>Y(00)<3EC8>MAP[00:[00],01:[01],02:[02],03:[03],mmc:(un)]s(0)Z1S0*/
	$BECA  B1 14:       lda ($14),y			/* A(??)X(00)<3EA3>Y(00)<3EC8>MAP[00:[00],01:[01],02:[02],03:[03],mmc:(un)]s(0)Z?S?*/
	$BECC  20 16 C0:    jsr _func_4016			/* A(??)X(??)Y(??)MAP[00:(??),01:(??),02:(??),03:(??),mmc:(un)]s(0)Z?S?*/
	$BECF  C9 FF:       cmp #$FF			/* A(??)X(00)<3EA3>Y(00)<3EC8>MAP[00:[00],01:[01],02:[02],03:[03],mmc:(un)]s(0)Z?S?*/
	$BED1  F0 06:       beq ++		; $BED9			/* A(??)X(00)<3EA3>Y(00)<3EC8>MAP[00:[00],01:[01],02:[02],03:[03],mmc:(un)]s(0)Z?S?*/
	$BED3  20 47 BF:    jsr _func_3F47			/* A(??)X(??)Y(??)MAP[00:(??),01:(??),02:(??),03:(??),mmc:(un)]s(0)Z?S?*/
	$BED6  F6 D3:       inc $D3,x			/* A(??)X(00)<3EA3>Y(00)<3EC8>MAP[00:[00],01:[01],02:[02],03:[03],mmc:(un)]s(0)Z?S?*/
+	$BED8  60:          rts 			/* A(??)X(00)<3EA3>Y(00)<3EC8>MAP[00:[00],01:[01],02:[02],03:[03],mmc:(un)]s(0)Z?S?*/(barrier)

++	$BED9  A9 FF:       lda #$FF			/* A(FF)<3ED9>X(00)<3EA3>Y(00)<3EC8>MAP[00:[00],01:[01],02:[02],03:[03],mmc:(un)]s(0)Z0S1*/
	$BEDB  95 D3:       sta $D3,x			/* A(FF)<3ED9>X(00)<3EA3>Y(00)<3EC8>MAP[00:[00],01:[01],02:[02],03:[03],mmc:(un)]s(0)Z0S1*/
	$BEDD  4C 06 C0:    jmp _func_4006			/* A(FF)<3ED9>X(00)<3EA3>Y(00)<3EC8>MAP[00:[00],01:[01],02:[02],03:[03],mmc:(un)]s(0)Z0S1*/(barrier)

+++	$BEE0  20 F7 BF:    jsr _func_3FF7			/* A(FF)<3ED9>X(00)<3EA3>Y(00)<3EC8>MAP[00:[00],01:[01],02:[02],03:[03],mmc:(un)]s(0)Z0S1*/
	$BEE3  B5 D7:       lda $D7,x			/* A(??)X(00)<3EA3>Y(??)MAP[00:[00],01:[01],02:[02],03:[03],mmc:(un)]s(0)Z?S?*/
	$BEE5  85 14:       sta $14			/* A(??)X(00)<3EA3>Y(??)MAP[00:[00],01:[01],02:[02],03:[03],mmc:(un)]s(0)Z?S?*/
	$BEE7  B5 DB:       lda $DB,x			/* A(??)X(00)<3EA3>Y(??)MAP[00:[00],01:[01],02:[02],03:[03],mmc:(un)]s(0)Z?S?*/
	$BEE9  85 15:       sta $15			/* A(??)X(00)<3EA3>Y(??)MAP[00:[00],01:[01],02:[02],03:[03],mmc:(un)]s(0)Z?S?*/
	$BEEB  A0 00:       ldy #$00			/* A(??)X(00)<3EA3>Y(00)<3EEB>MAP[00:[00],01:[01],02:[02],03:[03],mmc:(un)]s(0)Z1S0*/
	$BEED  B1 14:       lda ($14),y			/* A(??)X(00)<3EA3>Y(00)<3EEB>MAP[00:[00],01:[01],02:[02],03:[03],mmc:(un)]s(0)Z?S?*/
	$BEEF  95 CF:       sta $CF,x			/* A(??)X(00)<3EA3>Y(00)<3EEB>MAP[00:[00],01:[01],02:[02],03:[03],mmc:(un)]s(0)Z?S?*/
	$BEF1  29 30:       and #$30			/* A(??)X(00)<3EA3>Y(00)<3EEB>MAP[00:[00],01:[01],02:[02],03:[03],mmc:(un)]s(0)Z?S?*/
	$BEF3  95 C7:       sta $C7,x			/* A(??)X(00)<3EA3>Y(00)<3EEB>MAP[00:[00],01:[01],02:[02],03:[03],mmc:(un)]s(0)Z?S?*/
	$BEF5  C8:          iny 			/* A(??)X(00)<3EA3>Y(??)MAP[00:[00],01:[01],02:[02],03:[03],mmc:(un)]s(0)Z?S?*/
	$BEF6  B1 14:       lda ($14),y			/* A(??)X(00)<3EA3>Y(??)MAP[00:[00],01:[01],02:[02],03:[03],mmc:(un)]s(0)Z?S?*/
	$BEF8  20 33 BF:    jsr _func_3F33			/* A(??)X(??)Y(??)MAP[00:(??),01:(??),02:(??),03:(??),mmc:(un)]s(0)Z?S?*/
	$BEFB  C8:          iny 			/* A(??)X(00)<3EA3>Y(??)MAP[00:[00],01:[01],02:[02],03:[03],mmc:(un)]s(0)Z?S?*/
	$BEFC  94 D3:       sty $D3,x			/* A(??)X(00)<3EA3>Y(??)MAP[00:[00],01:[01],02:[02],03:[03],mmc:(un)]s(0)Z?S?*/
	$BEFE  B1 14:       lda ($14),y			/* A(??)X(00)<3EA3>Y(??)MAP[00:[00],01:[01],02:[02],03:[03],mmc:(un)]s(0)Z?S?*/
	$BF00  05 13:       ora $13			/* A(??)X(00)<3EA3>Y(??)MAP[00:[00],01:[01],02:[02],03:[03],mmc:(un)]s(0)Z?S?*/
	$BF02  A4 E7:       ldy $E7			/* A(??)X(00)<3EA3>Y(??)MAP[00:[00],01:[01],02:[02],03:[03],mmc:(un)]s(0)Z?S?*/
	$BF04  99 00 40:    sta $4000,y			/* A(??)X(00)<3EA3>Y(??)MAP[00:[00],01:[01],02:[02],03:[03],mmc:(un)]s(0)Z?S?*/
	$BF07  95 E3:       sta $E3,x			/* A(??)X(00)<3EA3>Y(??)MAP[00:[00],01:[01],02:[02],03:[03],mmc:(un)]s(0)Z?S?*/
	$BF09  A0 03:       ldy #$03			/* A(??)X(00)<3EA3>Y(03)<3F09>MAP[00:[00],01:[01],02:[02],03:[03],mmc:(un)]s(0)Z0S0*/
	$BF0B  B1 14:       lda ($14),y			/* A(??)X(00)<3EA3>Y(03)<3F09>MAP[00:[00],01:[01],02:[02],03:[03],mmc:(un)]s(0)Z?S?*/
	$BF0D  A4 E7:       ldy $E7			/* A(??)X(00)<3EA3>Y(??)MAP[00:[00],01:[01],02:[02],03:[03],mmc:(un)]s(0)Z?S?*/
	$BF0F  99 01 40:    sta $4001,y			/* A(??)X(00)<3EA3>Y(??)MAP[00:[00],01:[01],02:[02],03:[03],mmc:(un)]s(0)Z?S?*/
	$BF12  A9 FF:       lda #$FF			/* A(FF)<3F12>X(00)<3EA3>Y(??)MAP[00:[00],01:[01],02:[02],03:[03],mmc:(un)]s(0)Z0S1*/
	$BF14  95 DF:       sta $DF,x			/* A(FF)<3F12>X(00)<3EA3>Y(??)MAP[00:[00],01:[01],02:[02],03:[03],mmc:(un)]s(0)Z0S1*/
	$BF16  4C C5 BE:    jmp -		; $BEC5			/* A(FF)<3F12>X(00)<3EA3>Y(??)MAP[00:[00],01:[01],02:[02],03:[03],mmc:(un)]s(0)Z0S1*/(barrier)
;------------------------------------------
_func_3F19
	$BF19  A9 00:       lda #$00			/* A(??)X(00)<3EA3>Y(00)<3EC8>MAP[00:[00],01:[01],02:[02],03:[03],mmc:(un)]s(0)Z?S?*/
	$BF1B  85 15:       sta $15			/* A(00)<3F19>X(00)<3EA3>Y(??)MAP[00:[00],01:[01],02:[02],03:[03],mmc:(un)]s(0)Z1S0*/
	$BF1D  B5 D3:       lda $D3,x			/* A(??)X(00)<3EA3>Y(??)MAP[00:[00],01:[01],02:[02],03:[03],mmc:(un)]s(0)Z?S?*/
	$BF1F  85 14:       sta $14			/* A(??)X(00)<3EA3>Y(??)MAP[00:[00],01:[01],02:[02],03:[03],mmc:(un)]s(0)Z?S?*/
	$BF21  06 14:       asl $14			/* A(??)X(00)<3EA3>Y(??)MAP[00:[00],01:[01],02:[02],03:[03],mmc:(un)]s(0)Z?S?*/
	$BF23  26 15:       rol $15			/* A(??)X(00)<3EA3>Y(??)MAP[00:[00],01:[01],02:[02],03:[03],mmc:(un)]s(0)Z?S?*/
	$BF25  B5 D7:       lda $D7,x			/* A(??)X(00)<3EA3>Y(??)MAP[00:[00],01:[01],02:[02],03:[03],mmc:(un)]s(0)Z?S?*/
	$BF27  18:          clc 			/* A(??)X(00)<3EA3>Y(??)MAP[00:[00],01:[01],02:[02],03:[03],mmc:(un)]s(0)Z?S?*/
	$BF28  65 14:       adc $14			/* A(??)X(00)<3EA3>Y(??)MAP[00:[00],01:[01],02:[02],03:[03],mmc:(un)]s(0)Z?S?*/
	$BF2A  85 14:       sta $14			/* A(??)X(00)<3EA3>Y(??)MAP[00:[00],01:[01],02:[02],03:[03],mmc:(un)]s(0)Z?S?*/
	$BF2C  B5 DB:       lda $DB,x			/* A(??)X(00)<3EA3>Y(??)MAP[00:[00],01:[01],02:[02],03:[03],mmc:(un)]s(0)Z?S?*/
	$BF2E  65 15:       adc $15			/* A(??)X(00)<3EA3>Y(??)MAP[00:[00],01:[01],02:[02],03:[03],mmc:(un)]s(0)Z?S?*/
	$BF30  85 15:       sta $15			/* A(??)X(00)<3EA3>Y(??)MAP[00:[00],01:[01],02:[02],03:[03],mmc:(un)]s(0)Z?S?*/
	$BF32  60:          rts 			/* A(??)X(00)<3EA3>Y(??)MAP[00:[00],01:[01],02:[02],03:[03],mmc:(un)]s(0)Z?S?*/(barrier)
;------------------------------------------
_func_3F33
	$BF33  48:          pha 			/* A(??)X(00)<3EA3>Y(??)MAP[00:[00],01:[01],02:[02],03:[03],mmc:(un)]s(1)Z?S?*/
	$BF34  B5 C7:        lda $C7,x			/* A(??)X(00)<3EA3>Y(??)MAP[00:[00],01:[01],02:[02],03:[03],mmc:(un)]s(1)Z?S?*/
	$BF36  C9 20:        cmp #$20			/* A(??)X(00)<3EA3>Y(??)MAP[00:[00],01:[01],02:[02],03:[03],mmc:(un)]s(1)Z?S?*/
	$BF38  F0 09:        beq +		; $BF43			/* A(??)X(00)<3EA3>Y(??)MAP[00:[00],01:[01],02:[02],03:[03],mmc:(un)]s(1)Z?S?*/
	$BF3A  68:          pla 			/* A(??)X(00)<3EA3>Y(??)MAP[00:[00],01:[01],02:[02],03:[03],mmc:(un)]s(0)Z?S?*/
	$BF3B  6A:          ror a			/* A(??)X(00)<3EA3>Y(??)MAP[00:[00],01:[01],02:[02],03:[03],mmc:(un)]s(0)Z?S?*/
	$BF3C  6A:          ror a			/* A(??)X(00)<3EA3>Y(??)MAP[00:[00],01:[01],02:[02],03:[03],mmc:(un)]s(0)Z?S?*/
	$BF3D  6A:          ror a			/* A(??)X(00)<3EA3>Y(??)MAP[00:[00],01:[01],02:[02],03:[03],mmc:(un)]s(0)Z?S?*/
	$BF3E  29 C0:       and #$C0			/* A(??)X(00)<3EA3>Y(??)MAP[00:[00],01:[01],02:[02],03:[03],mmc:(un)]s(0)Z?S?*/
	$BF40  85 13:       sta $13			/* A(??)X(00)<3EA3>Y(??)MAP[00:[00],01:[01],02:[02],03:[03],mmc:(un)]s(0)Z?S?*/
	$BF42  60:          rts 			/* A(??)X(00)<3EA3>Y(??)MAP[00:[00],01:[01],02:[02],03:[03],mmc:(un)]s(0)Z?S?*/(barrier)

+	$BF43  68:          pla 			/* A(??)X(00)<3EA3>Y(??)MAP[00:[00],01:[01],02:[02],03:[03],mmc:(un)]s(0)Z?S?*/
	$BF44  85 13:       sta $13			/* A(??)X(00)<3EA3>Y(??)MAP[00:[00],01:[01],02:[02],03:[03],mmc:(un)]s(0)Z?S?*/
	$BF46  60:          rts 			/* A(??)X(00)<3EA3>Y(??)MAP[00:[00],01:[01],02:[02],03:[03],mmc:(un)]s(0)Z?S?*/(barrier)
;------------------------------------------
_func_3F47
	$BF47  48:          pha 			/* A(??)X(00)<3EA3>Y(00)<3EC8>MAP[00:[00],01:[01],02:[02],03:[03],mmc:(un)]s(1)Z?S?*/
	$BF48  B5 C7:        lda $C7,x			/* A(??)X(00)<3EA3>Y(00)<3EC8>MAP[00:[00],01:[01],02:[02],03:[03],mmc:(un)]s(1)Z?S?*/
	$BF4A  C9 30:        cmp #$30			/* A(??)X(00)<3EA3>Y(00)<3EC8>MAP[00:[00],01:[01],02:[02],03:[03],mmc:(un)]s(1)Z?S?*/
	$BF4C  F0 50:        beq +++		; $BF9E			/* A(??)X(00)<3EA3>Y(00)<3EC8>MAP[00:[00],01:[01],02:[02],03:[03],mmc:(un)]s(1)Z?S?*/
	$BF4E  68:          pla 			/* A(??)X(00)<3EA3>Y(00)<3EC8>MAP[00:[00],01:[01],02:[02],03:[03],mmc:(un)]s(0)Z?S?*/
	$BF4F  48:          pha 			/* A(??)X(00)<3EA3>Y(00)<3EC8>MAP[00:[00],01:[01],02:[02],03:[03],mmc:(un)]s(1)Z?S?*/
_loc_3F50
	$BF50  29 0F:       and #$0F			/* A(50)<499B>X(??)Y(00)<3EC8>MAP[00:[00],01:[01],02:[02],03:[03],mmc:(un)]s(0)Z0S0*/
	$BF52  C9 0C:       cmp #$0C			/* A(??)X(00)<3EA3>Y(00)<3EC8>MAP[00:[00],01:[01],02:[02],03:[03],mmc:(un)]s(1)Z?S?*/
	$BF54  B0 41:       bcs ++		; $BF97			/* A(??)X(00)<3EA3>Y(00)<3EC8>MAP[00:[00],01:[01],02:[02],03:[03],mmc:(un)]s(1)Z?S?*/
	$BF56  0A:          asl a			/* A(??)X(00)<3EA3>Y(00)<3EC8>MAP[00:[00],01:[01],02:[02],03:[03],mmc:(un)]s(1)Z?S?*/
	$BF57  A8:          tay 			/* A(??)X(00)<3EA3>Y(??)MAP[00:[00],01:[01],02:[02],03:[03],mmc:(un)]s(1)Z?S?*/
	$BF58  B9 AC BF:    lda _data_3FAC_indexed,y			/* A$3FAC,y<3F58>X(00)<3EA3>Y(??)MAP[00:[00],01:[01],02:[02],03:[03],mmc:(un)]s(1)Z?S?*/
	$BF5B  85 10:       sta $10			/* A$3FAC,y<3F58>X(00)<3EA3>Y(??)MAP[00:[00],01:[01],02:[02],03:[03],mmc:(un)]s(1)Z?S?*/
	$BF5D  B9 AB BF:    lda _data_3FAB_indexed,y			/* A$3FAB,y<3F5D>X(00)<3EA3>Y(??)MAP[00:[00],01:[01],02:[02],03:[03],mmc:(un)]s(1)Z?S?*/
	$BF60  85 11:       sta $11			/* A$3FAB,y<3F5D>X(00)<3EA3>Y(??)MAP[00:[00],01:[01],02:[02],03:[03],mmc:(un)]s(1)Z?S?*/
	$BF62  68:          pla 			/* A(??)X(00)<3EA3>Y(??)MAP[00:[00],01:[01],02:[02],03:[03],mmc:(un)]s(0)Z?S?*/
	$BF63  29 F0:       and #$F0			/* A(??)X(00)<3EA3>Y(??)MAP[00:[00],01:[01],02:[02],03:[03],mmc:(un)]s(0)Z?S?*/
	$BF65  C9 A0:       cmp #$A0			/* A(??)X(00)<3EA3>Y(??)MAP[00:[00],01:[01],02:[02],03:[03],mmc:(un)]s(0)Z?S?*/
	$BF67  B0 2D:       bcs +		; $BF96 -> rts			/* A(??)X(00)<3EA3>Y(??)MAP[00:[00],01:[01],02:[02],03:[03],mmc:(un)]s(0)Z?S?*/
	$BF69  4A:          lsr a			/* A(??)X(00)<3EA3>Y(??)MAP[00:[00],01:[01],02:[02],03:[03],mmc:(un)]s(0)Z?S?*/
	$BF6A  4A:          lsr a			/* A(??)X(00)<3EA3>Y(??)MAP[00:[00],01:[01],02:[02],03:[03],mmc:(un)]s(0)Z?S?*/
	$BF6B  4A:          lsr a			/* A(??)X(00)<3EA3>Y(??)MAP[00:[00],01:[01],02:[02],03:[03],mmc:(un)]s(0)Z?S?*/
	$BF6C  4A:          lsr a			/* A(??)X(00)<3EA3>Y(??)MAP[00:[00],01:[01],02:[02],03:[03],mmc:(un)]s(0)Z?S?*/
	$BF6D  A8:          tay 			/* A(??)X(00)<3EA3>Y(??)MAP[00:[00],01:[01],02:[02],03:[03],mmc:(un)]s(0)Z?S?*/
-	$BF6E  46 11:       lsr $11			/* A(??)X(00)<3EA3>Y(??)MAP[00:[00],01:[01],02:[02],03:[03],mmc:(un)]s(0)Z?S?*/
	$BF70  66 10:       ror $10			/* A(??)X(00)<3EA3>Y(??)MAP[00:[00],01:[01],02:[02],03:[03],mmc:(un)]s(0)Z?S?*/
	$BF72  88:          dey 			/* A(??)X(00)<3EA3>Y(??)MAP[00:[00],01:[01],02:[02],03:[03],mmc:(un)]s(0)Z?S?*/
	$BF73  10 F9:       bpl -		; $BF6E			/* A(??)X(00)<3EA3>Y(??)MAP[00:[00],01:[01],02:[02],03:[03],mmc:(un)]s(0)Z?S?*/
--	$BF75  20 C3 BF:    jsr _func_3FC3			/* A(??)X(00)<3EA3>Y(??)MAP[00:[00],01:[01],02:[02],03:[03],mmc:(un)]s(0)Z?S?*/
	$BF78  20 F7 BF:    jsr _func_3FF7			/* A(??)X(??)Y(??)MAP[00:(??),01:(??),02:(??),03:(??),mmc:(un)]s(0)Z?S?*/
	$BF7B  B5 E3:       lda $E3,x			/* A(??)X(00)<3EA3>Y(00)<3EC8>MAP[00:[00],01:[01],02:[02],03:[03],mmc:(un)]s(0)Z?S?*/
	$BF7D  A4 E7:       ldy $E7			/* A(??)X(00)<3EA3>Y(??)MAP[00:[00],01:[01],02:[02],03:[03],mmc:(un)]s(0)Z?S?*/
	$BF7F  99 00 40:    sta $4000,y			/* A(??)X(00)<3EA3>Y(??)MAP[00:[00],01:[01],02:[02],03:[03],mmc:(un)]s(0)Z?S?*/
	$BF82  A5 11:       lda $11			/* A(??)X(00)<3EA3>Y(??)MAP[00:[00],01:[01],02:[02],03:[03],mmc:(un)]s(0)Z?S?*/
	$BF84  29 07:       and #$07			/* A(??)X(00)<3EA3>Y(??)MAP[00:[00],01:[01],02:[02],03:[03],mmc:(un)]s(0)Z?S?*/
	$BF86  09 08:       ora #$08			/* A(??)X(00)<3EA3>Y(??)MAP[00:[00],01:[01],02:[02],03:[03],mmc:(un)]s(0)Z?S?*/
	$BF88  85 11:       sta $11			/* A(??)X(00)<3EA3>Y(??)MAP[00:[00],01:[01],02:[02],03:[03],mmc:(un)]s(0)Z?S?*/
	$BF8A  A5 10:       lda $10			/* A(??)X(00)<3EA3>Y(??)MAP[00:[00],01:[01],02:[02],03:[03],mmc:(un)]s(0)Z?S?*/
	$BF8C  A4 E7:       ldy $E7			/* A(??)X(00)<3EA3>Y(??)MAP[00:[00],01:[01],02:[02],03:[03],mmc:(un)]s(0)Z?S?*/
	$BF8E  99 02 40:    sta $4002,y			/* A(??)X(00)<3EA3>Y(??)MAP[00:[00],01:[01],02:[02],03:[03],mmc:(un)]s(0)Z?S?*/
	$BF91  A5 11:       lda $11			/* A(??)X(00)<3EA3>Y(??)MAP[00:[00],01:[01],02:[02],03:[03],mmc:(un)]s(0)Z?S?*/
	$BF93  99 03 40:    sta $4003,y			/* A(??)X(00)<3EA3>Y(??)MAP[00:[00],01:[01],02:[02],03:[03],mmc:(un)]s(0)Z?S?*/
+	$BF96  60:          rts 			/* A(??)X(00)<3EA3>Y(??)MAP[00:[00],01:[01],02:[02],03:[03],mmc:(un)]s(0)Z?S?*/(barrier)

++	$BF97  68:          pla 			/* A(??)X(00)<3EA3>Y(00)<3EC8>MAP[00:[00],01:[01],02:[02],03:[03],mmc:(un)]s(0)Z?S?*/
-	$BF98  20 06 C0:    jsr _func_4006			/* A(??)X(00)<3EA3>Y(00)<3EC8>MAP[00:[00],01:[01],02:[02],03:[03],mmc:(un)]s(0)Z?S?*/
	$BF9B  4C C3 BF:    jmp _func_3FC3			/* A(??)X(00)<3EA3>Y(00)<3EC8>MAP[00:[00],01:[01],02:[02],03:[03],mmc:(un)]s(0)Z?S?*/(barrier)

+++	$BF9E  68:          pla 			/* A(??)X(00)<3EA3>Y(00)<3EC8>MAP[00:[00],01:[01],02:[02],03:[03],mmc:(un)]s(0)Z?S?*/
	$BF9F  C9 10:       cmp #$10			/* A(??)X(00)<3EA3>Y(00)<3EC8>MAP[00:[00],01:[01],02:[02],03:[03],mmc:(un)]s(0)Z?S?*/
	$BFA1  B0 F5:       bcs -		; $BF98			/* A(??)X(00)<3EA3>Y(00)<3EC8>MAP[00:[00],01:[01],02:[02],03:[03],mmc:(un)]s(0)Z?S?*/
	$BFA3  85 10:       sta $10			/* A(??)X(00)<3EA3>Y(00)<3EC8>MAP[00:[00],01:[01],02:[02],03:[03],mmc:(un)]s(0)Z?S?*/
	$BFA5  A9 00:       lda #$00			/* A(00)<3FA5>X(00)<3EA3>Y(00)<3EC8>MAP[00:[00],01:[01],02:[02],03:[03],mmc:(un)]s(0)Z1S0*/
	$BFA7  85 11:       sta $11			/* A(00)<3FA5>X(00)<3EA3>Y(00)<3EC8>MAP[00:[00],01:[01],02:[02],03:[03],mmc:(un)]s(0)Z1S0*/
	$BFA9  F0 CA:       beq --		; $BF75			/* A(00)<3FA5>X(00)<3EA3>Y(00)<3EC8>MAP[00:[00],01:[01],02:[02],03:[03],mmc:(un)]s(0)Z1S0*/(barrier)
;------------------------------------------
_data_3FAB_indexed
	$BFAB               .byte $0D
_data_3FAC_indexed
	$BFAC               .byte $5C,$0C,$9C,$0B,$E8,$0B,$3C,$0A,$9A,$0A,$02,$09,$72,$08,$EA,$08
	$BFBC               .byte $6A,$07,$F2,$07,$80,$07,$14
_func_3FC3
	$BFC3  A0 01:       ldy #$01			/* A(00)<3FA5>X(00)<3EA3>Y(??)MAP[00:[00],01:[01],02:[02],03:[03],mmc:(un)]s(0)Z?S?*/
	$BFC5  B1 14:       lda ($14),y			/* A(??)X(00)<3EA3>Y(01)<3FC3>MAP[00:[00],01:[01],02:[02],03:[03],mmc:(un)]s(0)Z?S?*/
	$BFC7  C9 F0:       cmp #$F0			/* A(??)X(00)<3EA3>Y(01)<3FC3>MAP[00:[00],01:[01],02:[02],03:[03],mmc:(un)]s(0)Z?S?*/
	$BFC9  90 17:       bcc ++		; $BFE2			/* A(??)X(00)<3EA3>Y(01)<3FC3>MAP[00:[00],01:[01],02:[02],03:[03],mmc:(un)]s(0)Z?S?*/
	$BFCB  38:          sec 			/* A(??)X(00)<3EA3>Y(01)<3FC3>MAP[00:[00],01:[01],02:[02],03:[03],mmc:(un)]s(0)Z?S?*/
	$BFCC  E9 F0:       sbc #$F0			/* A(??)X(00)<3EA3>Y(01)<3FC3>MAP[00:[00],01:[01],02:[02],03:[03],mmc:(un)]s(0)Z?S?*/
	$BFCE  A8:          tay 			/* A(??)X(00)<3EA3>Y(??)MAP[00:[00],01:[01],02:[02],03:[03],mmc:(un)]s(0)Z?S?*/
	$BFCF  B9 E7 BF:    lda _data_3FE7_indexed,y			/* A$3FE7,y<3FCF>X(00)<3EA3>Y(??)MAP[00:[00],01:[01],02:[02],03:[03],mmc:(un)]s(0)Z?S?*/
-	$BFD2  95 CB:       sta $CB,x			/* A$3FE7,y<3FCF>X(00)<3EA3>Y(??)MAP[00:[00],01:[01],02:[02],03:[03],mmc:(un)]s(0)Z?S?*/
	$BFD4  B5 CF:       lda $CF,x			/* A(??)X(00)<3EA3>Y(01)<3FC3>MAP[00:[00],01:[01],02:[02],03:[03],mmc:(un)]s(0)Z?S?*/
	$BFD6  29 01:       and #$01			/* A(??)X(00)<3EA3>Y(01)<3FC3>MAP[00:[00],01:[01],02:[02],03:[03],mmc:(un)]s(0)Z?S?*/
	$BFD8  F0 07:       beq +		; $BFE1 -> rts			/* A(??)X(00)<3EA3>Y(01)<3FC3>MAP[00:[00],01:[01],02:[02],03:[03],mmc:(un)]s(0)Z?S?*/
	$BFDA  B5 CB:       lda $CB,x			/* A(??)X(00)<3EA3>Y(01)<3FC3>MAP[00:[00],01:[01],02:[02],03:[03],mmc:(un)]s(0)Z?S?*/
	$BFDC  18:          clc 			/* A(??)X(00)<3EA3>Y(01)<3FC3>MAP[00:[00],01:[01],02:[02],03:[03],mmc:(un)]s(0)Z?S?*/
	$BFDD  75 CB:       adc $CB,x			/* A(??)X(00)<3EA3>Y(01)<3FC3>MAP[00:[00],01:[01],02:[02],03:[03],mmc:(un)]s(0)Z?S?*/
	$BFDF  95 CB:       sta $CB,x			/* A(??)X(00)<3EA3>Y(01)<3FC3>MAP[00:[00],01:[01],02:[02],03:[03],mmc:(un)]s(0)Z?S?*/
+	$BFE1  60:          rts 			/* A(??)X(00)<3EA3>Y(01)<3FC3>MAP[00:[00],01:[01],02:[02],03:[03],mmc:(un)]s(0)Z?S?*/(barrier)

++	$BFE2  29 0F:       and #$0F			/* A(??)X(00)<3EA3>Y(01)<3FC3>MAP[00:[00],01:[01],02:[02],03:[03],mmc:(un)]s(0)Z?S?*/
	$BFE4  4C D2 BF:    jmp -		; $BFD2			/* A(??)X(00)<3EA3>Y(01)<3FC3>MAP[00:[00],01:[01],02:[02],03:[03],mmc:(un)]s(0)Z?S?*/(barrier)
;------------------------------------------
_data_3FE7_indexed
	$BFE7               .byte $06,$0C,$18,$30,$60,$12,$24,$48,$08,$1E,$3C,$10,$4E,$80,$54,$7F
_func_3FF7
	$BFF7  A5 E8:       lda $E8			/* A(00)<3FA5>X(00)<3EA3>Y(00)<3EC8>MAP[00:[00],01:[01],02:[02],03:[03],mmc:(un)]s(0)Z?S?*/
	$BFF9  1D 0E C0:    ora _data_400E_indexed,x			/* A(??)X(00)<3EA3>Y(??)MAP[00:[00],01:[01],02:[02],03:[03],mmc:(un)]s(0)Z?S?*/
-	$BFFC  24 31:       bit $31			/* A(??)X(00)<3EA3>Y(00)<3EC8>MAP[00:[00],01:[01],02:[02],03:[03],mmc:(un)]s(0)Z?S?*/
	$BFFE  30 03:       bmi +		; $C003			/* A(??)X(00)<3EA3>Y(??)MAP[00:[00],01:[01],02:[02],03:[03],mmc:(un)]s(0)Z?S?*/
	$C000  8D 15 40:    sta $4015			/* A(??)X(00)<3EA3>Y(??)MAP[00:[00],01:[01],02:[02],03:[03],mmc:(un)]s(0)Z?S?*/
+	$C003  85 E8:       sta $E8			/* A(??)X(00)<3EA3>Y(??)MAP[00:[00],01:[01],02:[02],03:[03],mmc:(un)]s(0)Z?S?*/
	$C005  60:          rts 			/* A(??)X(00)<3EA3>Y(??)MAP[00:[00],01:[01],02:[02],03:[03],mmc:(un)]s(0)Z?S?*/(barrier)
;------------------------------------------
_func_4006
	$C006  A5 E8:       lda $E8			/* A(??)X(00)<3EA3>Y(00)<3EC8>MAP[00:[00],01:[01],02:[02],03:[03],mmc:(un)]s(0)Z?S?*/
	$C008  3D 12 C0:    and _data_4012_indexed,x			/* A(??)X(00)<3EA3>Y(00)<3EC8>MAP[00:[00],01:[01],02:[02],03:[03],mmc:(un)]s(0)Z?S?*/
	$C00B  4C FC BF:    jmp -		; $BFFC			/* A(??)X(00)<3EA3>Y(00)<3EC8>MAP[00:[00],01:[01],02:[02],03:[03],mmc:(un)]s(0)Z?S?*/(barrier)
;------------------------------------------
_data_400E_indexed
	$C00E               .byte $01,$02
_data_4010
	$C010               .byte $04,$08
_data_4012_indexed
	$C012               .byte $0E,$0D,$0B,$07
_func_4016
	$C016  C9 C0:       cmp #$C0			/* A(??)X(00)<3EA3>Y(00)<3EC8>MAP[00:[00],01:[01],02:[02],03:[03],mmc:(un)]s(0)Z?S?*/
	$C018  B0 08:       bcs +		; $C022 -> rts			/* A(??)X(00)<3EA3>Y(00)<3EC8>MAP[00:[00],01:[01],02:[02],03:[03],mmc:(un)]s(0)Z?S?*/
	$C01A  C9 B0:       cmp #$B0			/* A(??)X(00)<3EA3>Y(00)<3EC8>MAP[00:[00],01:[01],02:[02],03:[03],mmc:(un)]s(0)Z?S?*/
	$C01C  B0 2A:       bcs +++		; $C048			/* A(??)X(00)<3EA3>Y(00)<3EC8>MAP[00:[00],01:[01],02:[02],03:[03],mmc:(un)]s(0)Z?S?*/
	$C01E  C9 A0:       cmp #$A0			/* A(??)X(00)<3EA3>Y(00)<3EC8>MAP[00:[00],01:[01],02:[02],03:[03],mmc:(un)]s(0)Z?S?*/
	$C020  B0 01:       bcs ++		; $C023			/* A(??)X(00)<3EA3>Y(00)<3EC8>MAP[00:[00],01:[01],02:[02],03:[03],mmc:(un)]s(0)Z?S?*/
+	$C022  60:          rts 			/* A(??)X(00)<3EA3>Y(00)<3EC8>MAP[00:[00],01:[01],02:[02],03:[03],mmc:(un)]s(0)Z?S?*/(barrier)

++	$C023  C8:          iny 			/* A(??)X(00)<3EA3>Y(??)MAP[00:[00],01:[01],02:[02],03:[03],mmc:(un)]s(0)Z?S?*/
	$C024  B5 C7:       lda $C7,x			/* A(??)X(00)<3EA3>Y(??)MAP[00:[00],01:[01],02:[02],03:[03],mmc:(un)]s(0)Z?S?*/
	$C026  C9 20:       cmp #$20			/* A(??)X(00)<3EA3>Y(??)MAP[00:[00],01:[01],02:[02],03:[03],mmc:(un)]s(0)Z?S?*/
	$C028  F0 17:       beq +		; $C041			/* A(??)X(00)<3EA3>Y(??)MAP[00:[00],01:[01],02:[02],03:[03],mmc:(un)]s(0)Z?S?*/
	$C02A  B5 E3:       lda $E3,x			/* A(??)X(00)<3EA3>Y(??)MAP[00:[00],01:[01],02:[02],03:[03],mmc:(un)]s(0)Z?S?*/
	$C02C  29 E0:       and #$E0			/* A(??)X(00)<3EA3>Y(??)MAP[00:[00],01:[01],02:[02],03:[03],mmc:(un)]s(0)Z?S?*/
----	$C02E  11 14:       ora ($14),y			/* A(??)X(00)<3EA3>Y(??)MAP[00:[00],01:[01],02:[02],03:[03],mmc:(un)]s(0)Z?S?*/
	$C030  95 E3:       sta $E3,x			/* A(??)X(00)<3EA3>Y(??)MAP[00:[00],01:[01],02:[02],03:[03],mmc:(un)]s(0)Z?S?*/
	$C032  A4 E7:       ldy $E7			/* A(??)X(00)<3EA3>Y(??)MAP[00:[00],01:[01],02:[02],03:[03],mmc:(un)]s(0)Z?S?*/
	$C034  99 00 40:    sta $4000,y			/* A(??)X(00)<3EA3>Y(??)MAP[00:[00],01:[01],02:[02],03:[03],mmc:(un)]s(0)Z?S?*/
---	$C037  F6 D3:       inc $D3,x			/* A(??)X(00)<3EA3>Y(00)<3EC8>MAP[00:[00],01:[01],02:[02],03:[03],mmc:(un)]s(0)Z?S?*/
--	$C039  20 19 BF:    jsr _func_3F19			/* A(02)<404E>X(00)<3EA3>Y(00)<3EC8>MAP[00:[00],01:[01],02:[02],03:[03],mmc:(un)]s(0)Z0S0*/
	$C03C  A0 00:       ldy #$00			/* A(??)X(00)<3EA3>Y(00)<403C>MAP[00:[00],01:[01],02:[02],03:[03],mmc:(un)]s(0)Z1S0*/
	$C03E  B1 14:       lda ($14),y			/* A(??)X(00)<3EA3>Y(00)<403C>MAP[00:[00],01:[01],02:[02],03:[03],mmc:(un)]s(0)Z?S?*/
	$C040  60:          rts 			/* A(??)X(00)<3EA3>Y(00)<403C>MAP[00:[00],01:[01],02:[02],03:[03],mmc:(un)]s(0)Z?S?*/(barrier)

+	$C041  B5 E3:       lda $E3,x			/* A(??)X(00)<3EA3>Y(??)MAP[00:[00],01:[01],02:[02],03:[03],mmc:(un)]s(0)Z?S?*/
	$C043  29 80:       and #$80			/* A(??)X(00)<3EA3>Y(??)MAP[00:[00],01:[01],02:[02],03:[03],mmc:(un)]s(0)Z?S?*/
	$C045  4C 2E C0:    jmp ----		; $C02E			/* A(??)X(00)<3EA3>Y(??)MAP[00:[00],01:[01],02:[02],03:[03],mmc:(un)]s(0)Z?S?*/(barrier)

+++	$C048  29 0F:       and #$0F			/* A(??)X(00)<3EA3>Y(00)<3EC8>MAP[00:[00],01:[01],02:[02],03:[03],mmc:(un)]s(0)Z?S?*/
	$C04A  C9 0F:       cmp #$0F			/* A(??)X(00)<3EA3>Y(00)<3EC8>MAP[00:[00],01:[01],02:[02],03:[03],mmc:(un)]s(0)Z?S?*/
	$C04C  D0 06:       bne +		; $C054			/* A(??)X(00)<3EA3>Y(00)<3EC8>MAP[00:[00],01:[01],02:[02],03:[03],mmc:(un)]s(0)Z?S?*/
	$C04E  A9 02:       lda #$02			/* A(02)<404E>X(00)<3EA3>Y(00)<3EC8>MAP[00:[00],01:[01],02:[02],03:[03],mmc:(un)]s(0)Z0S0*/
	$C050  95 D3:       sta $D3,x			/* A(02)<404E>X(00)<3EA3>Y(00)<3EC8>MAP[00:[00],01:[01],02:[02],03:[03],mmc:(un)]s(0)Z0S0*/
	$C052  D0 E5:       bne --		; $C039			/* A(02)<404E>X(00)<3EA3>Y(00)<3EC8>MAP[00:[00],01:[01],02:[02],03:[03],mmc:(un)]s(0)Z0S0*/(barrier)

+	$C054  B5 DF:       lda $DF,x			/* A(02)<404E>X(00)<3EA3>Y(00)<3EC8>MAP[00:[00],01:[01],02:[02],03:[03],mmc:(un)]s(0)Z0S0*/
	$C056  F0 19:       beq ++		; $C071			/* A(??)X(00)<3EA3>Y(00)<3EC8>MAP[00:[00],01:[01],02:[02],03:[03],mmc:(un)]s(0)Z?S?*/
	$C058  C9 0F:       cmp #$0F			/* A(??)X(00)<3EA3>Y(00)<3EC8>MAP[00:[00],01:[01],02:[02],03:[03],mmc:(un)]s(0)Z?S?*/
	$C05A  B0 0A:       bcs +		; $C066			/* A(??)X(00)<3EA3>Y(00)<3EC8>MAP[00:[00],01:[01],02:[02],03:[03],mmc:(un)]s(0)Z?S?*/
	$C05C  D6 DF:       dec $DF,x			/* A(??)X(00)<3EA3>Y(00)<3EC8>MAP[00:[00],01:[01],02:[02],03:[03],mmc:(un)]s(0)Z?S?*/
-	$C05E  C8:          iny 			/* A(??)X(00)<3EA3>Y(00)<3EC8>MAP[00:[00],01:[01],02:[02],03:[03],mmc:(un)]s(0)Z?S?*/
	$C05F  B1 14:       lda ($14),y			/* A(??)X(00)<3EA3>Y(??)MAP[00:[00],01:[01],02:[02],03:[03],mmc:(un)]s(0)Z?S?*/
	$C061  95 D3:       sta $D3,x			/* A(??)X(00)<3EA3>Y(??)MAP[00:[00],01:[01],02:[02],03:[03],mmc:(un)]s(0)Z?S?*/
	$C063  4C 39 C0:    jmp --		; $C039			/* A(??)X(00)<3EA3>Y(??)MAP[00:[00],01:[01],02:[02],03:[03],mmc:(un)]s(0)Z?S?*/(barrier)

+	$C066  B1 14:       lda ($14),y			/* A(??)X(00)<3EA3>Y(00)<3EC8>MAP[00:[00],01:[01],02:[02],03:[03],mmc:(un)]s(0)Z?S?*/
	$C068  29 0F:       and #$0F			/* A(??)X(00)<3EA3>Y(00)<3EC8>MAP[00:[00],01:[01],02:[02],03:[03],mmc:(un)]s(0)Z?S?*/
	$C06A  95 DF:       sta $DF,x			/* A(??)X(00)<3EA3>Y(00)<3EC8>MAP[00:[00],01:[01],02:[02],03:[03],mmc:(un)]s(0)Z?S?*/
	$C06C  D6 DF:       dec $DF,x			/* A(??)X(00)<3EA3>Y(00)<3EC8>MAP[00:[00],01:[01],02:[02],03:[03],mmc:(un)]s(0)Z?S?*/
	$C06E  4C 5E C0:    jmp -		; $C05E			/* A(??)X(00)<3EA3>Y(00)<3EC8>MAP[00:[00],01:[01],02:[02],03:[03],mmc:(un)]s(0)Z?S?*/(barrier)

++	$C071  D6 DF:       dec $DF,x			/* A(??)X(00)<3EA3>Y(00)<3EC8>MAP[00:[00],01:[01],02:[02],03:[03],mmc:(un)]s(0)Z?S?*/
	$C073  4C 37 C0:    jmp ---		; $C037			/* A(??)X(00)<3EA3>Y(00)<3EC8>MAP[00:[00],01:[01],02:[02],03:[03],mmc:(un)]s(0)Z?S?*/(barrier)
;------------------------------------------
_func_4076
	$C076  A9 01:       lda #$01			/* A(01)<4076>X(00)<3EA3>Y(08)<A01>MAP[00:[00],01:[01],02:[02],03:[03],mmc:(un)]s(0)Z0S0*/
	$C078  85 D7:       sta $D7			/* A(01)<4076>X(00)<3EA3>Y(08)<A01>MAP[00:[00],01:[01],02:[02],03:[03],mmc:(un)]s(0)Z0S0*/
	$C07A  A9 C2:       lda #$C2			/* A(C2)<407A>X(00)<3EA3>Y(08)<A01>MAP[00:[00],01:[01],02:[02],03:[03],mmc:(un)]s(0)Z0S1*/
	$C07C  85 DB:       sta $DB			/* A(C2)<407A>X(00)<3EA3>Y(08)<A01>MAP[00:[00],01:[01],02:[02],03:[03],mmc:(un)]s(0)Z0S1*/
	$C07E  A9 12:       lda #$12			/* A(12)<407E>X(00)<3EA3>Y(08)<A01>MAP[00:[00],01:[01],02:[02],03:[03],mmc:(un)]s(0)Z0S0*/
	$C080  85 D9:       sta $D9			/* A(12)<407E>X(00)<3EA3>Y(08)<A01>MAP[00:[00],01:[01],02:[02],03:[03],mmc:(un)]s(0)Z0S0*/
	$C082  A9 C2:       lda #$C2			/* A(C2)<4082>X(00)<3EA3>Y(08)<A01>MAP[00:[00],01:[01],02:[02],03:[03],mmc:(un)]s(0)Z0S1*/
	$C084  85 DD:       sta $DD			/* A(C2)<4082>X(00)<3EA3>Y(08)<A01>MAP[00:[00],01:[01],02:[02],03:[03],mmc:(un)]s(0)Z0S1*/
	$C086  D0 22:       bne +		; $C0AA			/* A(C2)<4082>X(00)<3EA3>Y(08)<A01>MAP[00:[00],01:[01],02:[02],03:[03],mmc:(un)]s(0)Z0S1*/(barrier)
;------------------------------------------
_func_4088
	$C088  A9 23:       lda #$23			/* A(??)X(??)Y(??)MAP[00:[00],01:[01],02:[02],03:[03],mmc:(un)]s(0)Z?S?*/
	$C08A  85 D7:       sta $D7			/* A(23)<4088>X(00)<3EA3>Y(??)MAP[00:[00],01:[01],02:[02],03:[03],mmc:(un)]s(0)Z0S0*/
	$C08C  A9 C2:       lda #$C2			/* A(C2)<408C>X(00)<3EA3>Y(??)MAP[00:[00],01:[01],02:[02],03:[03],mmc:(un)]s(0)Z0S1*/
	$C08E  85 DB:       sta $DB			/* A(C2)<408C>X(00)<3EA3>Y(??)MAP[00:[00],01:[01],02:[02],03:[03],mmc:(un)]s(0)Z0S1*/
	$C090  A9 30:       lda #$30			/* A(30)<4090>X(00)<3EA3>Y(??)MAP[00:[00],01:[01],02:[02],03:[03],mmc:(un)]s(0)Z0S0*/
	$C092  85 D9:       sta $D9			/* A(30)<4090>X(00)<3EA3>Y(??)MAP[00:[00],01:[01],02:[02],03:[03],mmc:(un)]s(0)Z0S0*/
	$C094  A9 C2:       lda #$C2			/* A(C2)<4094>X(00)<3EA3>Y(??)MAP[00:[00],01:[01],02:[02],03:[03],mmc:(un)]s(0)Z0S1*/
	$C096  85 DD:       sta $DD			/* A(C2)<4094>X(00)<3EA3>Y(??)MAP[00:[00],01:[01],02:[02],03:[03],mmc:(un)]s(0)Z0S1*/
	$C098  D0 10:       bne +		; $C0AA			/* A(C2)<4094>X(00)<3EA3>Y(??)MAP[00:[00],01:[01],02:[02],03:[03],mmc:(un)]s(0)Z0S1*/(barrier)
;------------------------------------------
_func_409A
	$C09A  A9 81:       lda #$81			/* A(??)X(00)<3EA3>Y(??)MAP[00:[00],01:[01],02:[02],03:[03],mmc:(un)]s(0)Z0S1*/
	$C09C  85 D7:       sta $D7			/* A(81)<409A>X(??)Y(??)MAP[00:[00],01:[01],02:[02],03:[03],mmc:(un)]s(0)Z0S1*/
	$C09E  A9 C1:       lda #$C1			/* A(C1)<409E>X(??)Y(??)MAP[00:[00],01:[01],02:[02],03:[03],mmc:(un)]s(0)Z0S1*/
	$C0A0  85 DB:       sta $DB			/* A(C1)<409E>X(??)Y(??)MAP[00:[00],01:[01],02:[02],03:[03],mmc:(un)]s(0)Z0S1*/
	$C0A2  A9 9C:       lda #$9C			/* A(9C)<40A2>X(??)Y(??)MAP[00:[00],01:[01],02:[02],03:[03],mmc:(un)]s(0)Z0S1*/
	$C0A4  85 D9:       sta $D9			/* A(9C)<40A2>X(??)Y(??)MAP[00:[00],01:[01],02:[02],03:[03],mmc:(un)]s(0)Z0S1*/
	$C0A6  A9 C1:       lda #$C1			/* A(C1)<40A6>X(??)Y(??)MAP[00:[00],01:[01],02:[02],03:[03],mmc:(un)]s(0)Z0S1*/
_loc_40A8
	$C0A8  85 DD:       sta $DD			/* A(??)X(??)Y(??)MAP[00:[00],01:[01],02:[02],03:[03],mmc:(un)]s(0)Z?S?*/
+ -	$C0AA  A9 00:       lda #$00			/* A(??)X(00)<3EA3>Y(??)MAP[00:[00],01:[01],02:[02],03:[03],mmc:(un)]s(0)Z0S1*/
	$C0AC  85 D3:       sta $D3			/* A(00)<40AA>X(??)Y(??)MAP[00:[00],01:[01],02:[02],03:[03],mmc:(un)]s(0)Z1S0*/
	$C0AE  85 D5:       sta $D5			/* A(00)<40AA>X(??)Y(??)MAP[00:[00],01:[01],02:[02],03:[03],mmc:(un)]s(0)Z1S0*/
	$C0B0  60:          rts 			/* A(00)<40AA>X(??)Y(??)MAP[00:[00],01:[01],02:[02],03:[03],mmc:(un)]s(0)Z1S0*/(barrier)
;------------------------------------------
_func_40B1
	$C0B1  A9 B7:       lda #$B7			/* A(B7)<40B1>X(??)Y(??)MAP[00:[00],01:[01],02:[02],03:[03],mmc:(un)]s(0)Z0S1*/
	$C0B3  85 D7:       sta $D7			/* A(B7)<40B1>X(??)Y(??)MAP[00:[00],01:[01],02:[02],03:[03],mmc:(un)]s(0)Z0S1*/
	$C0B5  A9 C1:       lda #$C1			/* A(C1)<40B5>X(??)Y(??)MAP[00:[00],01:[01],02:[02],03:[03],mmc:(un)]s(0)Z0S1*/
	$C0B7  85 DB:       sta $DB			/* A(C1)<40B5>X(??)Y(??)MAP[00:[00],01:[01],02:[02],03:[03],mmc:(un)]s(0)Z0S1*/
	$C0B9  A9 D0:       lda #$D0			/* A(D0)<40B9>X(??)Y(??)MAP[00:[00],01:[01],02:[02],03:[03],mmc:(un)]s(0)Z0S1*/
	$C0BB  85 D9:       sta $D9			/* A(D0)<40B9>X(??)Y(??)MAP[00:[00],01:[01],02:[02],03:[03],mmc:(un)]s(0)Z0S1*/
	$C0BD  A9 C1:       lda #$C1			/* A(C1)<40BD>X(??)Y(??)MAP[00:[00],01:[01],02:[02],03:[03],mmc:(un)]s(0)Z0S1*/
	$C0BF  85 DD:       sta $DD			/* A(C1)<40BD>X(??)Y(??)MAP[00:[00],01:[01],02:[02],03:[03],mmc:(un)]s(0)Z0S1*/
	$C0C1  D0 E7:       bne -		; $C0AA			/* A(C1)<40BD>X(??)Y(??)MAP[00:[00],01:[01],02:[02],03:[03],mmc:(un)]s(0)Z0S1*/(barrier)
;------------------------------------------
_func_40C3
	$C0C3  A9 DB:       lda #$DB			/* A(??)X(??)Y(??)MAP[00:[00],01:[01],02:[02],03:[03],mmc:(un)]s(0)Z0S1*/
	$C0C5  85 D7:       sta $D7			/* A(DB)<40C3>X(??)Y(08)<A01>MAP[00:[00],01:[01],02:[02],03:[03],mmc:(un)]s(0)Z0S1*/
	$C0C7  A9 C1:       lda #$C1			/* A(C1)<40C7>X(??)Y(08)<A01>MAP[00:[00],01:[01],02:[02],03:[03],mmc:(un)]s(0)Z0S1*/
	$C0C9  85 DB:       sta $DB			/* A(C1)<40C7>X(??)Y(08)<A01>MAP[00:[00],01:[01],02:[02],03:[03],mmc:(un)]s(0)Z0S1*/
	$C0CB  A9 EE:       lda #$EE			/* A(EE)<40CB>X(??)Y(08)<A01>MAP[00:[00],01:[01],02:[02],03:[03],mmc:(un)]s(0)Z0S1*/
	$C0CD  85 D9:       sta $D9			/* A(EE)<40CB>X(??)Y(08)<A01>MAP[00:[00],01:[01],02:[02],03:[03],mmc:(un)]s(0)Z0S1*/
	$C0CF  A9 C1:       lda #$C1			/* A(C1)<40CF>X(??)Y(08)<A01>MAP[00:[00],01:[01],02:[02],03:[03],mmc:(un)]s(0)Z0S1*/
	$C0D1  85 DD:       sta $DD			/* A(C1)<40CF>X(??)Y(08)<A01>MAP[00:[00],01:[01],02:[02],03:[03],mmc:(un)]s(0)Z0S1*/
	$C0D3  D0 D5:       bne -		; $C0AA			/* A(C1)<40CF>X(??)Y(08)<A01>MAP[00:[00],01:[01],02:[02],03:[03],mmc:(un)]s(0)Z0S1*/(barrier)
;------------------------------------------
_func_40D5
	$C0D5  A9 A7:       lda #$A7			/* A(??)X(??)Y(08)<A01>MAP[00:[00],01:[01],02:[02],03:[03],mmc:(un)]s(0)Z0S1*/
	$C0D7  85 D7:       sta $D7			/* A(A7)<40D5>X(??)Y(??)MAP[00:[00],01:[01],02:[02],03:[03],mmc:(un)]s(0)Z0S1*/
	$C0D9  A9 C2:       lda #$C2			/* A(C2)<40D9>X(??)Y(??)MAP[00:[00],01:[01],02:[02],03:[03],mmc:(un)]s(0)Z0S1*/
	$C0DB  85 DB:       sta $DB			/* A(C2)<40D9>X(??)Y(??)MAP[00:[00],01:[01],02:[02],03:[03],mmc:(un)]s(0)Z0S1*/
	$C0DD  A9 AE:       lda #$AE			/* A(AE)<40DD>X(??)Y(??)MAP[00:[00],01:[01],02:[02],03:[03],mmc:(un)]s(0)Z0S1*/
	$C0DF  85 D9:       sta $D9			/* A(AE)<40DD>X(??)Y(??)MAP[00:[00],01:[01],02:[02],03:[03],mmc:(un)]s(0)Z0S1*/
	$C0E1  A9 C2:       lda #$C2			/* A(C2)<40E1>X(??)Y(??)MAP[00:[00],01:[01],02:[02],03:[03],mmc:(un)]s(0)Z0S1*/
	$C0E3  85 DD:       sta $DD			/* A(C2)<40E1>X(??)Y(??)MAP[00:[00],01:[01],02:[02],03:[03],mmc:(un)]s(0)Z0S1*/
	$C0E5  D0 C3:       bne -		; $C0AA			/* A(C2)<40E1>X(??)Y(??)MAP[00:[00],01:[01],02:[02],03:[03],mmc:(un)]s(0)Z0S1*/(barrier)
;------------------------------------------
_func_40E7
	$C0E7  A9 3D:       lda #$3D			/* A(3D)<40E7>X(??)Y(??)MAP[00:[00],01:[01],02:[02],03:[03],mmc:(un)]s(0)Z0S0*/
	$C0E9  85 DA:       sta $DA			/* A(3D)<40E7>X(??)Y(??)MAP[00:[00],01:[01],02:[02],03:[03],mmc:(un)]s(0)Z0S0*/
	$C0EB  A9 C2:       lda #$C2			/* A(C2)<40EB>X(??)Y(??)MAP[00:[00],01:[01],02:[02],03:[03],mmc:(un)]s(0)Z0S1*/
	$C0ED  85 DE:       sta $DE			/* A(C2)<40EB>X(??)Y(??)MAP[00:[00],01:[01],02:[02],03:[03],mmc:(un)]s(0)Z0S1*/
	$C0EF  D0 3D:       bne ++		; $C12E			/* A(C2)<40EB>X(??)Y(??)MAP[00:[00],01:[01],02:[02],03:[03],mmc:(un)]s(0)Z0S1*/(barrier)
;------------------------------------------
_func_40F1
	$C0F1  A5 70:       lda $70			/* A(C2)<40EB>X(??)Y(??)MAP[00:[00],01:[01],02:[02],03:[03],mmc:(un)]s(0)Z0S1*/
	$C0F3  30 0E:       bmi +		; $C103			/* A(??)X(??)Y(??)MAP[00:[00],01:[01],02:[02],03:[03],mmc:(un)]s(0)Z?S?*/
	$C0F5  A5 35:       lda $35			/* A(??)X(??)Y(??)MAP[00:[00],01:[01],02:[02],03:[03],mmc:(un)]s(0)Z?S?*/
	$C0F7  30 0A:       bmi +		; $C103			/* A(??)X(??)Y(??)MAP[00:[00],01:[01],02:[02],03:[03],mmc:(un)]s(0)Z?S?*/
	$C0F9  A9 28:       lda #$28			/* A(28)<40F9>X(??)Y(??)MAP[00:[00],01:[01],02:[02],03:[03],mmc:(un)]s(0)Z0S0*/
	$C0FB  85 DA:       sta $DA			/* A(28)<40F9>X(??)Y(??)MAP[00:[00],01:[01],02:[02],03:[03],mmc:(un)]s(0)Z0S0*/
	$C0FD  A9 C3:       lda #$C3			/* A(C3)<40FD>X(??)Y(??)MAP[00:[00],01:[01],02:[02],03:[03],mmc:(un)]s(0)Z0S1*/
	$C0FF  85 DE:       sta $DE			/* A(C3)<40FD>X(??)Y(??)MAP[00:[00],01:[01],02:[02],03:[03],mmc:(un)]s(0)Z0S1*/
	$C101  D0 2B:       bne ++		; $C12E			/* A(C3)<40FD>X(??)Y(??)MAP[00:[00],01:[01],02:[02],03:[03],mmc:(un)]s(0)Z0S1*/(barrier)

+	$C103  20 8D BE:    jsr _func_3E8D			/* A(C3)<40FD>X(??)Y(??)MAP[00:[00],01:[01],02:[02],03:[03],mmc:(un)]s(0)Z0S1*/
_func_4106
	$C106  A9 44:       lda #$44			/* A(??)X(48)<73D>Y(??)MAP[00:[00],01:[01],02:[02],03:[03],mmc:(un)]s(0)Z?S?*/
	$C108  85 D7:       sta $D7			/* A(44)<4106>X(??)Y(??)MAP[00:[00],01:[01],02:[02],03:[03],mmc:(un)]s(0)Z0S0*/
	$C10A  A9 C2:       lda #$C2			/* A(C2)<410A>X(??)Y(??)MAP[00:[00],01:[01],02:[02],03:[03],mmc:(un)]s(0)Z0S1*/
	$C10C  85 DB:       sta $DB			/* A(C2)<410A>X(??)Y(??)MAP[00:[00],01:[01],02:[02],03:[03],mmc:(un)]s(0)Z0S1*/
	$C10E  A9 00:       lda #$00			/* A(00)<410E>X(??)Y(??)MAP[00:[00],01:[01],02:[02],03:[03],mmc:(un)]s(0)Z1S0*/
	$C110  85 D3:       sta $D3			/* A(00)<410E>X(??)Y(??)MAP[00:[00],01:[01],02:[02],03:[03],mmc:(un)]s(0)Z1S0*/
	$C112  60:          rts 			/* A(00)<410E>X(??)Y(??)MAP[00:[00],01:[01],02:[02],03:[03],mmc:(un)]s(0)Z1S0*/(barrier)
;------------------------------------------
_func_4113
	$C113  A5 D6:       lda $D6			/* A(??)X(??)Y(15)<2184>MAP[00:[00],01:[01],02:[02],03:[03],mmc:(un)]s(0)Z?S?*/
	$C115  C9 FF:       cmp #$FF			/* A(??)X(??)Y(15)<2184>MAP[00:[00],01:[01],02:[02],03:[03],mmc:(un)]s(0)Z?S?*/
	$C117  D0 0C:       bne +		; $C125 -> rts			/* A(??)X(??)Y(15)<2184>MAP[00:[00],01:[01],02:[02],03:[03],mmc:(un)]s(0)Z?S?*/
	$C119  A9 4D:       lda #$4D			/* A(4D)<4119>X(??)Y(15)<2184>MAP[00:[00],01:[01],02:[02],03:[03],mmc:(un)]s(0)Z0S0*/
	$C11B  85 DA:       sta $DA			/* A(4D)<4119>X(??)Y(15)<2184>MAP[00:[00],01:[01],02:[02],03:[03],mmc:(un)]s(0)Z0S0*/
	$C11D  A9 C2:       lda #$C2			/* A(C2)<411D>X(??)Y(15)<2184>MAP[00:[00],01:[01],02:[02],03:[03],mmc:(un)]s(0)Z0S1*/
	$C11F  85 DE:       sta $DE			/* A(C2)<411D>X(??)Y(15)<2184>MAP[00:[00],01:[01],02:[02],03:[03],mmc:(un)]s(0)Z0S1*/
	$C121  A9 00:       lda #$00			/* A(00)<4121>X(??)Y(15)<2184>MAP[00:[00],01:[01],02:[02],03:[03],mmc:(un)]s(0)Z1S0*/
	$C123  85 D6:       sta $D6			/* A(00)<4121>X(??)Y(15)<2184>MAP[00:[00],01:[01],02:[02],03:[03],mmc:(un)]s(0)Z1S0*/
+	$C125  60:          rts 			/* A(00)<4121>X(??)Y(15)<2184>MAP[00:[00],01:[01],02:[02],03:[03],mmc:(un)]s(0)Z1S0*/(barrier)
;------------------------------------------
_func_4126
	$C126  A9 88:       lda #$88			/* A(88)<4126>X(??)Y(08)<A01>MAP[00:[00],01:[01],02:[02],03:[03],mmc:(un)]s(0)Z0S1*/
	$C128  85 DA:       sta $DA			/* A(88)<4126>X(??)Y(08)<A01>MAP[00:[00],01:[01],02:[02],03:[03],mmc:(un)]s(0)Z0S1*/
	$C12A  A9 C2:       lda #$C2			/* A(C2)<412A>X(??)Y(08)<A01>MAP[00:[00],01:[01],02:[02],03:[03],mmc:(un)]s(0)Z0S1*/
	$C12C  85 DE:       sta $DE			/* A(C2)<412A>X(??)Y(08)<A01>MAP[00:[00],01:[01],02:[02],03:[03],mmc:(un)]s(0)Z0S1*/
++ -	$C12E  A9 00:       lda #$00			/* A(C2)<40EB>X(??)Y(??)MAP[00:[00],01:[01],02:[02],03:[03],mmc:(un)]s(0)Z0S1*/
	$C130  85 D6:       sta $D6			/* A(00)<412E>X(??)Y(??)MAP[00:[00],01:[01],02:[02],03:[03],mmc:(un)]s(0)Z1S0*/
	$C132  60:          rts 			/* A(00)<412E>X(??)Y(??)MAP[00:[00],01:[01],02:[02],03:[03],mmc:(un)]s(0)Z1S0*/(barrier)
;------------------------------------------
_loc_4133
	$C133  A9 B5:       lda #$B5			/* A(B5)<4133>X(??)Y(??)MAP[00:[00],01:[01],02:[02],03:[03],mmc:(un)]s(0)Z0S1*/
	$C135  85 D7:       sta $D7			/* A(B5)<4133>X(??)Y(??)MAP[00:[00],01:[01],02:[02],03:[03],mmc:(un)]s(0)Z0S1*/
	$C137  A9 C2:       lda #$C2			/* A(C2)<4137>X(??)Y(??)MAP[00:[00],01:[01],02:[02],03:[03],mmc:(un)]s(0)Z0S1*/
	$C139  85 DB:       sta $DB			/* A(C2)<4137>X(??)Y(??)MAP[00:[00],01:[01],02:[02],03:[03],mmc:(un)]s(0)Z0S1*/
	$C13B  A9 00:       lda #$00			/* A(00)<413B>X(??)Y(??)MAP[00:[00],01:[01],02:[02],03:[03],mmc:(un)]s(0)Z1S0*/
	$C13D  85 D3:       sta $D3			/* A(00)<413B>X(??)Y(??)MAP[00:[00],01:[01],02:[02],03:[03],mmc:(un)]s(0)Z1S0*/
	$C13F  60:          rts 			/* A(00)<413B>X(??)Y(??)MAP[00:[00],01:[01],02:[02],03:[03],mmc:(un)]s(0)Z1S0*/(barrier)
;------------------------------------------
_func_4140
	$C140  A9 BE:       lda #$BE			/* A(BE)<4140>X(??)Y(??)MAP[00:[00],01:[01],02:[02],03:[03],mmc:(un)]s(0)Z0S1*/
	$C142  85 D8:       sta $D8			/* A(BE)<4140>X(??)Y(??)MAP[00:[00],01:[01],02:[02],03:[03],mmc:(un)]s(0)Z0S1*/
	$C144  A9 C2:       lda #$C2			/* A(C2)<4144>X(??)Y(??)MAP[00:[00],01:[01],02:[02],03:[03],mmc:(un)]s(0)Z0S1*/
	$C146  85 DC:       sta $DC			/* A(C2)<4144>X(??)Y(??)MAP[00:[00],01:[01],02:[02],03:[03],mmc:(un)]s(0)Z0S1*/
	$C148  A9 00:       lda #$00			/* A(00)<4148>X(??)Y(??)MAP[00:[00],01:[01],02:[02],03:[03],mmc:(un)]s(0)Z1S0*/
	$C14A  85 D4:       sta $D4			/* A(00)<4148>X(??)Y(??)MAP[00:[00],01:[01],02:[02],03:[03],mmc:(un)]s(0)Z1S0*/
	$C14C  60:          rts 			/* A(00)<4148>X(??)Y(??)MAP[00:[00],01:[01],02:[02],03:[03],mmc:(un)]s(0)Z1S0*/(barrier)
;------------------------------------------
_func_414D
	$C14D  A9 D9:       lda #$D9			/* A(D9)<414D>X(??)Y(??)MAP[00:[00],01:[01],02:[02],03:[03],mmc:(un)]s(0)Z0S1*/
	$C14F  85 DA:       sta $DA			/* A(D9)<414D>X(??)Y(??)MAP[00:[00],01:[01],02:[02],03:[03],mmc:(un)]s(0)Z0S1*/
	$C151  A9 C2:       lda #$C2			/* A(C2)<4151>X(??)Y(??)MAP[00:[00],01:[01],02:[02],03:[03],mmc:(un)]s(0)Z0S1*/
	$C153  85 DE:       sta $DE			/* A(C2)<4151>X(??)Y(??)MAP[00:[00],01:[01],02:[02],03:[03],mmc:(un)]s(0)Z0S1*/
	$C155  D0 D7:       bne -		; $C12E			/* A(C2)<4151>X(??)Y(??)MAP[00:[00],01:[01],02:[02],03:[03],mmc:(un)]s(0)Z0S1*/(barrier)
;------------------------------------------
_func_4157
	$C157  A9 E4:       lda #$E4			/* A(E4)<4157>X(??)Y(??)MAP[00:[00],01:[01],02:[02],03:[03],mmc:(un)]s(0)Z0S1*/
	$C159  85 DA:       sta $DA			/* A(E4)<4157>X(??)Y(??)MAP[00:[00],01:[01],02:[02],03:[03],mmc:(un)]s(0)Z0S1*/
	$C15B  A9 C2:       lda #$C2			/* A(C2)<415B>X(??)Y(??)MAP[00:[00],01:[01],02:[02],03:[03],mmc:(un)]s(0)Z0S1*/
	$C15D  85 DE:       sta $DE			/* A(C2)<415B>X(??)Y(??)MAP[00:[00],01:[01],02:[02],03:[03],mmc:(un)]s(0)Z0S1*/
	$C15F  D0 CD:       bne -		; $C12E			/* A(C2)<415B>X(??)Y(??)MAP[00:[00],01:[01],02:[02],03:[03],mmc:(un)]s(0)Z0S1*/(barrier)
;------------------------------------------
_func_4161
	$C161  A9 0E:       lda #$0E			/* A(C2)<415B>X(??)Y(??)MAP[00:[00],01:[01],02:[02],03:[03],mmc:(un)]s(0)Z0S1*/
	$C163  85 D8:       sta $D8			/* A(0E)<4161>X(??)Y(??)MAP[00:[00],01:[01],02:[02],03:[03],mmc:(un)]s(0)Z0S0*/
	$C165  A9 C3:       lda #$C3			/* A(C3)<4165>X(??)Y(??)MAP[00:[00],01:[01],02:[02],03:[03],mmc:(un)]s(0)Z0S1*/
	$C167  85 DC:       sta $DC			/* A(C3)<4165>X(??)Y(??)MAP[00:[00],01:[01],02:[02],03:[03],mmc:(un)]s(0)Z0S1*/
	$C169  A9 00:       lda #$00			/* A(00)<4169>X(??)Y(??)MAP[00:[00],01:[01],02:[02],03:[03],mmc:(un)]s(0)Z1S0*/
	$C16B  85 D4:       sta $D4			/* A(00)<4169>X(??)Y(??)MAP[00:[00],01:[01],02:[02],03:[03],mmc:(un)]s(0)Z1S0*/
_func_416D
	$C16D  A9 EB:       lda #$EB			/* A(??)X(??)Y(??)MAP[00:[00],01:[01],02:[02],03:[03],mmc:(un)]s(0)Z?S?*/
	$C16F  85 DA:       sta $DA			/* A(EB)<416D>X(??)Y(??)MAP[00:[00],01:[01],02:[02],03:[03],mmc:(un)]s(0)Z0S1*/
	$C171  A9 C2:       lda #$C2			/* A(C2)<4171>X(??)Y(??)MAP[00:[00],01:[01],02:[02],03:[03],mmc:(un)]s(0)Z0S1*/
	$C173  85 DE:       sta $DE			/* A(C2)<4171>X(??)Y(??)MAP[00:[00],01:[01],02:[02],03:[03],mmc:(un)]s(0)Z0S1*/
	$C175  D0 B7:       bne -		; $C12E			/* A(C2)<4171>X(??)Y(??)MAP[00:[00],01:[01],02:[02],03:[03],mmc:(un)]s(0)Z0S1*/(barrier)
;------------------------------------------
_loc_4177
	$C177  A9 1B:       lda #$1B			/* A(1B)<4177>X(un)Y(un)MAP[00:[00],01:[01],02:[02],03:[03],mmc:(un)]s(0)Z0S0*/
	$C179  85 DA:       sta $DA			/* A(1B)<4177>X(un)Y(un)MAP[00:[00],01:[01],02:[02],03:[03],mmc:(un)]s(0)Z0S0*/
	$C17B  A9 C3:       lda #$C3			/* A(C3)<417B>X(un)Y(un)MAP[00:[00],01:[01],02:[02],03:[03],mmc:(un)]s(0)Z0S1*/
	$C17D  85 DE:       sta $DE			/* A(C3)<417B>X(un)Y(un)MAP[00:[00],01:[01],02:[02],03:[03],mmc:(un)]s(0)Z0S1*/
	$C17F  D0 AD:       bne -		; $C12E			/* A(C3)<417B>X(un)Y(un)MAP[00:[00],01:[01],02:[02],03:[03],mmc:(un)]s(0)Z0S1*/(barrier)

	$C181               .byte $00,$03,$0A,$00,$25,$F0,$25,$F5,$29,$F8,$25,$F8,$29,$F8,$2A,$F0
	$C191               .byte $2A,$F5,$32,$F8,$2A,$F8,$32,$F8,$35,$F3,$FF,$20,$00,$7F,$00,$32
	$C1A1               .byte $F0,$32,$F5,$35,$F8,$32,$F8,$35,$F8,$37,$F0,$37,$F5,$3A,$F8,$37
	$C1B1               .byte $F8,$3A,$F8,$42,$F3,$FF,$00,$02,$0A,$00,$23,$FB,$23,$F8,$2A,$FB
	$C1C1               .byte $2A,$F8,$27,$FB,$27,$F8,$25,$F8,$27,$F8,$25,$F8,$23,$F3,$FF,$20
	$C1D1               .byte $00,$7F,$00,$23,$F3,$1A,$F3,$23,$F3,$FF,$00,$02,$08,$00,$25,$F1
	$C1E1               .byte $22,$E8,$25,$E4,$29,$F1,$25,$E8,$29,$E4,$30,$F3,$FF,$20,$00,$60
	$C1F1               .byte $00,$32,$F1,$2A,$E8,$32,$E4,$35,$F1,$32,$E8,$35,$E4,$39,$F3,$FF
	$C201               .byte $00,$00,$07,$00,$37,$E6,$37,$E6,$37,$E6,$35,$EC,$35,$E6,$37,$F3
	$C211               .byte $FF,$20,$00,$40,$00,$42,$E6,$42,$E6,$42,$E6,$40,$EC,$40,$E6,$42
	$C221               .byte $F3,$FF,$00,$00,$07,$00,$35,$EC,$35,$E6,$35,$F2,$1F,$F6,$FF,$20
	$C231               .byte $00,$40,$00,$40,$EC,$40,$E6,$50,$F2,$1F,$F6,$FF,$30,$00,$00,$00
	$C241               .byte $0A,$E2,$FF,$00,$02,$1F,$00,$A0,$40,$17,$F1,$FF,$30,$00,$00,$00
	$C251               .byte $07,$F0,$1F,$F0,$07,$F0,$07,$F0,$B5,$02,$07,$F0,$07,$F0,$07,$F0
	$C261               .byte $1F,$F0,$B1,$07,$07,$F0,$07,$F0,$07,$F0,$07,$F0,$07,$F0,$1F,$F0
	$C271               .byte $07,$F0,$07,$F0,$B2,$0C,$07,$F0,$1F,$F0,$07,$F0,$1F,$F0,$07,$F0
	$C281               .byte $07,$F0,$07,$F0,$1F,$F0,$FF,$30,$00,$1F,$00,$0D,$E4,$A0,$1D,$0D
	$C291               .byte $E4,$A0,$1A,$0D,$E4,$A0,$18,$0D,$E4,$A0,$15,$0D,$E4,$A0,$13,$0D
	$C2A1               .byte $E4,$A0,$11,$0D,$E4,$FF,$00,$00,$1F,$00,$30,$F2,$FF,$20,$00,$7F
	$C2B1               .byte $00,$44,$F2,$FF,$00,$03,$0F,$00,$44,$F0,$40,$F2,$FF,$10,$01,$1F
	$C2C1               .byte $82,$20,$E4,$A0,$1D,$20,$E4,$A0,$1B,$20,$E4,$A0,$19,$20,$E4,$A0
	$C2D1               .byte $16,$20,$E4,$A0,$14,$20,$E4,$FF,$30,$00,$00,$00,$0B,$F1,$0B,$F0
	$C2E1               .byte $0B,$F0,$FF,$30,$00,$00,$01,$0F,$EF,$FF,$30,$00,$1F,$00,$09,$F4
	$C2F1               .byte $A0,$1E,$09,$F3,$A0,$1C,$09,$F2,$A0,$1A,$09,$F1,$A0,$18,$09,$F1
	$C301               .byte $A0,$16,$09,$F1,$A0,$14,$09,$F1,$A0,$12,$09,$F1,$FF,$10,$01,$19
	$C311               .byte $C4,$60,$ED,$60,$ED,$1F,$F6,$B2,$02,$FF,$30,$00,$1F,$00,$07,$E4
	$C321               .byte $06,$E4,$05,$E3,$04,$E3,$FF,$30,$00,$1F,$00,$08,$E1,$07,$E1,$06
	$C331               .byte $E1,$05,$E1,$04,$E1,$FF
_func_4337
	$C337  20 C4 8E:    jsr _func_0EC4			/* A(??)X(??)Y(??)MAP[00:(??),01:(??),02:(??),03:(??),mmc:(un)]s(0)Z?S?*/
	$C33A  20 F1 8E:    jsr _func_0EF1			/* A(??)X(??)Y(??)MAP[00:(??),01:(??),02:(??),03:(??),mmc:(un)]s(0)Z?S?*/
	$C33D  A0 00:       ldy #$00			/* A(??)X(??)Y(00)<433D>MAP[00:[00],01:[01],02:[02],03:[03],mmc:(un)]s(0)Z1S0*/
	$C33F  A9 08:       lda #$08			/* A(08)<433F>X(??)Y(00)<433D>MAP[00:[00],01:[01],02:[02],03:[03],mmc:(un)]s(0)Z0S0*/
	$C341  85 14:       sta $14			/* A(08)<433F>X(??)Y(00)<433D>MAP[00:[00],01:[01],02:[02],03:[03],mmc:(un)]s(0)Z0S0*/
	$C343  A9 F0:       lda #<_data_43F0			/* A(F0)<4343>X(??)Y(00)<433D>MAP[00:[00],01:[01],02:[02],03:[03],mmc:(un)]s(0)Z0S1*/
	$C345  85 10:       sta $10			/* A(F0)<4343>X(??)Y(00)<433D>MAP[00:[00],01:[01],02:[02],03:[03],mmc:(un)]s(0)Z0S1*/
	$C347  A9 C3:       lda #>_data_43F0			/* A(C3)<4347>X(??)Y(00)<433D>MAP[00:[00],01:[01],02:[02],03:[03],mmc:(un)]s(0)Z0S1*/
	$C349  85 11:       sta $11			/* A(C3)<4347>X(??)Y(00)<433D>MAP[00:[00],01:[01],02:[02],03:[03],mmc:(un)]s(0)Z0S1*/
	$C34B  A9 20:       lda #$20			/* A(20)<434B>X(??)Y(00)<433D>MAP[00:[00],01:[01],02:[02],03:[03],mmc:(un)]s(0)Z0S0*/
	$C34D  85 13:       sta $13			/* A(20)<434B>X(??)Y(00)<433D>MAP[00:[00],01:[01],02:[02],03:[03],mmc:(un)]s(0)Z0S0*/
	$C34F  A9 A5:       lda #$A5			/* A(A5)<434F>X(??)Y(00)<433D>MAP[00:[00],01:[01],02:[02],03:[03],mmc:(un)]s(0)Z0S1*/
	$C351  85 12:       sta $12			/* A(A5)<434F>X(??)Y(00)<433D>MAP[00:[00],01:[01],02:[02],03:[03],mmc:(un)]s(0)Z0S1*/
	$C353  85 1D:       sta $1D			/* A(A5)<434F>X(??)Y(00)<433D>MAP[00:[00],01:[01],02:[02],03:[03],mmc:(un)]s(0)Z0S1*/
--	$C355  AD 02 20:    lda $2002			/* A(??)X(??)Y(00)<433D>MAP[00:[00],01:[01],02:[02],03:[03],mmc:(un)]s(0)Z?S?*/
	$C358  A5 13:       lda $13			/* A(??)X(??)Y(00)<433D>MAP[00:[00],01:[01],02:[02],03:[03],mmc:(un)]s(0)Z?S?*/
	$C35A  8D 06 20:    sta $2006			/* A(??)X(??)Y(00)<433D>MAP[00:[00],01:[01],02:[02],03:[03],mmc:(un)]s(0)Z?S?*/
	$C35D  A5 12:       lda $12			/* A(??)X(??)Y(00)<433D>MAP[00:[00],01:[01],02:[02],03:[03],mmc:(un)]s(0)Z?S?*/
	$C35F  8D 06 20:    sta $2006			/* A(??)X(??)Y(00)<433D>MAP[00:[00],01:[01],02:[02],03:[03],mmc:(un)]s(0)Z?S?*/
	$C362  A2 00:       ldx #$00			/* A(??)X(00)<4362>Y(00)<433D>MAP[00:[00],01:[01],02:[02],03:[03],mmc:(un)]s(0)Z1S0*/
-	$C364  B1 10:       lda ($10),y			/* A(??)X(00)<4362>Y(00)<433D>MAP[00:[00],01:[01],02:[02],03:[03],mmc:(un)]s(0)Z?S?*/
	$C366  8D 07 20:    sta $2007			/* A(??)X(00)<4362>Y(00)<433D>MAP[00:[00],01:[01],02:[02],03:[03],mmc:(un)]s(0)Z?S?*/
	$C369  C8:          iny 			/* A(??)X(00)<4362>Y(??)MAP[00:[00],01:[01],02:[02],03:[03],mmc:(un)]s(0)Z?S?*/
	$C36A  D0 02:       bne +		; $C36E			/* A(??)X(00)<4362>Y(??)MAP[00:[00],01:[01],02:[02],03:[03],mmc:(un)]s(0)Z?S?*/
	$C36C  E6 11:       inc $11			/* A(??)X(00)<4362>Y(??)MAP[00:[00],01:[01],02:[02],03:[03],mmc:(un)]s(0)Z?S?*/
+	$C36E  E8:          inx 			/* A(??)X(00)<4362>Y(??)MAP[00:[00],01:[01],02:[02],03:[03],mmc:(un)]s(0)Z?S?*/
	$C36F  E0 16:       cpx #$16			/* A(??)X(??)Y(??)MAP[00:[00],01:[01],02:[02],03:[03],mmc:(un)]s(0)Z?S?*/
	$C371  90 F1:       bcc -		; $C364			/* A(??)X(??)Y(??)MAP[00:[00],01:[01],02:[02],03:[03],mmc:(un)]s(0)Z?S?*/
	$C373  A5 12:       lda $12			/* A(??)X(??)Y(??)MAP[00:[00],01:[01],02:[02],03:[03],mmc:(un)]s(0)Z?S?*/
	$C375  18:          clc 			/* A(??)X(??)Y(??)MAP[00:[00],01:[01],02:[02],03:[03],mmc:(un)]s(0)Z?S?*/
	$C376  69 20:       adc #$20			/* A(??)X(??)Y(??)MAP[00:[00],01:[01],02:[02],03:[03],mmc:(un)]s(0)Z?S?*/
	$C378  85 12:       sta $12			/* A(??)X(??)Y(??)MAP[00:[00],01:[01],02:[02],03:[03],mmc:(un)]s(0)Z?S?*/
	$C37A  A5 13:       lda $13			/* A(??)X(??)Y(??)MAP[00:[00],01:[01],02:[02],03:[03],mmc:(un)]s(0)Z?S?*/
	$C37C  69 00:       adc #$00			/* A(??)X(??)Y(??)MAP[00:[00],01:[01],02:[02],03:[03],mmc:(un)]s(0)Z?S?*/
	$C37E  85 13:       sta $13			/* A(??)X(??)Y(??)MAP[00:[00],01:[01],02:[02],03:[03],mmc:(un)]s(0)Z?S?*/
	$C380  C6 14:       dec $14			/* A(??)X(??)Y(??)MAP[00:[00],01:[01],02:[02],03:[03],mmc:(un)]s(0)Z?S?*/
	$C382  10 D1:       bpl --		; $C355			/* A(??)X(??)Y(??)MAP[00:[00],01:[01],02:[02],03:[03],mmc:(un)]s(0)Z?S?*/
	$C384  A2 00:       ldx #$00			/* A(??)X(00)<4384>Y(??)MAP[00:[00],01:[01],02:[02],03:[03],mmc:(un)]s(0)Z1S0*/
	$C386  A9 23:       lda #$23			/* A(23)<4386>X(00)<4384>Y(??)MAP[00:[00],01:[01],02:[02],03:[03],mmc:(un)]s(0)Z0S0*/
	$C388  A0 05:       ldy #$05			/* A(23)<4386>X(00)<4384>Y(05)<4388>MAP[00:[00],01:[01],02:[02],03:[03],mmc:(un)]s(0)Z0S0*/
	$C38A  20 74 94:    jsr _func_1474			/* A(??)X(??)Y(??)MAP[00:(??),01:(??),02:(??),03:(??),mmc:(un)]s(0)Z?S?*/
-	$C38D  BD B6 C4:    lda _data_44B6_indexed,x			/* A$44B6,x<438D>X(00)<4384>Y(05)<4388>MAP[00:[00],01:[01],02:[02],03:[03],mmc:(un)]s(0)Z?S?*/
	$C390  8D 07 20:    sta $2007			/* A$44B6,x<438D>X(00)<4384>Y(05)<4388>MAP[00:[00],01:[01],02:[02],03:[03],mmc:(un)]s(0)Z?S?*/
	$C393  E8:          inx 			/* A$44B6,x<438D>X(??)Y(05)<4388>MAP[00:[00],01:[01],02:[02],03:[03],mmc:(un)]s(0)Z?S?*/
	$C394  E0 15:       cpx #$15			/* A$44B6,x<438D>X(??)Y(05)<4388>MAP[00:[00],01:[01],02:[02],03:[03],mmc:(un)]s(0)Z?S?*/
	$C396  90 F5:       bcc -		; $C38D			/* A$44B6,x<438D>X(??)Y(05)<4388>MAP[00:[00],01:[01],02:[02],03:[03],mmc:(un)]s(0)Z?S?*/
	$C398  A2 00:       ldx #$00			/* A$44B6,x<438D>X(00)<4398>Y(05)<4388>MAP[00:[00],01:[01],02:[02],03:[03],mmc:(un)]s(0)Z1S0*/
	$C39A  A9 23:       lda #$23			/* A(23)<439A>X(00)<4398>Y(05)<4388>MAP[00:[00],01:[01],02:[02],03:[03],mmc:(un)]s(0)Z0S0*/
	$C39C  A0 45:       ldy #$45			/* A(23)<439A>X(00)<4398>Y(45)<439C>MAP[00:[00],01:[01],02:[02],03:[03],mmc:(un)]s(0)Z0S0*/
	$C39E  20 74 94:    jsr _func_1474			/* A(??)X(??)Y(??)MAP[00:(??),01:(??),02:(??),03:(??),mmc:(un)]s(0)Z?S?*/
-	$C3A1  BD CB C4:    lda _data_44CB_indexed,x			/* A$44CB,x<43A1>X(00)<4398>Y(45)<439C>MAP[00:[00],01:[01],02:[02],03:[03],mmc:(un)]s(0)Z?S?*/
	$C3A4  8D 07 20:    sta $2007			/* A$44CB,x<43A1>X(00)<4398>Y(45)<439C>MAP[00:[00],01:[01],02:[02],03:[03],mmc:(un)]s(0)Z?S?*/
	$C3A7  E8:          inx 			/* A$44CB,x<43A1>X(??)Y(45)<439C>MAP[00:[00],01:[01],02:[02],03:[03],mmc:(un)]s(0)Z?S?*/
	$C3A8  E0 0E:       cpx #$0E			/* A$44CB,x<43A1>X(??)Y(45)<439C>MAP[00:[00],01:[01],02:[02],03:[03],mmc:(un)]s(0)Z?S?*/
	$C3AA  90 F5:       bcc -		; $C3A1			/* A$44CB,x<43A1>X(??)Y(45)<439C>MAP[00:[00],01:[01],02:[02],03:[03],mmc:(un)]s(0)Z?S?*/
	$C3AC  A9 23:       lda #$23			/* A(23)<43AC>X(??)Y(45)<439C>MAP[00:[00],01:[01],02:[02],03:[03],mmc:(un)]s(0)Z0S0*/
	$C3AE  A0 C0:       ldy #$C0			/* A(23)<43AC>X(??)Y(C0)<43AE>MAP[00:[00],01:[01],02:[02],03:[03],mmc:(un)]s(0)Z0S1*/
	$C3B0  20 74 94:    jsr _func_1474			/* A(??)X(??)Y(??)MAP[00:(??),01:(??),02:(??),03:(??),mmc:(un)]s(0)Z?S?*/
	$C3B3  A0 00:       ldy #$00			/* A(23)<43AC>X(??)Y(00)<43B3>MAP[00:[00],01:[01],02:[02],03:[03],mmc:(un)]s(0)Z1S0*/
-	$C3B5  B9 23 C5:    lda _data_4523_indexed,y			/* A$4523,y<43B5>X(??)Y(00)<43B3>MAP[00:[00],01:[01],02:[02],03:[03],mmc:(un)]s(0)Z?S?*/
	$C3B8  8D 07 20:    sta $2007			/* A$4523,y<43B5>X(??)Y(00)<43B3>MAP[00:[00],01:[01],02:[02],03:[03],mmc:(un)]s(0)Z?S?*/
	$C3BB  C8:          iny 			/* A(??)X(??)Y(??)MAP[00:[00],01:[01],02:[02],03:[03],mmc:(un)]s(0)Z?S?*/
	$C3BC  C0 20:       cpy #$20			/* A(??)X(??)Y(??)MAP[00:[00],01:[01],02:[02],03:[03],mmc:(un)]s(0)Z?S?*/
	$C3BE  90 F5:       bcc -		; $C3B5			/* A(??)X(??)Y(??)MAP[00:[00],01:[01],02:[02],03:[03],mmc:(un)]s(0)Z?S?*/
	$C3C0  A2 1F:       ldx #$1F			/* A(??)X(1F)<43C0>Y(??)MAP[00:[00],01:[01],02:[02],03:[03],mmc:(un)]s(0)Z0S0*/
-	$C3C2  BD D9 C4:    lda _data_44D9_indexed,x			/* A$44D9,x<43C2>X(1F)<43C0>Y(??)MAP[00:[00],01:[01],02:[02],03:[03],mmc:(un)]s(0)Z?S?*/
	$C3C5  95 A3:       sta $A3,x			/* A$44D9,x<43C2>X(1F)<43C0>Y(??)MAP[00:[00],01:[01],02:[02],03:[03],mmc:(un)]s(0)Z?S?*/
	$C3C7  CA:          dex 			/* A$44D9,x<43C2>X(??)Y(??)MAP[00:[00],01:[01],02:[02],03:[03],mmc:(un)]s(0)Z?S?*/
	$C3C8  10 F8:       bpl -		; $C3C2			/* A$44D9,x<43C2>X(??)Y(??)MAP[00:[00],01:[01],02:[02],03:[03],mmc:(un)]s(0)Z?S?*/
	$C3CA  A9 22:       lda #$22			/* A(22)<43CA>X(??)Y(??)MAP[00:[00],01:[01],02:[02],03:[03],mmc:(un)]s(0)Z0S0*/
	$C3CC  A0 4C:       ldy #$4C			/* A(22)<43CA>X(??)Y(4C)<43CC>MAP[00:[00],01:[01],02:[02],03:[03],mmc:(un)]s(0)Z0S0*/
	$C3CE  20 74 94:    jsr _func_1474			/* A(??)X(??)Y(??)MAP[00:(??),01:(??),02:(??),03:(??),mmc:(un)]s(0)Z?S?*/
	$C3D1  A9 01:       lda #$01			/* A(01)<43D1>X(??)Y(4C)<43CC>MAP[00:[00],01:[01],02:[02],03:[03],mmc:(un)]s(0)Z0S0*/
	$C3D3  8D 07 20:    sta $2007			/* A(01)<43D1>X(??)Y(4C)<43CC>MAP[00:[00],01:[01],02:[02],03:[03],mmc:(un)]s(0)Z0S0*/
	$C3D6  20 F9 C4:    jsr _func_44F9			/* A(??)X(??)Y(??)MAP[00:(??),01:(??),02:(??),03:(??),mmc:(un)]s(0)Z?S?*/
	$C3D9  A9 22:       lda #$22			/* A(22)<43D9>X(??)Y(4C)<43CC>MAP[00:[00],01:[01],02:[02],03:[03],mmc:(un)]s(0)Z0S0*/
	$C3DB  A0 8C:       ldy #$8C			/* A(22)<43D9>X(??)Y(8C)<43DB>MAP[00:[00],01:[01],02:[02],03:[03],mmc:(un)]s(0)Z0S1*/
	$C3DD  20 74 94:    jsr _func_1474			/* A(??)X(??)Y(??)MAP[00:(??),01:(??),02:(??),03:(??),mmc:(un)]s(0)Z?S?*/
	$C3E0  A9 02:       lda #$02			/* A(02)<43E0>X(??)Y(8C)<43DB>MAP[00:[00],01:[01],02:[02],03:[03],mmc:(un)]s(0)Z0S0*/
	$C3E2  8D 07 20:    sta $2007			/* A(02)<43E0>X(??)Y(8C)<43DB>MAP[00:[00],01:[01],02:[02],03:[03],mmc:(un)]s(0)Z0S0*/
	$C3E5  20 F9 C4:    jsr _func_44F9			/* A(??)X(??)Y(??)MAP[00:(??),01:(??),02:(??),03:(??),mmc:(un)]s(0)Z?S?*/
	$C3E8  A9 1C:       lda #$1C			/* A(1C)<43E8>X(??)Y(8C)<43DB>MAP[00:[00],01:[01],02:[02],03:[03],mmc:(un)]s(0)Z0S0*/
	$C3EA  8D 07 20:    sta $2007			/* A(1C)<43E8>X(??)Y(8C)<43DB>MAP[00:[00],01:[01],02:[02],03:[03],mmc:(un)]s(0)Z0S0*/
	$C3ED  4C 37 8F:    jmp _func_0F37			/* A(1C)<43E8>X(??)Y(8C)<43DB>MAP[00:[00],01:[01],02:[02],03:[03],mmc:(un)]s(0)Z0S0*/(barrier)
;------------------------------------------
_data_43F0
	$C3F0               .byte $30,$30,$30,$30,$CD,$BD,$CE,$CA,$CB,$CC,$D0,$30,$30,$30,$30,$30
	$C400               .byte $30,$30,$30,$30,$30,$30,$30,$30,$30,$30,$30,$BD,$CF,$BD,$CF,$BD
	$C410               .byte $CF,$30,$30,$30,$30,$30,$30,$30,$30,$30,$30,$30,$30,$30,$30,$30
	$C420               .byte $30,$BD,$CF,$BD,$CF,$BD,$CF,$30,$EB,$EC,$ED,$EE,$EF,$F0,$F1,$30
	$C430               .byte $30,$30,$30,$30,$30,$30,$CD,$CB,$D1,$D5,$CB,$D2,$D3,$26,$F2,$F3
	$C440               .byte $F4,$F5,$F6,$F7,$FE,$30,$30,$30,$30,$30,$30,$30,$30,$30,$30,$30
	$C450               .byte $30,$30,$30,$30,$30,$30,$30,$30,$30,$30,$30,$30,$30,$30,$D4,$D6
	$C460               .byte $CB,$D7,$CD,$BD,$D8,$D9,$DA,$CB,$DB,$D0,$D4,$D6,$DC,$BD,$D8,$DD
	$C470               .byte $CB,$BD,$CB,$D7,$DD,$DE,$DF,$E0,$30,$BD,$CF,$DD,$E1,$E2,$E3,$E4
	$C480               .byte $DD,$DE,$E5,$BD,$CF,$E6,$E7,$BD,$CF,$E0,$DD,$E1,$E8,$30,$30,$BD
	$C490               .byte $CF
_data_4491
	$C491               .byte $DD,$E9,$E0,$BD,$CF,$DD,$E1,$E8,$BD,$CF,$30,$30,$BD,$CF,$30,$EA
	$C4A1               .byte $CB,$CE,$30,$CD,$CB,$D1,$C9,$EA,$CB,$CB,$CF,$EA,$CB,$DC,$CB,$D1
	$C4B1               .byte $30,$CD,$CB,$D1,$30
_data_44B6_indexed
	$C4B6               .byte $2C,$01,$09,$08,$03,$30,$01,$09,$08,$05,$30,$12,$1B,$0E,$16,$30
	$C4C6               .byte $0C,$18,$1B,$19,$24
_data_44CB_indexed
	$C4CB               .byte $2C,$01,$09,$08,$05,$30,$17,$12,$17,$1D,$0E,$17,$0D,$18
_data_44D9_indexed
	$C4D9               .byte $0F,$0F,$16,$30,$0F,$28,$16,$2C,$0F,$0F,$0F,$12,$0F,$0F,$0F,$16
	$C4E9               .byte $0F,$0F,$16,$20,$0F,$26,$0F,$2C,$0F,$00,$30,$30,$0F,$12,$28,$16
_func_44F9
	$C4F9  A2 00:       ldx #$00			/* A(??)X(??)Y(??)MAP[00:[00],01:[01],02:[02],03:[03],mmc:(un)]s(0)Z?S?*/
-	$C4FB  BD 07 C5:    lda _data_4507_indexed,x			/* A$4507,x<44FB>X(00)<44F9>Y(4C)<43CC>MAP[00:[00],01:[01],02:[02],03:[03],mmc:(un)]s(0)Z?S?*/
	$C4FE  8D 07 20:    sta $2007			/* A$4507,x<44FB>X(00)<44F9>Y(4C)<43CC>MAP[00:[00],01:[01],02:[02],03:[03],mmc:(un)]s(0)Z?S?*/
	$C501  E8:          inx 			/* A$4507,x<44FB>X(??)Y(4C)<43CC>MAP[00:[00],01:[01],02:[02],03:[03],mmc:(un)]s(0)Z?S?*/
	$C502  E0 07:       cpx #$07			/* A$4507,x<44FB>X(??)Y(4C)<43CC>MAP[00:[00],01:[01],02:[02],03:[03],mmc:(un)]s(0)Z?S?*/
	$C504  90 F5:       bcc -		; $C4FB			/* A$4507,x<44FB>X(??)Y(4C)<43CC>MAP[00:[00],01:[01],02:[02],03:[03],mmc:(un)]s(0)Z?S?*/
	$C506  60:          rts 			/* A$4507,x<44FB>X(??)Y(4C)<43CC>MAP[00:[00],01:[01],02:[02],03:[03],mmc:(un)]s(0)Z?S?*/(barrier)
;------------------------------------------
_data_4507_indexed
	$C507               .byte $30,$19,$15,$0A,$22,$0E,$1B,$01,$1E,$19,$30,$30,$30,$30,$30,$30
	$C517               .byte $30,$30,$30,$30,$30,$30,$30,$30,$30,$02,$1E,$19
_data_4523_indexed
	$C523               .byte $00,$00,$00,$00,$00,$00,$00,$00,$00,$55,$55,$55,$55,$55,$55,$00
	$C533               .byte $00,$55,$55,$55,$55,$55,$55,$00,$00,$55,$55,$55,$55,$55,$55,$00
_func_4543
	$C543  A2 00:       ldx #$00			/* A(??)X(00)<4543>Y(??)MAP[00:[00],01:[01],02:[02],03:[03],mmc:(un)]s(0)Z?S?*/
-	$C545  BD 00 03:    lda $0300,x			/* A(??)X(00)<4543>Y(??)MAP[00:[00],01:[01],02:[02],03:[03],mmc:(un)]s(0)Z?S?*/
	$C548  29 1F:       and #$1F			/* A(??)X(00)<4543>Y(??)MAP[00:[00],01:[01],02:[02],03:[03],mmc:(un)]s(0)Z?S?*/
	$C54A  C9 01:       cmp #$01			/* A(??)X(00)<4543>Y(??)MAP[00:[00],01:[01],02:[02],03:[03],mmc:(un)]s(0)Z?S?*/
	$C54C  F0 09:       beq +		; $C557 -> rts			/* A(??)X(00)<4543>Y(??)MAP[00:[00],01:[01],02:[02],03:[03],mmc:(un)]s(0)Z?S?*/
	$C54E  8A:          txa 			/* A(00)<454E>X(00)<4543>Y(??)MAP[00:[00],01:[01],02:[02],03:[03],mmc:(un)]s(0)Z1S0*/
	$C54F  18:          clc 			/* A(00)<454E>X(00)<4543>Y(??)MAP[00:[00],01:[01],02:[02],03:[03],mmc:(un)]s(0)Z1S0*/
	$C550  69 08:       adc #$08			/* A(??)X(00)<4543>Y(??)MAP[00:[00],01:[01],02:[02],03:[03],mmc:(un)]s(0)Z?S?*/
	$C552  AA:          tax 			/* A(??)X(??)Y(??)MAP[00:[00],01:[01],02:[02],03:[03],mmc:(un)]s(0)Z?S?*/
	$C553  C9 20:       cmp #$20			/* A(??)X(??)Y(??)MAP[00:[00],01:[01],02:[02],03:[03],mmc:(un)]s(0)Z?S?*/
	$C555  90 EE:       bcc -		; $C545			/* A(??)X(??)Y(??)MAP[00:[00],01:[01],02:[02],03:[03],mmc:(un)]s(0)Z?S?*/
+	$C557  60:          rts 			/* A(??)X(00)<4543>Y(??)MAP[00:[00],01:[01],02:[02],03:[03],mmc:(un)]s(0)Z?S?*/(barrier)
;------------------------------------------
_func_4558
	$C558  20 43 C5:    jsr _func_4543			/* A(FF)<26E>X(??)Y(??)MAP[00:[00],01:[01],02:[02],03:[03],mmc:(un)]s(0)Z?S?*/
	$C55B  86 F8:       stx $F8			/* A(??)X(??)Y(??)MAP[00:[00],01:[01],02:[02],03:[03],mmc:(un)]s(0)Z?S?*/
	$C55D  A9 07:       lda #$07			/* A(07)<455D>X(??)Y(??)MAP[00:[00],01:[01],02:[02],03:[03],mmc:(un)]s(0)Z0S0*/
	$C55F  85 F9:       sta $F9			/* A(07)<455D>X(??)Y(??)MAP[00:[00],01:[01],02:[02],03:[03],mmc:(un)]s(0)Z0S0*/
-	$C561  20 6F C5:    jsr _func_456F			/* A(??)X(??)Y(??)MAP[00:[00],01:[01],02:[02],03:[03],mmc:(un)]s(0)Z?S?*/
	$C564  C6 F9:       dec $F9			/* A(??)X(??)Y(??)MAP[00:[00],01:[01],02:[02],03:[03],mmc:(un)]s(0)Z?S?*/
	$C566  10 F9:       bpl -		; $C561			/* A(??)X(??)Y(??)MAP[00:[00],01:[01],02:[02],03:[03],mmc:(un)]s(0)Z?S?*/
	$C568  A5 1B:       lda $1B			/* A(??)X(??)Y(??)MAP[00:[00],01:[01],02:[02],03:[03],mmc:(un)]s(0)Z?S?*/
	$C56A  49 FF:       eor #$FF			/* A(??)X(??)Y(??)MAP[00:[00],01:[01],02:[02],03:[03],mmc:(un)]s(0)Z?S?*/
	$C56C  85 FA:       sta $FA			/* A(??)X(??)Y(??)MAP[00:[00],01:[01],02:[02],03:[03],mmc:(un)]s(0)Z?S?*/
	$C56E  60:          rts 			/* A(??)X(??)Y(??)MAP[00:[00],01:[01],02:[02],03:[03],mmc:(un)]s(0)Z?S?*/(barrier)
;------------------------------------------
_func_456F
	$C56F  A4 F8:       ldy $F8			/* A(07)<455D>X(??)Y(??)MAP[00:[00],01:[01],02:[02],03:[03],mmc:(un)]s(0)Z?S?*/
	$C571  B9 04 03:    lda $0304,y			/* A(??)X(??)Y(??)MAP[00:[00],01:[01],02:[02],03:[03],mmc:(un)]s(0)Z?S?*/
	$C574  85 19:       sta $19			/* A(??)X(??)Y(??)MAP[00:[00],01:[01],02:[02],03:[03],mmc:(un)]s(0)Z?S?*/
	$C576  B9 05 03:    lda $0305,y			/* A(??)X(??)Y(??)MAP[00:[00],01:[01],02:[02],03:[03],mmc:(un)]s(0)Z?S?*/
	$C579  85 17:       sta $17			/* A(??)X(??)Y(??)MAP[00:[00],01:[01],02:[02],03:[03],mmc:(un)]s(0)Z?S?*/
	$C57B  B9 06 03:    lda $0306,y			/* A(??)X(??)Y(??)MAP[00:[00],01:[01],02:[02],03:[03],mmc:(un)]s(0)Z?S?*/
	$C57E  85 18:       sta $18			/* A(??)X(??)Y(??)MAP[00:[00],01:[01],02:[02],03:[03],mmc:(un)]s(0)Z?S?*/
	$C580  A5 F9:       lda $F9			/* A(??)X(??)Y(??)MAP[00:[00],01:[01],02:[02],03:[03],mmc:(un)]s(0)Z?S?*/
	$C582  0A:          asl a			/* A(??)X(??)Y(??)MAP[00:[00],01:[01],02:[02],03:[03],mmc:(un)]s(0)Z?S?*/
	$C583  0A:          asl a			/* A(??)X(??)Y(??)MAP[00:[00],01:[01],02:[02],03:[03],mmc:(un)]s(0)Z?S?*/
	$C584  A8:          tay 			/* A(??)X(??)Y(??)MAP[00:[00],01:[01],02:[02],03:[03],mmc:(un)]s(0)Z?S?*/
	$C585  A5 19:       lda $19			/* A(??)X(??)Y(??)MAP[00:[00],01:[01],02:[02],03:[03],mmc:(un)]s(0)Z?S?*/
	$C587  18:          clc 			/* A(??)X(??)Y(??)MAP[00:[00],01:[01],02:[02],03:[03],mmc:(un)]s(0)Z?S?*/
	$C588  79 AF C5:    adc _data_45AF_indexed,y			/* A$45AF,yX(??)Y(??)MAP[00:[00],01:[01],02:[02],03:[03],mmc:(un)]s(0)Z?S?*/
	$C58B  85 19:       sta $19			/* A$45AF,yX(??)Y(??)MAP[00:[00],01:[01],02:[02],03:[03],mmc:(un)]s(0)Z?S?*/
	$C58D  A5 17:       lda $17			/* A(??)X(??)Y(??)MAP[00:[00],01:[01],02:[02],03:[03],mmc:(un)]s(0)Z?S?*/
	$C58F  18:          clc 			/* A(??)X(??)Y(??)MAP[00:[00],01:[01],02:[02],03:[03],mmc:(un)]s(0)Z?S?*/
	$C590  79 B0 C5:    adc _data_45B0_indexed,y			/* A$45B0,yX(??)Y(??)MAP[00:[00],01:[01],02:[02],03:[03],mmc:(un)]s(0)Z?S?*/
	$C593  85 17:       sta $17			/* A$45B0,yX(??)Y(??)MAP[00:[00],01:[01],02:[02],03:[03],mmc:(un)]s(0)Z?S?*/
	$C595  A5 18:       lda $18			/* A(??)X(??)Y(??)MAP[00:[00],01:[01],02:[02],03:[03],mmc:(un)]s(0)Z?S?*/
	$C597  79 B1 C5:    adc _data_45B1_indexed,y			/* A$45B1,yX(??)Y(??)MAP[00:[00],01:[01],02:[02],03:[03],mmc:(un)]s(0)Z?S?*/
	$C59A  85 18:       sta $18			/* A$45B1,yX(??)Y(??)MAP[00:[00],01:[01],02:[02],03:[03],mmc:(un)]s(0)Z?S?*/
	$C59C  A2 48:       ldx #$48			/* A$45B1,yX(48)<459C>Y(??)MAP[00:[00],01:[01],02:[02],03:[03],mmc:(un)]s(0)Z0S0*/
-	$C59E  20 CF C5:    jsr _func_45CF			/* A(??)X(??)Y(??)MAP[00:[00],01:[01],02:[02],03:[03],mmc:(un)]s(0)Z?S?*/
	$C5A1  90 09:       bcc +		; $C5AC			/* A$45B1,yX(48)<459C>Y(??)MAP[00:[00],01:[01],02:[02],03:[03],mmc:(un)]s(0)Z?S?*/
	$C5A3  8A:          txa 			/* A(48)<45A3>X(48)<459C>Y(??)MAP[00:[00],01:[01],02:[02],03:[03],mmc:(un)]s(0)Z0S0*/
	$C5A4  18:          clc 			/* A(48)<45A3>X(48)<459C>Y(??)MAP[00:[00],01:[01],02:[02],03:[03],mmc:(un)]s(0)Z0S0*/
	$C5A5  69 08:       adc #$08			/* A(??)X(48)<459C>Y(??)MAP[00:[00],01:[01],02:[02],03:[03],mmc:(un)]s(0)Z?S?*/
	$C5A7  AA:          tax 			/* A(??)X(??)Y(??)MAP[00:[00],01:[01],02:[02],03:[03],mmc:(un)]s(0)Z?S?*/
	$C5A8  C9 90:       cmp #$90			/* A(??)X(??)Y(??)MAP[00:[00],01:[01],02:[02],03:[03],mmc:(un)]s(0)Z?S?*/
	$C5AA  90 F2:       bcc -		; $C59E			/* A(??)X(??)Y(??)MAP[00:[00],01:[01],02:[02],03:[03],mmc:(un)]s(0)Z?S?*/
+	$C5AC  26 1B:       rol $1B			/* A(??)X(48)<459C>Y(??)MAP[00:[00],01:[01],02:[02],03:[03],mmc:(un)]s(0)Z?S?*/
	$C5AE  60:          rts 			/* A(??)X(48)<459C>Y(??)MAP[00:[00],01:[01],02:[02],03:[03],mmc:(un)]s(0)Z?S?*/(barrier)
;------------------------------------------
_data_45AF_indexed
	$C5AF               .byte $F4
_data_45B0_indexed
	$C5B0               .byte $E0
_data_45B1_indexed
	$C5B1               .byte $FF,$FF,$08,$E0,$FF,$FF,$08,$F4,$FF,$FF,$08,$08,$00,$FF,$F4,$08
	$C5C1               .byte $00,$FF,$E0,$08,$00,$FF,$E0,$F4,$FF,$FF,$E0,$E0,$FF,$FF
_func_45CF
	$C5CF  BD 04 03:    lda $0304,x			/* A(??)X(48)<459C>Y(??)MAP[00:[00],01:[01],02:[02],03:[03],mmc:(un)]s(0)Z?S?*/
	$C5D2  38:          sec 			/* A(??)X(48)<459C>Y(??)MAP[00:[00],01:[01],02:[02],03:[03],mmc:(un)]s(0)Z?S?*/
	$C5D3  E5 19:       sbc $19			/* A(??)X(48)<459C>Y(??)MAP[00:[00],01:[01],02:[02],03:[03],mmc:(un)]s(0)Z?S?*/
	$C5D5  90 1A:       bcc +		; $C5F1			/* A(??)X(48)<459C>Y(??)MAP[00:[00],01:[01],02:[02],03:[03],mmc:(un)]s(0)Z?S?*/
	$C5D7  C9 19:       cmp #$19			/* A(??)X(48)<459C>Y(??)MAP[00:[00],01:[01],02:[02],03:[03],mmc:(un)]s(0)Z?S?*/
	$C5D9  B0 16:       bcs +		; $C5F1			/* A(??)X(48)<459C>Y(??)MAP[00:[00],01:[01],02:[02],03:[03],mmc:(un)]s(0)Z?S?*/
	$C5DB  BD 05 03:    lda $0305,x			/* A(??)X(48)<459C>Y(??)MAP[00:[00],01:[01],02:[02],03:[03],mmc:(un)]s(0)Z?S?*/
	$C5DE  38:          sec 			/* A(??)X(48)<459C>Y(??)MAP[00:[00],01:[01],02:[02],03:[03],mmc:(un)]s(0)Z?S?*/
	$C5DF  E5 17:       sbc $17			/* A(??)X(48)<459C>Y(??)MAP[00:[00],01:[01],02:[02],03:[03],mmc:(un)]s(0)Z?S?*/
	$C5E1  85 1A:       sta $1A			/* A(??)X(48)<459C>Y(??)MAP[00:[00],01:[01],02:[02],03:[03],mmc:(un)]s(0)Z?S?*/
	$C5E3  BD 06 03:    lda $0306,x			/* A(??)X(48)<459C>Y(??)MAP[00:[00],01:[01],02:[02],03:[03],mmc:(un)]s(0)Z?S?*/
	$C5E6  E5 18:       sbc $18			/* A(??)X(48)<459C>Y(??)MAP[00:[00],01:[01],02:[02],03:[03],mmc:(un)]s(0)Z?S?*/
	$C5E8  D0 07:       bne +		; $C5F1			/* A(??)X(48)<459C>Y(??)MAP[00:[00],01:[01],02:[02],03:[03],mmc:(un)]s(0)Z?S?*/
	$C5EA  A5 1A:       lda $1A			/* A(??)X(48)<459C>Y(??)MAP[00:[00],01:[01],02:[02],03:[03],mmc:(un)]s(0)Z?S?*/
	$C5EC  C9 19:       cmp #$19			/* A(??)X(48)<459C>Y(??)MAP[00:[00],01:[01],02:[02],03:[03],mmc:(un)]s(0)Z?S?*/
	$C5EE  B0 01:       bcs +		; $C5F1			/* A(??)X(48)<459C>Y(??)MAP[00:[00],01:[01],02:[02],03:[03],mmc:(un)]s(0)Z?S?*/
	$C5F0  60:          rts 			/* A(??)X(48)<459C>Y(??)MAP[00:[00],01:[01],02:[02],03:[03],mmc:(un)]s(0)Z?S?*/(barrier)

+	$C5F1  38:          sec 			/* A(??)X(48)<459C>Y(??)MAP[00:[00],01:[01],02:[02],03:[03],mmc:(un)]s(0)Z?S?*/
	$C5F2  60:          rts 			/* A(??)X(48)<459C>Y(??)MAP[00:[00],01:[01],02:[02],03:[03],mmc:(un)]s(0)Z?S?*/(barrier)
;------------------------------------------
_func_45F3
	$C5F3  A5 33:       lda $33			/* A(??)X(??)Y(??)MAP[00:[00],01:[01],02:[02],03:[03],mmc:(un)]s(0)Z?S?*/
	$C5F5  30 04:       bmi +		; $C5FB			/* A(??)X(??)Y(??)MAP[00:[00],01:[01],02:[02],03:[03],mmc:(un)]s(0)Z?S?*/
	$C5F7  A5 FC:       lda $FC			/* A(??)X(??)Y(??)MAP[00:[00],01:[01],02:[02],03:[03],mmc:(un)]s(0)Z?S?*/
	$C5F9  30 05:       bmi ++		; $C600			/* A(??)X(??)Y(??)MAP[00:[00],01:[01],02:[02],03:[03],mmc:(un)]s(0)Z?S?*/
+	$C5FB  A5 E9:       lda $E9			/* A(??)X(??)Y(??)MAP[00:[00],01:[01],02:[02],03:[03],mmc:(un)]s(0)Z?S?*/
	$C5FD  4C 3C C6:    jmp +++		; $C63C			/* A(??)X(??)Y(??)MAP[00:[00],01:[01],02:[02],03:[03],mmc:(un)]s(0)Z?S?*/(barrier)

++	$C600  20 43 C5:    jsr _func_4543			/* A(??)X(??)Y(??)MAP[00:(??),01:(??),02:(??),03:(??),mmc:(un)]s(0)Z?S?*/
	$C603  20 2B C8:    jsr _func_482B			/* A(??)X(??)Y(??)MAP[00:(??),01:(??),02:(??),03:(??),mmc:(un)]s(0)Z?S?*/
	$C606  BD 01 03:    lda $0301,x			/* A(??)X(??)Y(??)MAP[00:[00],01:[01],02:[02],03:[03],mmc:(un)]s(0)Z?S?*/
	$C609  29 0F:       and #$0F			/* A(??)X(??)Y(??)MAP[00:[00],01:[01],02:[02],03:[03],mmc:(un)]s(0)Z?S?*/
	$C60B  C9 0F:       cmp #$0F			/* A(??)X(??)Y(??)MAP[00:[00],01:[01],02:[02],03:[03],mmc:(un)]s(0)Z?S?*/
	$C60D  D0 0A:       bne +		; $C619			/* A(??)X(??)Y(??)MAP[00:[00],01:[01],02:[02],03:[03],mmc:(un)]s(0)Z?S?*/
	$C60F  A5 1D:       lda $1D			/* A(??)X(??)Y(??)MAP[00:[00],01:[01],02:[02],03:[03],mmc:(un)]s(0)Z?S?*/
	$C611  29 04:       and #$04			/* A(??)X(??)Y(??)MAP[00:[00],01:[01],02:[02],03:[03],mmc:(un)]s(0)Z?S?*/
	$C613  D0 04:       bne +		; $C619			/* A(??)X(??)Y(??)MAP[00:[00],01:[01],02:[02],03:[03],mmc:(un)]s(0)Z?S?*/
	$C615  A9 00:       lda #$00			/* A(00)<4615>X(??)Y(??)MAP[00:[00],01:[01],02:[02],03:[03],mmc:(un)]s(0)Z1S0*/
	$C617  F0 23:       beq +++		; $C63C			/* A(00)<4615>X(??)Y(??)MAP[00:[00],01:[01],02:[02],03:[03],mmc:(un)]s(0)Z1S0*/(barrier)

+	$C619  A5 FA:       lda $FA			/* A(00)<4615>X(??)Y(??)MAP[00:[00],01:[01],02:[02],03:[03],mmc:(un)]s(0)Z1S0*/
	$C61B  05 10:       ora $10			/* A(??)X(??)Y(??)MAP[00:[00],01:[01],02:[02],03:[03],mmc:(un)]s(0)Z?S?*/
	$C61D  A8:          tay 			/* A(??)X(??)Y(??)MAP[00:[00],01:[01],02:[02],03:[03],mmc:(un)]s(0)Z?S?*/
	$C61E  B9 5F C6:    lda _data_465F_indexed,y			/* A$465F,y<461E>X(??)Y(??)MAP[00:[00],01:[01],02:[02],03:[03],mmc:(un)]s(0)Z?S?*/
	$C621  85 10:       sta $10			/* A$465F,y<461E>X(??)Y(??)MAP[00:[00],01:[01],02:[02],03:[03],mmc:(un)]s(0)Z?S?*/
	$C623  29 F0:       and #$F0			/* A(??)X(??)Y(??)MAP[00:[00],01:[01],02:[02],03:[03],mmc:(un)]s(0)Z?S?*/
	$C625  C9 F0:       cmp #$F0			/* A(??)X(??)Y(??)MAP[00:[00],01:[01],02:[02],03:[03],mmc:(un)]s(0)Z?S?*/
	$C627  D0 0C:       bne +		; $C635			/* A(??)X(??)Y(??)MAP[00:[00],01:[01],02:[02],03:[03],mmc:(un)]s(0)Z?S?*/
	$C629  A5 10:       lda $10			/* A(??)X(??)Y(??)MAP[00:[00],01:[01],02:[02],03:[03],mmc:(un)]s(0)Z?S?*/
	$C62B  29 0F:       and #$0F			/* A(??)X(??)Y(??)MAP[00:[00],01:[01],02:[02],03:[03],mmc:(un)]s(0)Z?S?*/
	$C62D  A8:          tay 			/* A(??)X(??)Y(??)MAP[00:[00],01:[01],02:[02],03:[03],mmc:(un)]s(0)Z?S?*/
	$C62E  A5 FB:       lda $FB			/* A(??)X(??)Y(??)MAP[00:[00],01:[01],02:[02],03:[03],mmc:(un)]s(0)Z?S?*/
	$C630  29 C0:       and #$C0			/* A(??)X(??)Y(??)MAP[00:[00],01:[01],02:[02],03:[03],mmc:(un)]s(0)Z?S?*/
	$C632  19 5B C6:    ora _data_465B_indexed,y			/* A(??)X(??)Y(??)MAP[00:[00],01:[01],02:[02],03:[03],mmc:(un)]s(0)Z?S?*/
+	$C635  85 10:       sta $10			/* A(??)X(??)Y(??)MAP[00:[00],01:[01],02:[02],03:[03],mmc:(un)]s(0)Z?S?*/
	$C637  20 5A C8:    jsr _func_485A			/* A(??)X(??)Y(??)MAP[00:(??),01:(??),02:(??),03:(??),mmc:(un)]s(0)Z?S?*/
	$C63A  A5 10:       lda $10			/* A(??)X(??)Y(??)MAP[00:[00],01:[01],02:[02],03:[03],mmc:(un)]s(0)Z?S?*/
+++	$C63C  85 FD:       sta $FD			/* A(00)<4615>X(??)Y(??)MAP[00:[00],01:[01],02:[02],03:[03],mmc:(un)]s(0)Z1S0*/
	$C63E  AC 98 03:    ldy $0398			/* A(??)X(??)Y(??)MAP[00:[00],01:[01],02:[02],03:[03],mmc:(un)]s(0)Z?S?*/
	$C641  30 17:       bmi +++		; $C65A -> rts			/* A(??)X(??)Y(??)MAP[00:[00],01:[01],02:[02],03:[03],mmc:(un)]s(0)Z?S?*/
	$C643  A5 FD:       lda $FD			/* A(??)X(??)Y(??)MAP[00:[00],01:[01],02:[02],03:[03],mmc:(un)]s(0)Z?S?*/
	$C645  29 3F:       and #$3F			/* A(??)X(??)Y(??)MAP[00:[00],01:[01],02:[02],03:[03],mmc:(un)]s(0)Z?S?*/
	$C647  85 FD:       sta $FD			/* A(??)X(??)Y(??)MAP[00:[00],01:[01],02:[02],03:[03],mmc:(un)]s(0)Z?S?*/
	$C649  BD 04 03:    lda $0304,x			/* A(??)X(??)Y(??)MAP[00:[00],01:[01],02:[02],03:[03],mmc:(un)]s(0)Z?S?*/
	$C64C  C9 6C:       cmp #$6C			/* A(??)X(??)Y(??)MAP[00:[00],01:[01],02:[02],03:[03],mmc:(un)]s(0)Z?S?*/
	$C64E  90 04:       bcc +		; $C654			/* A(??)X(??)Y(??)MAP[00:[00],01:[01],02:[02],03:[03],mmc:(un)]s(0)Z?S?*/
	$C650  A9 80:       lda #$80			/* A(80)<4650>X(??)Y(??)MAP[00:[00],01:[01],02:[02],03:[03],mmc:(un)]s(0)Z0S1*/
	$C652  D0 02:       bne ++		; $C656			/* A(80)<4650>X(??)Y(??)MAP[00:[00],01:[01],02:[02],03:[03],mmc:(un)]s(0)Z0S1*/(barrier)

+	$C654  A9 40:       lda #$40			/* A(??)X(??)Y(??)MAP[00:[00],01:[01],02:[02],03:[03],mmc:(un)]s(0)Z0S?*/
++	$C656  05 FD:       ora $FD			/* A(80)<4650>X(??)Y(??)MAP[00:[00],01:[01],02:[02],03:[03],mmc:(un)]s(0)Z0S1*/
	$C658  85 FD:       sta $FD			/* A(??)X(??)Y(??)MAP[00:[00],01:[01],02:[02],03:[03],mmc:(un)]s(0)Z?S?*/
+++	$C65A  60:          rts 			/* A(??)X(??)Y(??)MAP[00:[00],01:[01],02:[02],03:[03],mmc:(un)]s(0)Z?S?*/(barrier)
;------------------------------------------
_data_465B_indexed
	$C65B               .byte $00,$10,$00,$20
_data_465F_indexed
	$C65F               .byte $10,$F1,$50,$50,$10,$50,$50,$50,$10,$50,$50,$50,$10,$50,$50,$50
	$C66F               .byte $F1,$F1,$50,$50,$10,$50,$50,$50,$10,$50,$50,$50,$10,$50,$50,$50
	$C67F               .byte $10,$90,$50,$50,$10,$50,$50,$50,$10,$F1,$50,$50,$10,$50,$50,$50
	$C68F               .byte $F1,$90,$50,$50,$10,$50,$50,$50,$10,$F1,$50,$50,$10,$50,$50,$50
	$C69F               .byte $10,$90,$80,$80,$10,$F1,$50,$50,$90,$90,$50,$50,$10,$50,$50,$50
	$C6AF               .byte $10,$90,$80,$80,$10,$F1,$50,$50,$90,$90,$50,$50,$10,$50,$50,$50
	$C6BF               .byte $10,$80,$80,$80,$10,$90,$10,$50,$10,$90,$10,$50,$10,$F1,$10,$50
	$C6CF               .byte $10,$90,$50,$50,$10,$90,$10,$50,$10,$90,$10,$50,$10,$F1,$50,$50
	$C6DF               .byte $90,$90,$F2,$F2,$90,$40,$10,$40,$90,$90,$40,$40,$90,$90,$50,$60
	$C6EF               .byte $90,$80,$F2,$F2,$90,$90,$40,$40,$90,$90,$40,$F2,$10,$40,$40,$40
	$C6FF               .byte $90,$80,$80,$80,$90,$90,$10,$40,$90,$90,$10,$F2,$90,$90,$10,$20
	$C70F               .byte $90,$80,$80,$80,$90,$90,$10,$40,$90,$90,$10,$F2,$10,$90,$10,$40
	$C71F               .byte $90,$80,$80,$80,$10,$90,$10,$F3,$90,$90,$10,$80,$90,$20,$10,$20
	$C72F               .byte $90,$80,$10,$80,$10,$A0,$10,$F3,$90,$90,$10,$80,$10,$90,$10,$60
	$C73F               .byte $90,$80,$80,$A0,$90,$90,$10,$A0,$90,$90,$10,$80,$10,$90,$10,$20
	$C74F               .byte $90,$80,$80,$80,$90,$90,$10,$A0,$90,$90,$10,$80,$10,$90,$10,$10
_func_475F
	$C75F  A9 00:       lda #$00			/* A(00)<475F>X(??)Y(00)<2058>MAP[00:[00],01:[01],02:[02],03:[03],mmc:(un)]s(0)Z1S0*/
	$C761  85 FB:       sta $FB			/* A(00)<475F>X(??)Y(00)<2058>MAP[00:[00],01:[01],02:[02],03:[03],mmc:(un)]s(0)Z1S0*/
	$C763  A5 4D:       lda $4D			/* A(??)X(??)Y(00)<2058>MAP[00:[00],01:[01],02:[02],03:[03],mmc:(un)]s(0)Z?S?*/
	$C765  C9 48:       cmp #$48			/* A(??)X(??)Y(00)<2058>MAP[00:[00],01:[01],02:[02],03:[03],mmc:(un)]s(0)Z?S?*/
	$C767  90 2B:       bcc +++		; $C794			/* A(??)X(??)Y(00)<2058>MAP[00:[00],01:[01],02:[02],03:[03],mmc:(un)]s(0)Z?S?*/
	$C769  C9 90:       cmp #$90			/* A(??)X(??)Y(00)<2058>MAP[00:[00],01:[01],02:[02],03:[03],mmc:(un)]s(0)Z?S?*/
	$C76B  B0 23:       bcs ++		; $C790			/* A(??)X(??)Y(00)<2058>MAP[00:[00],01:[01],02:[02],03:[03],mmc:(un)]s(0)Z?S?*/
	$C76D  A0 70:       ldy #$70			/* A(??)X(??)Y(70)<476D>MAP[00:[00],01:[01],02:[02],03:[03],mmc:(un)]s(0)Z0S0*/
-	$C76F  B9 04 03:    lda $0304,y			/* A(??)X(??)Y(70)<476D>MAP[00:[00],01:[01],02:[02],03:[03],mmc:(un)]s(0)Z?S?*/
	$C772  C5 4D:       cmp $4D			/* A(??)X(??)Y(70)<476D>MAP[00:[00],01:[01],02:[02],03:[03],mmc:(un)]s(0)Z?S?*/
	$C774  B0 02:       bcs +		; $C778			/* A(??)X(??)Y(70)<476D>MAP[00:[00],01:[01],02:[02],03:[03],mmc:(un)]s(0)Z?S?*/
	$C776  E6 FB:       inc $FB			/* A(??)X(??)Y(70)<476D>MAP[00:[00],01:[01],02:[02],03:[03],mmc:(un)]s(0)Z?S?*/
+	$C778  98:          tya 			/* A(??)X(??)Y(70)<476D>MAP[00:[00],01:[01],02:[02],03:[03],mmc:(un)]s(0)Z?S?*/
	$C779  18:          clc 			/* A(70)<4778>X(??)Y(70)<476D>MAP[00:[00],01:[01],02:[02],03:[03],mmc:(un)]s(0)Z0S0*/
	$C77A  69 08:       adc #$08			/* A(??)X(??)Y(70)<476D>MAP[00:[00],01:[01],02:[02],03:[03],mmc:(un)]s(0)Z?S?*/
	$C77C  A8:          tay 			/* A(??)X(??)Y(??)MAP[00:[00],01:[01],02:[02],03:[03],mmc:(un)]s(0)Z?S?*/
	$C77D  C0 90:       cpy #$90			/* A(??)X(??)Y(??)MAP[00:[00],01:[01],02:[02],03:[03],mmc:(un)]s(0)Z?S?*/
	$C77F  90 EE:       bcc -		; $C76F			/* A(??)X(??)Y(??)MAP[00:[00],01:[01],02:[02],03:[03],mmc:(un)]s(0)Z?S?*/
	$C781  A5 FB:       lda $FB			/* A(??)X(??)Y(??)MAP[00:[00],01:[01],02:[02],03:[03],mmc:(un)]s(0)Z?S?*/
	$C783  C9 02:       cmp #$02			/* A(??)X(??)Y(??)MAP[00:[00],01:[01],02:[02],03:[03],mmc:(un)]s(0)Z?S?*/
	$C785  D0 07:       bne +		; $C78E			/* A(??)X(??)Y(??)MAP[00:[00],01:[01],02:[02],03:[03],mmc:(un)]s(0)Z?S?*/
	$C787  20 4A 8F:    jsr _func_0F4A			/* A(??)X(??)Y(??)MAP[00:(??),01:(??),02:(??),03:(??),mmc:(un)]s(0)Z?S?*/
	$C78A  0A:          asl a			/* A(??)X(??)Y(??)MAP[00:[00],01:[01],02:[02],03:[03],mmc:(un)]s(0)Z?S?*/
	$C78B  0A:          asl a			/* A(??)X(??)Y(??)MAP[00:[00],01:[01],02:[02],03:[03],mmc:(un)]s(0)Z?S?*/
	$C78C  90 02:       bcc ++		; $C790			/* A(??)X(??)Y(??)MAP[00:[00],01:[01],02:[02],03:[03],mmc:(un)]s(0)Z?S?*/
+	$C78E  B0 04:       bcs +++		; $C794			/* A(??)X(??)Y(??)MAP[00:[00],01:[01],02:[02],03:[03],mmc:(un)]s(0)Z?S?*/
++	$C790  A9 40:       lda #$40			/* A(??)X(??)Y(??)MAP[00:[00],01:[01],02:[02],03:[03],mmc:(un)]s(0)Z?S?*/
	$C792  D0 02:       bne ++++		; $C796			/* A(40)<4790>X(??)Y(00)<2058>MAP[00:[00],01:[01],02:[02],03:[03],mmc:(un)]s(0)Z0S0*/(barrier)

+++	$C794  A9 80:       lda #$80			/* A(??)X(??)Y(??)MAP[00:[00],01:[01],02:[02],03:[03],mmc:(un)]s(0)Z?S?*/
++++	$C796  85 FB:       sta $FB			/* A(??)X(??)Y(00)<2058>MAP[00:[00],01:[01],02:[02],03:[03],mmc:(un)]s(0)Z0S?*/
	$C798  20 4A 8F:    jsr _func_0F4A			/* A(??)X(??)Y(??)MAP[00:(??),01:(??),02:(??),03:(??),mmc:(un)]s(0)Z?S?*/
	$C79B  29 80:       and #$80			/* A(??)X(??)Y(00)<2058>MAP[00:[00],01:[01],02:[02],03:[03],mmc:(un)]s(0)Z?S?*/
	$C79D  8D 91 04:    sta $0491			/* A(??)X(??)Y(00)<2058>MAP[00:[00],01:[01],02:[02],03:[03],mmc:(un)]s(0)Z?S?*/
	$C7A0  A5 4E:       lda $4E			/* A(??)X(??)Y(00)<2058>MAP[00:[00],01:[01],02:[02],03:[03],mmc:(un)]s(0)Z?S?*/
	$C7A2  38:          sec 			/* A(??)X(??)Y(00)<2058>MAP[00:[00],01:[01],02:[02],03:[03],mmc:(un)]s(0)Z?S?*/
	$C7A3  E9 88:       sbc #$88			/* A(??)X(??)Y(00)<2058>MAP[00:[00],01:[01],02:[02],03:[03],mmc:(un)]s(0)Z?S?*/
	$C7A5  85 10:       sta $10			/* A(??)X(??)Y(00)<2058>MAP[00:[00],01:[01],02:[02],03:[03],mmc:(un)]s(0)Z?S?*/
	$C7A7  A5 4F:       lda $4F			/* A(??)X(??)Y(00)<2058>MAP[00:[00],01:[01],02:[02],03:[03],mmc:(un)]s(0)Z?S?*/
	$C7A9  E9 00:       sbc #$00			/* A(??)X(??)Y(00)<2058>MAP[00:[00],01:[01],02:[02],03:[03],mmc:(un)]s(0)Z?S?*/
	$C7AB  85 11:       sta $11			/* A(??)X(??)Y(00)<2058>MAP[00:[00],01:[01],02:[02],03:[03],mmc:(un)]s(0)Z?S?*/
	$C7AD  A5 4E:       lda $4E			/* A(??)X(??)Y(00)<2058>MAP[00:[00],01:[01],02:[02],03:[03],mmc:(un)]s(0)Z?S?*/
	$C7AF  38:          sec 			/* A(??)X(??)Y(00)<2058>MAP[00:[00],01:[01],02:[02],03:[03],mmc:(un)]s(0)Z?S?*/
	$C7B0  E9 68:       sbc #$68			/* A(??)X(??)Y(00)<2058>MAP[00:[00],01:[01],02:[02],03:[03],mmc:(un)]s(0)Z?S?*/
	$C7B2  85 12:       sta $12			/* A(??)X(??)Y(00)<2058>MAP[00:[00],01:[01],02:[02],03:[03],mmc:(un)]s(0)Z?S?*/
	$C7B4  A5 4F:       lda $4F			/* A(??)X(??)Y(00)<2058>MAP[00:[00],01:[01],02:[02],03:[03],mmc:(un)]s(0)Z?S?*/
	$C7B6  E9 00:       sbc #$00			/* A(??)X(??)Y(00)<2058>MAP[00:[00],01:[01],02:[02],03:[03],mmc:(un)]s(0)Z?S?*/
	$C7B8  85 13:       sta $13			/* A(??)X(??)Y(00)<2058>MAP[00:[00],01:[01],02:[02],03:[03],mmc:(un)]s(0)Z?S?*/
	$C7BA  A5 12:       lda $12			/* A(??)X(??)Y(00)<2058>MAP[00:[00],01:[01],02:[02],03:[03],mmc:(un)]s(0)Z?S?*/
	$C7BC  38:          sec 			/* A(??)X(??)Y(00)<2058>MAP[00:[00],01:[01],02:[02],03:[03],mmc:(un)]s(0)Z?S?*/
	$C7BD  E9 A8:       sbc #$A8			/* A(??)X(??)Y(00)<2058>MAP[00:[00],01:[01],02:[02],03:[03],mmc:(un)]s(0)Z?S?*/
	$C7BF  A5 4F:       lda $4F			/* A(??)X(??)Y(00)<2058>MAP[00:[00],01:[01],02:[02],03:[03],mmc:(un)]s(0)Z?S?*/
	$C7C1  E9 00:       sbc #$00			/* A(??)X(??)Y(00)<2058>MAP[00:[00],01:[01],02:[02],03:[03],mmc:(un)]s(0)Z?S?*/
	$C7C3  B0 08:       bcs +		; $C7CD			/* A(??)X(??)Y(00)<2058>MAP[00:[00],01:[01],02:[02],03:[03],mmc:(un)]s(0)Z?S?*/
	$C7C5  A9 00:       lda #$00			/* A(00)<47C5>X(??)Y(00)<2058>MAP[00:[00],01:[01],02:[02],03:[03],mmc:(un)]s(0)Z1S0*/
	$C7C7  85 13:       sta $13			/* A(00)<47C5>X(??)Y(00)<2058>MAP[00:[00],01:[01],02:[02],03:[03],mmc:(un)]s(0)Z1S0*/
	$C7C9  A9 A8:       lda #$A8			/* A(A8)<47C9>X(??)Y(00)<2058>MAP[00:[00],01:[01],02:[02],03:[03],mmc:(un)]s(0)Z0S1*/
	$C7CB  85 12:       sta $12			/* A(A8)<47C9>X(??)Y(00)<2058>MAP[00:[00],01:[01],02:[02],03:[03],mmc:(un)]s(0)Z0S1*/
+	$C7CD  A5 4E:       lda $4E			/* A(A8)<47C9>X(??)Y(00)<2058>MAP[00:[00],01:[01],02:[02],03:[03],mmc:(un)]s(0)Z0S1*/
	$C7CF  38:          sec 			/* A(??)X(??)Y(00)<2058>MAP[00:[00],01:[01],02:[02],03:[03],mmc:(un)]s(0)Z?S?*/
	$C7D0  E5 12:       sbc $12			/* A(??)X(??)Y(00)<2058>MAP[00:[00],01:[01],02:[02],03:[03],mmc:(un)]s(0)Z?S?*/
	$C7D2  85 12:       sta $12			/* A(??)X(??)Y(00)<2058>MAP[00:[00],01:[01],02:[02],03:[03],mmc:(un)]s(0)Z?S?*/
	$C7D4  A5 4F:       lda $4F			/* A(??)X(??)Y(00)<2058>MAP[00:[00],01:[01],02:[02],03:[03],mmc:(un)]s(0)Z?S?*/
	$C7D6  E5 13:       sbc $13			/* A(??)X(??)Y(00)<2058>MAP[00:[00],01:[01],02:[02],03:[03],mmc:(un)]s(0)Z?S?*/
	$C7D8  85 13:       sta $13			/* A(??)X(??)Y(00)<2058>MAP[00:[00],01:[01],02:[02],03:[03],mmc:(un)]s(0)Z?S?*/
	$C7DA  06 10:       asl $10			/* A(??)X(??)Y(00)<2058>MAP[00:[00],01:[01],02:[02],03:[03],mmc:(un)]s(0)Z?S?*/
	$C7DC  26 11:       rol $11			/* A(??)X(??)Y(00)<2058>MAP[00:[00],01:[01],02:[02],03:[03],mmc:(un)]s(0)Z?S?*/
	$C7DE  06 10:       asl $10			/* A(??)X(??)Y(00)<2058>MAP[00:[00],01:[01],02:[02],03:[03],mmc:(un)]s(0)Z?S?*/
	$C7E0  26 11:       rol $11			/* A(??)X(??)Y(00)<2058>MAP[00:[00],01:[01],02:[02],03:[03],mmc:(un)]s(0)Z?S?*/
	$C7E2  06 10:       asl $10			/* A(??)X(??)Y(00)<2058>MAP[00:[00],01:[01],02:[02],03:[03],mmc:(un)]s(0)Z?S?*/
	$C7E4  26 11:       rol $11			/* A(??)X(??)Y(00)<2058>MAP[00:[00],01:[01],02:[02],03:[03],mmc:(un)]s(0)Z?S?*/
	$C7E6  06 10:       asl $10			/* A(??)X(??)Y(00)<2058>MAP[00:[00],01:[01],02:[02],03:[03],mmc:(un)]s(0)Z?S?*/
	$C7E8  26 11:       rol $11			/* A(??)X(??)Y(00)<2058>MAP[00:[00],01:[01],02:[02],03:[03],mmc:(un)]s(0)Z?S?*/
	$C7EA  20 09 91:    jsr _func_1109			/* A(??)X(??)Y(??)MAP[00:(??),01:(??),02:(??),03:(??),mmc:(un)]s(0)Z?S?*/
	$C7ED  A5 4D:       lda $4D			/* A(??)X(??)Y(00)<2058>MAP[00:[00],01:[01],02:[02],03:[03],mmc:(un)]s(0)Z?S?*/
	$C7EF  38:          sec 			/* A(??)X(??)Y(00)<2058>MAP[00:[00],01:[01],02:[02],03:[03],mmc:(un)]s(0)Z?S?*/
	$C7F0  E9 6C:       sbc #$6C			/* A(??)X(??)Y(00)<2058>MAP[00:[00],01:[01],02:[02],03:[03],mmc:(un)]s(0)Z?S?*/
	$C7F2  B0 04:       bcs +		; $C7F8			/* A(??)X(??)Y(00)<2058>MAP[00:[00],01:[01],02:[02],03:[03],mmc:(un)]s(0)Z?S?*/
	$C7F4  49 FF:       eor #$FF			/* A(??)X(??)Y(00)<2058>MAP[00:[00],01:[01],02:[02],03:[03],mmc:(un)]s(0)Z?S?*/
	$C7F6  69 01:       adc #$01			/* A(??)X(??)Y(00)<2058>MAP[00:[00],01:[01],02:[02],03:[03],mmc:(un)]s(0)Z?S?*/
+	$C7F8  85 10:       sta $10			/* A(??)X(??)Y(00)<2058>MAP[00:[00],01:[01],02:[02],03:[03],mmc:(un)]s(0)Z?S?*/
	$C7FA  A9 00:       lda #$00			/* A(00)<47FA>X(??)Y(00)<2058>MAP[00:[00],01:[01],02:[02],03:[03],mmc:(un)]s(0)Z1S0*/
	$C7FC  85 11:       sta $11			/* A(00)<47FA>X(??)Y(00)<2058>MAP[00:[00],01:[01],02:[02],03:[03],mmc:(un)]s(0)Z1S0*/
	$C7FE  06 10:       asl $10			/* A(??)X(??)Y(00)<2058>MAP[00:[00],01:[01],02:[02],03:[03],mmc:(un)]s(0)Z?S?*/
	$C800  26 11:       rol $11			/* A(??)X(??)Y(00)<2058>MAP[00:[00],01:[01],02:[02],03:[03],mmc:(un)]s(0)Z?S?*/
	$C802  06 10:       asl $10			/* A(??)X(??)Y(00)<2058>MAP[00:[00],01:[01],02:[02],03:[03],mmc:(un)]s(0)Z?S?*/
	$C804  26 11:       rol $11			/* A(??)X(??)Y(00)<2058>MAP[00:[00],01:[01],02:[02],03:[03],mmc:(un)]s(0)Z?S?*/
	$C806  06 10:       asl $10			/* A(??)X(??)Y(00)<2058>MAP[00:[00],01:[01],02:[02],03:[03],mmc:(un)]s(0)Z?S?*/
	$C808  26 11:       rol $11			/* A(??)X(??)Y(00)<2058>MAP[00:[00],01:[01],02:[02],03:[03],mmc:(un)]s(0)Z?S?*/
	$C80A  06 10:       asl $10			/* A(??)X(??)Y(00)<2058>MAP[00:[00],01:[01],02:[02],03:[03],mmc:(un)]s(0)Z?S?*/
	$C80C  26 11:       rol $11			/* A(??)X(??)Y(00)<2058>MAP[00:[00],01:[01],02:[02],03:[03],mmc:(un)]s(0)Z?S?*/
	$C80E  A5 14:       lda $14			/* A(??)X(??)Y(00)<2058>MAP[00:[00],01:[01],02:[02],03:[03],mmc:(un)]s(0)Z?S?*/
	$C810  85 12:       sta $12			/* A(??)X(??)Y(00)<2058>MAP[00:[00],01:[01],02:[02],03:[03],mmc:(un)]s(0)Z?S?*/
	$C812  A5 15:       lda $15			/* A(??)X(??)Y(00)<2058>MAP[00:[00],01:[01],02:[02],03:[03],mmc:(un)]s(0)Z?S?*/
	$C814  85 13:       sta $13			/* A(??)X(??)Y(00)<2058>MAP[00:[00],01:[01],02:[02],03:[03],mmc:(un)]s(0)Z?S?*/
	$C816  20 09 91:    jsr _func_1109			/* A(??)X(??)Y(??)MAP[00:(??),01:(??),02:(??),03:(??),mmc:(un)]s(0)Z?S?*/
	$C819  A5 4D:       lda $4D			/* A(??)X(??)Y(00)<2058>MAP[00:[00],01:[01],02:[02],03:[03],mmc:(un)]s(0)Z?S?*/
	$C81B  C9 6C:       cmp #$6C			/* A(??)X(??)Y(00)<2058>MAP[00:[00],01:[01],02:[02],03:[03],mmc:(un)]s(0)Z?S?*/
	$C81D  B0 06:       bcs +		; $C825			/* A(??)X(??)Y(00)<2058>MAP[00:[00],01:[01],02:[02],03:[03],mmc:(un)]s(0)Z?S?*/
	$C81F  65 14:       adc $14			/* A(??)X(??)Y(00)<2058>MAP[00:[00],01:[01],02:[02],03:[03],mmc:(un)]s(0)Z?S?*/
	$C821  8D 90 04:    sta $0490			/* A(??)X(??)Y(00)<2058>MAP[00:[00],01:[01],02:[02],03:[03],mmc:(un)]s(0)Z?S?*/
	$C824  60:          rts 			/* A(??)X(??)Y(00)<2058>MAP[00:[00],01:[01],02:[02],03:[03],mmc:(un)]s(0)Z?S?*/(barrier)

+	$C825  E5 14:       sbc $14			/* A(??)X(??)Y(00)<2058>MAP[00:[00],01:[01],02:[02],03:[03],mmc:(un)]s(0)Z?S?*/
	$C827  8D 90 04:    sta $0490			/* A(??)X(??)Y(00)<2058>MAP[00:[00],01:[01],02:[02],03:[03],mmc:(un)]s(0)Z?S?*/
	$C82A  60:          rts 			/* A(??)X(??)Y(00)<2058>MAP[00:[00],01:[01],02:[02],03:[03],mmc:(un)]s(0)Z?S?*/(barrier)
;------------------------------------------
_func_482B
	$C82B  A9 00:       lda #$00			/* A(00)<482B>X(??)Y(??)MAP[00:[00],01:[01],02:[02],03:[03],mmc:(un)]s(0)Z1S0*/
	$C82D  85 10:       sta $10			/* A(00)<482B>X(??)Y(??)MAP[00:[00],01:[01],02:[02],03:[03],mmc:(un)]s(0)Z1S0*/
	$C82F  A5 4D:       lda $4D			/* A(??)X(??)Y(??)MAP[00:[00],01:[01],02:[02],03:[03],mmc:(un)]s(0)Z?S?*/
	$C831  C9 18:       cmp #$18			/* A(??)X(??)Y(??)MAP[00:[00],01:[01],02:[02],03:[03],mmc:(un)]s(0)Z?S?*/
	$C833  B0 10:       bcs +		; $C845			/* A(??)X(??)Y(??)MAP[00:[00],01:[01],02:[02],03:[03],mmc:(un)]s(0)Z?S?*/
	$C835  A9 80:       lda #$80			/* A(80)<4835>X(??)Y(??)MAP[00:[00],01:[01],02:[02],03:[03],mmc:(un)]s(0)Z0S1*/
	$C837  85 FB:       sta $FB			/* A(80)<4835>X(??)Y(??)MAP[00:[00],01:[01],02:[02],03:[03],mmc:(un)]s(0)Z0S1*/
	$C839  A0 E0:       ldy #$E0			/* A(80)<4835>X(??)Y(E0)<4839>MAP[00:[00],01:[01],02:[02],03:[03],mmc:(un)]s(0)Z0S1*/
	$C83B  A5 FA:       lda $FA			/* A(??)X(??)Y(E0)<4839>MAP[00:[00],01:[01],02:[02],03:[03],mmc:(un)]s(0)Z?S?*/
	$C83D  29 07:       and #$07			/* A(??)X(??)Y(E0)<4839>MAP[00:[00],01:[01],02:[02],03:[03],mmc:(un)]s(0)Z?S?*/
	$C83F  F0 16:       beq ++		; $C857			/* A(??)X(??)Y(E0)<4839>MAP[00:[00],01:[01],02:[02],03:[03],mmc:(un)]s(0)Z?S?*/
	$C841  A0 FF:       ldy #$FF			/* A(??)X(??)Y(FF)<4841>MAP[00:[00],01:[01],02:[02],03:[03],mmc:(un)]s(0)Z0S1*/
	$C843  D0 12:       bne ++		; $C857			/* A(??)X(??)Y(FF)<4841>MAP[00:[00],01:[01],02:[02],03:[03],mmc:(un)]s(0)Z0S1*/(barrier)

+	$C845  C9 C0:       cmp #$C0			/* A(??)X(??)Y(FF)<4841>MAP[00:[00],01:[01],02:[02],03:[03],mmc:(un)]s(0)Z0S1*/
	$C847  90 10:       bcc +++		; $C859 -> rts			/* A(??)X(??)Y(??)MAP[00:[00],01:[01],02:[02],03:[03],mmc:(un)]s(0)Z?S?*/
	$C849  A9 40:       lda #$40			/* A(40)<4849>X(??)Y(??)MAP[00:[00],01:[01],02:[02],03:[03],mmc:(un)]s(0)Z0S0*/
	$C84B  85 FB:       sta $FB			/* A(40)<4849>X(??)Y(??)MAP[00:[00],01:[01],02:[02],03:[03],mmc:(un)]s(0)Z0S0*/
	$C84D  A0 0E:       ldy #$0E			/* A(40)<4849>X(??)Y(0E)<484D>MAP[00:[00],01:[01],02:[02],03:[03],mmc:(un)]s(0)Z0S0*/
	$C84F  A5 FA:       lda $FA			/* A(??)X(??)Y(0E)<484D>MAP[00:[00],01:[01],02:[02],03:[03],mmc:(un)]s(0)Z?S?*/
	$C851  29 C1:       and #$C1			/* A(??)X(??)Y(0E)<484D>MAP[00:[00],01:[01],02:[02],03:[03],mmc:(un)]s(0)Z?S?*/
	$C853  F0 02:       beq ++		; $C857			/* A(??)X(??)Y(0E)<484D>MAP[00:[00],01:[01],02:[02],03:[03],mmc:(un)]s(0)Z?S?*/
	$C855  A0 FF:       ldy #$FF			/* A(??)X(??)Y(FF)<4855>MAP[00:[00],01:[01],02:[02],03:[03],mmc:(un)]s(0)Z0S1*/
++	$C857  84 10:       sty $10			/* A(??)X(??)Y(??)MAP[00:[00],01:[01],02:[02],03:[03],mmc:(un)]s(0)Z0S1*/
+++	$C859  60:          rts 			/* A(??)X(??)Y(0E)<484D>MAP[00:[00],01:[01],02:[02],03:[03],mmc:(un)]s(0)Z?S?*/(barrier)
;------------------------------------------
_func_485A
	$C85A  85 10:       sta $10			/* A(??)X(??)Y(??)MAP[00:[00],01:[01],02:[02],03:[03],mmc:(un)]s(0)Z?S?*/
	$C85C  A5 70:       lda $70			/* A(??)X(??)Y(??)MAP[00:[00],01:[01],02:[02],03:[03],mmc:(un)]s(0)Z?S?*/
	$C85E  30 3A:       bmi +++		; $C89A			/* A(??)X(??)Y(??)MAP[00:[00],01:[01],02:[02],03:[03],mmc:(un)]s(0)Z?S?*/
	$C860  A5 35:       lda $35			/* A(??)X(??)Y(??)MAP[00:[00],01:[01],02:[02],03:[03],mmc:(un)]s(0)Z?S?*/
	$C862  30 36:       bmi +++		; $C89A			/* A(??)X(??)Y(??)MAP[00:[00],01:[01],02:[02],03:[03],mmc:(un)]s(0)Z?S?*/
	$C864  A5 1D:       lda $1D			/* A(??)X(??)Y(??)MAP[00:[00],01:[01],02:[02],03:[03],mmc:(un)]s(0)Z?S?*/
	$C866  29 04:       and #$04			/* A(??)X(??)Y(??)MAP[00:[00],01:[01],02:[02],03:[03],mmc:(un)]s(0)Z?S?*/
	$C868  F0 2F:       beq ++		; $C899 -> rts			/* A(??)X(??)Y(??)MAP[00:[00],01:[01],02:[02],03:[03],mmc:(un)]s(0)Z?S?*/
	$C86A  A5 69:       lda $69			/* A(??)X(??)Y(??)MAP[00:[00],01:[01],02:[02],03:[03],mmc:(un)]s(0)Z?S?*/
	$C86C  C9 48:       cmp #$48			/* A(??)X(??)Y(??)MAP[00:[00],01:[01],02:[02],03:[03],mmc:(un)]s(0)Z?S?*/
	$C86E  B0 16:       bcs +		; $C886			/* A(??)X(??)Y(??)MAP[00:[00],01:[01],02:[02],03:[03],mmc:(un)]s(0)Z?S?*/
	$C870  C9 40:       cmp #$40			/* A(??)X(??)Y(??)MAP[00:[00],01:[01],02:[02],03:[03],mmc:(un)]s(0)Z?S?*/
	$C872  90 25:       bcc ++		; $C899 -> rts			/* A(??)X(??)Y(??)MAP[00:[00],01:[01],02:[02],03:[03],mmc:(un)]s(0)Z?S?*/
	$C874  C9 46:       cmp #$46			/* A(??)X(??)Y(??)MAP[00:[00],01:[01],02:[02],03:[03],mmc:(un)]s(0)Z?S?*/
	$C876  B0 21:       bcs ++		; $C899 -> rts			/* A(??)X(??)Y(??)MAP[00:[00],01:[01],02:[02],03:[03],mmc:(un)]s(0)Z?S?*/
	$C878  20 4A 8F:    jsr _func_0F4A			/* A(??)X(??)Y(??)MAP[00:(??),01:(??),02:(??),03:(??),mmc:(un)]s(0)Z?S?*/
	$C87B  29 08:       and #$08			/* A(??)X(??)Y(??)MAP[00:[00],01:[01],02:[02],03:[03],mmc:(un)]s(0)Z?S?*/
	$C87D  F0 1A:       beq ++		; $C899 -> rts			/* A(??)X(??)Y(??)MAP[00:[00],01:[01],02:[02],03:[03],mmc:(un)]s(0)Z?S?*/
	$C87F  A9 02:       lda #$02			/* A(02)<487F>X(??)Y(??)MAP[00:[00],01:[01],02:[02],03:[03],mmc:(un)]s(0)Z0S0*/
	$C881  05 10:       ora $10			/* A(??)X(??)Y(??)MAP[00:[00],01:[01],02:[02],03:[03],mmc:(un)]s(0)Z?S?*/
	$C883  85 10:       sta $10			/* A(??)X(??)Y(??)MAP[00:[00],01:[01],02:[02],03:[03],mmc:(un)]s(0)Z?S?*/
	$C885  60:          rts 			/* A(??)X(??)Y(??)MAP[00:[00],01:[01],02:[02],03:[03],mmc:(un)]s(0)Z?S?*/(barrier)

+	$C886  20 4A 8F:    jsr _func_0F4A			/* A(??)X(??)Y(??)MAP[00:(??),01:(??),02:(??),03:(??),mmc:(un)]s(0)Z?S?*/
	$C889  29 80:       and #$80			/* A(??)X(??)Y(??)MAP[00:[00],01:[01],02:[02],03:[03],mmc:(un)]s(0)Z?S?*/
	$C88B  D0 0C:       bne ++		; $C899 -> rts			/* A(??)X(??)Y(??)MAP[00:[00],01:[01],02:[02],03:[03],mmc:(un)]s(0)Z?S?*/
	$C88D  A5 FA:       lda $FA			/* A(??)X(??)Y(??)MAP[00:[00],01:[01],02:[02],03:[03],mmc:(un)]s(0)Z?S?*/
	$C88F  29 83:       and #$83			/* A(??)X(??)Y(??)MAP[00:[00],01:[01],02:[02],03:[03],mmc:(un)]s(0)Z?S?*/
	$C891  D0 06:       bne ++		; $C899 -> rts			/* A(??)X(??)Y(??)MAP[00:[00],01:[01],02:[02],03:[03],mmc:(un)]s(0)Z?S?*/
-	$C893  A9 01:       lda #$01			/* A(??)X(??)Y(??)MAP[00:[00],01:[01],02:[02],03:[03],mmc:(un)]s(0)Z?S?*/
	$C895  05 10:       ora $10			/* A(??)X(??)Y(??)MAP[00:[00],01:[01],02:[02],03:[03],mmc:(un)]s(0)Z?S?*/
	$C897  85 10:       sta $10			/* A(??)X(??)Y(??)MAP[00:[00],01:[01],02:[02],03:[03],mmc:(un)]s(0)Z?S?*/
++	$C899  60:          rts 			/* A(??)X(??)Y(??)MAP[00:[00],01:[01],02:[02],03:[03],mmc:(un)]s(0)Z?S?*/(barrier)

+++	$C89A  AD 1C 03:    lda $031C			/* A(??)X(??)Y(??)MAP[00:[00],01:[01],02:[02],03:[03],mmc:(un)]s(0)Z?S?*/
	$C89D  CD 90 04:    cmp $0490			/* A(??)X(??)Y(??)MAP[00:[00],01:[01],02:[02],03:[03],mmc:(un)]s(0)Z?S?*/
	$C8A0  F0 F1:       beq -		; $C893			/* A(??)X(??)Y(??)MAP[00:[00],01:[01],02:[02],03:[03],mmc:(un)]s(0)Z?S?*/
	$C8A2  90 05:       bcc +		; $C8A9			/* A(??)X(??)Y(??)MAP[00:[00],01:[01],02:[02],03:[03],mmc:(un)]s(0)Z?S?*/
	$C8A4  A9 40:       lda #$40			/* A(40)<48A4>X(??)Y(??)MAP[00:[00],01:[01],02:[02],03:[03],mmc:(un)]s(0)Z0S0*/
	$C8A6  85 10:       sta $10			/* A(40)<48A4>X(??)Y(??)MAP[00:[00],01:[01],02:[02],03:[03],mmc:(un)]s(0)Z0S0*/
	$C8A8  60:          rts 			/* A(40)<48A4>X(??)Y(??)MAP[00:[00],01:[01],02:[02],03:[03],mmc:(un)]s(0)Z0S0*/(barrier)

+	$C8A9  A9 80:       lda #$80			/* A(80)<48A9>X(??)Y(??)MAP[00:[00],01:[01],02:[02],03:[03],mmc:(un)]s(0)Z0S1*/
	$C8AB  85 10:       sta $10			/* A(80)<48A9>X(??)Y(??)MAP[00:[00],01:[01],02:[02],03:[03],mmc:(un)]s(0)Z0S1*/
	$C8AD  60:          rts 			/* A(80)<48A9>X(??)Y(??)MAP[00:[00],01:[01],02:[02],03:[03],mmc:(un)]s(0)Z0S1*/(barrier)
;------------------------------------------
_func_48AE
	$C8AE  A5 33:       lda $33			/* A(??)X(??)Y(??)MAP[00:[00],01:[01],02:[02],03:[03],mmc:(un)]s(0)Z?S?*/
	$C8B0  30 1B:       bmi ++		; $C8CD			/* A(??)X(??)Y(??)MAP[00:[00],01:[01],02:[02],03:[03],mmc:(un)]s(0)Z?S?*/
	$C8B2  A5 FC:       lda $FC			/* A(??)X(??)Y(??)MAP[00:[00],01:[01],02:[02],03:[03],mmc:(un)]s(0)Z?S?*/
	$C8B4  10 17:       bpl ++		; $C8CD			/* A(??)X(??)Y(??)MAP[00:[00],01:[01],02:[02],03:[03],mmc:(un)]s(0)Z?S?*/
	$C8B6  A5 62:       lda $62			/* A(??)X(??)Y(??)MAP[00:[00],01:[01],02:[02],03:[03],mmc:(un)]s(0)Z?S?*/
	$C8B8  C9 03:       cmp #$03			/* A(??)X(??)Y(??)MAP[00:[00],01:[01],02:[02],03:[03],mmc:(un)]s(0)Z?S?*/
	$C8BA  D0 09:       bne +		; $C8C5			/* A(??)X(??)Y(??)MAP[00:[00],01:[01],02:[02],03:[03],mmc:(un)]s(0)Z?S?*/
	$C8BC  A5 27:       lda $27			/* A(??)X(??)Y(??)MAP[00:[00],01:[01],02:[02],03:[03],mmc:(un)]s(0)Z?S?*/
	$C8BE  C5 25:       cmp $25			/* A(??)X(??)Y(??)MAP[00:[00],01:[01],02:[02],03:[03],mmc:(un)]s(0)Z?S?*/
	$C8C0  B0 0E:       bcs +++		; $C8D0			/* A(??)X(??)Y(??)MAP[00:[00],01:[01],02:[02],03:[03],mmc:(un)]s(0)Z?S?*/
--	$C8C2  A9 21:       lda #$21			/* A(??)X(??)Y(??)MAP[00:[00],01:[01],02:[02],03:[03],mmc:(un)]s(0)Z?S?*/
	$C8C4  60:          rts 			/* A(21)<48C2>X(??)Y(??)MAP[00:[00],01:[01],02:[02],03:[03],mmc:(un)]s(0)Z0S0*/(barrier)

+ -	$C8C5  AD 91 04:    lda $0491			/* A(??)X(??)Y(??)MAP[00:[00],01:[01],02:[02],03:[03],mmc:(un)]s(0)Z?S?*/
	$C8C8  2A:          rol a			/* A(??)X(??)Y(??)MAP[00:[00],01:[01],02:[02],03:[03],mmc:(un)]s(0)Z?S?*/
	$C8C9  2A:          rol a			/* A(??)X(??)Y(??)MAP[00:[00],01:[01],02:[02],03:[03],mmc:(un)]s(0)Z?S?*/
	$C8CA  29 01:       and #$01			/* A(??)X(??)Y(??)MAP[00:[00],01:[01],02:[02],03:[03],mmc:(un)]s(0)Z?S?*/
	$C8CC  60:          rts 			/* A(??)X(??)Y(??)MAP[00:[00],01:[01],02:[02],03:[03],mmc:(un)]s(0)Z?S?*/(barrier)

++	$C8CD  A5 E9:       lda $E9			/* A(??)X(??)Y(??)MAP[00:[00],01:[01],02:[02],03:[03],mmc:(un)]s(0)Z?S?*/
	$C8CF  60:          rts 			/* A(??)X(??)Y(??)MAP[00:[00],01:[01],02:[02],03:[03],mmc:(un)]s(0)Z?S?*/(barrier)

+++	$C8D0  A5 4E:       lda $4E			/* A(??)X(??)Y(??)MAP[00:[00],01:[01],02:[02],03:[03],mmc:(un)]s(0)Z?S?*/
	$C8D2  38:          sec 			/* A(??)X(??)Y(??)MAP[00:[00],01:[01],02:[02],03:[03],mmc:(un)]s(0)Z?S?*/
	$C8D3  E5 64:       sbc $64			/* A(??)X(??)Y(??)MAP[00:[00],01:[01],02:[02],03:[03],mmc:(un)]s(0)Z?S?*/
	$C8D5  85 10:       sta $10			/* A(??)X(??)Y(??)MAP[00:[00],01:[01],02:[02],03:[03],mmc:(un)]s(0)Z?S?*/
	$C8D7  A5 4F:       lda $4F			/* A(??)X(??)Y(??)MAP[00:[00],01:[01],02:[02],03:[03],mmc:(un)]s(0)Z?S?*/
	$C8D9  E5 65:       sbc $65			/* A(??)X(??)Y(??)MAP[00:[00],01:[01],02:[02],03:[03],mmc:(un)]s(0)Z?S?*/
	$C8DB  D0 06:       bne +		; $C8E3			/* A(??)X(??)Y(??)MAP[00:[00],01:[01],02:[02],03:[03],mmc:(un)]s(0)Z?S?*/
	$C8DD  A5 10:       lda $10			/* A(??)X(??)Y(??)MAP[00:[00],01:[01],02:[02],03:[03],mmc:(un)]s(0)Z?S?*/
	$C8DF  C9 0C:       cmp #$0C			/* A(??)X(??)Y(??)MAP[00:[00],01:[01],02:[02],03:[03],mmc:(un)]s(0)Z?S?*/
	$C8E1  90 E2:       bcc -		; $C8C5			/* A(??)X(??)Y(??)MAP[00:[00],01:[01],02:[02],03:[03],mmc:(un)]s(0)Z?S?*/
+	$C8E3  A5 24:       lda $24			/* A(??)X(??)Y(??)MAP[00:[00],01:[01],02:[02],03:[03],mmc:(un)]s(0)Z?S?*/
	$C8E5  D0 DE:       bne -		; $C8C5			/* A(??)X(??)Y(??)MAP[00:[00],01:[01],02:[02],03:[03],mmc:(un)]s(0)Z?S?*/
	$C8E7  A5 23:       lda $23			/* A(??)X(??)Y(??)MAP[00:[00],01:[01],02:[02],03:[03],mmc:(un)]s(0)Z?S?*/
	$C8E9  C9 05:       cmp #$05			/* A(??)X(??)Y(??)MAP[00:[00],01:[01],02:[02],03:[03],mmc:(un)]s(0)Z?S?*/
	$C8EB  90 D5:       bcc --		; $C8C2			/* A(??)X(??)Y(??)MAP[00:[00],01:[01],02:[02],03:[03],mmc:(un)]s(0)Z?S?*/
	$C8ED  B0 D6:       bcs -		; $C8C5			/* A(??)X(??)Y(??)MAP[00:[00],01:[01],02:[02],03:[03],mmc:(un)]s(0)Z?S?*/
_func_48EF
	$C8EF  A9 00:       lda #$00			/* A(00)<48EF>X(??)Y(??)MAP[00:[00],01:[01],02:[02],03:[03],mmc:(un)]s(0)Z?S?*/
	$C8F1  85 EF:       sta $EF			/* A(00)<48EF>X(??)Y(??)MAP[00:[00],01:[01],02:[02],03:[03],mmc:(un)]s(0)Z1S0*/
	$C8F3  85 69:       sta $69			/* A(00)<48EF>X(??)Y(??)MAP[00:[00],01:[01],02:[02],03:[03],mmc:(un)]s(0)Z1S0*/
	$C8F5  20 C4 8E:    jsr _func_0EC4			/* A(??)X(??)Y(??)MAP[00:(??),01:(??),02:(??),03:(??),mmc:(un)]s(0)Z?S?*/
	$C8F8  20 F1 8E:    jsr _func_0EF1			/* A(??)X(??)Y(??)MAP[00:(??),01:(??),02:(??),03:(??),mmc:(un)]s(0)Z?S?*/
	$C8FB  A9 10:       lda #$10			/* A(10)<48FB>X(??)Y(??)MAP[00:[00],01:[01],02:[02],03:[03],mmc:(un)]s(0)Z0S0*/
	$C8FD  85 EE:       sta $EE			/* A(10)<48FB>X(??)Y(??)MAP[00:[00],01:[01],02:[02],03:[03],mmc:(un)]s(0)Z0S0*/
	$C8FF  A2 1F:       ldx #$1F			/* A(10)<48FB>X(1F)<48FF>Y(??)MAP[00:[00],01:[01],02:[02],03:[03],mmc:(un)]s(0)Z0S0*/
-	$C901  BD 83 CB:    lda _data_4B83_indexed,x			/* A$4B83,x<4901>X(1F)<48FF>Y(??)MAP[00:[00],01:[01],02:[02],03:[03],mmc:(un)]s(0)Z?S?*/
	$C904  95 A3:       sta $A3,x			/* A$4B83,x<4901>X(1F)<48FF>Y(??)MAP[00:[00],01:[01],02:[02],03:[03],mmc:(un)]s(0)Z?S?*/
	$C906  CA:          dex 			/* A$4B83,x<4901>X(??)Y(??)MAP[00:[00],01:[01],02:[02],03:[03],mmc:(un)]s(0)Z?S?*/
	$C907  10 F8:       bpl -		; $C901			/* A$4B83,x<4901>X(??)Y(??)MAP[00:[00],01:[01],02:[02],03:[03],mmc:(un)]s(0)Z?S?*/
	$C909  20 00 8F:    jsr _func_0F00			/* A(??)X(??)Y(??)MAP[00:(??),01:(??),02:(??),03:(??),mmc:(un)]s(0)Z?S?*/
	$C90C  A9 85:       lda #$85			/* A(85)<490C>X(??)Y(??)MAP[00:[00],01:[01],02:[02],03:[03],mmc:(un)]s(0)Z0S1*/
	$C90E  85 10:       sta $10			/* A(85)<490C>X(??)Y(??)MAP[00:[00],01:[01],02:[02],03:[03],mmc:(un)]s(0)Z0S1*/
	$C910  A9 20:       lda #$20			/* A(20)<4910>X(??)Y(??)MAP[00:[00],01:[01],02:[02],03:[03],mmc:(un)]s(0)Z0S0*/
	$C912  85 11:       sta $11			/* A(20)<4910>X(??)Y(??)MAP[00:[00],01:[01],02:[02],03:[03],mmc:(un)]s(0)Z0S0*/
	$C914  A9 6B:       lda #<_data_4A6B			/* A(6B)<4914>X(??)Y(??)MAP[00:[00],01:[01],02:[02],03:[03],mmc:(un)]s(0)Z0S0*/
	$C916  85 12:       sta $12			/* A(6B)<4914>X(??)Y(??)MAP[00:[00],01:[01],02:[02],03:[03],mmc:(un)]s(0)Z0S0*/
	$C918  A9 CA:       lda #>_data_4A6B			/* A(CA)<4918>X(??)Y(??)MAP[00:[00],01:[01],02:[02],03:[03],mmc:(un)]s(0)Z0S1*/
	$C91A  85 13:       sta $13			/* A(CA)<4918>X(??)Y(??)MAP[00:[00],01:[01],02:[02],03:[03],mmc:(un)]s(0)Z0S1*/
	$C91C  20 52 91:    jsr _func_1152			/* A(??)X(??)Y(??)MAP[00:(??),01:(??),02:(??),03:(??),mmc:(un)]s(0)Z?S?*/
	$C91F  A9 C5:       lda #$C5			/* A(C5)<491F>X(??)Y(??)MAP[00:[00],01:[01],02:[02],03:[03],mmc:(un)]s(0)Z0S1*/
	$C921  85 10:       sta $10			/* A(C5)<491F>X(??)Y(??)MAP[00:[00],01:[01],02:[02],03:[03],mmc:(un)]s(0)Z0S1*/
	$C923  A9 20:       lda #<_loc_0220			/* A(20)<4923>X(??)Y(??)MAP[00:[00],01:[01],02:[02],03:[03],mmc:(un)]s(0)Z0S0*/
	$C925  85 11:       sta $11			/* A(20)<4923>X(??)Y(??)MAP[00:[00],01:[01],02:[02],03:[03],mmc:(un)]s(0)Z0S0*/
	$C927  A9 82:       lda #>_loc_0220			/* A(82)<4927>X(??)Y(??)MAP[00:[00],01:[01],02:[02],03:[03],mmc:(un)]s(0)Z0S1*/
	$C929  85 12:       sta $12			/* A(82)<4927>X(??)Y(??)MAP[00:[00],01:[01],02:[02],03:[03],mmc:(un)]s(0)Z0S1*/
	$C92B  A9 CA:       lda #$CA			/* A(CA)<492B>X(??)Y(??)MAP[00:[00],01:[01],02:[02],03:[03],mmc:(un)]s(0)Z0S1*/
	$C92D  85 13:       sta $13			/* A(CA)<492B>X(??)Y(??)MAP[00:[00],01:[01],02:[02],03:[03],mmc:(un)]s(0)Z0S1*/
	$C92F  20 52 91:    jsr _func_1152			/* A(??)X(??)Y(??)MAP[00:(??),01:(??),02:(??),03:(??),mmc:(un)]s(0)Z?S?*/
	$C932  A9 46:       lda #$46			/* A(46)<4932>X(??)Y(??)MAP[00:[00],01:[01],02:[02],03:[03],mmc:(un)]s(0)Z0S0*/
	$C934  85 10:       sta $10			/* A(46)<4932>X(??)Y(??)MAP[00:[00],01:[01],02:[02],03:[03],mmc:(un)]s(0)Z0S0*/
	$C936  A9 21:       lda #<_data_0F21			/* A(21)<4936>X(??)Y(??)MAP[00:[00],01:[01],02:[02],03:[03],mmc:(un)]s(0)Z0S0*/
	$C938  85 11:       sta $11			/* A(21)<4936>X(??)Y(??)MAP[00:[00],01:[01],02:[02],03:[03],mmc:(un)]s(0)Z0S0*/
	$C93A  A9 8F:       lda #>_data_0F21			/* A(8F)<493A>X(??)Y(??)MAP[00:[00],01:[01],02:[02],03:[03],mmc:(un)]s(0)Z0S1*/
	$C93C  85 12:       sta $12			/* A(8F)<493A>X(??)Y(??)MAP[00:[00],01:[01],02:[02],03:[03],mmc:(un)]s(0)Z0S1*/
	$C93E  A9 CA:       lda #$CA			/* A(CA)<493E>X(??)Y(??)MAP[00:[00],01:[01],02:[02],03:[03],mmc:(un)]s(0)Z0S1*/
	$C940  85 13:       sta $13			/* A(CA)<493E>X(??)Y(??)MAP[00:[00],01:[01],02:[02],03:[03],mmc:(un)]s(0)Z0S1*/
	$C942  20 52 91:    jsr _func_1152			/* A(??)X(??)Y(??)MAP[00:(??),01:(??),02:(??),03:(??),mmc:(un)]s(0)Z?S?*/
	$C945  A9 A6:       lda #$A6			/* A(A6)<4945>X(??)Y(??)MAP[00:[00],01:[01],02:[02],03:[03],mmc:(un)]s(0)Z0S1*/
	$C947  85 10:       sta $10			/* A(A6)<4945>X(??)Y(??)MAP[00:[00],01:[01],02:[02],03:[03],mmc:(un)]s(0)Z0S1*/
	$C949  A9 21:       lda #<_loc_2121			/* A(21)<4949>X(??)Y(??)MAP[00:[00],01:[01],02:[02],03:[03],mmc:(un)]s(0)Z0S0*/
	$C94B  85 11:       sta $11			/* A(21)<4949>X(??)Y(??)MAP[00:[00],01:[01],02:[02],03:[03],mmc:(un)]s(0)Z0S0*/
	$C94D  A9 A1:       lda #>_loc_2121			/* A(A1)<494D>X(??)Y(??)MAP[00:[00],01:[01],02:[02],03:[03],mmc:(un)]s(0)Z0S1*/
	$C94F  85 12:       sta $12			/* A(A1)<494D>X(??)Y(??)MAP[00:[00],01:[01],02:[02],03:[03],mmc:(un)]s(0)Z0S1*/
	$C951  A9 CA:       lda #$CA			/* A(CA)<4951>X(??)Y(??)MAP[00:[00],01:[01],02:[02],03:[03],mmc:(un)]s(0)Z0S1*/
	$C953  85 13:       sta $13			/* A(CA)<4951>X(??)Y(??)MAP[00:[00],01:[01],02:[02],03:[03],mmc:(un)]s(0)Z0S1*/
	$C955  20 52 91:    jsr _func_1152			/* A(??)X(??)Y(??)MAP[00:(??),01:(??),02:(??),03:(??),mmc:(un)]s(0)Z?S?*/
	$C958  A9 06:       lda #$06			/* A(06)<4958>X(??)Y(??)MAP[00:[00],01:[01],02:[02],03:[03],mmc:(un)]s(0)Z0S0*/
	$C95A  85 10:       sta $10			/* A(06)<4958>X(??)Y(??)MAP[00:[00],01:[01],02:[02],03:[03],mmc:(un)]s(0)Z0S0*/
	$C95C  A9 22:       lda #<_data_2F22			/* A(22)<495C>X(??)Y(??)MAP[00:[00],01:[01],02:[02],03:[03],mmc:(un)]s(0)Z0S0*/
	$C95E  85 11:       sta $11			/* A(22)<495C>X(??)Y(??)MAP[00:[00],01:[01],02:[02],03:[03],mmc:(un)]s(0)Z0S0*/
	$C960  A9 AF:       lda #>_data_2F22			/* A(AF)<4960>X(??)Y(??)MAP[00:[00],01:[01],02:[02],03:[03],mmc:(un)]s(0)Z0S1*/
	$C962  85 12:       sta $12			/* A(AF)<4960>X(??)Y(??)MAP[00:[00],01:[01],02:[02],03:[03],mmc:(un)]s(0)Z0S1*/
	$C964  A9 CA:       lda #$CA			/* A(CA)<4964>X(??)Y(??)MAP[00:[00],01:[01],02:[02],03:[03],mmc:(un)]s(0)Z0S1*/
	$C966  85 13:       sta $13			/* A(CA)<4964>X(??)Y(??)MAP[00:[00],01:[01],02:[02],03:[03],mmc:(un)]s(0)Z0S1*/
	$C968  20 52 91:    jsr _func_1152			/* A(??)X(??)Y(??)MAP[00:(??),01:(??),02:(??),03:(??),mmc:(un)]s(0)Z?S?*/
	$C96B  A9 66:       lda #$66			/* A(66)<496B>X(??)Y(??)MAP[00:[00],01:[01],02:[02],03:[03],mmc:(un)]s(0)Z0S0*/
	$C96D  85 10:       sta $10			/* A(66)<496B>X(??)Y(??)MAP[00:[00],01:[01],02:[02],03:[03],mmc:(un)]s(0)Z0S0*/
	$C96F  A9 22:       lda #<_data_4122			/* A(22)<496F>X(??)Y(??)MAP[00:[00],01:[01],02:[02],03:[03],mmc:(un)]s(0)Z0S0*/
	$C971  85 11:       sta $11			/* A(22)<496F>X(??)Y(??)MAP[00:[00],01:[01],02:[02],03:[03],mmc:(un)]s(0)Z0S0*/
	$C973  A9 C1:       lda #>_data_4122			/* A(C1)<4973>X(??)Y(??)MAP[00:[00],01:[01],02:[02],03:[03],mmc:(un)]s(0)Z0S1*/
	$C975  85 12:       sta $12			/* A(C1)<4973>X(??)Y(??)MAP[00:[00],01:[01],02:[02],03:[03],mmc:(un)]s(0)Z0S1*/
	$C977  A9 CA:       lda #$CA			/* A(CA)<4977>X(??)Y(??)MAP[00:[00],01:[01],02:[02],03:[03],mmc:(un)]s(0)Z0S1*/
	$C979  85 13:       sta $13			/* A(CA)<4977>X(??)Y(??)MAP[00:[00],01:[01],02:[02],03:[03],mmc:(un)]s(0)Z0S1*/
	$C97B  20 52 91:    jsr _func_1152			/* A(??)X(??)Y(??)MAP[00:(??),01:(??),02:(??),03:(??),mmc:(un)]s(0)Z?S?*/
	$C97E  A9 C6:       lda #$C6			/* A(C6)<497E>X(??)Y(??)MAP[00:[00],01:[01],02:[02],03:[03],mmc:(un)]s(0)Z0S1*/
	$C980  85 10:       sta $10			/* A(C6)<497E>X(??)Y(??)MAP[00:[00],01:[01],02:[02],03:[03],mmc:(un)]s(0)Z0S1*/
	$C982  A9 22:       lda #<_data_4F22			/* A(22)<4982>X(??)Y(??)MAP[00:[00],01:[01],02:[02],03:[03],mmc:(un)]s(0)Z0S0*/
	$C984  85 11:       sta $11			/* A(22)<4982>X(??)Y(??)MAP[00:[00],01:[01],02:[02],03:[03],mmc:(un)]s(0)Z0S0*/
	$C986  A9 CF:       lda #>_data_4F22			/* A(CF)<4986>X(??)Y(??)MAP[00:[00],01:[01],02:[02],03:[03],mmc:(un)]s(0)Z0S1*/
	$C988  85 12:       sta $12			/* A(CF)<4986>X(??)Y(??)MAP[00:[00],01:[01],02:[02],03:[03],mmc:(un)]s(0)Z0S1*/
	$C98A  A9 CA:       lda #$CA			/* A(CA)<498A>X(??)Y(??)MAP[00:[00],01:[01],02:[02],03:[03],mmc:(un)]s(0)Z0S1*/
	$C98C  85 13:       sta $13			/* A(CA)<498A>X(??)Y(??)MAP[00:[00],01:[01],02:[02],03:[03],mmc:(un)]s(0)Z0S1*/
	$C98E  20 52 91:    jsr _func_1152			/* A(??)X(??)Y(??)MAP[00:(??),01:(??),02:(??),03:(??),mmc:(un)]s(0)Z?S?*/
	$C991  A9 80:       lda #$80			/* A(80)<4991>X(??)Y(??)MAP[00:[00],01:[01],02:[02],03:[03],mmc:(un)]s(0)Z0S1*/
	$C993  85 F4:       sta $F4			/* A(80)<4991>X(??)Y(??)MAP[00:[00],01:[01],02:[02],03:[03],mmc:(un)]s(0)Z0S1*/
	$C995  85 34:       sta $34			/* A(80)<4991>X(??)Y(??)MAP[00:[00],01:[01],02:[02],03:[03],mmc:(un)]s(0)Z0S1*/
	$C997  A9 00:       lda #$00			/* A(00)<4997>X(??)Y(??)MAP[00:[00],01:[01],02:[02],03:[03],mmc:(un)]s(0)Z1S0*/
	$C999  85 2D:       sta $2D			/* A(00)<4997>X(??)Y(??)MAP[00:[00],01:[01],02:[02],03:[03],mmc:(un)]s(0)Z1S0*/
	$C99B  A9 50:       lda #<_loc_3F50			/* A(50)<499B>X(??)Y(??)MAP[00:[00],01:[01],02:[02],03:[03],mmc:(un)]s(0)Z0S0*/
	$C99D  8D 00 07:    sta $0700			/* A(50)<499B>X(??)Y(??)MAP[00:[00],01:[01],02:[02],03:[03],mmc:(un)]s(0)Z0S0*/
	$C9A0  A9 BF:       lda #>_loc_3F50			/* A(BF)<49A0>X(??)Y(??)MAP[00:[00],01:[01],02:[02],03:[03],mmc:(un)]s(0)Z0S1*/
	$C9A2  8D 01 07:    sta $0701			/* A(BF)<49A0>X(??)Y(??)MAP[00:[00],01:[01],02:[02],03:[03],mmc:(un)]s(0)Z0S1*/
	$C9A5  A9 00:       lda #$00			/* A(00)<49A5>X(??)Y(??)MAP[00:[00],01:[01],02:[02],03:[03],mmc:(un)]s(0)Z1S0*/
	$C9A7  8D 02 07:    sta $0702			/* A(00)<49A5>X(??)Y(??)MAP[00:[00],01:[01],02:[02],03:[03],mmc:(un)]s(0)Z1S0*/
	$C9AA  A9 20:       lda #$20			/* A(20)<49AA>X(??)Y(??)MAP[00:[00],01:[01],02:[02],03:[03],mmc:(un)]s(0)Z0S0*/
	$C9AC  8D 03 07:    sta $0703			/* A(20)<49AA>X(??)Y(??)MAP[00:[00],01:[01],02:[02],03:[03],mmc:(un)]s(0)Z0S0*/
	$C9AF  20 AD 89:    jsr _func_09AD			/* A(??)X(??)Y(??)MAP[00:(??),01:(??),02:(??),03:(??),mmc:(un)]s(0)Z?S?*/
-	$C9B2  A5 EB:       lda $EB			/* A(??)X(??)Y(??)MAP[00:[00],01:[01],02:[02],03:[03],mmc:(un)]s(0)Z?S?*/
	$C9B4  29 08:       and #$08			/* A(??)X(??)Y(??)MAP[00:[00],01:[01],02:[02],03:[03],mmc:(un)]s(0)Z?S?*/
	$C9B6  D0 FA:       bne -		; $C9B2			/* A(??)X(??)Y(??)MAP[00:[00],01:[01],02:[02],03:[03],mmc:(un)]s(0)Z?S?*/
-	$C9B8  A5 EB:       lda $EB			/* A(??)X(??)Y(??)MAP[00:[00],01:[01],02:[02],03:[03],mmc:(un)]s(0)Z?S?*/
	$C9BA  29 08:       and #$08			/* A(??)X(??)Y(??)MAP[00:[00],01:[01],02:[02],03:[03],mmc:(un)]s(0)Z?S?*/
	$C9BC  F0 FA:       beq -		; $C9B8			/* A(??)X(??)Y(??)MAP[00:[00],01:[01],02:[02],03:[03],mmc:(un)]s(0)Z?S?*/
	$C9BE  20 B7 89:    jsr _func_09B7			/* A(??)X(??)Y(??)MAP[00:(??),01:(??),02:(??),03:(??),mmc:(un)]s(0)Z?S?*/
	$C9C1  06 2D:       asl $2D			/* A(??)X(??)Y(??)MAP[00:[00],01:[01],02:[02],03:[03],mmc:(un)]s(0)Z?S?*/
	$C9C3  A0 00:       ldy #$00			/* A(??)X(??)Y(00)<49C3>MAP[00:[00],01:[01],02:[02],03:[03],mmc:(un)]s(0)Z1S0*/
	$C9C5  84 EF:       sty $EF			/* A(??)X(??)Y(00)<49C3>MAP[00:[00],01:[01],02:[02],03:[03],mmc:(un)]s(0)Z1S0*/
	$C9C7  8C 01 20:    sty $2001			/* A(??)X(??)Y(00)<49C3>MAP[00:[00],01:[01],02:[02],03:[03],mmc:(un)]s(0)Z1S0*/
	$C9CA  84 F2:       sty $F2			/* A(??)X(??)Y(00)<49C3>MAP[00:[00],01:[01],02:[02],03:[03],mmc:(un)]s(0)Z1S0*/
	$C9CC  84 F3:       sty $F3			/* A(??)X(??)Y(00)<49C3>MAP[00:[00],01:[01],02:[02],03:[03],mmc:(un)]s(0)Z1S0*/
	$C9CE  20 37 8F:    jsr _func_0F37			/* A(??)X(??)Y(??)MAP[00:(??),01:(??),02:(??),03:(??),mmc:(un)]s(0)Z?S?*/
	$C9D1  A9 0A:       lda #$0A			/* A(0A)<49D1>X(??)Y(00)<49C3>MAP[00:[00],01:[01],02:[02],03:[03],mmc:(un)]s(0)Z0S0*/
	$C9D3  85 EF:       sta $EF			/* A(0A)<49D1>X(??)Y(00)<49C3>MAP[00:[00],01:[01],02:[02],03:[03],mmc:(un)]s(0)Z0S0*/
	$C9D5  8D 01 20:    sta $2001			/* A(0A)<49D1>X(??)Y(00)<49C3>MAP[00:[00],01:[01],02:[02],03:[03],mmc:(un)]s(0)Z0S0*/
	$C9D8  A9 06:       lda #$06			/* A(06)<49D8>X(??)Y(00)<49C3>MAP[00:[00],01:[01],02:[02],03:[03],mmc:(un)]s(0)Z0S0*/
	$C9DA  85 1B:       sta $1B			/* A(06)<49D8>X(??)Y(00)<49C3>MAP[00:[00],01:[01],02:[02],03:[03],mmc:(un)]s(0)Z0S0*/
	$C9DC  A5 2D:       lda $2D			/* A(??)X(??)Y(00)<49C3>MAP[00:[00],01:[01],02:[02],03:[03],mmc:(un)]s(0)Z?S?*/
	$C9DE  0A:          asl a			/* A(??)X(??)Y(00)<49C3>MAP[00:[00],01:[01],02:[02],03:[03],mmc:(un)]s(0)Z?S?*/
	$C9DF  A8:          tay 			/* A(??)X(??)Y(??)MAP[00:[00],01:[01],02:[02],03:[03],mmc:(un)]s(0)Z?S?*/
	$C9E0  B9 A8 CB:    lda _DataPointerTable_4BA8,y			/* A$4BA8,y<49E0>X(??)Y(??)MAP[00:[00],01:[01],02:[02],03:[03],mmc:(un)]s(0)Z?S?*/
	$C9E3  85 17:       sta $17			/* A$4BA8,y<49E0>X(??)Y(??)MAP[00:[00],01:[01],02:[02],03:[03],mmc:(un)]s(0)Z?S?*/
	$C9E5  B9 A9 CB:    lda _DataPointerTable_4BA8+1,y			/* A$4BA9,y<49E5>X(??)Y(??)MAP[00:[00],01:[01],02:[02],03:[03],mmc:(un)]s(0)Z?S?*/
	$C9E8  85 18:       sta $18			/* A$4BA9,y<49E5>X(??)Y(??)MAP[00:[00],01:[01],02:[02],03:[03],mmc:(un)]s(0)Z?S?*/
	$C9EA  B9 AA CB:    lda $CBAA,y			/* A$4BAA,y<49EA>X(??)Y(??)MAP[00:[00],01:[01],02:[02],03:[03],mmc:(un)]s(0)Z?S?*/
	$C9ED  85 19:       sta $19			/* A$4BAA,y<49EA>X(??)Y(??)MAP[00:[00],01:[01],02:[02],03:[03],mmc:(un)]s(0)Z?S?*/
	$C9EF  B9 AB CB:    lda $CBAB,y			/* A$4BAB,y<49EF>X(??)Y(??)MAP[00:[00],01:[01],02:[02],03:[03],mmc:(un)]s(0)Z?S?*/
	$C9F2  85 1A:       sta $1A			/* A$4BAB,y<49EF>X(??)Y(??)MAP[00:[00],01:[01],02:[02],03:[03],mmc:(un)]s(0)Z?S?*/
--	$C9F4  AD 02 20:    lda $2002			/* A(??)X(??)Y(??)MAP[00:[00],01:[01],02:[02],03:[03],mmc:(un)]s(0)Z?S?*/
	$C9F7  10 FB:       bpl --		; $C9F4			/* A(??)X(??)Y(??)MAP[00:[00],01:[01],02:[02],03:[03],mmc:(un)]s(0)Z?S?*/
	$C9F9  20 38 CA:    jsr _func_4A38			/* A(??)X(??)Y(??)MAP[00:(??),01:(??),02:(??),03:(??),mmc:(un)]s(0)Z?S?*/
	$C9FC  20 59 CA:    jsr _func_4A59			/* A(??)X(??)Y(??)MAP[00:(??),01:(??),02:(??),03:(??),mmc:(un)]s(0)Z?S?*/
-	$C9FF  AD 02 20:    lda $2002			/* A(??)X(??)Y(??)MAP[00:[00],01:[01],02:[02],03:[03],mmc:(un)]s(0)Z?S?*/
	$CA02  10 FB:       bpl -		; $C9FF			/* A(??)X(??)Y(??)MAP[00:[00],01:[01],02:[02],03:[03],mmc:(un)]s(0)Z?S?*/
	$CA04  20 15 CA:    jsr _func_4A15			/* A(??)X(??)Y(??)MAP[00:(??),01:(??),02:(??),03:(??),mmc:(un)]s(0)Z?S?*/
	$CA07  20 59 CA:    jsr _func_4A59			/* A(??)X(??)Y(??)MAP[00:(??),01:(??),02:(??),03:(??),mmc:(un)]s(0)Z?S?*/
	$CA0A  C6 1B:       dec $1B			/* A(??)X(??)Y(??)MAP[00:[00],01:[01],02:[02],03:[03],mmc:(un)]s(0)Z?S?*/
	$CA0C  10 E6:       bpl --		; $C9F4			/* A(??)X(??)Y(??)MAP[00:[00],01:[01],02:[02],03:[03],mmc:(un)]s(0)Z?S?*/
	$CA0E  A9 00:       lda #$00			/* A(00)<4A0E>X(??)Y(??)MAP[00:[00],01:[01],02:[02],03:[03],mmc:(un)]s(0)Z1S0*/
	$CA10  85 F4:       sta $F4			/* A(00)<4A0E>X(??)Y(??)MAP[00:[00],01:[01],02:[02],03:[03],mmc:(un)]s(0)Z1S0*/
	$CA12  85 34:       sta $34			/* A(00)<4A0E>X(??)Y(??)MAP[00:[00],01:[01],02:[02],03:[03],mmc:(un)]s(0)Z1S0*/
	$CA14  60:          rts 			/* A(00)<4A0E>X(??)Y(??)MAP[00:[00],01:[01],02:[02],03:[03],mmc:(un)]s(0)Z1S0*/(barrier)
;------------------------------------------
_func_4A15
	$CA15  A9 00:       lda #$00			/* A(00)<4A15>X(??)Y(??)MAP[00:[00],01:[01],02:[02],03:[03],mmc:(un)]s(0)Z1S0*/
	$CA17  8D 01 20:    sta $2001			/* A(00)<4A15>X(??)Y(??)MAP[00:[00],01:[01],02:[02],03:[03],mmc:(un)]s(0)Z1S0*/
	$CA1A  A5 18:       lda $18			/* A(??)X(??)Y(??)MAP[00:[00],01:[01],02:[02],03:[03],mmc:(un)]s(0)Z?S?*/
	$CA1C  8D 06 20:    sta $2006			/* A(??)X(??)Y(??)MAP[00:[00],01:[01],02:[02],03:[03],mmc:(un)]s(0)Z?S?*/
	$CA1F  A5 17:       lda $17			/* A(??)X(??)Y(??)MAP[00:[00],01:[01],02:[02],03:[03],mmc:(un)]s(0)Z?S?*/
	$CA21  8D 06 20:    sta $2006			/* A(??)X(??)Y(??)MAP[00:[00],01:[01],02:[02],03:[03],mmc:(un)]s(0)Z?S?*/
	$CA24  A0 00:       ldy #$00			/* A(??)X(??)Y(00)<4A24>MAP[00:[00],01:[01],02:[02],03:[03],mmc:(un)]s(0)Z1S0*/
-	$CA26  B1 19:       lda ($19),y			/* A(??)X(??)Y(00)<4A24>MAP[00:[00],01:[01],02:[02],03:[03],mmc:(un)]s(0)Z?S?*/
	$CA28  C9 FF:       cmp #$FF			/* A(??)X(??)Y(00)<4A24>MAP[00:[00],01:[01],02:[02],03:[03],mmc:(un)]s(0)Z?S?*/
	$CA2A  F0 06:       beq +		; $CA32			/* A(??)X(??)Y(00)<4A24>MAP[00:[00],01:[01],02:[02],03:[03],mmc:(un)]s(0)Z?S?*/
	$CA2C  8D 07 20:    sta $2007			/* A(??)X(??)Y(00)<4A24>MAP[00:[00],01:[01],02:[02],03:[03],mmc:(un)]s(0)Z?S?*/
	$CA2F  C8:          iny 			/* A(??)X(??)Y(??)MAP[00:[00],01:[01],02:[02],03:[03],mmc:(un)]s(0)Z?S?*/
	$CA30  D0 F4:       bne -		; $CA26			/* A(??)X(??)Y(??)MAP[00:[00],01:[01],02:[02],03:[03],mmc:(un)]s(0)Z?S?*/
+	$CA32  20 37 8F:    jsr _func_0F37			/* A(??)X(??)Y(??)MAP[00:[00],01:[01],02:[02],03:[03],mmc:(un)]s(0)Z?S?*/
	$CA35  4C 5F 94:    jmp _func_145F			/* A(??)X(??)Y(00)<4A24>MAP[00:[00],01:[01],02:[02],03:[03],mmc:(un)]s(0)Z?S?*/(barrier)
;------------------------------------------
_func_4A38
	$CA38  A9 00:       lda #$00			/* A(00)<4A38>X(??)Y(00)<4A24>MAP[00:[00],01:[01],02:[02],03:[03],mmc:(un)]s(0)Z?S?*/
	$CA3A  8D 01 20:    sta $2001			/* A(00)<4A38>X(??)Y(??)MAP[00:[00],01:[01],02:[02],03:[03],mmc:(un)]s(0)Z1S0*/
	$CA3D  A5 18:       lda $18			/* A(??)X(??)Y(??)MAP[00:[00],01:[01],02:[02],03:[03],mmc:(un)]s(0)Z?S?*/
	$CA3F  8D 06 20:    sta $2006			/* A(??)X(??)Y(??)MAP[00:[00],01:[01],02:[02],03:[03],mmc:(un)]s(0)Z?S?*/
	$CA42  A5 17:       lda $17			/* A(??)X(??)Y(??)MAP[00:[00],01:[01],02:[02],03:[03],mmc:(un)]s(0)Z?S?*/
	$CA44  8D 06 20:    sta $2006			/* A(??)X(??)Y(??)MAP[00:[00],01:[01],02:[02],03:[03],mmc:(un)]s(0)Z?S?*/
	$CA47  A0 00:       ldy #$00			/* A(??)X(??)Y(00)<4A47>MAP[00:[00],01:[01],02:[02],03:[03],mmc:(un)]s(0)Z1S0*/
	$CA49  A9 30:       lda #$30			/* A(30)<4A49>X(??)Y(00)<4A47>MAP[00:[00],01:[01],02:[02],03:[03],mmc:(un)]s(0)Z0S0*/
-	$CA4B  8D 07 20:    sta $2007			/* A(30)<4A49>X(??)Y(00)<4A47>MAP[00:[00],01:[01],02:[02],03:[03],mmc:(un)]s(0)Z?S?*/
	$CA4E  C8:          iny 			/* A(??)X(??)Y(??)MAP[00:[00],01:[01],02:[02],03:[03],mmc:(un)]s(0)Z?S?*/
	$CA4F  C0 14:       cpy #$14			/* A(??)X(??)Y(??)MAP[00:[00],01:[01],02:[02],03:[03],mmc:(un)]s(0)Z?S?*/
	$CA51  90 F8:       bcc -		; $CA4B			/* A(??)X(??)Y(??)MAP[00:[00],01:[01],02:[02],03:[03],mmc:(un)]s(0)Z?S?*/
	$CA53  20 37 8F:    jsr _func_0F37			/* A(??)X(??)Y(??)MAP[00:(??),01:(??),02:(??),03:(??),mmc:(un)]s(0)Z?S?*/
	$CA56  4C 5F 94:    jmp _func_145F			/* A(??)X(??)Y(??)MAP[00:[00],01:[01],02:[02],03:[03],mmc:(un)]s(0)Z?S?*/(barrier)
;------------------------------------------
_func_4A59
	$CA59  A9 03:       lda #$03			/* A(??)X(??)Y(??)MAP[00:[00],01:[01],02:[02],03:[03],mmc:(un)]s(0)Z?S?*/
---	$CA5B  A2 00:       ldx #$00			/* A(03)<4A59>X(00)<4A5B>Y(??)MAP[00:[00],01:[01],02:[02],03:[03],mmc:(un)]s(0)Z?S?*/
--                          ; Delay loop begin: 641 cycles (128.2 cycles per byte); ends at $4A62
	$CA5D  A0 80:       ldy #$80			/* A(03)<4A59>X(00)<4A5B>Y(80)<4A5D>MAP[00:[00],01:[01],02:[02],03:[03],mmc:(un)]s(0)Z?S?*/
-	$CA5F  88:          dey 			/* A(??)X(00)<4A5B>Y(??)MAP[00:[00],01:[01],02:[02],03:[03],mmc:(un)]s(0)Z?S?*/
	$CA60  D0 FD:       bne -		; $CA5F			/* A(??)X(00)<4A5B>Y(??)MAP[00:[00],01:[01],02:[02],03:[03],mmc:(un)]s(0)Z?S?*/
                            ; End of delay loop (5 bytes)
	$CA62  CA:          dex 			/* A(??)X(??)Y(??)MAP[00:[00],01:[01],02:[02],03:[03],mmc:(un)]s(0)Z?S?*/
	$CA63  D0 F8:       bne --		; $CA5D			/* A(??)X(??)Y(??)MAP[00:[00],01:[01],02:[02],03:[03],mmc:(un)]s(0)Z?S?*/
	$CA65  38:          sec 			/* A(??)X(??)Y(??)MAP[00:[00],01:[01],02:[02],03:[03],mmc:(un)]s(0)Z?S?*/
	$CA66  E9 01:       sbc #$01			/* A(??)X(??)Y(??)MAP[00:[00],01:[01],02:[02],03:[03],mmc:(un)]s(0)Z?S?*/
	$CA68  D0 F1:       bne ---		; $CA5B			/* A(??)X(??)Y(??)MAP[00:[00],01:[01],02:[02],03:[03],mmc:(un)]s(0)Z?S?*/
	$CA6A  60:          rts 			/* A(??)X(??)Y(??)MAP[00:[00],01:[01],02:[02],03:[03],mmc:(un)]s(0)Z?S?*/(barrier)
;------------------------------------------
_data_4A6B
	$CA6B               .byte $1C,$0E,$15,$0E,$0C,$1D,$30,$22,$18,$1E,$1B,$30,$18,$19,$19,$18
	$CA7B               .byte $17,$0E,$17,$1D,$2E,$2F,$FF,$1C,$14,$12,$15,$15,$30,$15,$0E,$1F
	$CA8B               .byte $0E,$15,$27,$FF
DataTableEntry_4A8F
	$CA8F               .byte $11,$12,$10,$11,$30,$1C,$0C,$11,$18,$18,$15,$30,$1D,$0E,$0A,$16
	$CA9F               .byte $FF,$FF
DataTableEntry_4AA1
	$CAA1               .byte $0C,$18,$15,$15,$0E,$10,$0E,$30,$1D,$0E,$0A,$16,$FF,$FF
DataTableEntry_4AAF
	$CAAF               .byte $19,$1B,$18,$0F,$0E,$1C,$1C,$12,$18,$17,$0A,$15,$30,$1D,$0E,$0A
	$CABF               .byte $16,$FF
DataTableEntry_4AC1
	$CAC1               .byte $19,$15,$0A,$22,$18,$0F,$0F,$30,$1D,$0E,$0A,$16,$FF,$FF
DataTableEntry_4ACF
	$CACF               .byte $1C,$1E,$19,$0E,$1B,$30,$0B,$18,$20,$15,$30,$1D,$0E,$0A,$16,$FF
_data_4ADF
	$CADF               .byte $1C,$18,$1B,$1B,$22,$28,$1D,$11,$0E,$30,$10,$0A,$16,$0E,$30,$12
	$CAEF               .byte $1C,$30,$18,$1F,$0E,$1B,$FF,$FF,$10,$18,$30,$1D,$18,$30,$1D,$11
	$CAFF               .byte $0E,$30,$15,$18,$0C,$14,$0E,$1B,$30,$1B,$18,$18,$16,$24,$FF,$FF
_data_4B0F
	$CB0F               .byte $22,$18,$1E,$1B,$30,$0A,$1B,$0E,$30,$18,$17,$30,$1D,$11,$0E,$30
	$CB1F               .byte $20,$0A,$22,$30,$1D,$18,$FF,$FF
_data_4B27
	$CB27               .byte $1D,$11,$0E,$30,$1C,$1E,$19,$0E,$1B,$30,$0B,$18,$20,$15,$27,$FF
_func_4B37
	$CB37  A5 EB:       lda $EB			/* A(??)X(??)Y(??)MAP[00:[00],01:[01],02:[02],03:[03],mmc:(un)]s(0)Z?S?*/
	$CB39  29 04:       and #$04			/* A(??)X(??)Y(??)MAP[00:[00],01:[01],02:[02],03:[03],mmc:(un)]s(0)Z?S?*/
	$CB3B  0A:          asl a			/* A(??)X(??)Y(??)MAP[00:[00],01:[01],02:[02],03:[03],mmc:(un)]s(0)Z?S?*/
	$CB3C  0A:          asl a			/* A(??)X(??)Y(??)MAP[00:[00],01:[01],02:[02],03:[03],mmc:(un)]s(0)Z?S?*/
	$CB3D  0A:          asl a			/* A(??)X(??)Y(??)MAP[00:[00],01:[01],02:[02],03:[03],mmc:(un)]s(0)Z?S?*/
	$CB3E  05 EB:       ora $EB			/* A(??)X(??)Y(??)MAP[00:[00],01:[01],02:[02],03:[03],mmc:(un)]s(0)Z?S?*/
	$CB40  0A:          asl a			/* A(??)X(??)Y(??)MAP[00:[00],01:[01],02:[02],03:[03],mmc:(un)]s(0)Z?S?*/
	$CB41  0A:          asl a			/* A(??)X(??)Y(??)MAP[00:[00],01:[01],02:[02],03:[03],mmc:(un)]s(0)Z?S?*/
	$CB42  0A:          asl a			/* A(??)X(??)Y(??)MAP[00:[00],01:[01],02:[02],03:[03],mmc:(un)]s(0)Z?S?*/
	$CB43  B0 08:       bcs +		; $CB4D			/* A(??)X(??)Y(??)MAP[00:[00],01:[01],02:[02],03:[03],mmc:(un)]s(0)Z?S?*/
	$CB45  0A:          asl a			/* A(??)X(??)Y(??)MAP[00:[00],01:[01],02:[02],03:[03],mmc:(un)]s(0)Z?S?*/
	$CB46  B0 28:       bcs ++		; $CB70			/* A(??)X(??)Y(??)MAP[00:[00],01:[01],02:[02],03:[03],mmc:(un)]s(0)Z?S?*/
--	$CB48  A5 EB:       lda $EB			/* A$4BA3,y<4B68>X(??)Y(??)MAP[00:[00],01:[01],02:[02],03:[03],mmc:(un)]s(0)Z?S?*/
	$CB4A  85 69:       sta $69			/* A(??)X(??)Y(??)MAP[00:[00],01:[01],02:[02],03:[03],mmc:(un)]s(0)Z?S?*/
	$CB4C  60:          rts 			/* A(??)X(??)Y(??)MAP[00:[00],01:[01],02:[02],03:[03],mmc:(un)]s(0)Z?S?*/(barrier)

+	$CB4D  A5 69:       lda $69			/* A(??)X(??)Y(??)MAP[00:[00],01:[01],02:[02],03:[03],mmc:(un)]s(0)Z?S?*/
	$CB4F  29 04:       and #$04			/* A(??)X(??)Y(??)MAP[00:[00],01:[01],02:[02],03:[03],mmc:(un)]s(0)Z?S?*/
	$CB51  0A:          asl a			/* A(??)X(??)Y(??)MAP[00:[00],01:[01],02:[02],03:[03],mmc:(un)]s(0)Z?S?*/
	$CB52  0A:          asl a			/* A(??)X(??)Y(??)MAP[00:[00],01:[01],02:[02],03:[03],mmc:(un)]s(0)Z?S?*/
	$CB53  0A:          asl a			/* A(??)X(??)Y(??)MAP[00:[00],01:[01],02:[02],03:[03],mmc:(un)]s(0)Z?S?*/
	$CB54  05 69:       ora $69			/* A(??)X(??)Y(??)MAP[00:[00],01:[01],02:[02],03:[03],mmc:(un)]s(0)Z?S?*/
	$CB56  29 20:       and #$20			/* A(??)X(??)Y(??)MAP[00:[00],01:[01],02:[02],03:[03],mmc:(un)]s(0)Z?S?*/
	$CB58  D0 EE:       bne --		; $CB48			/* A(??)X(??)Y(??)MAP[00:[00],01:[01],02:[02],03:[03],mmc:(un)]s(0)Z?S?*/
	$CB5A  A5 2D:       lda $2D			/* A(??)X(??)Y(??)MAP[00:[00],01:[01],02:[02],03:[03],mmc:(un)]s(0)Z?S?*/
	$CB5C  C9 04:       cmp #$04			/* A(??)X(??)Y(??)MAP[00:[00],01:[01],02:[02],03:[03],mmc:(un)]s(0)Z?S?*/
	$CB5E  90 02:       bcc +		; $CB62			/* A(??)X(??)Y(??)MAP[00:[00],01:[01],02:[02],03:[03],mmc:(un)]s(0)Z?S?*/
	$CB60  A9 FF:       lda #$FF			/* A(FF)<4B60>X(??)Y(??)MAP[00:[00],01:[01],02:[02],03:[03],mmc:(un)]s(0)Z0S1*/
+	$CB62  18:          clc 			/* A(FF)<4B60>X(??)Y(??)MAP[00:[00],01:[01],02:[02],03:[03],mmc:(un)]s(0)Z0S1*/
	$CB63  69 01:       adc #$01			/* A(??)X(??)Y(??)MAP[00:[00],01:[01],02:[02],03:[03],mmc:(un)]s(0)Z?S?*/
	$CB65  85 2D:       sta $2D			/* A(??)X(??)Y(??)MAP[00:[00],01:[01],02:[02],03:[03],mmc:(un)]s(0)Z?S?*/
-	$CB67  A8:          tay 			/* A(??)X(??)Y(??)MAP[00:[00],01:[01],02:[02],03:[03],mmc:(un)]s(0)Z?S?*/
	$CB68  B9 A3 CB:    lda _data_4BA3_indexed,y			/* A$4BA3,y<4B68>X(??)Y(??)MAP[00:[00],01:[01],02:[02],03:[03],mmc:(un)]s(0)Z?S?*/
	$CB6B  8D 00 07:    sta $0700			/* A$4BA3,y<4B68>X(??)Y(??)MAP[00:[00],01:[01],02:[02],03:[03],mmc:(un)]s(0)Z?S?*/
	$CB6E  D0 D8:       bne --		; $CB48			/* A$4BA3,y<4B68>X(??)Y(??)MAP[00:[00],01:[01],02:[02],03:[03],mmc:(un)]s(0)Z?S?*/
++	$CB70  A5 69:       lda $69			/* A(??)X(??)Y(??)MAP[00:[00],01:[01],02:[02],03:[03],mmc:(un)]s(0)Z?S?*/
	$CB72  29 10:       and #$10			/* A(??)X(??)Y(??)MAP[00:[00],01:[01],02:[02],03:[03],mmc:(un)]s(0)Z?S?*/
	$CB74  D0 D2:       bne --		; $CB48			/* A(??)X(??)Y(??)MAP[00:[00],01:[01],02:[02],03:[03],mmc:(un)]s(0)Z?S?*/
	$CB76  C6 2D:       dec $2D			/* A(??)X(??)Y(??)MAP[00:[00],01:[01],02:[02],03:[03],mmc:(un)]s(0)Z?S?*/
	$CB78  10 04:       bpl +		; $CB7E			/* A(??)X(??)Y(??)MAP[00:[00],01:[01],02:[02],03:[03],mmc:(un)]s(0)Z?S?*/
	$CB7A  A9 04:       lda #$04			/* A(04)<4B7A>X(??)Y(??)MAP[00:[00],01:[01],02:[02],03:[03],mmc:(un)]s(0)Z0S0*/
	$CB7C  85 2D:       sta $2D			/* A(04)<4B7A>X(??)Y(??)MAP[00:[00],01:[01],02:[02],03:[03],mmc:(un)]s(0)Z0S0*/
+	$CB7E  A5 2D:       lda $2D			/* A(04)<4B7A>X(??)Y(??)MAP[00:[00],01:[01],02:[02],03:[03],mmc:(un)]s(0)Z0S0*/
	$CB80  4C 67 CB:    jmp -		; $CB67			/* A(??)X(??)Y(??)MAP[00:[00],01:[01],02:[02],03:[03],mmc:(un)]s(0)Z?S?*/(barrier)
;------------------------------------------
_data_4B83_indexed
	$CB83               .byte $0F,$0F,$0F,$30,$0F,$0F,$0F,$0F,$0F,$0F,$0F,$0F,$0F,$0F,$0F,$0F
	$CB93               .byte $0F,$16,$16,$10,$0F,$0F,$0F,$0F,$0F,$0F,$0F,$0F,$0F,$0F,$0F,$0F
_data_4BA3_indexed
	$CBA3               .byte $50,$68,$80,$98,$B0
_DataPointerTable_4BA8
	$CBA8  46 21:       .word ($2146) ;2146 (0) ([8:0][A:1][C:2][E:3])
	$CBAA  8F CA:       .word (DataTableEntry_4A8F) ;CA8F (4A8F) ([8:0][A:1][C:2][E:3])
	$CBAC  A6 21:       .word ($21A6) ;21A6 (0) ([8:0][A:1][C:2][E:3])
	$CBAE  A1 CA:       .word (DataTableEntry_4AA1) ;CAA1 (4AA1) ([8:0][A:1][C:2][E:3])
	$CBB0  06 22:       .word ($2206) ;2206 (0) ([8:0][A:1][C:2][E:3])
	$CBB2  AF CA:       .word (DataTableEntry_4AAF) ;CAAF (4AAF) ([8:0][A:1][C:2][E:3])
	$CBB4  66 22:       .word ($2266) ;2266 (0) ([8:0][A:1][C:2][E:3])
	$CBB6  C1 CA:       .word (DataTableEntry_4AC1) ;CAC1 (4AC1) ([8:0][A:1][C:2][E:3])
	$CBB8  C6 22:       .word ($22C6) ;22C6 (0) ([8:0][A:1][C:2][E:3])
	$CBBA  CF CA:       .word (DataTableEntry_4ACF) ;CACF (4ACF) ([8:0][A:1][C:2][E:3])
_func_4BBC
	$CBBC  20 8D BE:    jsr _func_3E8D			/* A(??)X(??)Y(??)MAP[00:(??),01:(??),02:(??),03:(??),mmc:(un)]s(0)Z?S?*/
	$CBBF  20 90 83:    jsr _func_0390			/* A(??)X(??)Y(??)MAP[00:(??),01:(??),02:(??),03:(??),mmc:(un)]s(0)Z?S?*/
	$CBC2  20 FD 90:    jsr _func_10FD			/* A(??)X(??)Y(??)MAP[00:(??),01:(??),02:(??),03:(??),mmc:(un)]s(0)Z?S?*/
	$CBC5  20 C4 8E:    jsr _func_0EC4			/* A(??)X(??)Y(??)MAP[00:(??),01:(??),02:(??),03:(??),mmc:(un)]s(0)Z?S?*/
	$CBC8  20 F1 8E:    jsr _func_0EF1			/* A(??)X(??)Y(??)MAP[00:(??),01:(??),02:(??),03:(??),mmc:(un)]s(0)Z?S?*/
	$CBCB  A9 0F:       lda #$0F			/* A(0F)<4BCB>X(??)Y(??)MAP[00:[00],01:[01],02:[02],03:[03],mmc:(un)]s(0)Z0S0*/
	$CBCD  20 65 94:    jsr _func_1465			/* A(??)X(??)Y(??)MAP[00:(??),01:(??),02:(??),03:(??),mmc:(un)]s(0)Z?S?*/
	$CBD0  20 7B 92:    jsr _func_127B			/* A(??)X(??)Y(??)MAP[00:(??),01:(??),02:(??),03:(??),mmc:(un)]s(0)Z?S?*/
	$CBD3  A9 A5:       lda #$A5			/* A(A5)<4BD3>X(??)Y(??)MAP[00:[00],01:[01],02:[02],03:[03],mmc:(un)]s(0)Z0S1*/
	$CBD5  85 10:       sta $10			/* A(A5)<4BD3>X(??)Y(??)MAP[00:[00],01:[01],02:[02],03:[03],mmc:(un)]s(0)Z0S1*/
	$CBD7  A9 22:       lda #$22			/* A(22)<4BD7>X(??)Y(??)MAP[00:[00],01:[01],02:[02],03:[03],mmc:(un)]s(0)Z0S0*/
	$CBD9  85 11:       sta $11			/* A(22)<4BD7>X(??)Y(??)MAP[00:[00],01:[01],02:[02],03:[03],mmc:(un)]s(0)Z0S0*/
	$CBDB  A9 0F:       lda #<_data_4B0F			/* A(0F)<4BDB>X(??)Y(??)MAP[00:[00],01:[01],02:[02],03:[03],mmc:(un)]s(0)Z0S0*/
	$CBDD  85 12:       sta $12			/* A(0F)<4BDB>X(??)Y(??)MAP[00:[00],01:[01],02:[02],03:[03],mmc:(un)]s(0)Z0S0*/
	$CBDF  A9 CB:       lda #>_data_4B0F			/* A(CB)<4BDF>X(??)Y(??)MAP[00:[00],01:[01],02:[02],03:[03],mmc:(un)]s(0)Z0S1*/
	$CBE1  85 13:       sta $13			/* A(CB)<4BDF>X(??)Y(??)MAP[00:[00],01:[01],02:[02],03:[03],mmc:(un)]s(0)Z0S1*/
	$CBE3  20 52 91:    jsr _func_1152			/* A(??)X(??)Y(??)MAP[00:(??),01:(??),02:(??),03:(??),mmc:(un)]s(0)Z?S?*/
	$CBE6  A9 E5:       lda #$E5			/* A(E5)<4BE6>X(??)Y(??)MAP[00:[00],01:[01],02:[02],03:[03],mmc:(un)]s(0)Z0S1*/
	$CBE8  85 10:       sta $10			/* A(E5)<4BE6>X(??)Y(??)MAP[00:[00],01:[01],02:[02],03:[03],mmc:(un)]s(0)Z0S1*/
	$CBEA  A9 22:       lda #$22			/* A(22)<4BEA>X(??)Y(??)MAP[00:[00],01:[01],02:[02],03:[03],mmc:(un)]s(0)Z0S0*/
	$CBEC  85 11:       sta $11			/* A(22)<4BEA>X(??)Y(??)MAP[00:[00],01:[01],02:[02],03:[03],mmc:(un)]s(0)Z0S0*/
	$CBEE  A9 27:       lda #<_data_4B27			/* A(27)<4BEE>X(??)Y(??)MAP[00:[00],01:[01],02:[02],03:[03],mmc:(un)]s(0)Z0S0*/
	$CBF0  85 12:       sta $12			/* A(27)<4BEE>X(??)Y(??)MAP[00:[00],01:[01],02:[02],03:[03],mmc:(un)]s(0)Z0S0*/
	$CBF2  A9 CB:       lda #>_data_4B27			/* A(CB)<4BF2>X(??)Y(??)MAP[00:[00],01:[01],02:[02],03:[03],mmc:(un)]s(0)Z0S1*/
	$CBF4  85 13:       sta $13			/* A(CB)<4BF2>X(??)Y(??)MAP[00:[00],01:[01],02:[02],03:[03],mmc:(un)]s(0)Z0S1*/
	$CBF6  20 52 91:    jsr _func_1152			/* A(??)X(??)Y(??)MAP[00:(??),01:(??),02:(??),03:(??),mmc:(un)]s(0)Z?S?*/
	$CBF9  A9 05:       lda #$05			/* A(05)<4BF9>X(??)Y(??)MAP[00:[00],01:[01],02:[02],03:[03],mmc:(un)]s(0)Z0S0*/
	$CBFB  85 F4:       sta $F4			/* A(05)<4BF9>X(??)Y(??)MAP[00:[00],01:[01],02:[02],03:[03],mmc:(un)]s(0)Z0S0*/
	$CBFD  A9 10:       lda #$10			/* A(10)<4BFD>X(??)Y(??)MAP[00:[00],01:[01],02:[02],03:[03],mmc:(un)]s(0)Z0S0*/
	$CBFF  85 17:       sta $17			/* A(10)<4BFD>X(??)Y(??)MAP[00:[00],01:[01],02:[02],03:[03],mmc:(un)]s(0)Z0S0*/
	$CC01  A9 01:       lda #$01			/* A(01)<4C01>X(??)Y(??)MAP[00:[00],01:[01],02:[02],03:[03],mmc:(un)]s(0)Z0S0*/
	$CC03  85 21:       sta $21			/* A(01)<4C01>X(??)Y(??)MAP[00:[00],01:[01],02:[02],03:[03],mmc:(un)]s(0)Z0S0*/
	$CC05  20 EA 93:    jsr _func_13EA			/* A(??)X(??)Y(??)MAP[00:(??),01:(??),02:(??),03:(??),mmc:(un)]s(0)Z?S?*/
	$CC08  A9 1A:       lda #$1A			/* A(1A)<4C08>X(??)Y(??)MAP[00:[00],01:[01],02:[02],03:[03],mmc:(un)]s(0)Z0S0*/
	$CC0A  20 65 94:    jsr _func_1465			/* A(??)X(??)Y(??)MAP[00:(??),01:(??),02:(??),03:(??),mmc:(un)]s(0)Z?S?*/
	$CC0D  60:          rts 			/* A(1A)<4C08>X(??)Y(??)MAP[00:[00],01:[01],02:[02],03:[03],mmc:(un)]s(0)Z?S?*/(barrier)

	$CC0E               .byte $8D,$18,$CC,$A0,$00,$8C,$01,$20,$B9,$00,$07,$8D,$04,$20,$C8,$C0
	$CC1E               .byte $40,$90,$F5,$4C,$5F,$94,$FF,$FF,$FF,$FF,$FF,$FF,$FF,$FF,$FF,$FF
	$CC2E               .byte $FF,$FF,$FF,$FF,$FF,$FF,$FF,$FF,$FF,$FF,$FF,$FF,$FF,$FF,$FF,$FF
	$CC3E               .byte $FF,$FF,$FF,$FF,$FF,$FF,$FF,$FF,$FF,$FF,$FF,$FF,$FF,$FF,$FF,$FF
	$CC4E               .byte $FF,$FF,$FF,$FF,$FF,$FF,$FF,$FF,$FF,$FF,$FF,$FF,$FF,$FF,$FF,$FF
	$CC5E               .byte $FF,$FF,$FF,$FF,$FF,$FF,$FF,$FF,$FF,$FF,$FF,$FF,$FF,$FF,$FF,$FF
	$CC6E               .byte $FF,$FF,$FF,$FF,$FF,$FF,$FF,$FF,$FF,$FF,$FF,$FF,$FF,$FF,$FF,$FF
	$CC7E               .byte $FF,$FF,$FF,$FF,$FF,$FF,$FF,$FF,$FF,$FF,$FF,$FF,$FF,$FF,$FF,$FF
	$CC8E               .byte $FF,$FF,$FF,$FF,$FF,$FF,$FF,$FF,$FF,$FF,$FF,$FF,$FF,$FF,$FF,$FF
	$CC9E               .byte $FF,$FF,$FF,$FF,$FF,$FF,$FF,$FF,$FF,$FF,$FF,$FF,$FF,$FF,$FF,$FF
	$CCAE               .byte $FF,$FF,$FF,$FF,$FF,$FF,$FF,$FF,$FF,$FF,$FF,$FF,$FF,$FF,$FF,$FF
	$CCBE               .byte $FF,$FF,$FF,$FF,$FF,$FF,$FF,$FF,$FF,$FF,$FF,$FF,$FF,$FF,$FF,$FF
	$CCCE               .byte $FF,$FF,$FF,$FF,$FF,$FF,$FF,$FF,$FF,$FF,$FF,$FF,$FF,$FF,$FF,$FF
	$CCDE               .byte $FF,$FF,$FF,$FF,$FF,$FF,$FF,$FF,$FF,$FF,$FF,$FF,$FF,$FF,$FF,$FF
	$CCEE               .byte $FF,$FF,$FF,$FF,$FF,$FF,$FF,$FF,$FF,$FF,$FF,$FF,$FF,$FF,$FF,$FF
	$CCFE               .byte $FF,$FF,$FF,$FF,$FF,$FF,$FF,$FF,$FF,$FF,$FF,$FF,$FF,$FF,$FF,$FF
	$CD0E               .byte $FF,$FF,$FF,$FF,$FF,$FF,$FF,$FF,$FF,$FF,$FF,$FF,$FF,$FF,$FF,$FF
	$CD1E               .byte $FF,$FF,$FF,$FF,$FF,$FF,$FF,$FF,$FF,$FF,$FF,$FF,$FF,$FF,$FF,$FF
	$CD2E               .byte $FF,$FF,$FF,$FF,$FF,$FF,$FF,$FF,$FF,$FF,$FF,$FF,$FF,$FF,$FF,$FF
	$CD3E               .byte $FF,$FF,$FF,$FF,$FF,$FF,$FF,$FF,$FF,$FF,$FF,$FF,$FF,$FF,$FF,$FF
	$CD4E               .byte $FF,$FF,$FF,$FF,$FF,$FF,$FF,$FF,$FF,$FF,$FF,$FF,$FF,$FF,$FF,$FF
	$CD5E               .byte $FF,$FF,$FF,$FF,$FF,$FF,$FF,$FF,$FF,$FF,$FF,$FF,$FF,$FF,$FF,$FF
	$CD6E               .byte $FF,$FF,$FF,$FF,$FF,$FF,$FF,$FF,$FF,$FF,$FF,$FF,$FF,$FF,$FF,$FF
	$CD7E               .byte $FF,$FF,$FF,$FF,$FF,$FF,$FF,$FF,$FF,$FF,$FF,$FF,$FF,$FF,$FF,$FF
	$CD8E               .byte $FF,$FF,$FF,$FF,$FF,$FF,$FF,$FF,$FF,$FF,$FF,$FF,$FF,$FF,$FF,$FF
	$CD9E               .byte $FF,$FF,$FF,$FF,$FF,$FF,$FF,$FF,$FF,$FF,$FF,$FF,$FF,$FF,$FF,$FF
	$CDAE               .byte $FF,$FF,$FF,$FF,$FF,$FF,$FF,$FF,$FF,$FF,$FF,$FF,$FF,$FF,$FF,$FF
	$CDBE               .byte $FF,$FF,$FF,$FF,$FF,$FF,$FF,$FF,$FF,$FF,$FF,$FF,$FF,$FF,$FF,$FF
	$CDCE               .byte $FF,$FF,$FF,$FF,$FF,$FF,$FF,$FF,$FF,$FF,$FF,$FF,$FF,$FF,$FF,$FF
	$CDDE               .byte $FF,$FF,$FF,$FF,$FF,$FF,$FF,$FF,$FF,$FF,$FF,$FF,$FF,$FF,$FF,$FF
	$CDEE               .byte $FF,$FF,$FF,$FF,$FF,$FF,$FF,$FF,$FF,$FF,$FF,$FF,$FF,$FF,$FF,$FF
	$CDFE               .byte $FF,$FF,$FF,$FF,$FF,$FF,$FF,$FF,$FF,$FF,$FF,$FF,$FF,$FF,$FF,$FF
	$CE0E               .byte $FF,$FF,$FF,$FF,$FF,$FF,$FF,$FF,$FF,$FF,$FF,$FF,$FF,$FF,$FF,$FF
	$CE1E               .byte $FF,$FF,$FF,$FF,$FF,$FF,$FF,$FF,$FF,$FF,$FF,$FF,$FF,$FF,$FF,$FF
	$CE2E               .byte $FF,$FF,$FF,$FF,$FF,$FF,$FF,$FF,$FF,$FF,$FF,$FF,$FF,$FF,$FF,$FF
	$CE3E               .byte $FF,$FF,$FF,$FF,$FF,$FF,$FF,$FF,$FF,$FF,$FF,$FF,$FF,$FF,$FF,$FF
	$CE4E               .byte $FF,$FF,$FF,$FF,$FF,$FF,$FF,$FF,$FF,$FF,$FF,$FF,$FF,$FF,$FF,$FF
	$CE5E               .byte $FF,$FF,$FF,$FF,$FF,$FF,$FF,$FF,$FF,$FF,$FF,$FF,$FF,$FF,$FF,$FF
	$CE6E               .byte $FF,$FF,$FF,$FF,$FF,$FF,$FF,$FF,$FF,$FF,$FF,$FF,$FF,$FF,$FF,$FF
	$CE7E               .byte $FF,$FF,$FF,$FF,$FF,$FF,$FF,$FF,$FF,$FF,$FF,$FF,$FF,$FF,$FF,$FF
	$CE8E               .byte $FF,$FF,$FF,$FF,$FF,$FF,$FF,$FF,$FF,$FF,$FF,$FF,$FF,$FF,$FF,$FF
	$CE9E               .byte $FF,$FF,$FF,$FF,$FF,$FF,$FF,$FF,$FF,$FF,$FF,$FF,$FF,$FF,$FF,$FF
	$CEAE               .byte $FF,$FF,$FF,$FF,$FF,$FF,$FF,$FF,$FF,$FF,$FF,$FF,$FF,$FF,$FF,$FF
	$CEBE               .byte $FF,$FF,$FF,$FF,$FF,$FF,$FF,$FF,$FF,$FF,$FF,$FF,$FF,$FF,$FF,$FF
	$CECE               .byte $FF,$FF,$FF,$FF,$FF,$FF,$FF,$FF,$FF,$FF,$FF,$FF,$FF,$FF,$FF,$FF
	$CEDE               .byte $FF,$FF,$FF,$FF,$FF,$FF,$FF,$FF,$FF,$FF,$FF,$FF,$FF,$FF,$FF,$FF
	$CEEE               .byte $FF,$FF,$FF,$FF,$FF,$FF,$FF,$FF,$FF,$FF,$FF,$FF,$FF,$FF,$FF,$FF
	$CEFE               .byte $FF,$FF,$FF,$FF,$FF,$FF,$FF,$FF,$FF,$FF,$FF,$FF,$FF,$FF,$FF,$FF
	$CF0E               .byte $FF,$FF,$FF,$FF,$FF,$FF,$FF,$FF,$FF,$FF,$FF,$FF,$FF,$FF,$FF,$FF
	$CF1E               .byte $FF,$FF,$FF,$FF
_data_4F22
	$CF22               .byte $FF,$FF,$FF,$FF,$FF,$FF,$FF,$FF,$FF,$FF,$FF,$FF,$FF,$FF,$FF,$FF
	$CF32               .byte $FF,$FF,$FF,$FF,$FF,$FF,$FF,$FF,$FF,$FF,$FF,$FF,$FF,$FF,$FF,$FF
	$CF42               .byte $FF,$FF,$FF,$FF,$FF,$FF,$FF,$FF,$FF,$FF,$FF,$FF,$FF,$FF,$FF,$FF
	$CF52               .byte $FF,$FF,$FF,$FF,$FF,$FF,$FF,$FF,$FF,$FF,$FF,$FF,$FF,$FF,$FF,$FF
	$CF62               .byte $FF,$FF,$FF,$FF,$FF,$FF,$FF,$FF,$FF,$FF,$FF,$FF,$FF,$FF,$FF,$FF
	$CF72               .byte $FF,$FF,$FF,$FF,$FF,$FF,$FF,$FF,$FF,$FF,$FF,$FF,$FF,$FF,$FF,$FF
	$CF82               .byte $FF,$FF,$FF,$FF,$FF,$FF,$FF,$FF,$FF,$FF,$FF,$FF,$FF,$FF,$FF,$FF
	$CF92               .byte $FF,$FF,$FF,$FF,$FF,$FF,$FF,$FF,$FF,$FF,$FF,$FF,$FF,$FF,$FF,$FF
	$CFA2               .byte $FF,$FF,$FF,$FF,$FF,$FF,$FF,$FF,$FF,$FF,$FF,$FF,$FF,$FF,$FF,$FF
	$CFB2               .byte $FF,$FF,$FF,$FF,$FF,$FF,$FF,$FF,$FF,$FF,$FF,$FF,$FF,$FF,$FF,$FF
	$CFC2               .byte $FF,$FF,$FF,$FF,$FF,$FF,$FF,$FF,$FF,$FF,$FF,$FF,$FF,$FF,$FF,$FF
	$CFD2               .byte $FF,$FF,$FF,$FF,$FF,$FF,$FF,$FF,$FF,$FF,$FF,$FF,$FF,$FF,$FF,$FF
	$CFE2               .byte $FF,$FF,$FF,$FF,$FF,$FF,$FF,$FF,$FF,$FF,$FF,$FF,$FF,$FF,$FF,$FF
	$CFF2               .byte $FF,$FF,$FF,$FF,$FF,$FF,$FF,$FF,$FF,$FF,$FF,$FF,$FF,$FF,$FF,$FF
	$D002               .byte $FF,$FF,$FF,$FF,$FF,$FF,$FF,$FF,$FF,$FF,$FF,$FF,$FF,$FF,$FF,$FF
	$D012               .byte $FF,$FF,$FF,$FF,$FF,$FF,$FF,$FF,$FF,$FF,$FF,$FF,$FF,$FF,$FF,$FF
	$D022               .byte $FF,$FF,$FF,$FF,$FF,$FF,$FF,$FF,$FF,$FF,$FF,$FF,$FF,$FF,$FF,$FF
	$D032               .byte $FF,$FF,$FF,$FF,$FF,$FF,$FF,$FF,$FF,$FF,$FF,$FF,$FF,$FF,$FF,$FF
	$D042               .byte $FF,$FF,$FF,$FF,$FF,$FF,$FF,$FF,$FF,$FF,$FF,$FF,$FF,$FF,$FF,$FF
	$D052               .byte $FF,$FF,$FF,$FF,$FF,$FF,$FF,$FF,$FF,$FF,$FF,$FF,$FF,$FF,$FF,$FF
	$D062               .byte $FF,$FF,$FF,$FF,$FF,$FF,$FF,$FF,$FF,$FF,$FF,$FF,$FF,$FF,$FF,$FF
	$D072               .byte $FF,$FF,$FF,$FF,$FF,$FF,$FF,$FF,$FF,$FF,$FF,$FF,$FF,$FF,$FF,$FF
	$D082               .byte $FF,$FF,$FF,$FF,$FF,$FF,$FF,$FF,$FF,$FF,$FF,$FF,$FF,$FF,$FF,$FF
	$D092               .byte $FF,$FF,$FF,$FF,$FF,$FF,$FF,$FF,$FF,$FF,$FF,$FF,$FF,$FF,$FF,$FF
	$D0A2               .byte $FF,$FF,$FF,$FF,$FF,$FF,$FF,$FF,$FF,$FF,$FF,$FF,$FF,$FF,$FF,$FF
	$D0B2               .byte $FF,$FF,$FF,$FF,$FF,$FF,$FF,$FF,$FF,$FF,$FF,$FF,$FF,$FF,$FF,$FF
	$D0C2               .byte $FF,$FF,$FF,$FF,$FF,$FF,$FF,$FF,$FF,$FF,$FF,$FF,$FF,$FF,$FF,$FF
	$D0D2               .byte $FF,$FF,$FF,$FF,$FF,$FF,$FF,$FF,$FF,$FF,$FF,$FF,$FF,$FF,$FF,$FF
	$D0E2               .byte $FF,$FF,$FF,$FF,$FF,$FF,$FF,$FF,$FF,$FF,$FF,$FF,$FF,$FF,$FF,$FF
	$D0F2               .byte $FF,$FF,$FF,$FF,$FF,$FF,$FF,$FF,$FF,$FF,$FF,$FF,$FF,$FF,$FF,$FF
	$D102               .byte $FF,$FF,$FF,$FF,$FF,$FF,$FF,$FF,$FF,$FF,$FF,$FF,$FF,$FF,$FF,$FF
	$D112               .byte $FF,$FF,$FF,$FF,$FF,$FF,$FF,$FF,$FF,$FF,$FF,$FF,$FF,$FF,$FF,$FF
	$D122               .byte $FF,$FF,$FF,$FF,$FF,$FF,$FF,$FF,$FF,$FF,$FF,$FF,$FF,$FF,$FF,$FF
	$D132               .byte $FF,$FF,$FF,$FF,$FF,$FF,$FF,$FF,$FF,$FF,$FF,$FF,$FF,$FF,$FF,$FF
	$D142               .byte $FF,$FF,$FF,$FF,$FF,$FF,$FF,$FF,$FF,$FF,$FF,$FF,$FF,$FF,$FF,$FF
	$D152               .byte $FF,$FF,$FF,$FF,$FF,$FF,$FF,$FF,$FF,$FF,$FF,$FF,$FF,$FF,$FF,$FF
	$D162               .byte $FF,$FF,$FF,$FF,$FF,$FF,$FF,$FF,$FF,$FF,$FF,$FF,$FF,$FF,$FF,$FF
	$D172               .byte $FF,$FF,$FF,$FF,$FF,$FF,$FF,$FF,$FF,$FF,$FF,$FF,$FF,$FF,$FF,$FF
	$D182               .byte $FF,$FF,$FF,$FF,$FF,$FF,$FF,$FF,$FF,$FF,$FF,$FF,$FF,$FF,$FF,$FF
	$D192               .byte $FF,$FF,$FF,$FF,$FF,$FF,$FF,$FF,$FF,$FF,$FF,$FF,$FF,$FF,$FF,$FF
	$D1A2               .byte $FF,$FF,$FF,$FF,$FF,$FF,$FF,$FF,$FF,$FF,$FF,$FF,$FF,$FF,$FF,$FF
	$D1B2               .byte $FF,$FF,$FF,$FF,$FF,$FF,$FF,$FF,$FF,$FF,$FF,$FF,$FF,$FF,$FF,$FF
	$D1C2               .byte $FF,$FF,$FF,$FF,$FF,$FF,$FF,$FF,$FF,$FF,$FF,$FF,$FF,$FF,$FF,$FF
	$D1D2               .byte $FF,$FF,$FF,$FF,$FF,$FF,$FF,$FF,$FF,$FF,$FF,$FF,$FF,$FF,$FF,$FF
	$D1E2               .byte $FF,$FF,$FF,$FF,$FF,$FF,$FF,$FF,$FF,$FF,$FF,$FF,$FF,$FF,$FF,$FF
	$D1F2               .byte $FF,$FF,$FF,$FF,$FF,$FF,$FF,$FF,$FF,$FF,$FF,$FF,$FF,$FF,$FF,$FF
	$D202               .byte $FF,$FF,$FF,$FF,$FF,$FF,$FF,$FF,$FF,$FF,$FF,$FF,$FF,$FF,$FF,$FF
	$D212               .byte $FF,$FF,$FF,$FF,$FF,$FF,$FF,$FF,$FF,$FF,$FF,$FF,$FF,$FF,$FF,$FF
	$D222               .byte $FF,$FF,$FF,$FF,$FF,$FF,$FF,$FF,$FF,$FF,$FF,$FF,$FF,$FF,$FF,$FF
	$D232               .byte $FF,$FF,$FF,$FF,$FF,$FF,$FF,$FF,$FF,$FF,$FF,$FF,$FF,$FF,$FF,$FF
	$D242               .byte $FF,$FF,$FF,$FF,$FF,$FF,$FF,$FF,$FF,$FF,$FF,$FF,$FF,$FF,$FF,$FF
	$D252               .byte $FF,$FF,$FF,$FF,$FF,$FF,$FF,$FF,$FF,$FF,$FF,$FF,$FF,$FF,$FF,$FF
	$D262               .byte $FF,$FF,$FF,$FF,$FF,$FF,$FF,$FF,$FF,$FF,$FF,$FF,$FF,$FF,$FF,$FF
	$D272               .byte $FF,$FF,$FF,$FF,$FF,$FF,$FF,$FF,$FF,$FF,$FF,$FF,$FF,$FF,$FF,$FF
	$D282               .byte $FF,$FF,$FF,$FF,$FF,$FF,$FF,$FF,$FF,$FF,$FF,$FF,$FF,$FF,$FF,$FF
	$D292               .byte $FF,$FF,$FF,$FF,$FF,$FF,$FF,$FF,$FF,$FF,$FF,$FF,$FF,$FF,$FF,$FF
	$D2A2               .byte $FF,$FF,$FF,$FF,$FF,$FF,$FF,$FF,$FF,$FF,$FF,$FF,$FF,$FF,$FF,$FF
	$D2B2               .byte $FF,$FF,$FF,$FF,$FF,$FF,$FF,$FF,$FF,$FF,$FF,$FF,$FF,$FF,$FF,$FF
	$D2C2               .byte $FF,$FF,$FF,$FF,$FF,$FF,$FF,$FF,$FF,$FF,$FF,$FF,$FF,$FF,$FF,$FF
	$D2D2               .byte $FF,$FF,$FF,$FF,$FF,$FF,$FF,$FF,$FF,$FF,$FF,$FF,$FF,$FF,$FF,$FF
	$D2E2               .byte $FF,$FF,$FF,$FF,$FF,$FF,$FF,$FF,$FF,$FF,$FF,$FF,$FF,$FF,$FF,$FF
	$D2F2               .byte $FF,$FF,$FF,$FF,$FF,$FF,$FF,$FF,$FF,$FF,$FF,$FF,$FF,$FF,$FF,$FF
	$D302               .byte $FF,$FF,$FF,$FF,$FF,$FF,$FF,$FF,$FF,$FF,$FF,$FF,$FF,$FF,$FF,$FF
	$D312               .byte $FF,$FF,$FF,$FF,$FF,$FF,$FF,$FF,$FF,$FF,$FF,$FF,$FF,$FF,$FF,$FF
	$D322               .byte $FF,$FF,$FF,$FF,$FF,$FF,$FF,$FF,$FF,$FF,$FF,$FF,$FF,$FF,$FF,$FF
	$D332               .byte $FF,$FF,$FF,$FF,$FF,$FF,$FF,$FF,$FF,$FF,$FF,$FF,$FF,$FF,$FF,$FF
	$D342               .byte $FF,$FF,$FF,$FF,$FF,$FF,$FF,$FF,$FF,$FF,$FF,$FF,$FF,$FF,$FF,$FF
	$D352               .byte $FF,$FF,$FF,$FF,$FF,$FF,$FF,$FF,$FF,$FF,$FF,$FF,$FF,$FF,$FF,$FF
	$D362               .byte $FF,$FF,$FF,$FF,$FF,$FF,$FF,$FF,$FF,$FF,$FF,$FF,$FF,$FF,$FF,$FF
	$D372               .byte $FF,$FF,$FF,$FF,$FF,$FF,$FF,$FF,$FF,$FF,$FF,$FF,$FF,$FF,$FF,$FF
	$D382               .byte $FF,$FF,$FF,$FF,$FF,$FF,$FF,$FF,$FF,$FF,$FF,$FF,$FF,$FF,$FF,$FF
	$D392               .byte $FF,$FF,$FF,$FF,$FF,$FF,$FF,$FF,$FF,$FF,$FF,$FF,$FF,$FF,$FF,$FF
	$D3A2               .byte $FF,$FF,$FF,$FF,$FF,$FF,$FF,$FF,$FF,$FF,$FF,$FF,$FF,$FF,$FF,$FF
	$D3B2               .byte $FF,$FF,$FF,$FF,$FF,$FF,$FF,$FF,$FF,$FF,$FF,$FF,$FF,$FF,$FF,$FF
	$D3C2               .byte $FF,$FF,$FF,$FF,$FF,$FF,$FF,$FF,$FF,$FF,$FF,$FF,$FF,$FF,$FF,$FF
	$D3D2               .byte $FF,$FF,$FF,$FF,$FF,$FF,$FF,$FF,$FF,$FF,$FF,$FF,$FF,$FF,$FF,$FF
	$D3E2               .byte $FF,$FF,$FF,$FF,$FF,$FF,$FF,$FF,$FF,$FF,$FF,$FF,$FF,$FF,$FF,$FF
	$D3F2               .byte $FF,$FF,$FF,$FF,$FF,$FF,$FF,$FF,$FF,$FF,$FF,$FF,$FF,$FF,$FF,$FF
	$D402               .byte $FF,$FF,$FF,$FF,$FF,$FF,$FF,$FF,$FF,$FF,$FF,$FF,$FF,$FF,$FF,$FF
	$D412               .byte $FF,$FF,$FF,$FF,$FF,$FF,$FF,$FF,$FF,$FF,$FF,$FF,$FF,$FF,$FF,$FF
	$D422               .byte $FF,$FF,$FF,$FF,$FF,$FF,$FF,$FF,$FF,$FF,$FF,$FF,$FF,$FF,$FF,$FF
	$D432               .byte $FF,$FF,$FF,$FF,$FF,$FF,$FF,$FF,$FF,$FF,$FF,$FF,$FF,$FF,$FF,$FF
	$D442               .byte $FF,$FF,$FF,$FF,$FF,$FF,$FF,$FF,$FF,$FF,$FF,$FF,$FF,$FF,$FF,$FF
	$D452               .byte $FF,$FF,$FF,$FF,$FF,$FF,$FF,$FF,$FF,$FF
DataTableEntry_545C
	$D45C               .byte $FF,$FF,$FF,$FF,$FF,$FF,$FF,$FF,$FF,$FF,$FF,$FF,$FF,$FF,$FF,$FF
DataTableEntry_546C
	$D46C               .byte $FF,$FF,$FF,$FF,$FF,$FF,$FF,$FF,$FF,$FF,$FF,$FF,$FF,$FF,$FF,$FF
DataTableEntry_547C
	$D47C               .byte $FF,$FF,$FF,$FF,$FF,$FF,$FF,$FF,$FF,$FF,$FF,$FF,$FF,$FF,$FF,$FF
	$D48C               .byte $FF,$FF,$FF,$FF,$FF,$FF,$FF,$FF,$FF,$FF,$FF,$FF,$FF,$FF,$FF,$FF
	$D49C               .byte $FF,$FF,$FF,$FF,$FF,$FF,$FF,$FF,$FF,$FF,$FF,$FF,$FF,$FF,$FF,$FF
	$D4AC               .byte $FF,$FF,$FF,$FF,$FF,$FF,$FF,$FF,$FF,$FF,$FF,$FF,$FF,$FF,$FF,$FF
	$D4BC               .byte $FF,$FF,$FF,$FF,$FF,$FF,$FF,$FF,$FF,$FF,$FF,$FF,$FF,$FF,$FF,$FF
	$D4CC               .byte $FF,$FF,$FF,$FF,$FF,$FF,$FF,$FF,$FF,$FF,$FF,$FF,$FF,$FF,$FF,$FF
	$D4DC               .byte $FF,$FF,$FF,$FF,$FF,$FF,$FF,$FF,$FF,$FF,$FF,$FF,$FF,$FF,$FF,$FF
	$D4EC               .byte $FF,$FF,$FF,$FF,$FF,$FF,$FF,$FF,$FF,$FF,$FF,$FF,$FF,$FF,$FF,$FF
	$D4FC               .byte $FF,$FF,$FF,$FF,$FF,$FF,$FF,$FF,$FF,$FF,$FF,$FF,$FF,$FF,$FF,$FF
	$D50C               .byte $FF,$FF,$FF,$FF,$FF,$FF,$FF,$FF,$FF,$FF,$FF,$FF,$FF,$FF,$FF,$FF
	$D51C               .byte $FF,$FF,$FF,$FF,$FF,$FF,$FF,$FF,$FF,$FF,$FF,$FF,$FF,$FF,$FF,$FF
	$D52C               .byte $FF,$FF,$FF,$FF,$FF,$FF,$FF,$FF,$FF,$FF,$FF,$FF,$FF,$FF,$FF,$FF
	$D53C               .byte $FF,$FF,$FF,$FF,$FF,$FF,$FF,$FF,$FF,$FF,$FF,$FF,$FF,$FF,$FF,$FF
	$D54C               .byte $FF,$FF,$FF,$FF,$FF,$FF,$FF,$FF,$FF,$FF,$FF,$FF,$FF,$FF,$FF,$FF
	$D55C               .byte $FF,$FF,$FF,$FF,$FF,$FF,$FF,$FF,$FF,$FF,$FF,$FF,$FF,$FF,$FF,$FF
	$D56C               .byte $FF,$FF,$FF,$FF,$FF,$FF,$FF,$FF,$FF,$FF,$FF,$FF,$FF,$FF,$FF,$FF
	$D57C               .byte $FF,$FF,$FF,$FF,$FF,$FF,$FF,$FF,$FF,$FF,$FF,$FF,$FF,$FF,$FF,$FF
	$D58C               .byte $FF,$FF,$FF,$FF,$FF,$FF,$FF,$FF,$FF,$FF,$FF,$FF,$FF,$FF,$FF,$FF
	$D59C               .byte $FF,$FF,$FF,$FF,$FF,$FF,$FF,$FF,$FF,$FF,$FF,$FF,$FF,$FF,$FF,$FF
	$D5AC               .byte $FF,$FF,$FF,$FF,$FF,$FF,$FF,$FF,$FF,$FF,$FF,$FF,$FF,$FF,$FF,$FF
	$D5BC               .byte $FF,$FF,$FF,$FF,$FF,$FF,$FF,$FF,$FF,$FF,$FF,$FF,$FF,$FF,$FF,$FF
	$D5CC               .byte $FF,$FF,$FF,$FF,$FF,$FF,$FF,$FF,$FF,$FF,$FF,$FF,$FF,$FF,$FF,$FF
	$D5DC               .byte $FF,$FF,$FF,$FF,$FF,$FF,$FF,$FF,$FF,$FF,$FF,$FF,$FF,$FF,$FF,$FF
	$D5EC               .byte $FF,$FF,$FF,$FF,$FF,$FF,$FF,$FF,$FF,$FF,$FF,$FF,$FF,$FF,$FF,$FF
	$D5FC               .byte $FF,$FF,$FF,$FF,$FF,$FF,$FF,$FF,$FF,$FF,$FF,$FF,$FF,$FF,$FF,$FF
	$D60C               .byte $FF,$FF,$FF,$FF,$FF,$FF,$FF,$FF,$FF,$FF,$FF,$FF,$FF,$FF,$FF,$FF
	$D61C               .byte $FF,$FF,$FF,$FF,$FF,$FF,$FF,$FF,$FF,$FF,$FF,$FF,$FF,$FF,$FF,$FF
	$D62C               .byte $FF,$FF,$FF,$FF,$FF,$FF,$FF,$FF,$FF,$FF,$FF,$FF,$FF,$FF,$FF,$FF
	$D63C               .byte $FF,$FF,$FF,$FF,$FF,$FF,$FF,$FF,$FF,$FF,$FF,$FF,$FF,$FF,$FF,$FF
	$D64C               .byte $FF,$FF,$FF,$FF,$FF,$FF,$FF,$FF,$FF,$FF,$FF,$FF,$FF,$FF,$FF,$FF
	$D65C               .byte $FF,$FF,$FF,$FF,$FF,$FF,$FF,$FF,$FF,$FF,$FF,$FF,$FF,$FF,$FF,$FF
	$D66C               .byte $FF,$FF,$FF,$FF,$FF,$FF,$FF,$FF,$FF,$FF,$FF,$FF,$FF,$FF,$FF,$FF
	$D67C               .byte $FF,$FF,$FF,$FF,$FF,$FF,$FF,$FF,$FF,$FF,$FF,$FF,$FF,$FF,$FF,$FF
	$D68C               .byte $FF,$FF,$FF,$FF,$FF,$FF,$FF,$FF,$FF,$FF,$FF,$FF,$FF,$FF,$FF,$FF
	$D69C               .byte $FF,$FF,$FF,$FF,$FF,$FF,$FF,$FF,$FF,$FF,$FF,$FF,$FF,$FF,$FF,$FF
	$D6AC               .byte $FF,$FF,$FF,$FF,$FF,$FF,$FF,$FF,$FF,$FF,$FF,$FF,$FF,$FF,$FF,$FF
	$D6BC               .byte $FF,$FF,$FF,$FF,$FF,$FF,$FF,$FF,$FF,$FF,$FF,$FF,$FF,$FF,$FF,$FF
	$D6CC               .byte $FF,$FF,$FF,$FF,$FF,$FF,$FF,$FF,$FF,$FF,$FF,$FF,$FF,$FF,$FF,$FF
	$D6DC               .byte $FF,$FF,$FF,$FF,$FF,$FF,$FF,$FF,$FF,$FF,$FF,$FF,$FF,$FF,$FF,$FF
	$D6EC               .byte $FF,$FF,$FF,$FF,$FF,$FF,$FF,$FF,$FF,$FF,$FF,$FF,$FF,$FF,$FF,$FF
	$D6FC               .byte $FF,$FF,$FF,$FF,$FF,$FF,$FF,$FF,$FF,$FF,$FF,$FF,$FF,$FF,$FF,$FF
	$D70C               .byte $FF,$FF,$FF,$FF,$FF,$FF,$FF,$FF,$FF,$FF,$FF,$FF,$FF,$FF,$FF,$FF
	$D71C               .byte $FF,$FF,$FF,$FF,$FF,$FF,$FF,$FF,$FF,$FF,$FF,$FF,$FF,$FF,$FF,$FF
	$D72C               .byte $FF,$FF,$FF,$FF,$FF,$FF,$FF,$FF,$FF,$FF,$FF,$FF,$FF,$FF,$FF,$FF
	$D73C               .byte $FF,$FF,$FF,$FF,$FF,$FF,$FF,$FF,$FF,$FF,$FF,$FF,$FF,$FF,$FF,$FF
	$D74C               .byte $FF,$FF,$FF,$FF,$FF,$FF,$FF,$FF,$FF,$FF,$FF,$FF,$FF,$FF,$FF,$FF
	$D75C               .byte $FF,$FF,$FF,$FF,$FF,$FF,$FF,$FF,$FF,$FF,$FF,$FF,$FF,$FF,$FF,$FF
	$D76C               .byte $FF,$FF,$FF,$FF,$FF,$FF,$FF,$FF,$FF,$FF,$FF,$FF,$FF,$FF,$FF,$FF
	$D77C               .byte $FF,$FF,$FF,$FF,$FF,$FF,$FF,$FF,$FF,$FF,$FF,$FF,$FF,$FF,$FF,$FF
	$D78C               .byte $FF,$FF,$FF,$FF,$FF,$FF,$FF,$FF,$FF,$FF,$FF,$FF,$FF,$FF,$FF,$FF
	$D79C               .byte $FF,$FF,$FF,$FF,$FF,$FF,$FF,$FF,$FF,$FF,$FF,$FF,$FF,$FF,$FF,$FF
	$D7AC               .byte $FF,$FF,$FF,$FF,$FF,$FF,$FF,$FF,$FF,$FF,$FF,$FF,$FF,$FF,$FF,$FF
	$D7BC               .byte $FF,$FF,$FF,$FF,$FF,$FF,$FF,$FF,$FF,$FF,$FF,$FF,$FF,$FF,$FF,$FF
	$D7CC               .byte $FF,$FF,$FF,$FF,$FF,$FF,$FF,$FF,$FF,$FF,$FF,$FF,$FF,$FF,$FF,$FF
	$D7DC               .byte $FF,$FF,$FF,$FF,$FF,$FF,$FF,$FF,$FF,$FF,$FF,$FF,$FF,$FF,$FF,$FF
	$D7EC               .byte $FF,$FF,$FF,$FF,$FF,$FF,$FF,$FF,$FF,$FF,$FF,$FF,$FF,$FF,$FF,$FF
	$D7FC               .byte $FF,$FF,$FF,$FF,$FF,$FF,$FF,$FF,$FF,$FF,$FF,$FF,$FF,$FF,$FF,$FF
	$D80C               .byte $FF,$FF,$FF,$FF,$FF,$FF,$FF,$FF,$FF,$FF,$FF,$FF,$FF,$FF,$FF,$FF
	$D81C               .byte $FF,$FF,$FF,$FF,$FF,$FF,$FF,$FF,$FF,$FF,$FF,$FF,$FF,$FF,$FF,$FF
	$D82C               .byte $FF,$FF,$FF,$FF,$FF,$FF,$FF,$FF,$FF,$FF,$FF,$FF,$FF,$FF,$FF,$FF
	$D83C               .byte $FF,$FF,$FF,$FF,$FF,$FF,$FF,$FF,$FF,$FF,$FF,$FF,$FF,$FF,$FF,$FF
	$D84C               .byte $FF,$FF,$FF,$FF,$FF,$FF,$FF,$FF,$FF,$FF,$FF,$FF,$FF,$FF,$FF,$FF
	$D85C               .byte $FF,$FF,$FF,$FF,$FF,$FF,$FF,$FF,$FF,$FF,$FF,$FF,$FF,$FF,$FF,$FF
	$D86C               .byte $FF,$FF,$FF,$FF,$FF,$FF,$FF,$FF,$FF,$FF,$FF,$FF,$FF,$FF,$FF,$FF
	$D87C               .byte $FF,$FF,$FF,$FF,$FF,$FF,$FF,$FF,$FF,$FF,$FF,$FF,$FF,$FF,$FF,$FF
	$D88C               .byte $FF,$FF,$FF,$FF,$FF,$FF,$FF,$FF,$FF,$FF,$FF,$FF,$FF,$FF,$FF,$FF
	$D89C               .byte $FF,$FF,$FF,$FF,$FF,$FF,$FF,$FF,$FF,$FF,$FF,$FF,$FF,$FF,$FF,$FF
	$D8AC               .byte $FF,$FF,$FF,$FF,$FF,$FF,$FF,$FF,$FF,$FF,$FF,$FF,$FF,$FF,$FF,$FF
	$D8BC               .byte $FF,$FF,$FF,$FF,$FF,$FF,$FF,$FF,$FF,$FF,$FF,$FF,$FF,$FF,$FF,$FF
	$D8CC               .byte $FF,$FF,$FF,$FF,$FF,$FF,$FF,$FF,$FF,$FF,$FF,$FF,$FF,$FF,$FF,$FF
	$D8DC               .byte $FF,$FF,$FF,$FF,$FF,$FF,$FF,$FF,$FF,$FF,$FF,$FF,$FF,$FF,$FF,$FF
	$D8EC               .byte $FF,$FF,$FF,$FF,$FF,$FF,$FF,$FF,$FF,$FF,$FF,$FF,$FF,$FF,$FF,$FF
	$D8FC               .byte $FF,$FF,$FF,$FF,$FF,$FF,$FF,$FF,$FF,$FF,$FF,$FF,$FF,$FF,$FF,$FF
	$D90C               .byte $FF,$FF,$FF,$FF,$FF,$FF,$FF,$FF,$FF,$FF,$FF,$FF,$FF,$FF,$FF,$FF
	$D91C               .byte $FF,$FF,$FF,$FF,$FF,$FF,$FF,$FF,$FF,$FF,$FF,$FF,$FF,$FF,$FF,$FF
	$D92C               .byte $FF,$FF,$FF,$FF,$FF,$FF,$FF,$FF,$FF,$FF,$FF,$FF,$FF,$FF,$FF,$FF
	$D93C               .byte $FF,$FF,$FF,$FF,$FF,$FF,$FF,$FF,$FF,$FF,$FF,$FF,$FF,$FF,$FF,$FF
	$D94C               .byte $FF,$FF,$FF,$FF,$FF,$FF,$FF,$FF,$FF,$FF,$FF,$FF,$FF,$FF,$FF,$FF
	$D95C               .byte $FF,$FF,$FF,$FF,$FF,$FF,$FF,$FF,$FF,$FF,$FF,$FF,$FF,$FF,$FF,$FF
	$D96C               .byte $FF,$FF,$FF,$FF,$FF,$FF,$FF,$FF,$FF,$FF,$FF,$FF,$FF,$FF,$FF,$FF
	$D97C               .byte $FF,$FF,$FF,$FF,$FF,$FF,$FF,$FF,$FF,$FF,$FF,$FF,$FF,$FF,$FF,$FF
	$D98C               .byte $FF,$FF,$FF,$FF,$FF,$FF,$FF,$FF,$FF,$FF,$FF,$FF,$FF,$FF,$FF,$FF
	$D99C               .byte $FF,$FF,$FF,$FF,$FF,$FF,$FF,$FF,$FF,$FF,$FF,$FF,$FF,$FF,$FF,$FF
	$D9AC               .byte $FF,$FF,$FF,$FF,$FF,$FF,$FF,$FF,$FF,$FF,$FF,$FF,$FF,$FF,$FF,$FF
	$D9BC               .byte $FF,$FF,$FF,$FF,$FF,$FF,$FF,$FF,$FF,$FF,$FF,$FF,$FF,$FF,$FF,$FF
	$D9CC               .byte $FF,$FF,$FF,$FF,$FF,$FF,$FF,$FF,$FF,$FF,$FF,$FF,$FF,$FF,$FF,$FF
	$D9DC               .byte $FF,$FF,$FF,$FF,$FF,$FF,$FF,$FF,$FF,$FF,$FF,$FF,$FF,$FF,$FF,$FF
	$D9EC               .byte $FF,$FF,$FF,$FF,$FF,$FF,$FF,$FF,$FF,$FF,$FF,$FF,$FF,$FF,$FF,$FF
	$D9FC               .byte $FF,$FF,$FF,$FF,$FF,$FF,$FF,$FF,$FF,$FF,$FF,$FF,$FF,$FF,$FF,$FF
	$DA0C               .byte $FF,$FF,$FF,$FF,$FF,$FF,$FF,$FF,$FF,$FF,$FF,$FF,$FF,$FF,$FF,$FF
	$DA1C               .byte $FF,$FF,$FF,$FF,$FF,$FF,$FF,$FF,$FF,$FF,$FF,$FF,$FF,$FF,$FF,$FF
	$DA2C               .byte $FF,$FF,$FF,$FF,$FF,$FF,$FF,$FF,$FF,$FF,$FF,$FF,$FF,$FF,$FF,$FF
	$DA3C               .byte $FF,$FF,$FF,$FF,$FF,$FF,$FF,$FF,$FF,$FF,$FF,$FF,$FF,$FF,$FF,$FF
	$DA4C               .byte $FF,$FF,$FF,$FF,$FF,$FF,$FF,$FF,$FF,$FF,$FF,$FF,$FF,$FF,$FF,$FF
	$DA5C               .byte $FF,$FF,$FF,$FF,$FF,$FF,$FF,$FF,$FF,$FF,$FF,$FF,$FF,$FF,$FF,$FF
	$DA6C               .byte $FF,$FF,$FF,$FF,$FF,$FF,$FF,$FF,$FF,$FF,$FF,$FF,$FF,$FF,$FF,$FF
	$DA7C               .byte $FF,$FF,$FF,$FF,$FF,$FF,$FF,$FF,$FF,$FF,$FF,$FF,$FF,$FF,$FF,$FF
	$DA8C               .byte $FF,$FF,$FF,$FF,$FF,$FF,$FF,$FF,$FF,$FF,$FF,$FF,$FF,$FF,$FF,$FF
	$DA9C               .byte $FF,$FF,$FF,$FF,$FF,$FF,$FF,$FF,$FF,$FF,$FF,$FF,$FF,$FF,$FF,$FF
	$DAAC               .byte $FF,$FF,$FF,$FF,$FF,$FF,$FF,$FF,$FF,$FF,$FF,$FF,$FF,$FF,$FF,$FF
	$DABC               .byte $FF,$FF,$FF,$FF,$FF,$FF,$FF,$FF,$FF,$FF,$FF,$FF,$FF,$FF,$FF,$FF
	$DACC               .byte $FF,$FF,$FF,$FF,$FF,$FF,$FF,$FF,$FF,$FF,$FF,$FF,$FF,$FF,$FF,$FF
	$DADC               .byte $FF,$FF,$FF,$FF,$FF,$FF,$FF,$FF,$FF,$FF,$FF,$FF,$FF,$FF,$FF,$FF
	$DAEC               .byte $FF,$FF,$FF,$FF,$FF,$FF,$FF,$FF,$FF,$FF,$FF,$FF,$FF,$FF,$FF,$FF
	$DAFC               .byte $FF,$FF,$FF,$FF,$FF,$FF,$FF,$FF,$FF,$FF,$FF,$FF,$FF,$FF,$FF,$FF
	$DB0C               .byte $FF,$FF,$FF,$FF,$FF,$FF,$FF,$FF,$FF,$FF,$FF,$FF,$FF,$FF,$FF,$FF
	$DB1C               .byte $FF,$FF,$FF,$FF,$FF,$FF,$FF,$FF,$FF,$FF,$FF,$FF,$FF,$FF,$FF,$FF
	$DB2C               .byte $FF,$FF,$FF,$FF,$FF,$FF,$FF,$FF,$FF,$FF,$FF,$FF,$FF,$FF,$FF,$FF
	$DB3C               .byte $FF,$FF,$FF,$FF,$FF,$FF,$FF,$FF,$FF,$FF,$FF,$FF,$FF,$FF,$FF,$FF
	$DB4C               .byte $FF,$FF,$FF,$FF,$FF,$FF,$FF,$FF,$FF,$FF,$FF,$FF,$FF,$FF,$FF,$FF
	$DB5C               .byte $FF,$FF,$FF,$FF,$FF,$FF,$FF,$FF,$FF,$FF,$FF,$FF,$FF,$FF,$FF,$FF
	$DB6C               .byte $FF,$FF,$FF,$FF,$FF,$FF,$FF,$FF,$FF,$FF,$FF,$FF,$FF,$FF,$FF,$FF
	$DB7C               .byte $FF,$FF,$FF,$FF,$FF,$FF,$FF,$FF,$FF,$FF,$FF,$FF,$FF,$FF,$FF,$FF
	$DB8C               .byte $FF,$FF,$FF,$FF,$FF,$FF,$FF,$FF,$FF,$FF,$FF,$FF,$FF,$FF,$FF,$FF
	$DB9C               .byte $FF,$FF,$FF,$FF,$FF,$FF,$FF,$FF,$FF,$FF,$FF,$FF,$FF,$FF,$FF,$FF
	$DBAC               .byte $FF,$FF,$FF,$FF,$FF,$FF,$FF,$FF,$FF,$FF,$FF,$FF,$FF,$FF,$FF,$FF
	$DBBC               .byte $FF,$FF,$FF,$FF,$FF,$FF,$FF,$FF,$FF,$FF,$FF,$FF,$FF,$FF,$FF,$FF
	$DBCC               .byte $FF,$FF,$FF,$FF,$FF,$FF,$FF,$FF,$FF,$FF,$FF,$FF,$FF,$FF,$FF,$FF
	$DBDC               .byte $FF,$FF,$FF,$FF,$FF,$FF,$FF,$FF,$FF,$FF,$FF,$FF,$FF,$FF,$FF,$FF
	$DBEC               .byte $FF,$FF,$FF,$FF,$FF,$FF,$FF,$FF,$FF,$FF,$FF,$FF,$FF,$FF,$FF,$FF
	$DBFC               .byte $FF,$FF,$FF,$FF,$FF,$FF,$FF,$FF,$FF,$FF,$FF,$FF,$FF,$FF,$FF,$FF
	$DC0C               .byte $FF,$FF,$FF,$FF,$FF,$FF,$FF,$FF,$FF,$FF,$FF,$FF,$FF,$FF,$FF,$FF
	$DC1C               .byte $FF,$FF,$FF,$FF,$FF,$FF,$FF,$FF,$FF,$FF,$FF,$FF,$FF,$FF,$FF,$FF
	$DC2C               .byte $FF,$FF,$FF,$FF,$FF,$FF,$FF,$FF,$FF,$FF,$FF,$FF,$FF,$FF,$FF,$FF
	$DC3C               .byte $FF,$FF,$FF,$FF,$FF,$FF,$FF,$FF,$FF,$FF,$FF,$FF,$FF,$FF,$FF,$FF
	$DC4C               .byte $FF,$FF,$FF,$FF,$FF,$FF,$FF,$FF,$FF,$FF,$FF,$FF,$FF,$FF,$FF,$FF
	$DC5C               .byte $FF,$FF,$FF,$FF,$FF,$FF,$FF,$FF,$FF,$FF,$FF,$FF,$FF,$FF,$FF,$FF
	$DC6C               .byte $FF,$FF,$FF,$FF,$FF,$FF,$FF,$FF,$FF,$FF,$FF,$FF,$FF,$FF,$FF,$FF
	$DC7C               .byte $FF,$FF,$FF,$FF,$FF,$FF,$FF,$FF,$FF,$FF,$FF,$FF,$FF,$FF,$FF,$FF
	$DC8C               .byte $FF,$FF,$FF,$FF,$FF,$FF,$FF,$FF,$FF,$FF,$FF,$FF,$FF,$FF,$FF,$FF
	$DC9C               .byte $FF,$FF,$FF,$FF,$FF,$FF,$FF,$FF,$FF,$FF,$FF,$FF,$FF,$FF,$FF,$FF
	$DCAC               .byte $FF,$FF,$FF,$FF,$FF,$FF,$FF,$FF,$FF,$FF,$FF,$FF,$FF,$FF,$FF,$FF
	$DCBC               .byte $FF,$FF,$FF,$FF,$FF,$FF,$FF,$FF,$FF,$FF,$FF,$FF,$FF,$FF,$FF,$FF
	$DCCC               .byte $FF,$FF,$FF,$FF,$FF,$FF,$FF,$FF,$FF,$FF,$FF,$FF,$FF,$FF,$FF,$FF
	$DCDC               .byte $FF,$FF,$FF,$FF,$FF,$FF,$FF,$FF,$FF,$FF,$FF,$FF,$FF,$FF,$FF,$FF
	$DCEC               .byte $FF,$FF,$FF,$FF,$FF,$FF,$FF,$FF,$FF,$FF,$FF,$FF,$FF,$FF,$FF,$FF
	$DCFC               .byte $FF,$FF,$FF,$FF,$FF,$FF,$FF,$FF,$FF,$FF,$FF,$FF,$FF,$FF,$FF,$FF
	$DD0C               .byte $FF,$FF,$FF,$FF,$FF,$FF,$FF,$FF,$FF,$FF,$FF,$FF,$FF,$FF,$FF,$FF
	$DD1C               .byte $FF,$FF,$FF,$FF,$FF,$FF,$FF,$FF,$FF,$FF,$FF,$FF,$FF,$FF,$FF,$FF
	$DD2C               .byte $FF,$FF,$FF,$FF,$FF,$FF,$FF,$FF,$FF,$FF,$FF,$FF,$FF,$FF,$FF,$FF
	$DD3C               .byte $FF,$FF,$FF,$FF,$FF,$FF,$FF,$FF,$FF,$FF,$FF,$FF,$FF,$FF,$FF,$FF
	$DD4C               .byte $FF,$FF,$FF,$FF,$FF,$FF,$FF,$FF,$FF,$FF,$FF,$FF,$FF,$FF,$FF,$FF
	$DD5C               .byte $FF,$FF,$FF,$FF,$FF,$FF,$FF,$FF,$FF,$FF,$FF,$FF,$FF,$FF,$FF,$FF
	$DD6C               .byte $FF,$FF,$FF,$FF,$FF,$FF,$FF,$FF,$FF,$FF,$FF,$FF,$FF,$FF,$FF,$FF
	$DD7C               .byte $FF,$FF,$FF,$FF,$FF,$FF,$FF,$FF,$FF,$FF,$FF,$FF,$FF,$FF,$FF,$FF
	$DD8C               .byte $FF,$FF,$FF,$FF,$FF,$FF,$FF,$FF,$FF,$FF,$FF,$FF,$FF,$FF,$FF,$FF
	$DD9C               .byte $FF,$FF,$FF,$FF,$FF,$FF,$FF,$FF,$FF,$FF,$FF,$FF,$FF,$FF,$FF,$FF
	$DDAC               .byte $FF,$FF,$FF,$FF,$FF,$FF,$FF,$FF,$FF,$FF,$FF,$FF,$FF,$FF,$FF,$FF
	$DDBC               .byte $FF,$FF,$FF,$FF,$FF,$FF,$FF,$FF,$FF,$FF,$FF,$FF,$FF,$FF,$FF,$FF
	$DDCC               .byte $FF,$FF,$FF,$FF,$FF,$FF,$FF,$FF,$FF,$FF,$FF,$FF,$FF,$FF,$FF,$FF
	$DDDC               .byte $FF,$FF,$FF,$FF,$FF,$FF,$FF,$FF,$FF,$FF,$FF,$FF,$FF,$FF,$FF,$FF
	$DDEC               .byte $FF,$FF,$FF,$FF,$FF,$FF,$FF,$FF,$FF,$FF,$FF,$FF,$FF,$FF,$FF,$FF
	$DDFC               .byte $FF,$FF,$FF,$FF,$FF,$FF,$FF,$FF,$FF,$FF,$FF,$FF,$FF,$FF,$FF,$FF
	$DE0C               .byte $FF,$FF,$FF,$FF,$FF,$FF,$FF,$FF,$FF,$FF,$FF,$FF,$FF,$FF,$FF,$FF
	$DE1C               .byte $FF,$FF,$FF,$FF,$FF,$FF,$FF,$FF,$FF,$FF,$FF,$FF,$FF,$FF,$FF,$FF
	$DE2C               .byte $FF,$FF,$FF,$FF,$FF,$FF,$FF,$FF,$FF,$FF,$FF,$FF,$FF,$FF,$FF,$FF
	$DE3C               .byte $FF,$FF,$FF,$FF,$FF,$FF,$FF,$FF,$FF,$FF,$FF,$FF,$FF,$FF,$FF,$FF
	$DE4C               .byte $FF,$FF,$FF,$FF,$FF,$FF,$FF,$FF,$FF,$FF,$FF,$FF,$FF,$FF,$FF,$FF
	$DE5C               .byte $FF,$FF,$FF,$FF,$FF,$FF,$FF,$FF,$FF,$FF,$FF,$FF,$FF,$FF,$FF,$FF
	$DE6C               .byte $FF,$FF,$FF,$FF,$FF,$FF,$FF,$FF,$FF,$FF,$FF,$FF,$FF,$FF,$FF,$FF
	$DE7C               .byte $FF,$FF,$FF,$FF,$FF,$FF,$FF,$FF,$FF,$FF,$FF,$FF,$FF,$FF,$FF,$FF
	$DE8C               .byte $FF,$FF,$FF,$FF,$FF,$FF,$FF,$FF,$FF,$FF,$FF,$FF,$FF,$FF,$FF,$FF
	$DE9C               .byte $FF,$FF,$FF,$FF,$FF,$FF,$FF,$FF,$FF,$FF,$FF,$FF,$FF,$FF,$FF,$FF
	$DEAC               .byte $FF,$FF,$FF,$FF,$FF,$FF,$FF,$FF,$FF,$FF,$FF,$FF,$FF,$FF,$FF,$FF
	$DEBC               .byte $FF,$FF,$FF,$FF,$FF,$FF,$FF,$FF,$FF,$FF,$FF,$FF,$FF,$FF,$FF,$FF
	$DECC               .byte $FF,$FF,$FF,$FF,$FF,$FF,$FF,$FF,$FF,$FF,$FF,$FF,$FF,$FF,$FF,$FF
	$DEDC               .byte $FF,$FF,$FF,$FF,$FF,$FF,$FF,$FF,$FF,$FF,$FF,$FF,$FF,$FF,$FF,$FF
	$DEEC               .byte $FF,$FF,$FF,$FF,$FF,$FF,$FF,$FF,$FF,$FF,$FF,$FF,$FF,$FF,$FF,$FF
	$DEFC               .byte $FF,$FF,$FF,$FF,$FF,$FF,$FF,$FF,$FF,$FF,$FF,$FF,$FF,$FF,$FF,$FF
	$DF0C               .byte $FF,$FF,$FF,$FF,$FF,$FF,$FF,$FF,$FF,$FF,$FF,$FF,$FF,$FF,$FF,$FF
	$DF1C               .byte $FF,$FF,$FF,$FF,$FF,$FF,$FF,$FF,$FF,$FF,$FF,$FF,$FF,$FF,$FF,$FF
	$DF2C               .byte $FF,$FF,$FF,$FF,$FF,$FF,$FF,$FF,$FF,$FF,$FF,$FF,$FF,$FF,$FF,$FF
	$DF3C               .byte $FF,$FF,$FF,$FF,$FF,$FF,$FF,$FF,$FF,$FF,$FF,$FF,$FF,$FF,$FF,$FF
	$DF4C               .byte $FF,$FF,$FF,$FF,$FF,$FF,$FF,$FF,$FF,$FF,$FF,$FF,$FF,$FF,$FF,$FF
	$DF5C               .byte $FF,$FF,$FF,$FF,$FF,$FF,$FF,$FF,$FF,$FF,$FF,$FF,$FF,$FF,$FF,$FF
	$DF6C               .byte $FF,$FF,$FF,$FF,$FF,$FF,$FF,$FF,$FF,$FF,$FF,$FF,$FF,$FF,$FF,$FF
	$DF7C               .byte $FF,$FF,$FF,$FF,$FF,$FF,$FF,$FF,$FF,$FF,$FF,$FF,$FF,$FF,$FF,$FF
	$DF8C               .byte $FF,$FF,$FF,$FF,$FF,$FF,$FF,$FF,$FF,$FF,$FF,$FF,$FF,$FF,$FF,$FF
	$DF9C               .byte $FF,$FF,$FF,$FF,$FF,$FF,$FF,$FF,$FF,$FF,$FF,$FF,$FF,$FF,$FF,$FF
	$DFAC               .byte $FF,$FF,$FF,$FF,$FF,$FF,$FF,$FF,$FF,$FF,$FF,$FF,$FF,$FF,$FF,$FF
	$DFBC               .byte $FF,$FF,$FF,$FF,$FF,$FF,$FF,$FF,$FF,$FF,$FF,$FF,$FF,$FF,$FF,$FF
	$DFCC               .byte $FF,$FF,$FF,$FF,$FF,$FF,$FF,$FF,$FF,$FF,$FF,$FF,$FF,$FF,$FF,$FF
	$DFDC               .byte $FF,$FF,$FF,$FF,$FF,$FF,$FF,$FF,$FF,$FF,$FF,$FF,$FF,$FF,$FF,$FF
	$DFEC               .byte $FF,$FF,$FF,$FF,$FF,$FF,$FF,$FF,$FF,$FF,$FF,$FF,$FF,$FF,$FF,$FF
	$DFFC               .byte $FF,$FF,$FF,$FF,$FF,$FF,$FF,$FF,$FF,$FF,$FF,$FF,$FF,$FF,$FF,$FF
	$E00C               .byte $FF,$FF,$FF,$FF,$FF,$FF,$FF,$FF,$FF,$FF,$FF,$FF,$FF,$FF,$FF,$FF
	$E01C               .byte $FF,$FF,$FF,$FF,$FF,$FF,$FF,$FF,$FF,$FF,$FF,$FF,$FF,$FF,$FF,$FF
	$E02C               .byte $FF,$FF,$FF,$FF,$FF,$FF,$FF,$FF,$FF,$FF,$FF,$FF,$FF,$FF,$FF,$FF
	$E03C               .byte $FF,$FF,$FF,$FF,$FF,$FF,$FF,$FF,$FF,$FF,$FF,$FF,$FF,$FF,$FF,$FF
DataTableEntry_604C
	$E04C               .byte $FF,$FF,$FF,$FF,$FF,$FF,$FF,$FF,$FF,$FF,$FF,$FF,$FF,$FF,$FF,$FF
DataTableEntry_605C
	$E05C               .byte $FF,$FF,$FF,$FF,$FF,$FF,$FF,$FF,$FF,$FF,$FF,$FF,$FF,$FF,$FF,$FF
	$E06C               .byte $FF,$FF,$FF
DataTableEntry_606F
	$E06F               .byte $FF,$FF,$FF,$FF,$FF,$FF,$FF,$FF,$FF,$FF,$FF,$FF,$FF
DataTableEntry_607C
	$E07C               .byte $FF,$FF,$FF,$FF,$FF,$FF,$FF,$FF,$FF,$FF,$FF,$FF,$FF,$FF,$FF,$FF
DataTableEntry_608C
	$E08C               .byte $FF,$FF,$FF,$FF,$FF,$FF,$FF,$FF,$FF,$FF,$FF,$FF,$FF,$FF,$FF,$FF
	$E09C               .byte $FF,$FF,$FF,$FF,$FF,$FF,$FF,$FF,$FF,$FF,$FF,$FF,$FF,$FF,$FF,$FF
	$E0AC               .byte $FF,$FF,$FF,$FF,$FF,$FF,$FF,$FF,$FF,$FF,$FF,$FF,$FF,$FF,$FF,$FF
	$E0BC               .byte $FF,$FF,$FF,$FF,$FF,$FF,$FF,$FF,$FF,$FF,$FF,$FF,$FF,$FF,$FF,$FF
	$E0CC               .byte $FF,$FF,$FF,$FF,$FF,$FF,$FF,$FF,$FF,$FF,$FF,$FF,$FF,$FF,$FF,$FF
	$E0DC               .byte $FF,$FF,$FF,$FF,$FF,$FF,$FF,$FF,$FF,$FF,$FF,$FF,$FF,$FF,$FF,$FF
	$E0EC               .byte $FF,$FF,$FF,$FF,$FF,$FF,$FF,$FF,$FF,$FF,$FF,$FF,$FF,$FF,$FF,$FF
	$E0FC               .byte $FF,$FF,$FF,$FF,$FF,$FF,$FF,$FF,$FF,$FF,$FF,$FF,$FF,$FF,$FF,$FF
	$E10C               .byte $FF,$FF,$FF,$FF,$FF,$FF,$FF,$FF,$FF,$FF,$FF,$FF,$FF,$FF,$FF,$FF
	$E11C               .byte $FF,$FF,$FF,$FF,$FF,$FF,$FF,$FF,$FF,$FF,$FF,$FF,$FF,$FF,$FF,$FF
	$E12C               .byte $FF,$FF,$FF,$FF,$FF,$FF,$FF,$FF,$FF,$FF,$FF,$FF,$FF,$FF,$FF,$FF
	$E13C               .byte $FF,$FF,$FF,$FF,$FF,$FF,$FF,$FF,$FF,$FF,$FF,$FF,$FF,$FF,$FF,$FF
	$E14C               .byte $FF,$FF,$FF,$FF,$FF,$FF,$FF,$FF,$FF,$FF,$FF,$FF,$FF,$FF,$FF,$FF
	$E15C               .byte $FF,$FF,$FF,$FF,$FF,$FF,$FF,$FF,$FF,$FF,$FF,$FF,$FF,$FF,$FF,$FF
	$E16C               .byte $FF,$FF,$FF,$FF,$FF,$FF,$FF,$FF,$FF,$FF,$FF,$FF,$FF,$FF,$FF,$FF
	$E17C               .byte $FF,$FF,$FF,$FF,$FF,$FF,$FF,$FF,$FF,$FF,$FF,$FF,$FF,$FF,$FF,$FF
	$E18C               .byte $FF,$FF,$FF,$FF,$FF,$FF,$FF,$FF,$FF,$FF,$FF,$FF,$FF,$FF,$FF,$FF
	$E19C               .byte $FF,$FF,$FF,$FF,$FF,$FF,$FF,$FF,$FF,$FF,$FF,$FF,$FF,$FF,$FF,$FF
	$E1AC               .byte $FF,$FF,$FF,$FF,$FF,$FF,$FF,$FF,$FF,$FF,$FF,$FF,$FF,$FF,$FF,$FF
	$E1BC               .byte $FF,$FF,$FF,$FF,$FF,$FF,$FF,$FF,$FF,$FF,$FF,$FF,$FF,$FF,$FF,$FF
	$E1CC               .byte $FF,$FF,$FF,$FF,$FF,$FF,$FF,$FF,$FF,$FF,$FF,$FF,$FF,$FF,$FF,$FF
	$E1DC               .byte $FF,$FF,$FF,$FF,$FF,$FF,$FF,$FF,$FF,$FF,$FF,$FF,$FF,$FF,$FF,$FF
	$E1EC               .byte $FF,$FF,$FF,$FF,$FF,$FF,$FF,$FF,$FF,$FF,$FF,$FF,$FF,$FF,$FF,$FF
	$E1FC               .byte $FF,$FF,$FF,$FF,$FF,$FF,$FF,$FF,$FF,$FF,$FF,$FF,$FF,$FF,$FF,$FF
	$E20C               .byte $FF,$FF,$FF,$FF,$FF,$FF,$FF,$FF,$FF,$FF,$FF,$FF,$FF,$FF,$FF,$FF
	$E21C               .byte $FF,$FF,$FF,$FF,$FF,$FF,$FF,$FF,$FF,$FF,$FF,$FF,$FF,$FF,$FF,$FF
	$E22C               .byte $FF,$FF,$FF,$FF,$FF,$FF,$FF,$FF,$FF,$FF,$FF,$FF,$FF,$FF,$FF,$FF
	$E23C               .byte $FF,$FF,$FF,$FF,$FF,$FF,$FF,$FF,$FF,$FF,$FF,$FF,$FF,$FF,$FF,$FF
	$E24C               .byte $FF,$FF,$FF,$FF,$FF,$FF,$FF,$FF,$FF,$FF,$FF,$FF,$FF,$FF,$FF,$FF
	$E25C               .byte $FF,$FF,$FF,$FF,$FF,$FF,$FF,$FF,$FF,$FF,$FF,$FF,$FF,$FF,$FF,$FF
	$E26C               .byte $FF,$FF,$FF,$FF,$FF,$FF,$FF,$FF,$FF,$FF,$FF,$FF,$FF,$FF,$FF,$FF
	$E27C               .byte $FF,$FF,$FF,$FF,$FF,$FF,$FF,$FF,$FF,$FF,$FF,$FF,$FF,$FF,$FF,$FF
	$E28C               .byte $FF,$FF,$FF,$FF,$FF,$FF,$FF,$FF,$FF,$FF,$FF,$FF,$FF,$FF,$FF,$FF
	$E29C               .byte $FF,$FF,$FF,$FF,$FF,$FF,$FF,$FF,$FF,$FF,$FF,$FF,$FF,$FF,$FF,$FF
	$E2AC               .byte $FF,$FF,$FF,$FF,$FF,$FF,$FF,$FF,$FF,$FF,$FF,$FF,$FF,$FF,$FF,$FF
	$E2BC               .byte $FF,$FF,$FF,$FF,$FF,$FF,$FF,$FF,$FF,$FF,$FF,$FF,$FF,$FF,$FF,$FF
	$E2CC               .byte $FF,$FF,$FF,$FF,$FF,$FF,$FF,$FF,$FF,$FF,$FF,$FF,$FF,$FF,$FF,$FF
	$E2DC               .byte $FF,$FF,$FF,$FF,$FF,$FF,$FF,$FF,$FF,$FF,$FF,$FF,$FF,$FF,$FF,$FF
	$E2EC               .byte $FF,$FF,$FF,$FF,$FF,$FF,$FF,$FF,$FF,$FF,$FF,$FF,$FF,$FF,$FF,$FF
	$E2FC               .byte $FF,$FF,$FF,$FF,$FF,$FF,$FF,$FF,$FF,$FF,$FF,$FF,$FF,$FF,$FF,$FF
	$E30C               .byte $FF,$FF,$FF,$FF,$FF,$FF,$FF,$FF,$FF,$FF,$FF,$FF,$FF,$FF,$FF,$FF
	$E31C               .byte $FF,$FF,$FF,$FF,$FF,$FF,$FF,$FF,$FF,$FF,$FF,$FF,$FF,$FF,$FF,$FF
	$E32C               .byte $FF,$FF,$FF,$FF,$FF,$FF,$FF,$FF,$FF,$FF,$FF,$FF,$FF,$FF,$FF,$FF
	$E33C               .byte $FF,$FF,$FF,$FF,$FF,$FF,$FF,$FF,$FF,$FF,$FF,$FF,$FF,$FF,$FF,$FF
	$E34C               .byte $FF,$FF,$FF,$FF,$FF,$FF,$FF,$FF,$FF,$FF,$FF,$FF,$FF,$FF,$FF,$FF
	$E35C               .byte $FF,$FF,$FF,$FF,$FF,$FF,$FF,$FF,$FF,$FF,$FF,$FF,$FF,$FF,$FF,$FF
	$E36C               .byte $FF,$FF,$FF,$FF,$FF,$FF,$FF,$FF,$FF,$FF,$FF,$FF,$FF,$FF,$FF,$FF
	$E37C               .byte $FF,$FF,$FF,$FF,$FF,$FF,$FF,$FF,$FF,$FF,$FF,$FF,$FF,$FF,$FF,$FF
	$E38C               .byte $FF,$FF,$FF,$FF,$FF,$FF,$FF,$FF,$FF,$FF,$FF,$FF,$FF,$FF,$FF,$FF
	$E39C               .byte $FF,$FF,$FF,$FF,$FF,$FF,$FF,$FF,$FF,$FF,$FF,$FF,$FF,$FF,$FF,$FF
	$E3AC               .byte $FF,$FF,$FF,$FF,$FF,$FF,$FF,$FF,$FF,$FF,$FF,$FF,$FF,$FF,$FF,$FF
	$E3BC               .byte $FF,$FF,$FF,$FF,$FF,$FF,$FF,$FF,$FF,$FF,$FF,$FF,$FF,$FF,$FF,$FF
	$E3CC               .byte $FF,$FF,$FF,$FF,$FF,$FF,$FF,$FF,$FF,$FF,$FF,$FF,$FF,$FF,$FF,$FF
	$E3DC               .byte $FF,$FF,$FF,$FF,$FF,$FF,$FF,$FF,$FF,$FF,$FF,$FF,$FF,$FF,$FF,$FF
	$E3EC               .byte $FF,$FF,$FF,$FF,$FF,$FF,$FF,$FF,$FF,$FF,$FF,$FF,$FF,$FF,$FF,$FF
	$E3FC               .byte $FF,$FF,$FF,$FF,$FF,$FF,$FF,$FF,$FF,$FF,$FF,$FF,$FF,$FF,$FF,$FF
	$E40C               .byte $FF,$FF,$FF,$FF,$FF,$FF,$FF,$FF,$FF,$FF,$FF,$FF,$FF,$FF,$FF,$FF
	$E41C               .byte $FF,$FF,$FF,$FF,$FF,$FF,$FF,$FF,$FF,$FF,$FF,$FF,$FF,$FF,$FF,$FF
	$E42C               .byte $FF,$FF,$FF,$FF,$FF,$FF,$FF,$FF,$FF,$FF,$FF,$FF,$FF,$FF,$FF,$FF
	$E43C               .byte $FF,$FF,$FF,$FF,$FF,$FF,$FF,$FF,$FF,$FF,$FF,$FF,$FF,$FF,$FF,$FF
	$E44C               .byte $FF,$FF,$FF,$FF,$FF,$FF,$FF,$FF,$FF,$FF,$FF,$FF,$FF,$FF,$FF,$FF
	$E45C               .byte $FF,$FF,$FF,$FF,$FF,$FF,$FF,$FF,$FF,$FF,$FF,$FF,$FF,$FF,$FF,$FF
	$E46C               .byte $FF,$FF,$FF,$FF,$FF,$FF,$FF,$FF,$FF,$FF,$FF,$FF,$FF,$FF,$FF,$FF
	$E47C               .byte $FF,$FF,$FF,$FF,$FF,$FF,$FF,$FF,$FF,$FF,$FF,$FF,$FF,$FF,$FF,$FF
	$E48C               .byte $FF,$FF,$FF,$FF,$FF,$FF,$FF,$FF,$FF,$FF,$FF,$FF,$FF,$FF,$FF,$FF
	$E49C               .byte $FF,$FF,$FF,$FF,$FF,$FF,$FF,$FF,$FF,$FF,$FF,$FF,$FF,$FF,$FF,$FF
	$E4AC               .byte $FF,$FF,$FF,$FF,$FF,$FF,$FF,$FF,$FF,$FF,$FF,$FF,$FF,$FF,$FF,$FF
	$E4BC               .byte $FF,$FF,$FF,$FF,$FF,$FF,$FF,$FF,$FF,$FF,$FF,$FF,$FF,$FF,$FF,$FF
	$E4CC               .byte $FF,$FF,$FF,$FF,$FF,$FF,$FF,$FF,$FF,$FF,$FF,$FF,$FF,$FF,$FF,$FF
	$E4DC               .byte $FF,$FF,$FF,$FF,$FF,$FF,$FF,$FF,$FF,$FF,$FF,$FF,$FF,$FF,$FF,$FF
	$E4EC               .byte $FF,$FF,$FF,$FF,$FF,$FF,$FF,$FF,$FF,$FF,$FF,$FF,$FF,$FF,$FF,$FF
	$E4FC               .byte $FF,$FF,$FF,$FF,$FF,$FF,$FF,$FF,$FF,$FF,$FF,$FF,$FF,$FF,$FF,$FF
	$E50C               .byte $FF,$FF,$FF,$FF,$FF,$FF,$FF,$FF,$FF,$FF,$FF,$FF,$FF,$FF,$FF,$FF
	$E51C               .byte $FF,$FF,$FF,$FF,$FF,$FF,$FF,$FF,$FF,$FF,$FF,$FF,$FF,$FF,$FF,$FF
	$E52C               .byte $FF,$FF,$FF,$FF,$FF,$FF,$FF,$FF,$FF,$FF,$FF,$FF,$FF,$FF,$FF,$FF
	$E53C               .byte $FF,$FF,$FF,$FF,$FF,$FF,$FF,$FF,$FF,$FF,$FF,$FF,$FF,$FF,$FF,$FF
	$E54C               .byte $FF,$FF,$FF,$FF,$FF,$FF,$FF,$FF,$FF,$FF,$FF,$FF,$FF,$FF,$FF,$FF
	$E55C               .byte $FF,$FF,$FF,$FF,$FF,$FF,$FF,$FF,$FF,$FF,$FF,$FF,$FF,$FF,$FF,$FF
	$E56C               .byte $FF,$FF,$FF,$FF,$FF,$FF,$FF,$FF,$FF,$FF,$FF,$FF,$FF,$FF,$FF,$FF
	$E57C               .byte $FF,$FF,$FF,$FF,$FF,$FF,$FF,$FF,$FF,$FF,$FF,$FF,$FF,$FF,$FF,$FF
	$E58C               .byte $FF,$FF,$FF,$FF,$FF,$FF,$FF,$FF,$FF,$FF,$FF,$FF,$FF,$FF,$FF,$FF
	$E59C               .byte $FF,$FF,$FF,$FF,$FF,$FF,$FF,$FF,$FF,$FF,$FF,$FF,$FF,$FF,$FF,$FF
	$E5AC               .byte $FF,$FF,$FF,$FF,$FF,$FF,$FF,$FF,$FF,$FF,$FF,$FF,$FF,$FF,$FF,$FF
	$E5BC               .byte $FF,$FF,$FF,$FF,$FF,$FF,$FF,$FF,$FF,$FF,$FF,$FF,$FF,$FF,$FF,$FF
	$E5CC               .byte $FF,$FF,$FF,$FF,$FF,$FF,$FF,$FF,$FF,$FF,$FF,$FF,$FF,$FF,$FF,$FF
	$E5DC               .byte $FF,$FF,$FF,$FF,$FF,$FF,$FF,$FF,$FF,$FF,$FF,$FF,$FF,$FF,$FF,$FF
	$E5EC               .byte $FF,$FF,$FF,$FF,$FF,$FF,$FF,$FF,$FF,$FF,$FF,$FF,$FF,$FF,$FF,$FF
	$E5FC               .byte $FF,$FF,$FF,$FF,$FF,$FF,$FF,$FF,$FF,$FF,$FF,$FF,$FF,$FF,$FF,$FF
	$E60C               .byte $FF,$FF,$FF,$FF,$FF,$FF,$FF,$FF,$FF,$FF,$FF,$FF,$FF,$FF,$FF,$FF
	$E61C               .byte $FF,$FF,$FF,$FF,$FF,$FF,$FF,$FF,$FF,$FF,$FF,$FF,$FF,$FF,$FF,$FF
	$E62C               .byte $FF,$FF,$FF,$FF,$FF,$FF,$FF,$FF,$FF,$FF,$FF,$FF,$FF,$FF,$FF,$FF
	$E63C               .byte $FF,$FF,$FF,$FF,$FF,$FF,$FF,$FF,$FF,$FF,$FF,$FF,$FF,$FF,$FF,$FF
	$E64C               .byte $FF,$FF,$FF,$FF,$FF,$FF,$FF,$FF,$FF,$FF,$FF,$FF,$FF,$FF,$FF,$FF
	$E65C               .byte $FF,$FF,$FF,$FF,$FF,$FF,$FF,$FF,$FF,$FF,$FF,$FF,$FF,$FF,$FF,$FF
	$E66C               .byte $FF,$FF,$FF,$FF,$FF,$FF,$FF,$FF,$FF,$FF,$FF,$FF,$FF,$FF,$FF,$FF
	$E67C               .byte $FF,$FF,$FF,$FF,$FF,$FF,$FF,$FF,$FF,$FF,$FF,$FF,$FF,$FF,$FF,$FF
	$E68C               .byte $FF,$FF,$FF,$FF,$FF,$FF,$FF,$FF,$FF,$FF,$FF,$FF,$FF,$FF,$FF,$FF
	$E69C               .byte $FF,$FF,$FF,$FF,$FF,$FF,$FF,$FF,$FF,$FF,$FF,$FF,$FF,$FF,$FF,$FF
	$E6AC               .byte $FF,$FF,$FF,$FF,$FF,$FF,$FF,$FF,$FF,$FF,$FF,$FF,$FF,$FF,$FF,$FF
	$E6BC               .byte $FF,$FF,$FF,$FF,$FF,$FF,$FF,$FF,$FF,$FF,$FF,$FF,$FF,$FF,$FF,$FF
	$E6CC               .byte $FF,$FF,$FF,$FF,$FF,$FF,$FF,$FF,$FF,$FF,$FF,$FF,$FF,$FF,$FF,$FF
	$E6DC               .byte $FF,$FF,$FF,$FF,$FF,$FF,$FF,$FF,$FF,$FF,$FF,$FF,$FF,$FF,$FF,$FF
	$E6EC               .byte $FF,$FF,$FF,$FF,$FF,$FF,$FF,$FF,$FF,$FF,$FF,$FF,$FF,$FF,$FF,$FF
	$E6FC               .byte $FF,$FF,$FF,$FF,$FF,$FF,$FF,$FF,$FF,$FF,$FF,$FF,$FF,$FF,$FF,$FF
	$E70C               .byte $FF,$FF,$FF,$FF,$FF,$FF,$FF,$FF,$FF,$FF,$FF,$FF,$FF,$FF,$FF,$FF
	$E71C               .byte $FF,$FF,$FF,$FF,$FF,$FF,$FF,$FF,$FF,$FF,$FF,$FF,$FF,$FF,$FF,$FF
	$E72C               .byte $FF,$FF,$FF,$FF,$FF,$FF,$FF,$FF,$FF,$FF,$FF,$FF,$FF,$FF,$FF,$FF
	$E73C               .byte $FF,$FF,$FF,$FF,$FF,$FF,$FF,$FF,$FF,$FF,$FF,$FF,$FF,$FF,$FF,$FF
	$E74C               .byte $FF,$FF,$FF,$FF,$FF,$FF,$FF,$FF,$FF,$FF,$FF,$FF,$FF,$FF,$FF,$FF
	$E75C               .byte $FF,$FF,$FF,$FF,$FF,$FF,$FF,$FF,$FF,$FF,$FF,$FF,$FF,$FF,$FF,$FF
	$E76C               .byte $FF,$FF,$FF,$FF,$FF,$FF,$FF,$FF,$FF,$FF,$FF,$FF,$FF,$FF,$FF,$FF
	$E77C               .byte $FF,$FF,$FF,$FF,$FF,$FF,$FF,$FF,$FF,$FF,$FF,$FF,$FF,$FF,$FF,$FF
	$E78C               .byte $FF,$FF,$FF,$FF,$FF,$FF,$FF,$FF,$FF,$FF,$FF,$FF,$FF,$FF,$FF,$FF
	$E79C               .byte $FF,$FF,$FF,$FF,$FF,$FF,$FF,$FF,$FF,$FF,$FF,$FF,$FF,$FF,$FF,$FF
	$E7AC               .byte $FF,$FF,$FF,$FF,$FF,$FF,$FF,$FF,$FF,$FF,$FF,$FF,$FF,$FF,$FF,$FF
	$E7BC               .byte $FF,$FF,$FF,$FF,$FF,$FF,$FF,$FF,$FF,$FF,$FF,$FF,$FF,$FF,$FF,$FF
	$E7CC               .byte $FF,$FF,$FF,$FF,$FF,$FF,$FF,$FF,$FF,$FF,$FF,$FF,$FF,$FF,$FF,$FF
	$E7DC               .byte $FF,$FF,$FF,$FF,$FF,$FF,$FF,$FF,$FF,$FF,$FF,$FF,$FF,$FF,$FF,$FF
	$E7EC               .byte $FF,$FF,$FF,$FF,$FF,$FF,$FF,$FF,$FF,$FF,$FF,$FF,$FF,$FF,$FF,$FF
	$E7FC               .byte $FF,$FF,$FF,$FF,$FF,$FF,$FF,$FF,$FF,$FF,$FF,$FF,$FF,$FF,$FF,$FF
	$E80C               .byte $FF,$FF,$FF,$FF,$FF,$FF,$FF,$FF,$FF,$FF,$FF,$FF,$FF,$FF,$FF,$FF
	$E81C               .byte $FF,$FF,$FF,$FF,$FF,$FF,$FF,$FF,$FF,$FF,$FF,$FF,$FF,$FF,$FF,$FF
	$E82C               .byte $FF,$FF,$FF,$FF,$FF,$FF,$FF,$FF,$FF,$FF,$FF,$FF,$FF,$FF,$FF,$FF
	$E83C               .byte $FF,$FF,$FF,$FF,$FF,$FF,$FF,$FF,$FF,$FF,$FF,$FF,$FF,$FF,$FF,$FF
	$E84C               .byte $FF,$FF,$FF,$FF,$FF,$FF,$FF,$FF,$FF,$FF,$FF,$FF,$FF,$FF,$FF,$FF
	$E85C               .byte $FF,$FF,$FF,$FF,$FF,$FF,$FF,$FF,$FF,$FF,$FF,$FF,$FF,$FF,$FF,$FF
	$E86C               .byte $FF,$FF,$FF,$FF,$FF,$FF,$FF,$FF,$FF,$FF,$FF,$FF,$FF,$FF,$FF,$FF
	$E87C               .byte $FF,$FF,$FF,$FF,$FF,$FF,$FF,$FF,$FF,$FF,$FF,$FF,$FF,$FF,$FF,$FF
	$E88C               .byte $FF,$FF,$FF,$FF,$FF,$FF,$FF,$FF,$FF,$FF,$FF,$FF,$FF,$FF,$FF,$FF
	$E89C               .byte $FF,$FF,$FF,$FF,$FF,$FF,$FF,$FF,$FF,$FF,$FF,$FF,$FF,$FF,$FF,$FF
	$E8AC               .byte $FF,$FF,$FF,$FF,$FF,$FF,$FF,$FF,$FF,$FF,$FF,$FF,$FF,$FF,$FF,$FF
	$E8BC               .byte $FF,$FF,$FF,$FF,$FF,$FF,$FF,$FF,$FF,$FF,$FF,$FF,$FF,$FF,$FF,$FF
	$E8CC               .byte $FF,$FF,$FF,$FF,$FF,$FF,$FF,$FF,$FF,$FF,$FF,$FF,$FF,$FF,$FF,$FF
	$E8DC               .byte $FF,$FF,$FF,$FF,$FF,$FF,$FF,$FF,$FF,$FF,$FF,$FF,$FF,$FF,$FF,$FF
	$E8EC               .byte $FF,$FF,$FF,$FF,$FF,$FF,$FF,$FF,$FF,$FF,$FF,$FF,$FF,$FF,$FF,$FF
	$E8FC               .byte $FF,$FF,$FF,$FF,$FF,$FF,$FF,$FF,$FF,$FF,$FF,$FF,$FF,$FF,$FF,$FF
	$E90C               .byte $FF,$FF,$FF,$FF,$FF,$FF,$FF,$FF,$FF,$FF,$FF,$FF,$FF,$FF,$FF,$FF
	$E91C               .byte $FF,$FF,$FF,$FF,$FF,$FF,$FF,$FF,$FF,$FF,$FF,$FF,$FF,$FF,$FF,$FF
	$E92C               .byte $FF,$FF,$FF,$FF,$FF,$FF,$FF,$FF,$FF,$FF,$FF,$FF,$FF,$FF,$FF,$FF
	$E93C               .byte $FF,$FF,$FF,$FF,$FF,$FF,$FF,$FF,$FF,$FF,$FF,$FF,$FF,$FF,$FF,$FF
	$E94C               .byte $FF,$FF,$FF,$FF,$FF,$FF,$FF,$FF,$FF,$FF,$FF,$FF,$FF,$FF,$FF,$FF
	$E95C               .byte $FF,$FF,$FF,$FF,$FF,$FF,$FF,$FF,$FF,$FF,$FF,$FF,$FF,$FF,$FF,$FF
	$E96C               .byte $FF,$FF,$FF,$FF,$FF,$FF,$FF,$FF,$FF,$FF,$FF,$FF,$FF,$FF,$FF,$FF
	$E97C               .byte $FF,$FF,$FF,$FF,$FF,$FF,$FF,$FF,$FF,$FF,$FF,$FF,$FF,$FF,$FF,$FF
	$E98C               .byte $FF,$FF,$FF,$FF,$FF,$FF,$FF,$FF,$FF,$FF,$FF,$FF,$FF,$FF,$FF,$FF
	$E99C               .byte $FF,$FF,$FF,$FF,$FF,$FF,$FF,$FF,$FF,$FF,$FF,$FF,$FF,$FF,$FF,$FF
	$E9AC               .byte $FF,$FF,$FF,$FF,$FF,$FF,$FF,$FF,$FF,$FF,$FF,$FF,$FF,$FF,$FF,$FF
	$E9BC               .byte $FF,$FF,$FF,$FF,$FF,$FF,$FF,$FF,$FF,$FF,$FF,$FF,$FF,$FF,$FF,$FF
	$E9CC               .byte $FF,$FF,$FF,$FF,$FF,$FF,$FF,$FF,$FF,$FF,$FF,$FF,$FF,$FF,$FF,$FF
	$E9DC               .byte $FF,$FF,$FF,$FF,$FF,$FF,$FF,$FF,$FF,$FF,$FF,$FF,$FF,$FF,$FF,$FF
	$E9EC               .byte $FF,$FF,$FF,$FF,$FF,$FF,$FF,$FF,$FF,$FF,$FF,$FF,$FF,$FF,$FF,$FF
	$E9FC               .byte $FF,$FF,$FF,$FF,$FF,$FF,$FF,$FF,$FF,$FF,$FF,$FF,$FF,$FF,$FF,$FF
	$EA0C               .byte $FF,$FF,$FF,$FF,$FF,$FF,$FF,$FF,$FF,$FF,$FF,$FF,$FF,$FF,$FF,$FF
	$EA1C               .byte $FF,$FF,$FF,$FF,$FF,$FF,$FF,$FF,$FF,$FF,$FF,$FF,$FF,$FF,$FF,$FF
	$EA2C               .byte $FF,$FF,$FF,$FF,$FF,$FF,$FF,$FF,$FF,$FF,$FF,$FF,$FF,$FF,$FF,$FF
	$EA3C               .byte $FF,$FF,$FF,$FF,$FF,$FF,$FF,$FF,$FF,$FF,$FF,$FF,$FF,$FF,$FF,$FF
	$EA4C               .byte $FF,$FF,$FF,$FF,$FF,$FF,$FF,$FF,$FF,$FF,$FF,$FF,$FF,$FF,$FF,$FF
	$EA5C               .byte $FF,$FF,$FF,$FF,$FF,$FF,$FF,$FF,$FF,$FF,$FF,$FF,$FF,$FF,$FF,$FF
	$EA6C               .byte $FF,$FF,$FF,$FF,$FF,$FF,$FF,$FF,$FF,$FF,$FF,$FF,$FF,$FF,$FF,$FF
	$EA7C               .byte $FF,$FF,$FF,$FF,$FF,$FF,$FF,$FF,$FF,$FF,$FF,$FF,$FF,$FF,$FF,$FF
	$EA8C               .byte $FF,$FF,$FF,$FF,$FF,$FF,$FF,$FF,$FF,$FF,$FF,$FF,$FF,$FF,$FF,$FF
	$EA9C               .byte $FF,$FF,$FF,$FF,$FF,$FF,$FF,$FF,$FF,$FF,$FF,$FF,$FF,$FF,$FF,$FF
	$EAAC               .byte $FF,$FF,$FF,$FF,$FF,$FF,$FF,$FF,$FF,$FF,$FF,$FF,$FF,$FF,$FF,$FF
	$EABC               .byte $FF,$FF,$FF,$FF,$FF,$FF,$FF,$FF,$FF,$FF,$FF,$FF,$FF,$FF,$FF,$FF
	$EACC               .byte $FF,$FF,$FF,$FF,$FF,$FF,$FF,$FF,$FF,$FF,$FF,$FF,$FF,$FF,$FF,$FF
	$EADC               .byte $FF,$FF,$FF,$FF,$FF,$FF,$FF,$FF,$FF,$FF,$FF,$FF,$FF,$FF,$FF,$FF
	$EAEC               .byte $FF,$FF,$FF,$FF,$FF,$FF,$FF,$FF,$FF,$FF,$FF,$FF,$FF,$FF,$FF,$FF
	$EAFC               .byte $FF,$FF,$FF,$FF,$FF,$FF,$FF,$FF,$FF,$FF,$FF,$FF,$FF,$FF,$FF,$FF
	$EB0C               .byte $FF,$FF,$FF,$FF,$FF,$FF,$FF,$FF,$FF,$FF,$FF,$FF,$FF,$FF,$FF,$FF
	$EB1C               .byte $FF,$FF,$FF,$FF,$FF,$FF,$FF,$FF,$FF,$FF,$FF,$FF,$FF,$FF,$FF,$FF
	$EB2C               .byte $FF,$FF,$FF,$FF,$FF,$FF,$FF,$FF,$FF,$FF,$FF,$FF,$FF,$FF,$FF,$FF
	$EB3C               .byte $FF,$FF,$FF,$FF,$FF,$FF,$FF,$FF,$FF,$FF,$FF,$FF,$FF,$FF,$FF,$FF
	$EB4C               .byte $FF,$FF,$FF,$FF,$FF,$FF,$FF,$FF,$FF,$FF,$FF,$FF,$FF,$FF,$FF,$FF
	$EB5C               .byte $FF,$FF,$FF,$FF,$FF,$FF,$FF,$FF,$FF,$FF,$FF,$FF,$FF,$FF,$FF,$FF
	$EB6C               .byte $FF,$FF,$FF,$FF,$FF,$FF,$FF,$FF,$FF,$FF,$FF,$FF,$FF,$FF,$FF,$FF
	$EB7C               .byte $FF,$FF,$FF,$FF,$FF,$FF,$FF,$FF,$FF,$FF,$FF,$FF,$FF,$FF,$FF,$FF
	$EB8C               .byte $FF,$FF,$FF,$FF,$FF,$FF,$FF,$FF,$FF,$FF,$FF,$FF,$FF,$FF,$FF,$FF
	$EB9C               .byte $FF,$FF,$FF,$FF,$FF,$FF,$FF,$FF,$FF,$FF,$FF,$FF,$FF,$FF,$FF,$FF
	$EBAC               .byte $FF,$FF,$FF,$FF,$FF,$FF,$FF,$FF,$FF,$FF,$FF,$FF,$FF,$FF,$FF,$FF
	$EBBC               .byte $FF,$FF,$FF,$FF,$FF,$FF,$FF,$FF,$FF,$FF,$FF,$FF,$FF,$FF,$FF,$FF
	$EBCC               .byte $FF,$FF,$FF,$FF,$FF,$FF,$FF,$FF,$FF,$FF,$FF,$FF,$FF,$FF,$FF,$FF
	$EBDC               .byte $FF,$FF,$FF,$FF,$FF,$FF,$FF,$FF,$FF,$FF,$FF,$FF,$FF,$FF,$FF,$FF
	$EBEC               .byte $FF,$FF,$FF,$FF,$FF,$FF,$FF,$FF,$FF,$FF,$FF,$FF,$FF,$FF,$FF,$FF
	$EBFC               .byte $FF,$FF,$FF,$FF,$FF,$FF,$FF,$FF,$FF,$FF,$FF,$FF,$FF,$FF,$FF,$FF
	$EC0C               .byte $FF,$FF,$FF,$FF,$FF,$FF,$FF,$FF,$FF,$FF,$FF,$FF,$FF,$FF,$FF,$FF
	$EC1C               .byte $FF,$FF,$FF,$FF,$FF,$FF,$FF,$FF,$FF,$FF,$FF,$FF,$FF,$FF,$FF,$FF
	$EC2C               .byte $FF,$FF,$FF,$FF,$FF,$FF,$FF,$FF,$FF,$FF,$FF,$FF,$FF,$FF,$FF,$FF
	$EC3C               .byte $FF,$FF,$FF,$FF,$FF,$FF,$FF,$FF,$FF,$FF,$FF,$FF,$FF,$FF,$FF,$FF
	$EC4C               .byte $FF,$FF,$FF,$FF,$FF,$FF,$FF,$FF,$FF,$FF,$FF,$FF,$FF,$FF,$FF,$FF
DataTableEntry_6C5C
	$EC5C               .byte $FF,$FF,$FF,$FF,$FF,$FF,$FF,$FF,$FF,$FF,$FF,$FF,$FF,$FF,$FF,$FF
	$EC6C               .byte $FF,$FF,$FF,$FF,$FF,$FF,$FF,$FF,$FF,$FF,$FF,$FF,$FF,$FF,$FF,$FF
DataTableEntry_6C7C
	$EC7C               .byte $FF,$FF,$FF,$FF,$FF,$FF,$FF,$FF,$FF,$FF,$FF,$FF,$FF,$FF,$FF,$FF
	$EC8C               .byte $FF,$FF,$FF,$FF,$FF,$FF,$FF,$FF,$FF,$FF,$FF,$FF,$FF,$FF,$FF,$FF
	$EC9C               .byte $FF,$FF,$FF,$FF,$FF,$FF,$FF,$FF,$FF,$FF,$FF,$FF,$FF,$FF,$FF,$FF
	$ECAC               .byte $FF,$FF,$FF,$FF,$FF,$FF,$FF,$FF,$FF,$FF,$FF,$FF,$FF,$FF,$FF,$FF
	$ECBC               .byte $FF,$FF,$FF,$FF,$FF,$FF,$FF,$FF,$FF,$FF,$FF,$FF,$FF,$FF,$FF,$FF
	$ECCC               .byte $FF,$FF,$FF,$FF,$FF,$FF,$FF,$FF,$FF,$FF,$FF,$FF,$FF,$FF,$FF,$FF
	$ECDC               .byte $FF,$FF,$FF,$FF,$FF,$FF,$FF,$FF,$FF,$FF,$FF,$FF,$FF,$FF,$FF,$FF
	$ECEC               .byte $FF,$FF,$FF,$FF,$FF,$FF,$FF,$FF,$FF,$FF,$FF,$FF,$FF,$FF,$FF,$FF
	$ECFC               .byte $FF,$FF,$FF,$FF,$FF,$FF,$FF,$FF,$FF,$FF,$FF,$FF,$FF,$FF,$FF,$FF
	$ED0C               .byte $FF,$FF,$FF,$FF,$FF,$FF,$FF,$FF,$FF,$FF,$FF,$FF,$FF,$FF,$FF,$FF
	$ED1C               .byte $FF,$FF,$FF,$FF,$FF,$FF,$FF,$FF,$FF,$FF,$FF,$FF,$FF,$FF,$FF,$FF
	$ED2C               .byte $FF,$FF,$FF,$FF,$FF,$FF,$FF,$FF,$FF,$FF,$FF,$FF,$FF,$FF,$FF,$FF
	$ED3C               .byte $FF,$FF,$FF,$FF,$FF,$FF,$FF,$FF,$FF,$FF,$FF,$FF,$FF,$FF,$FF,$FF
	$ED4C               .byte $FF,$FF,$FF,$FF,$FF,$FF,$FF,$FF,$FF,$FF,$FF,$FF,$FF,$FF,$FF,$FF
	$ED5C               .byte $FF,$FF,$FF,$FF,$FF,$FF,$FF,$FF,$FF,$FF,$FF,$FF,$FF,$FF,$FF,$FF
	$ED6C               .byte $FF,$FF,$FF,$FF,$FF,$FF,$FF,$FF,$FF,$FF,$FF,$FF,$FF,$FF,$FF,$FF
	$ED7C               .byte $FF,$FF,$FF,$FF,$FF,$FF,$FF,$FF,$FF,$FF,$FF,$FF,$FF,$FF,$FF,$FF
	$ED8C               .byte $FF,$FF,$FF,$FF,$FF,$FF,$FF,$FF,$FF,$FF,$FF,$FF,$FF,$FF,$FF,$FF
	$ED9C               .byte $FF,$FF,$FF,$FF,$FF,$FF,$FF,$FF,$FF,$FF,$FF,$FF,$FF,$FF,$FF,$FF
	$EDAC               .byte $FF,$FF,$FF,$FF,$FF,$FF,$FF,$FF,$FF,$FF,$FF,$FF,$FF,$FF,$FF,$FF
	$EDBC               .byte $FF,$FF,$FF,$FF,$FF,$FF,$FF,$FF,$FF,$FF,$FF,$FF,$FF,$FF,$FF,$FF
	$EDCC               .byte $FF,$FF,$FF,$FF,$FF,$FF,$FF,$FF,$FF,$FF,$FF,$FF,$FF,$FF,$FF,$FF
	$EDDC               .byte $FF,$FF,$FF,$FF,$FF,$FF,$FF,$FF,$FF,$FF,$FF,$FF,$FF,$FF,$FF,$FF
	$EDEC               .byte $FF,$FF,$FF,$FF,$FF,$FF,$FF,$FF,$FF,$FF,$FF,$FF,$FF,$FF,$FF,$FF
	$EDFC               .byte $FF,$FF,$FF,$FF,$FF,$FF,$FF,$FF,$FF,$FF,$FF,$FF,$FF,$FF,$FF,$FF
	$EE0C               .byte $FF,$FF,$FF,$FF,$FF,$FF,$FF,$FF,$FF,$FF,$FF,$FF,$FF,$FF,$FF,$FF
	$EE1C               .byte $FF,$FF,$FF,$FF,$FF,$FF,$FF,$FF,$FF,$FF,$FF,$FF,$FF,$FF,$FF,$FF
	$EE2C               .byte $FF,$FF,$FF,$FF,$FF,$FF,$FF,$FF,$FF,$FF,$FF,$FF,$FF,$FF,$FF,$FF
	$EE3C               .byte $FF,$FF,$FF,$FF,$FF,$FF,$FF,$FF,$FF,$FF,$FF,$FF,$FF,$FF,$FF,$FF
	$EE4C               .byte $FF,$FF,$FF,$FF,$FF,$FF,$FF,$FF,$FF,$FF,$FF,$FF,$FF,$FF,$FF,$FF
	$EE5C               .byte $FF,$FF,$FF,$FF,$FF,$FF,$FF,$FF,$FF,$FF,$FF,$FF,$FF,$FF,$FF,$FF
	$EE6C               .byte $FF,$FF,$FF,$FF,$FF,$FF,$FF,$FF,$FF,$FF,$FF,$FF,$FF,$FF,$FF,$FF
	$EE7C               .byte $FF,$FF,$FF,$FF,$FF,$FF,$FF,$FF,$FF,$FF,$FF,$FF,$FF,$FF,$FF,$FF
	$EE8C               .byte $FF,$FF,$FF,$FF,$FF,$FF,$FF,$FF,$FF,$FF,$FF,$FF,$FF,$FF,$FF,$FF
	$EE9C               .byte $FF,$FF,$FF,$FF,$FF,$FF,$FF,$FF,$FF,$FF,$FF,$FF,$FF,$FF,$FF,$FF
	$EEAC               .byte $FF,$FF,$FF,$FF,$FF,$FF,$FF,$FF,$FF,$FF,$FF,$FF,$FF,$FF,$FF,$FF
	$EEBC               .byte $FF,$FF,$FF,$FF,$FF,$FF,$FF,$FF,$FF,$FF,$FF,$FF,$FF,$FF,$FF,$FF
	$EECC               .byte $FF,$FF,$FF,$FF,$FF,$FF,$FF,$FF,$FF,$FF,$FF,$FF,$FF,$FF,$FF,$FF
	$EEDC               .byte $FF,$FF,$FF,$FF,$FF,$FF,$FF,$FF,$FF,$FF,$FF,$FF,$FF,$FF,$FF,$FF
	$EEEC               .byte $FF,$FF,$FF,$FF,$FF,$FF,$FF,$FF,$FF,$FF,$FF,$FF,$FF,$FF,$FF,$FF
	$EEFC               .byte $FF,$FF,$FF,$FF,$FF,$FF,$FF,$FF,$FF,$FF,$FF,$FF,$FF,$FF,$FF,$FF
	$EF0C               .byte $FF,$FF,$FF,$FF,$FF,$FF,$FF,$FF,$FF,$FF,$FF,$FF,$FF,$FF,$FF,$FF
	$EF1C               .byte $FF,$FF,$FF,$FF,$FF,$FF,$FF,$FF,$FF,$FF,$FF,$FF,$FF,$FF,$FF,$FF
	$EF2C               .byte $FF,$FF,$FF,$FF,$FF,$FF,$FF,$FF,$FF,$FF,$FF,$FF,$FF,$FF,$FF,$FF
	$EF3C               .byte $FF,$FF,$FF,$FF,$FF,$FF,$FF,$FF,$FF,$FF,$FF,$FF,$FF,$FF,$FF,$FF
	$EF4C               .byte $FF,$FF,$FF,$FF,$FF,$FF,$FF,$FF,$FF,$FF,$FF,$FF,$FF,$FF,$FF,$FF
	$EF5C               .byte $FF,$FF,$FF,$FF,$FF,$FF,$FF,$FF,$FF,$FF,$FF,$FF,$FF,$FF,$FF,$FF
	$EF6C               .byte $FF,$FF,$FF,$FF,$FF,$FF,$FF,$FF,$FF,$FF,$FF,$FF,$FF,$FF,$FF,$FF
	$EF7C               .byte $FF,$FF,$FF,$FF,$FF,$FF,$FF,$FF,$FF,$FF,$FF,$FF,$FF,$FF,$FF,$FF
	$EF8C               .byte $FF,$FF,$FF,$FF,$FF,$FF,$FF,$FF,$FF,$FF,$FF,$FF,$FF,$FF,$FF,$FF
	$EF9C               .byte $FF,$FF,$FF,$FF,$FF,$FF,$FF,$FF,$FF,$FF,$FF,$FF,$FF,$FF,$FF,$FF
	$EFAC               .byte $FF,$FF,$FF,$FF,$FF,$FF,$FF,$FF,$FF,$FF,$FF,$FF,$FF,$FF,$FF,$FF
	$EFBC               .byte $FF,$FF,$FF,$FF,$FF,$FF,$FF,$FF,$FF,$FF,$FF,$FF,$FF,$FF,$FF,$FF
	$EFCC               .byte $FF,$FF,$FF,$FF,$FF,$FF,$FF,$FF,$FF,$FF,$FF,$FF,$FF,$FF,$FF,$FF
	$EFDC               .byte $FF,$FF,$FF,$FF,$FF,$FF,$FF,$FF,$FF,$FF,$FF,$FF,$FF,$FF,$FF,$FF
	$EFEC               .byte $FF,$FF,$FF,$FF,$FF,$FF,$FF,$FF,$FF,$FF,$FF,$FF,$FF,$FF,$FF,$FF
	$EFFC               .byte $FF,$FF,$FF,$FF,$FF,$FF,$FF,$FF,$FF,$FF,$FF,$FF,$FF,$FF,$FF,$FF
	$F00C               .byte $FF,$FF,$FF,$FF,$FF,$FF,$FF,$FF,$FF,$FF,$FF,$FF,$FF,$FF,$FF,$FF
	$F01C               .byte $FF,$FF,$FF,$FF,$FF,$FF,$FF,$FF,$FF,$FF,$FF,$FF,$FF,$FF,$FF,$FF
	$F02C               .byte $FF,$FF,$FF,$FF,$FF,$FF,$FF,$FF,$FF,$FF,$FF,$FF,$FF,$FF,$FF,$FF
	$F03C               .byte $FF,$FF,$FF,$FF,$FF,$FF,$FF,$FF,$FF,$FF,$FF,$FF,$FF,$FF,$FF,$FF
	$F04C               .byte $FF,$FF,$FF,$FF,$FF,$FF,$FF,$FF,$FF,$FF,$FF,$FF,$FF,$FF,$FF,$FF
	$F05C               .byte $FF,$FF,$FF,$FF,$FF,$FF,$FF,$FF,$FF,$FF,$FF,$FF
DataTableEntry_7068
	$F068               .byte $FF,$FF,$FF,$FF,$FF,$FF,$FF,$FF,$FF,$FF,$FF,$FF,$FF,$FF,$FF,$FF
	$F078               .byte $FF,$FF,$FF,$FF,$FF,$FF,$FF,$FF,$FF,$FF,$FF,$FF,$FF,$FF,$FF,$FF
	$F088               .byte $FF,$FF,$FF,$FF,$FF,$FF,$FF,$FF,$FF,$FF,$FF,$FF,$FF,$FF,$FF,$FF
	$F098               .byte $FF,$FF,$FF,$FF,$FF,$FF,$FF,$FF,$FF,$FF,$FF,$FF,$FF,$FF,$FF,$FF
	$F0A8               .byte $FF,$FF,$FF,$FF,$FF,$FF,$FF,$FF,$FF,$FF,$FF,$FF,$FF,$FF,$FF,$FF
	$F0B8               .byte $FF,$FF,$FF,$FF,$FF,$FF,$FF,$FF,$FF,$FF,$FF,$FF,$FF,$FF,$FF,$FF
	$F0C8               .byte $FF,$FF,$FF,$FF,$FF,$FF,$FF,$FF,$FF,$FF,$FF,$FF,$FF,$FF,$FF,$FF
	$F0D8               .byte $FF,$FF,$FF,$FF,$FF,$FF,$FF,$FF,$FF,$FF,$FF,$FF,$FF,$FF,$FF,$FF
	$F0E8               .byte $FF,$FF,$FF,$FF,$FF,$FF,$FF,$FF,$FF,$FF,$FF,$FF,$FF,$FF,$FF,$FF
	$F0F8               .byte $FF,$FF,$FF,$FF,$FF,$FF,$FF,$FF,$FF,$FF,$FF,$FF,$FF,$FF,$FF,$FF
	$F108               .byte $FF,$FF,$FF,$FF,$FF,$FF,$FF,$FF,$FF,$FF,$FF,$FF,$FF,$FF,$FF,$FF
	$F118               .byte $FF,$FF,$FF,$FF,$FF,$FF,$FF,$FF,$FF,$FF,$FF,$FF,$FF,$FF,$FF,$FF
	$F128               .byte $FF,$FF,$FF,$FF,$FF,$FF,$FF,$FF,$FF,$FF,$FF,$FF,$FF,$FF,$FF,$FF
	$F138               .byte $FF,$FF,$FF,$FF,$FF,$FF,$FF,$FF,$FF,$FF,$FF,$FF,$FF,$FF,$FF,$FF
	$F148               .byte $FF,$FF,$FF,$FF,$FF,$FF,$FF,$FF,$FF,$FF,$FF,$FF,$FF,$FF,$FF,$FF
	$F158               .byte $FF,$FF,$FF,$FF,$FF,$FF,$FF,$FF,$FF,$FF,$FF,$FF,$FF,$FF,$FF,$FF
	$F168               .byte $FF,$FF,$FF,$FF,$FF,$FF,$FF,$FF,$FF,$FF,$FF,$FF,$FF,$FF,$FF,$FF
	$F178               .byte $FF,$FF,$FF,$FF,$FF,$FF,$FF,$FF,$FF,$FF,$FF,$FF,$FF,$FF,$FF,$FF
	$F188               .byte $FF,$FF,$FF,$FF,$FF,$FF,$FF,$FF,$FF,$FF,$FF,$FF,$FF,$FF,$FF,$FF
	$F198               .byte $FF,$FF,$FF,$FF,$FF,$FF,$FF,$FF,$FF,$FF,$FF,$FF,$FF,$FF,$FF,$FF
	$F1A8               .byte $FF,$FF,$FF,$FF,$FF,$FF,$FF,$FF,$FF,$FF,$FF,$FF,$FF,$FF,$FF,$FF
	$F1B8               .byte $FF,$FF,$FF,$FF,$FF,$FF,$FF,$FF,$FF,$FF,$FF,$FF,$FF,$FF,$FF,$FF
	$F1C8               .byte $FF,$FF,$FF,$FF,$FF,$FF,$FF,$FF,$FF,$FF,$FF,$FF,$FF,$FF,$FF,$FF
	$F1D8               .byte $FF,$FF,$FF,$FF,$FF,$FF,$FF,$FF,$FF,$FF,$FF,$FF,$FF,$FF,$FF,$FF
	$F1E8               .byte $FF,$FF,$FF,$FF,$FF,$FF,$FF,$FF,$FF,$FF,$FF,$FF,$FF,$FF,$FF,$FF
	$F1F8               .byte $FF,$FF,$FF,$FF,$FF,$FF,$FF,$FF,$FF,$FF,$FF,$FF,$FF,$FF,$FF,$FF
	$F208               .byte $FF,$FF,$FF,$FF,$FF,$FF,$FF,$FF,$FF,$FF,$FF,$FF,$FF,$FF,$FF,$FF
	$F218               .byte $FF,$FF,$FF,$FF,$FF,$FF,$FF,$FF,$FF,$FF,$FF,$FF,$FF,$FF,$FF,$FF
	$F228               .byte $FF,$FF,$FF,$FF,$FF,$FF,$FF,$FF,$FF,$FF,$FF,$FF,$FF,$FF,$FF,$FF
	$F238               .byte $FF,$FF,$FF,$FF,$FF,$FF,$FF,$FF,$FF,$FF,$FF,$FF,$FF,$FF,$FF,$FF
	$F248               .byte $FF,$FF,$FF,$FF,$FF,$FF,$FF,$FF,$FF,$FF,$FF,$FF,$FF,$FF,$FF,$FF
	$F258               .byte $FF,$FF,$FF,$FF,$FF,$FF,$FF,$FF,$FF,$FF,$FF,$FF,$FF,$FF,$FF,$FF
	$F268               .byte $FF,$FF,$FF,$FF,$FF,$FF,$FF,$FF,$FF,$FF,$FF,$FF,$FF,$FF,$FF,$FF
	$F278               .byte $FF,$FF,$FF,$FF,$FF,$FF,$FF,$FF,$FF,$FF,$FF,$FF,$FF,$FF,$FF,$FF
	$F288               .byte $FF,$FF,$FF,$FF,$FF,$FF,$FF,$FF,$FF,$FF,$FF,$FF,$FF,$FF,$FF,$FF
	$F298               .byte $FF,$FF,$FF,$FF,$FF,$FF,$FF,$FF,$FF,$FF,$FF,$FF,$FF,$FF,$FF,$FF
	$F2A8               .byte $FF,$FF,$FF,$FF,$FF,$FF,$FF,$FF,$FF,$FF,$FF,$FF,$FF,$FF,$FF,$FF
	$F2B8               .byte $FF,$FF,$FF,$FF,$FF,$FF,$FF,$FF,$FF,$FF,$FF,$FF,$FF,$FF,$FF,$FF
	$F2C8               .byte $FF,$FF,$FF,$FF,$FF,$FF,$FF,$FF,$FF,$FF,$FF,$FF,$FF,$FF,$FF,$FF
	$F2D8               .byte $FF,$FF,$FF,$FF,$FF,$FF,$FF,$FF,$FF,$FF,$FF,$FF,$FF,$FF,$FF,$FF
	$F2E8               .byte $FF,$FF,$FF,$FF,$FF,$FF,$FF,$FF,$FF,$FF,$FF,$FF,$FF,$FF,$FF,$FF
	$F2F8               .byte $FF,$FF,$FF,$FF,$FF,$FF,$FF,$FF,$FF,$FF,$FF,$FF,$FF,$FF,$FF,$FF
	$F308               .byte $FF,$FF,$FF,$FF,$FF,$FF,$FF,$FF,$FF,$FF,$FF,$FF,$FF,$FF,$FF,$FF
	$F318               .byte $FF,$FF,$FF,$FF,$FF,$FF,$FF,$FF,$FF,$FF,$FF,$FF,$FF,$FF,$FF,$FF
	$F328               .byte $FF,$FF,$FF,$FF,$FF,$FF,$FF,$FF,$FF,$FF,$FF,$FF,$FF,$FF,$FF,$FF
	$F338               .byte $FF,$FF,$FF,$FF,$FF,$FF,$FF,$FF,$FF,$FF,$FF,$FF,$FF,$FF,$FF,$FF
	$F348               .byte $FF,$FF,$FF,$FF,$FF,$FF,$FF,$FF,$FF,$FF,$FF,$FF,$FF,$FF,$FF,$FF
	$F358               .byte $FF,$FF,$FF,$FF,$FF,$FF,$FF,$FF,$FF,$FF,$FF,$FF,$FF,$FF,$FF,$FF
	$F368               .byte $FF,$FF,$FF,$FF,$FF,$FF,$FF,$FF,$FF,$FF,$FF,$FF,$FF,$FF,$FF,$FF
	$F378               .byte $FF,$FF,$FF,$FF,$FF,$FF,$FF,$FF,$FF,$FF,$FF,$FF,$FF,$FF,$FF,$FF
	$F388               .byte $FF,$FF,$FF,$FF,$FF,$FF,$FF,$FF,$FF,$FF,$FF,$FF,$FF,$FF,$FF,$FF
	$F398               .byte $FF,$FF,$FF,$FF,$FF,$FF,$FF,$FF,$FF,$FF,$FF,$FF,$FF,$FF,$FF,$FF
	$F3A8               .byte $FF,$FF,$FF,$FF,$FF,$FF,$FF,$FF,$FF,$FF,$FF,$FF,$FF,$FF,$FF,$FF
	$F3B8               .byte $FF,$FF,$FF,$FF,$FF,$FF,$FF,$FF,$FF,$FF,$FF,$FF,$FF,$FF,$FF,$FF
	$F3C8               .byte $FF,$FF,$FF,$FF,$FF,$FF,$FF,$FF,$FF,$FF,$FF,$FF,$FF,$FF,$FF,$FF
	$F3D8               .byte $FF,$FF,$FF,$FF,$FF,$FF,$FF,$FF,$FF,$FF,$FF,$FF,$FF,$FF,$FF,$FF
	$F3E8               .byte $FF,$FF,$FF,$FF,$FF,$FF,$FF,$FF,$FF,$FF,$FF,$FF,$FF,$FF,$FF,$FF
	$F3F8               .byte $FF,$FF,$FF,$FF,$FF,$FF,$FF,$FF,$FF,$FF,$FF,$FF,$FF,$FF,$FF,$FF
	$F408               .byte $FF,$FF,$FF,$FF,$FF,$FF,$FF,$FF,$FF,$FF,$FF,$FF,$FF,$FF,$FF,$FF
	$F418               .byte $FF,$FF,$FF,$FF,$FF,$FF,$FF,$FF,$FF,$FF,$FF,$FF,$FF,$FF,$FF,$FF
	$F428               .byte $FF,$FF,$FF,$FF,$FF,$FF,$FF,$FF,$FF,$FF,$FF,$FF,$FF,$FF,$FF,$FF
	$F438               .byte $FF,$FF,$FF,$FF,$FF,$FF,$FF,$FF,$FF,$FF,$FF,$FF,$FF,$FF,$FF,$FF
	$F448               .byte $FF,$FF,$FF,$FF,$FF,$FF,$FF,$FF,$FF,$FF,$FF,$FF,$FF,$FF,$FF,$FF
	$F458               .byte $FF,$FF,$FF,$FF,$FF,$FF,$FF,$FF,$FF,$FF,$FF,$FF,$FF,$FF,$FF,$FF
	$F468               .byte $FF,$FF,$FF,$FF
DataTableEntry_746C
	$F46C               .byte $FF,$FF,$FF,$FF,$FF,$FF,$FF,$FF,$FF,$FF,$FF,$FF,$FF,$FF,$FF,$FF
	$F47C               .byte $FF,$FF,$FF,$FF,$FF,$FF,$FF,$FF,$FF,$FF,$FF,$FF,$FF,$FF,$FF,$FF
	$F48C               .byte $FF,$FF,$FF,$FF,$FF,$FF,$FF,$FF,$FF,$FF,$FF,$FF,$FF,$FF,$FF,$FF
	$F49C               .byte $FF,$FF,$FF,$FF,$FF,$FF,$FF,$FF,$FF,$FF,$FF,$FF,$FF,$FF,$FF,$FF
	$F4AC               .byte $FF,$FF,$FF,$FF,$FF,$FF,$FF,$FF,$FF,$FF,$FF,$FF,$FF,$FF,$FF,$FF
	$F4BC               .byte $FF,$FF,$FF,$FF,$FF,$FF,$FF,$FF,$FF,$FF,$FF,$FF,$FF,$FF,$FF,$FF
	$F4CC               .byte $FF,$FF,$FF,$FF,$FF,$FF,$FF,$FF,$FF,$FF,$FF,$FF,$FF,$FF,$FF,$FF
	$F4DC               .byte $FF,$FF,$FF,$FF,$FF,$FF,$FF,$FF,$FF,$FF,$FF,$FF,$FF,$FF,$FF,$FF
	$F4EC               .byte $FF,$FF,$FF,$FF,$FF,$FF,$FF,$FF,$FF,$FF,$FF,$FF,$FF,$FF,$FF,$FF
	$F4FC               .byte $FF,$FF,$FF,$FF,$FF,$FF,$FF,$FF,$FF,$FF,$FF,$FF,$FF,$FF,$FF,$FF
	$F50C               .byte $FF,$FF,$FF,$FF,$FF,$FF,$FF,$FF,$FF,$FF,$FF,$FF,$FF,$FF,$FF,$FF
	$F51C               .byte $FF,$FF,$FF,$FF,$FF,$FF,$FF,$FF,$FF,$FF,$FF,$FF,$FF,$FF,$FF,$FF
	$F52C               .byte $FF,$FF,$FF,$FF,$FF,$FF,$FF,$FF,$FF,$FF,$FF,$FF,$FF,$FF,$FF,$FF
	$F53C               .byte $FF,$FF,$FF,$FF,$FF,$FF,$FF,$FF,$FF,$FF,$FF,$FF,$FF,$FF,$FF,$FF
	$F54C               .byte $FF,$FF,$FF,$FF,$FF,$FF,$FF,$FF,$FF,$FF,$FF,$FF,$FF,$FF,$FF,$FF
	$F55C               .byte $FF,$FF,$FF,$FF,$FF,$FF,$FF,$FF,$FF,$FF,$FF,$FF,$FF,$FF,$FF,$FF
	$F56C               .byte $FF,$FF,$FF,$FF,$FF,$FF,$FF,$FF,$FF,$FF,$FF,$FF,$FF,$FF,$FF,$FF
	$F57C               .byte $FF,$FF,$FF,$FF,$FF,$FF,$FF,$FF,$FF,$FF,$FF,$FF,$FF,$FF,$FF,$FF
	$F58C               .byte $FF,$FF,$FF,$FF,$FF,$FF,$FF,$FF,$FF,$FF,$FF,$FF,$FF,$FF,$FF,$FF
	$F59C               .byte $FF,$FF,$FF,$FF,$FF,$FF,$FF,$FF,$FF,$FF,$FF,$FF,$FF,$FF,$FF,$FF
	$F5AC               .byte $FF,$FF,$FF,$FF,$FF,$FF,$FF,$FF,$FF,$FF,$FF,$FF,$FF,$FF,$FF,$FF
	$F5BC               .byte $FF,$FF,$FF,$FF,$FF,$FF,$FF,$FF,$FF,$FF,$FF,$FF,$FF,$FF,$FF,$FF
	$F5CC               .byte $FF,$FF,$FF,$FF,$FF,$FF,$FF,$FF,$FF,$FF,$FF,$FF,$FF,$FF,$FF,$FF
	$F5DC               .byte $FF,$FF,$FF,$FF,$FF,$FF,$FF,$FF,$FF,$FF,$FF,$FF,$FF,$FF,$FF,$FF
	$F5EC               .byte $FF,$FF,$FF,$FF,$FF,$FF,$FF,$FF,$FF,$FF,$FF,$FF,$FF,$FF,$FF,$FF
	$F5FC               .byte $FF,$FF,$FF,$FF,$FF,$FF,$FF,$FF,$FF,$FF,$FF,$FF,$FF,$FF,$FF,$FF
	$F60C               .byte $FF,$FF,$FF,$FF,$FF,$FF,$FF,$FF,$FF,$FF,$FF,$FF,$FF,$FF,$FF,$FF
	$F61C               .byte $FF,$FF,$FF,$FF,$FF,$FF,$FF,$FF,$FF,$FF,$FF,$FF,$FF,$FF,$FF,$FF
	$F62C               .byte $FF,$FF,$FF,$FF,$FF,$FF,$FF,$FF,$FF,$FF,$FF,$FF,$FF,$FF,$FF,$FF
	$F63C               .byte $FF,$FF,$FF,$FF,$FF,$FF,$FF,$FF,$FF,$FF,$FF,$FF,$FF,$FF,$FF,$FF
	$F64C               .byte $FF,$FF,$FF,$FF,$FF,$FF,$FF,$FF,$FF,$FF,$FF,$FF,$FF,$FF,$FF,$FF
	$F65C               .byte $FF,$FF,$FF,$FF,$FF,$FF,$FF,$FF,$FF,$FF,$FF,$FF,$FF,$FF,$FF,$FF
	$F66C               .byte $FF,$FF,$FF,$FF,$FF,$FF,$FF,$FF,$FF,$FF,$FF,$FF,$FF,$FF,$FF,$FF
	$F67C               .byte $FF,$FF,$FF,$FF,$FF,$FF,$FF,$FF,$FF,$FF,$FF,$FF,$FF,$FF,$FF,$FF
	$F68C               .byte $FF,$FF,$FF,$FF,$FF,$FF,$FF,$FF,$FF,$FF,$FF,$FF,$FF,$FF,$FF,$FF
	$F69C               .byte $FF,$FF,$FF,$FF,$FF,$FF,$FF,$FF,$FF,$FF,$FF,$FF,$FF,$FF,$FF,$FF
	$F6AC               .byte $FF,$FF,$FF,$FF,$FF,$FF,$FF,$FF,$FF,$FF,$FF,$FF,$FF,$FF,$FF,$FF
	$F6BC               .byte $FF,$FF,$FF,$FF,$FF,$FF,$FF,$FF,$FF,$FF,$FF,$FF,$FF,$FF,$FF,$FF
	$F6CC               .byte $FF,$FF,$FF,$FF,$FF,$FF,$FF,$FF,$FF,$FF,$FF,$FF,$FF,$FF,$FF,$FF
	$F6DC               .byte $FF,$FF,$FF,$FF,$FF,$FF,$FF,$FF,$FF,$FF,$FF,$FF,$FF,$FF,$FF,$FF
	$F6EC               .byte $FF,$FF,$FF,$FF,$FF,$FF,$FF,$FF,$FF,$FF,$FF,$FF,$FF,$FF,$FF,$FF
	$F6FC               .byte $FF,$FF,$FF,$FF,$FF,$FF,$FF,$FF,$FF,$FF,$FF,$FF,$FF,$FF,$FF,$FF
	$F70C               .byte $FF,$FF,$FF,$FF,$FF,$FF,$FF,$FF,$FF,$FF,$FF,$FF,$FF,$FF,$FF,$FF
	$F71C               .byte $FF,$FF,$FF,$FF,$FF,$FF
_data_7722
	$F722               .byte $FF,$FF,$FF,$FF,$FF,$FF,$FF,$FF,$FF,$FF,$FF,$FF,$FF,$FF,$FF,$FF
	$F732               .byte $FF,$FF,$FF,$FF,$FF,$FF,$FF,$FF,$FF,$FF,$FF,$FF,$FF,$FF,$FF,$FF
	$F742               .byte $FF,$FF,$FF,$FF,$FF,$FF,$FF,$FF,$FF,$FF,$FF,$FF,$FF,$FF,$FF,$FF
	$F752               .byte $FF,$FF,$FF,$FF,$FF,$FF,$FF,$FF,$FF,$FF,$FF,$FF,$FF,$FF,$FF,$FF
	$F762               .byte $FF,$FF,$FF,$FF,$FF,$FF,$FF,$FF,$FF,$FF,$FF,$FF,$FF,$FF,$FF,$FF
	$F772               .byte $FF,$FF,$FF,$FF,$FF,$FF,$FF,$FF,$FF,$FF,$FF,$FF,$FF,$FF,$FF,$FF
	$F782               .byte $FF,$FF,$FF,$FF,$FF,$FF,$FF,$FF,$FF,$FF,$FF,$FF,$FF,$FF,$FF,$FF
	$F792               .byte $FF,$FF,$FF,$FF,$FF,$FF,$FF,$FF,$FF,$FF,$FF,$FF,$FF,$FF,$FF,$FF
	$F7A2               .byte $FF,$FF,$FF,$FF,$FF,$FF,$FF,$FF,$FF,$FF,$FF,$FF,$FF,$FF,$FF,$FF
	$F7B2               .byte $FF,$FF,$FF,$FF,$FF,$FF,$FF,$FF,$FF,$FF,$FF,$FF,$FF,$FF,$FF,$FF
	$F7C2               .byte $FF,$FF,$FF,$FF,$FF,$FF,$FF,$FF,$FF,$FF,$FF,$FF,$FF,$FF,$FF,$FF
	$F7D2               .byte $FF,$FF,$FF,$FF,$FF,$FF,$FF,$FF,$FF,$FF,$FF,$FF,$FF,$FF,$FF,$FF
	$F7E2               .byte $FF,$FF,$FF,$FF,$FF,$FF,$FF,$FF,$FF,$FF,$FF,$FF,$FF,$FF,$FF,$FF
	$F7F2               .byte $FF,$FF,$FF,$FF,$FF,$FF,$FF,$FF,$FF,$FF,$FF,$FF,$FF,$FF,$FF,$FF
	$F802               .byte $FF,$FF,$FF,$FF,$FF,$FF,$FF,$FF,$FF,$FF,$FF,$FF,$FF,$FF,$FF,$FF
	$F812               .byte $FF,$FF,$FF,$FF,$FF,$FF,$FF,$FF,$FF,$FF,$FF,$FF,$FF,$FF,$FF,$FF
	$F822               .byte $FF,$FF,$FF,$FF,$FF,$FF,$FF,$FF,$FF,$FF,$FF,$FF,$FF,$FF,$FF,$FF
	$F832               .byte $FF,$FF,$FF,$FF,$FF,$FF,$FF,$FF,$FF,$FF,$FF,$FF,$FF,$FF,$FF,$FF
	$F842               .byte $FF,$FF,$FF,$FF,$FF,$FF,$FF,$FF,$FF,$FF,$FF,$FF,$FF,$FF,$FF,$FF
	$F852               .byte $FF,$FF,$FF,$FF,$FF,$FF,$FF,$FF,$FF,$FF,$FF,$FF,$FF,$FF,$FF,$FF
	$F862               .byte $FF,$FF,$FF,$FF,$FF,$FF,$FF,$FF,$FF,$FF,$FF,$FF,$FF,$FF,$FF,$FF
	$F872               .byte $FF,$FF,$FF,$FF,$FF,$FF,$FF,$FF,$FF,$FF,$FF,$FF,$FF,$FF,$FF,$FF
	$F882               .byte $FF,$FF,$FF,$FF,$FF,$FF,$FF,$FF,$FF,$FF,$FF,$FF,$FF,$FF,$FF,$FF
	$F892               .byte $FF,$FF,$FF,$FF,$FF,$FF,$FF,$FF,$FF,$FF,$FF,$FF,$FF,$FF,$FF,$FF
	$F8A2               .byte $FF,$FF,$FF,$FF,$FF,$FF,$FF,$FF,$FF,$FF,$FF,$FF,$FF,$FF,$FF,$FF
	$F8B2               .byte $FF,$FF,$FF,$FF,$FF,$FF,$FF,$FF,$FF,$FF,$FF,$FF,$FF,$FF,$FF,$FF
	$F8C2               .byte $FF,$FF,$FF,$FF,$FF,$FF,$FF,$FF,$FF,$FF,$FF,$FF,$FF,$FF,$FF,$FF
	$F8D2               .byte $FF,$FF,$FF,$FF,$FF,$FF,$FF,$FF,$FF,$FF,$FF,$FF,$FF,$FF,$FF,$FF
	$F8E2               .byte $FF,$FF,$FF,$FF,$FF,$FF,$FF,$FF,$FF,$FF,$FF,$FF,$FF,$FF,$FF,$FF
	$F8F2               .byte $FF,$FF,$FF,$FF,$FF,$FF,$FF,$FF,$FF,$FF,$FF,$FF,$FF,$FF,$FF,$FF
	$F902               .byte $FF,$FF,$FF,$FF,$FF,$FF,$FF,$FF,$FF,$FF,$FF,$FF,$FF,$FF,$FF,$FF
	$F912               .byte $FF,$FF,$FF,$FF,$FF,$FF,$FF,$FF,$FF,$FF,$FF,$FF,$FF,$FF,$FF,$FF
	$F922               .byte $FF,$FF,$FF,$FF,$FF,$FF,$FF,$FF,$FF,$FF,$FF,$FF,$FF,$FF,$FF,$FF
	$F932               .byte $FF,$FF,$FF,$FF,$FF,$FF,$FF,$FF,$FF,$FF,$FF,$FF,$FF,$FF,$FF,$FF
	$F942               .byte $FF,$FF,$FF,$FF,$FF,$FF,$FF,$FF,$FF,$FF,$FF,$FF,$FF,$FF,$FF,$FF
	$F952               .byte $FF,$FF,$FF,$FF,$FF,$FF,$FF,$FF,$FF,$FF,$FF,$FF,$FF,$FF,$FF,$FF
	$F962               .byte $FF,$FF,$FF,$FF,$FF,$FF,$FF,$FF,$FF,$FF,$FF,$FF,$FF,$FF,$FF,$FF
	$F972               .byte $FF,$FF,$FF,$FF,$FF,$FF,$FF,$FF,$FF,$FF,$FF,$FF,$FF,$FF,$FF,$FF
	$F982               .byte $FF,$FF,$FF,$FF,$FF,$FF,$FF,$FF,$FF,$FF,$FF,$FF,$FF,$FF,$FF,$FF
	$F992               .byte $FF,$FF,$FF,$FF,$FF,$FF,$FF,$FF,$FF,$FF,$FF,$FF,$FF,$FF,$FF,$FF
	$F9A2               .byte $FF,$FF,$FF,$FF,$FF,$FF,$FF,$FF,$FF,$FF,$FF,$FF,$FF,$FF,$FF,$FF
	$F9B2               .byte $FF,$FF,$FF,$FF,$FF,$FF,$FF,$FF,$FF,$FF,$FF,$FF,$FF,$FF,$FF,$FF
	$F9C2               .byte $FF,$FF,$FF,$FF,$FF,$FF,$FF,$FF,$FF,$FF,$FF,$FF,$FF,$FF,$FF,$FF
	$F9D2               .byte $FF,$FF,$FF,$FF,$FF,$FF,$FF,$FF,$FF,$FF,$FF,$FF,$FF,$FF,$FF,$FF
	$F9E2               .byte $FF,$FF,$FF,$FF,$FF,$FF,$FF,$FF,$FF,$FF,$FF,$FF,$FF,$FF,$FF,$FF
	$F9F2               .byte $FF,$FF,$FF,$FF,$FF,$FF,$FF,$FF,$FF,$FF,$FF,$FF,$FF,$FF,$FF,$FF
	$FA02               .byte $FF,$FF,$FF,$FF,$FF,$FF,$FF,$FF,$FF,$FF,$FF,$FF,$FF,$FF,$FF,$FF
	$FA12               .byte $FF,$FF,$FF,$FF,$FF,$FF,$FF,$FF,$FF,$FF,$FF,$FF,$FF,$FF,$FF,$FF
	$FA22               .byte $FF,$FF,$FF,$FF,$FF,$FF,$FF,$FF,$FF,$FF,$FF,$FF,$FF,$FF,$FF,$FF
	$FA32               .byte $FF,$FF,$FF,$FF,$FF,$FF,$FF,$FF,$FF,$FF,$FF,$FF,$FF,$FF,$FF,$FF
	$FA42               .byte $FF,$FF,$FF,$FF,$FF,$FF,$FF,$FF,$FF,$FF,$FF,$FF,$FF,$FF,$FF,$FF
	$FA52               .byte $FF,$FF,$FF,$FF,$FF,$FF,$FF,$FF,$FF,$FF,$FF,$FF,$FF,$FF,$FF,$FF
	$FA62               .byte $FF,$FF,$FF,$FF,$FF,$FF,$FF,$FF,$FF,$FF,$FF,$FF,$FF,$FF,$FF,$FF
	$FA72               .byte $FF,$FF,$FF,$FF,$FF,$FF,$FF,$FF,$FF,$FF,$FF,$FF,$FF,$FF,$FF,$FF
	$FA82               .byte $FF,$FF,$FF,$FF,$FF,$FF,$FF,$FF,$FF,$FF,$FF,$FF,$FF,$FF,$FF,$FF
	$FA92               .byte $FF,$FF,$FF,$FF,$FF,$FF,$FF,$FF,$FF,$FF,$FF,$FF,$FF,$FF,$FF,$FF
	$FAA2               .byte $FF,$FF,$FF,$FF,$FF,$FF,$FF,$FF,$FF,$FF,$FF,$FF,$FF,$FF,$FF,$FF
	$FAB2               .byte $FF,$FF,$FF,$FF,$FF,$FF,$FF,$FF,$FF,$FF,$FF,$FF,$FF,$FF,$FF,$FF
	$FAC2               .byte $FF,$FF,$FF,$FF,$FF,$FF,$FF,$FF,$FF,$FF,$FF,$FF,$FF,$FF,$FF,$FF
	$FAD2               .byte $FF,$FF,$FF,$FF,$FF,$FF,$FF,$FF,$FF,$FF,$FF,$FF,$FF,$FF,$FF,$FF
	$FAE2               .byte $FF,$FF,$FF,$FF,$FF,$FF,$FF,$FF,$FF,$FF,$FF,$FF,$FF,$FF,$FF,$FF
	$FAF2               .byte $FF,$FF,$FF,$FF,$FF,$FF,$FF,$FF,$FF,$FF,$FF,$FF,$FF,$FF,$FF,$FF
	$FB02               .byte $FF,$FF,$FF,$FF,$FF,$FF,$FF,$FF,$FF,$FF,$FF,$FF,$FF,$FF,$FF,$FF
	$FB12               .byte $FF,$FF,$FF,$FF,$FF,$FF,$FF,$FF,$FF,$FF,$FF,$FF,$FF,$FF,$FF,$FF
	$FB22               .byte $FF,$FF,$FF,$FF,$FF,$FF,$FF,$FF,$FF,$FF,$FF,$FF,$FF,$FF,$FF,$FF
	$FB32               .byte $FF,$FF,$FF,$FF,$FF,$FF,$FF,$FF,$FF,$FF,$FF,$FF,$FF,$FF,$FF,$FF
	$FB42               .byte $FF,$FF,$FF,$FF,$FF,$FF,$FF,$FF,$FF,$FF,$FF,$FF,$FF,$FF,$FF,$FF
	$FB52               .byte $FF,$FF,$FF,$FF,$FF,$FF,$FF,$FF,$FF,$FF,$FF,$FF,$FF,$FF,$FF,$FF
	$FB62               .byte $FF,$FF,$FF,$FF,$FF,$FF,$FF,$FF,$FF,$FF,$FF,$FF,$FF,$FF,$FF,$FF
	$FB72               .byte $FF,$FF,$FF,$FF,$FF,$FF,$FF,$FF,$FF,$FF,$FF,$FF,$FF,$FF,$FF,$FF
	$FB82               .byte $FF,$FF,$FF,$FF,$FF,$FF,$FF,$FF,$FF,$FF,$FF,$FF,$FF,$FF,$FF,$FF
	$FB92               .byte $FF,$FF,$FF,$FF,$FF,$FF,$FF,$FF,$FF,$FF,$FF,$FF,$FF,$FF,$FF,$FF
	$FBA2               .byte $FF,$FF,$FF,$FF,$FF,$FF,$FF,$FF,$FF,$FF,$FF,$FF,$FF,$FF,$FF,$FF
	$FBB2               .byte $FF,$FF,$FF,$FF,$FF,$FF,$FF,$FF,$FF,$FF,$FF,$FF,$FF,$FF,$FF,$FF
	$FBC2               .byte $FF,$FF,$FF,$FF,$FF,$FF,$FF,$FF,$FF,$FF,$FF,$FF,$FF,$FF,$FF,$FF
	$FBD2               .byte $FF,$FF,$FF,$FF,$FF,$FF,$FF,$FF,$FF,$FF,$FF,$FF,$FF,$FF,$FF,$FF
	$FBE2               .byte $FF,$FF,$FF,$FF,$FF,$FF,$FF,$FF,$FF,$FF,$FF,$FF,$FF,$FF,$FF,$FF
	$FBF2               .byte $FF,$FF,$FF,$FF,$FF,$FF,$FF,$FF,$FF,$FF,$FF,$FF,$FF,$FF,$FF,$FF
	$FC02               .byte $FF,$FF,$FF,$FF,$FF,$FF,$FF,$FF,$FF,$FF,$FF,$FF,$FF,$FF,$FF,$FF
	$FC12               .byte $FF,$FF,$FF,$FF,$FF,$FF,$FF,$FF,$FF,$FF,$FF,$FF,$FF,$FF,$FF,$FF
	$FC22               .byte $FF,$FF,$FF,$FF,$FF,$FF,$FF,$FF,$FF,$FF,$FF,$FF,$FF,$FF,$FF,$FF
	$FC32               .byte $FF,$FF,$FF,$FF,$FF,$FF,$FF,$FF,$FF,$FF,$FF,$FF,$FF,$FF,$FF,$FF
	$FC42               .byte $FF,$FF,$FF,$FF,$FF,$FF,$FF,$FF,$FF,$FF,$FF,$FF,$FF,$FF,$FF,$FF
	$FC52               .byte $FF,$FF,$FF,$FF,$FF,$FF,$FF,$FF,$FF,$FF,$FF,$FF,$FF,$FF,$FF,$FF
	$FC62               .byte $FF,$FF,$FF,$FF,$FF,$FF,$FF,$FF,$FF,$FF,$FF,$FF,$FF,$FF,$FF,$FF
	$FC72               .byte $FF,$FF,$FF,$FF,$FF,$FF,$FF,$FF,$FF,$FF,$FF,$FF,$FF,$FF,$FF,$FF
	$FC82               .byte $FF,$FF,$FF,$FF,$FF,$FF,$FF,$FF,$FF,$FF,$FF,$FF,$FF,$FF,$FF,$FF
	$FC92               .byte $FF,$FF,$FF,$FF,$FF,$FF,$FF,$FF,$FF,$FF,$FF,$FF,$FF,$FF,$FF,$FF
	$FCA2               .byte $FF,$FF,$FF,$FF,$FF,$FF,$FF,$FF,$FF,$FF,$FF,$FF,$FF,$FF,$FF,$FF
	$FCB2               .byte $FF,$FF,$FF,$FF,$FF,$FF,$FF,$FF,$FF,$FF,$FF,$FF,$FF,$FF,$FF,$FF
	$FCC2               .byte $FF,$FF,$FF,$FF,$FF,$FF,$FF,$FF,$FF,$FF,$FF,$FF,$FF,$FF,$FF,$FF
	$FCD2               .byte $FF,$FF,$FF,$FF,$FF,$FF,$FF,$FF,$FF,$FF,$FF,$FF,$FF,$FF,$FF,$FF
	$FCE2               .byte $FF,$FF,$FF,$FF,$FF,$FF,$FF,$FF,$FF,$FF,$FF,$FF,$FF,$FF,$FF,$FF
	$FCF2               .byte $FF,$FF,$FF,$FF,$FF,$FF,$FF,$FF,$FF,$FF,$FF,$FF,$FF,$FF,$FF,$FF
	$FD02               .byte $FF,$FF,$FF,$FF,$FF,$FF,$FF,$FF,$FF,$FF,$FF,$FF,$FF,$FF,$FF,$FF
	$FD12               .byte $FF,$FF,$FF,$FF,$FF,$FF,$FF,$FF,$FF,$FF,$FF,$FF,$FF,$FF,$FF,$FF
	$FD22               .byte $FF,$FF,$FF,$FF,$FF,$FF,$FF,$FF,$FF,$FF,$FF,$FF,$FF,$FF,$FF,$FF
	$FD32               .byte $FF,$FF,$FF,$FF,$FF,$FF,$FF,$FF,$FF,$FF,$FF,$FF,$FF,$FF,$FF,$FF
	$FD42               .byte $FF,$FF,$FF,$FF,$FF,$FF,$FF,$FF,$FF,$FF,$FF,$FF,$FF,$FF,$FF,$FF
	$FD52               .byte $FF,$FF,$FF,$FF,$FF,$FF,$FF,$FF,$FF,$FF,$FF,$FF,$FF,$FF,$FF,$FF
	$FD62               .byte $FF,$FF,$FF,$FF,$FF,$FF,$FF,$FF,$FF,$FF,$FF,$FF,$FF,$FF,$FF,$FF
	$FD72               .byte $FF,$FF,$FF,$FF,$FF,$FF,$FF,$FF,$FF,$FF,$FF,$FF,$FF,$FF,$FF,$FF
	$FD82               .byte $FF,$FF,$FF,$FF,$FF,$FF,$FF,$FF,$FF,$FF,$FF,$FF,$FF,$FF,$FF,$FF
	$FD92               .byte $FF,$FF,$FF,$FF,$FF,$FF,$FF,$FF,$FF,$FF,$FF,$FF,$FF,$FF,$FF,$FF
	$FDA2               .byte $FF,$FF,$FF,$FF,$FF,$FF,$FF,$FF,$FF,$FF,$FF,$FF,$FF,$FF,$FF,$FF
	$FDB2               .byte $FF,$FF,$FF,$FF,$FF,$FF,$FF,$FF,$FF,$FF,$FF,$FF,$FF,$FF,$FF,$FF
	$FDC2               .byte $FF,$FF,$FF,$FF,$FF,$FF,$FF,$FF,$FF,$FF,$FF,$FF,$FF,$FF,$FF,$FF
	$FDD2               .byte $FF,$FF,$FF,$FF,$FF,$FF,$FF,$FF,$FF,$FF,$FF,$FF,$FF,$FF,$FF,$FF
	$FDE2               .byte $FF,$FF,$FF,$FF,$FF,$FF,$FF,$FF,$FF,$FF,$FF,$FF,$FF,$FF,$FF,$FF
	$FDF2               .byte $FF,$FF,$FF,$FF,$FF,$FF,$FF,$FF,$FF,$FF,$FF,$FF,$FF,$FF,$FF,$FF
	$FE02               .byte $FF,$FF,$FF,$FF,$FF,$FF,$FF,$FF,$FF,$FF,$FF,$FF,$FF,$FF,$FF,$FF
	$FE12               .byte $FF,$FF,$FF,$FF,$FF,$FF,$FF,$FF,$FF,$FF,$FF,$FF,$FF,$FF,$FF,$FF
	$FE22               .byte $FF,$FF,$FF,$FF,$FF,$FF,$FF,$FF,$FF,$FF,$FF,$FF,$FF,$FF,$FF,$FF
	$FE32               .byte $FF,$FF,$FF,$FF,$FF,$FF,$FF,$FF,$FF,$FF,$FF,$FF,$FF,$FF,$FF,$FF
	$FE42               .byte $FF,$FF,$FF,$FF,$FF,$FF,$FF,$FF,$FF,$FF,$FF,$FF,$FF,$FF,$FF,$FF
	$FE52               .byte $FF,$FF,$FF,$FF,$FF,$FF,$FF,$FF,$FF,$FF,$FF,$FF,$FF,$FF,$FF,$FF
	$FE62               .byte $FF,$FF,$FF,$FF,$FF,$FF,$FF,$FF,$FF,$FF,$FF,$FF,$FF,$FF,$FF,$FF
	$FE72               .byte $FF,$FF,$FF,$FF,$FF,$FF,$FF,$FF,$FF,$FF,$FF,$FF,$FF,$FF,$FF,$FF
	$FE82               .byte $FF,$FF,$FF,$FF,$FF,$FF,$FF,$FF,$FF,$FF,$FF,$FF,$FF,$FF,$FF,$FF
	$FE92               .byte $FF,$FF,$FF,$FF,$FF,$FF,$FF,$FF,$FF,$FF,$FF,$FF,$FF,$FF,$FF,$FF
	$FEA2               .byte $FF,$FF,$FF,$FF,$FF,$FF,$FF,$FF,$FF,$FF,$FF,$FF,$FF,$FF,$FF,$FF
	$FEB2               .byte $FF,$FF,$FF,$FF,$FF,$FF,$FF,$FF,$FF,$FF,$FF,$FF,$FF,$FF,$FF,$FF
	$FEC2               .byte $FF,$FF,$FF,$FF,$FF,$FF,$FF,$FF,$FF,$FF,$FF,$FF,$FF,$FF,$FF,$FF
	$FED2               .byte $FF,$FF,$FF,$FF,$FF,$FF,$FF,$FF,$FF,$FF,$FF,$FF,$FF,$FF,$FF,$FF
	$FEE2               .byte $FF,$FF,$FF,$FF,$FF,$FF,$FF,$FF,$FF,$FF,$FF,$FF,$FF,$FF,$FF,$FF
	$FEF2               .byte $FF,$FF,$FF,$FF,$FF,$FF,$FF,$FF,$FF,$FF,$FF,$FF,$FF,$FF,$FF,$FF
	$FF02               .byte $FF,$FF,$FF,$FF,$FF,$FF,$FF,$FF,$FF,$FF,$FF,$FF,$FF,$FF,$FF,$FF
	$FF12               .byte $FF,$FF,$FF,$FF,$FF,$FF,$FF,$FF,$FF,$FF,$FF,$FF,$FF,$FF,$FF,$FF
	$FF22               .byte $FF,$FF,$FF,$FF,$FF,$FF,$FF,$FF,$FF,$FF,$FF,$FF,$FF,$FF,$FF,$FF
	$FF32               .byte $FF,$FF,$FF,$FF,$FF,$FF,$FF,$FF,$FF,$FF,$FF,$FF,$FF,$FF,$FF,$FF
	$FF42               .byte $FF,$FF,$FF,$FF,$FF,$FF,$FF,$FF,$FF,$FF,$FF,$FF,$FF,$FF,$FF,$FF
	$FF52               .byte $FF,$FF,$FF,$FF,$FF,$FF,$FF,$FF,$FF,$FF,$FF,$FF,$FF,$FF,$FF,$FF
	$FF62               .byte $FF,$FF,$FF,$FF,$FF,$FF,$FF,$FF,$FF,$FF,$FF,$FF,$FF,$FF
_data_7F70
	$FF70               .byte $FF,$FF,$FF,$FF,$FF,$FF,$FF,$FF,$FF,$FF,$FF,$FF,$FF,$FF,$FF,$FF
	$FF80               .byte $FF,$FF,$FF,$FF,$FF,$FF,$FF,$FF,$FF,$FF,$FF,$FF,$FF,$FF,$FF,$FF
	$FF90               .byte $FF,$FF,$FF,$FF,$FF,$FF,$FF,$FF,$FF,$FF,$FF,$FF,$FF,$FF,$FF,$FF
	$FFA0               .byte $FF,$FF,$FF,$FF,$FF,$FF,$FF,$FF,$FF,$FF,$FF,$FF,$FF,$FF,$FF,$FF
	$FFB0               .byte $FF,$FF,$FF,$FF,$FF,$FF,$FF,$FF,$FF,$FF,$FF,$FF,$FF,$FF,$FF,$FF
	$FFC0               .byte $FF,$FF,$FF,$FF,$FF,$FF,$FF,$FF,$FF,$FF,$FF,$FF,$FF,$FF,$FF,$FF
	$FFD0               .byte $FF,$FF,$FF,$FF,$FF,$FF,$FF,$FF,$FF,$FF,$FF,$FF,$FF,$FF,$FF,$FF
	$FFE0               .byte $FF,$FF,$FF,$FF,$FF,$FF,$FF,$FF,$FF,$FF,$FF,$FF,$FF,$FF,$FF,$FF
	$FFF0               .byte $FF,$FF,$FF,$FF,$FF,$FF,$FF,$FF,$FF,$FF,$71,$84,$00,$80,$FF,$84
