ROM is 32768 bytes, 4 8k-pages, mapper 3
;Mappings:
; Page 4: 0
; Page 5: 2000
; Page 6: 4000
; Page 7: 6000
;Vectors:
; NMI:   E618
; Reset: E57F
; IRQ:   E622
	$8000               .byte $00,$00,$00,$00,$00,$00,$00,$00,$00,$00,$00,$00,$00,$00,$00,$00
	$8010               .byte $00,$00,$00,$00,$00,$00,$00,$00,$00,$00,$00,$00,$00,$00,$00,$00
	$8020               .byte $00,$00,$00,$00,$00,$00,$00,$00,$00,$00,$00,$00,$00,$00,$00,$00
	$8030               .byte $00,$00,$00,$00,$00,$00,$00,$00,$00,$00,$00,$00,$00,$00,$00,$00
	$8040               .byte $00,$00,$00,$00,$00,$00,$00,$00,$00,$00,$00,$00,$00,$00,$00,$00
	$8050               .byte $00,$00,$00,$00,$00,$00,$00,$00,$00,$00,$00,$00,$00,$00,$00,$00
	$8060               .byte $00,$00,$00,$00,$00,$00,$00,$00,$00,$00,$00,$00,$00,$00,$00,$00
	$8070               .byte $00,$00,$00,$00,$00,$00,$00,$00,$00,$00,$00,$00,$00,$00,$00,$00
	$8080               .byte $00,$00,$00,$00,$00,$00,$00,$00,$00,$00,$00,$00,$00,$00,$00,$00
	$8090               .byte $00,$00,$00,$00,$00,$00,$00,$00,$00,$00,$00,$00,$00,$00,$00,$00
	$80A0               .byte $00,$00,$00,$00,$00,$00,$00,$00,$00,$00,$00,$00,$00,$00,$00,$00
	$80B0               .byte $00,$00,$00,$00,$00,$00,$00,$00,$00,$00,$00,$00,$00,$00,$00,$00
	$80C0               .byte $00,$00,$00,$00,$00,$00,$00,$00,$00,$00,$00,$00,$00,$00,$00,$00
	$80D0               .byte $00,$00,$00,$00,$00,$00,$00,$00,$00,$00,$00,$00,$00,$00,$00,$00
	$80E0               .byte $00,$00,$00,$00,$00,$00,$00,$00,$00,$00,$00,$00,$00,$00,$00,$00
	$80F0               .byte $00,$00,$00,$00,$00,$00,$00,$00,$00,$00,$00,$00,$00,$00,$00,$00
	$8100               .byte $00,$00,$00,$00,$00,$00,$00,$00,$00,$00,$00,$00,$00,$00,$00,$00
	$8110               .byte $00,$00,$00,$00,$00,$00,$00,$00,$00,$00,$00,$00,$00,$00,$00,$00
	$8120               .byte $00,$00,$00,$00,$00,$00,$00,$00,$00,$00,$00,$00,$00,$00,$00,$00
	$8130               .byte $00,$00,$00,$00,$00,$00,$00,$00,$00,$00,$00,$00,$00,$00,$00,$00
	$8140               .byte $00,$00,$00,$00,$00,$00,$00,$00,$00,$00,$00,$00,$00,$00,$00,$00
	$8150               .byte $00,$00,$00,$00,$00,$00,$00,$00,$00,$00,$00,$00,$00,$00,$00,$00
	$8160               .byte $00,$00,$00,$00,$00,$00,$00,$00,$00,$00,$00,$00,$00,$00,$00,$00
	$8170               .byte $00,$00,$00,$00,$00,$00,$00,$00,$00,$00,$00,$00,$00,$00,$00,$00
	$8180               .byte $00,$00,$00,$00,$00,$00,$00,$00,$00,$00,$00,$00,$00,$00,$00,$00
	$8190               .byte $00,$00,$00,$00,$00,$00,$00,$00,$00,$00,$00,$00,$00,$00,$00,$00
	$81A0               .byte $00,$00,$00,$00,$00,$00,$00,$00,$00,$00,$00,$00,$00,$00,$00,$00
	$81B0               .byte $00,$00,$00,$00,$00,$00,$00,$00,$00,$00,$00,$00,$00,$00,$00,$00
	$81C0               .byte $00,$00,$00,$00,$00,$00,$00,$00,$00,$00,$00,$00,$00,$00,$00,$00
	$81D0               .byte $00,$00,$00,$00,$00,$00,$00,$00,$00,$00,$00,$00,$00,$00,$00,$00
	$81E0               .byte $00,$00,$00,$00,$00,$00,$00,$00,$00,$00,$00,$00,$00,$00,$00,$00
	$81F0               .byte $00,$00,$00,$00,$00,$00,$00,$00,$00,$00,$00,$00,$00,$00,$00,$00
	$8200               .byte $00,$00,$00,$00,$00,$00,$00,$00,$00,$00,$00,$00,$00,$00,$00,$00
	$8210               .byte $00,$00,$00,$00,$00,$00,$00,$00,$00,$00,$00,$00,$00,$00,$00,$00
	$8220               .byte $00,$00,$00,$00,$00,$00,$00,$00,$00,$00,$00,$00,$00,$00,$00,$00
	$8230               .byte $00,$00,$00,$00,$00,$00,$00,$00,$00,$00,$00,$00,$00,$00,$00,$00
	$8240               .byte $00,$00,$00,$00,$00,$00,$00,$00,$00,$00,$00,$00,$00,$00,$00,$00
	$8250               .byte $00,$00,$00,$00,$00,$00,$00,$00,$00,$00,$00,$00,$00,$00,$00,$00
	$8260               .byte $00,$00,$00,$00,$00,$00,$00,$00,$00,$00,$00,$00,$00,$00,$00,$00
	$8270               .byte $00,$00,$00,$00,$00,$00,$00,$00,$00,$00,$00,$00,$00,$00,$00,$00
	$8280               .byte $00,$00,$00,$00,$00,$00,$00,$00,$00,$00,$00,$00,$00,$00,$00,$00
	$8290               .byte $00,$00,$00,$00,$00,$00,$00,$00,$00,$00,$00,$00,$00,$00,$00,$00
	$82A0               .byte $00,$00,$00,$00,$00,$00,$00,$00,$00,$00,$00,$00,$00,$00,$00,$00
	$82B0               .byte $00,$00,$00,$00,$00,$00,$00,$00,$00,$00,$00,$00,$00,$00,$00,$00
	$82C0               .byte $00,$00,$00,$00,$00,$00,$00,$00,$00,$00,$00,$00,$00,$00,$00,$00
	$82D0               .byte $00,$00,$00,$00,$00,$00,$00,$00,$00,$00,$00,$00,$00,$00,$00,$00
	$82E0               .byte $00,$00,$00,$00,$00,$00,$00,$00,$00,$00,$00,$00,$00,$00,$00,$00
	$82F0               .byte $00,$00,$00,$00,$00,$00,$00,$00,$00,$00,$00,$00,$00,$00,$00,$00
	$8300               .byte $00,$00,$00,$00,$00,$00,$00,$00,$00,$00,$00,$00,$00,$00,$00,$00
	$8310               .byte $00,$00,$00,$00,$00,$00,$00,$00,$00,$00,$00,$00,$00,$00,$00,$00
	$8320               .byte $00,$00,$00,$00,$00,$00,$00,$00,$00,$00,$00,$00,$00,$00,$00,$00
	$8330               .byte $00,$00,$00,$00,$00,$00,$00,$00,$00,$00,$00,$00,$00,$00,$00,$00
	$8340               .byte $00,$00,$00,$00,$00,$00,$00,$00,$00,$00,$00,$00,$00,$00,$00,$00
	$8350               .byte $00,$00,$00,$00,$00,$00,$00,$00,$00,$00,$00,$00,$00,$00,$00,$00
	$8360               .byte $00,$00,$00,$00,$00,$00,$00,$00,$00,$00,$00,$00,$00,$00,$00,$00
	$8370               .byte $00,$00,$00,$00,$00,$00,$00,$00,$00,$00,$00,$00,$00,$00,$00,$00
	$8380               .byte $00,$00,$00,$00,$00,$00,$00,$00,$00,$00,$00,$00,$00,$00,$00,$00
	$8390               .byte $00,$00,$00,$00,$00,$00,$00,$00,$00,$00,$00,$00,$00,$00,$00,$00
	$83A0               .byte $00,$00,$00,$00,$00,$00,$00,$00,$00,$00,$00,$00,$00,$00,$00,$00
	$83B0               .byte $00,$00,$00,$00,$00,$00,$00,$00,$00,$00,$00,$00,$00,$00,$00,$00
	$83C0               .byte $00,$00,$00,$00,$00,$00,$00,$00,$00,$00,$00,$00,$00,$00,$00,$00
	$83D0               .byte $00,$00,$00,$00,$00,$00,$00,$00,$00,$00,$00,$00,$00,$00,$00,$00
	$83E0               .byte $00,$00,$00,$00,$00,$00,$00,$00,$00,$00,$00,$00,$00,$00,$00,$00
	$83F0               .byte $00,$00,$00,$00,$00,$00,$00,$00,$00,$00,$00,$00,$00,$00,$00,$00
	$8400               .byte $00,$00,$00,$00,$00,$00,$00,$00,$00,$00,$00,$00,$00,$00,$00,$00
	$8410               .byte $00,$00,$00,$00,$00,$00,$00,$00,$00,$00,$00,$00,$00,$00,$00,$00
	$8420               .byte $00,$00,$00,$00,$00,$00,$00,$00,$00,$00,$00,$00,$00,$00,$00,$00
	$8430               .byte $00,$00,$00,$00,$00,$00,$00,$00,$00,$00,$00,$00,$00,$00,$00,$00
	$8440               .byte $00,$00,$00,$00,$00,$00,$00,$00,$00,$00,$00,$00,$00,$00,$00,$00
	$8450               .byte $00,$00,$00,$00,$00,$00,$00,$00,$00,$00,$00,$00,$00,$00,$00,$00
	$8460               .byte $00,$00,$00,$00,$00,$00,$00,$00,$00,$00,$00,$00,$00,$00,$00,$00
	$8470               .byte $00,$00,$00,$00,$00,$00,$00,$00,$00,$00,$00,$00,$00,$00,$00,$00
	$8480               .byte $00,$00,$00,$00,$00,$00,$00,$00,$00,$00,$00,$00,$00,$00,$00,$00
	$8490               .byte $00,$00,$00,$00,$00,$00,$00,$00,$00,$00,$00,$00,$00,$00,$00,$00
	$84A0               .byte $00,$00,$00,$00,$00,$00,$00,$00,$00,$00,$00,$00,$00,$00,$00,$00
	$84B0               .byte $00,$00,$00,$00,$00,$00,$00,$00,$00,$00,$00,$00,$00,$00,$00,$00
	$84C0               .byte $00,$00,$00,$00,$00,$00,$00,$00,$00,$00,$00,$00,$00,$00,$00,$00
	$84D0               .byte $00,$00,$00,$00,$00,$00,$00,$00,$00,$00,$00,$00,$00,$00,$00,$00
	$84E0               .byte $00,$00,$00,$00,$00,$00,$00,$00,$00,$00,$00,$00,$00,$00,$00,$00
	$84F0               .byte $00,$00,$00,$00,$00,$00,$00,$00,$00,$00,$00,$00,$00,$00,$00,$00
	$8500               .byte $00,$00,$00,$00,$00,$00,$00,$00,$00,$00,$00,$00,$00,$00,$00,$00
	$8510               .byte $00,$00,$00,$00,$00,$00,$00,$00,$00,$00,$00,$00,$00,$00,$00,$00
	$8520               .byte $00,$00,$00,$00,$00,$00,$00,$00,$00,$00,$00,$00,$00,$00,$00,$00
	$8530               .byte $00,$00,$00,$00,$00,$00,$00,$00,$00,$00,$00,$00,$00,$00,$00,$00
	$8540               .byte $00,$00,$00,$00,$00,$00,$00,$00,$00,$00,$00,$00,$00,$00,$00,$00
	$8550               .byte $00,$00,$00,$00,$00,$00,$00,$00,$00,$00,$00,$00,$00,$00,$00,$00
	$8560               .byte $00,$00,$00,$00,$00,$00,$00,$00,$00,$00,$00,$00,$00,$00,$00,$00
	$8570               .byte $00,$00,$00,$00,$00,$00,$00,$00,$00,$00,$00,$00,$00,$00,$00,$00
	$8580               .byte $00,$00,$00,$00,$00,$00,$00,$00,$00,$00,$00,$00,$00,$00,$00,$00
	$8590               .byte $00,$00,$00,$00,$00,$00,$00,$00,$00,$00,$00,$00,$00,$00,$00,$00
	$85A0               .byte $00,$00,$00,$00,$00,$00,$00,$00,$00,$00,$00,$00,$00,$00,$00,$00
	$85B0               .byte $00,$00,$00,$00,$00,$00,$00,$00,$00,$00,$00,$00,$00,$00,$00,$00
	$85C0               .byte $00,$00,$00,$00,$00,$00,$00,$00,$00,$00,$00,$00,$00,$00,$00,$00
	$85D0               .byte $00,$00,$00,$00,$00,$00,$00,$00,$00,$00,$00,$00,$00,$00,$00,$00
	$85E0               .byte $00,$00,$00,$00,$00,$00,$00,$00,$00,$00,$00,$00,$00,$00,$00,$00
	$85F0               .byte $00,$00,$00,$00,$00,$00,$00,$00,$00,$00,$00,$00,$00,$00,$00,$00
	$8600               .byte $00,$00,$00,$00,$00,$00,$00,$00,$00,$00,$00,$00,$00,$00,$00,$00
	$8610               .byte $00,$00,$00,$00,$00,$00,$00,$00,$00,$00,$00,$00,$00,$00,$00,$00
	$8620               .byte $00,$00,$00,$00,$00,$00,$00,$00,$00,$00,$00,$00,$00,$00,$00,$00
	$8630               .byte $00,$00,$00,$00,$00,$00,$00,$00,$00,$00,$00,$00,$00,$00,$00,$00
	$8640               .byte $00,$00,$00,$00,$00,$00,$00,$00,$00,$00,$00,$00,$00,$00,$00,$00
	$8650               .byte $00,$00,$00,$00,$00,$00,$00,$00,$00,$00,$00,$00,$00,$00,$00,$00
	$8660               .byte $00,$00,$00,$00,$00,$00,$00,$00,$00,$00,$00,$00,$00,$00,$00,$00
	$8670               .byte $00,$00,$00,$00,$00,$00,$00,$00,$00,$00,$00,$00,$00,$00,$00,$00
	$8680               .byte $00,$00,$00,$00,$00,$00,$00,$00,$00,$00,$00,$00,$00,$00,$00,$00
	$8690               .byte $00,$00,$00,$00,$00,$00,$00,$00,$00,$00,$00,$00,$00,$00,$00,$00
	$86A0               .byte $00,$00,$00,$00,$00,$00,$00,$00,$00,$00,$00,$00,$00,$00,$00,$00
	$86B0               .byte $00,$00,$00,$00,$00,$00,$00,$00,$00,$00,$00,$00,$00,$00,$00,$00
	$86C0               .byte $00,$00,$00,$00,$00,$00,$00,$00,$00,$00,$00,$00,$00,$00,$00,$00
	$86D0               .byte $00,$00,$00,$00,$00,$00,$00,$00,$00,$00,$00,$00,$00,$00,$00,$00
	$86E0               .byte $00,$00,$00,$00,$00,$00,$00,$00,$00,$00,$00,$00,$00,$00,$00,$00
	$86F0               .byte $00,$00,$00,$00,$00,$00,$00,$00,$00,$00,$00,$00,$00,$00,$00,$00
	$8700               .byte $00,$00,$00,$00,$00,$00,$00,$00,$00,$00,$00,$00,$00,$00,$00,$00
	$8710               .byte $00,$00,$00,$00,$00,$00,$00,$00,$00,$00,$00,$00,$00,$00,$00,$00
	$8720               .byte $00,$00,$00,$00,$00,$00,$00,$00,$00,$00,$00,$00,$00,$00,$00,$00
	$8730               .byte $00,$00,$00,$00,$00,$00,$00,$00,$00,$00,$00,$00,$00,$00,$00,$00
	$8740               .byte $00,$00,$00,$00,$00,$00,$00,$00,$00,$00,$00,$00,$00,$00,$00,$00
	$8750               .byte $00,$00,$00,$00,$00,$00,$00,$00,$00,$00,$00,$00,$00,$00,$00,$00
	$8760               .byte $00,$00,$00,$00,$00,$00,$00,$00,$00,$00,$00,$00,$00,$00,$00,$00
	$8770               .byte $00,$00,$00,$00,$00,$00,$00,$00,$00,$00,$00,$00,$00,$00,$00,$00
	$8780               .byte $00,$00,$00,$00,$00,$00,$00,$00,$00,$00,$00,$00,$00,$00,$00,$00
	$8790               .byte $00,$00,$00,$00,$00,$00,$00,$00,$00,$00,$00,$00,$00,$00,$00,$00
	$87A0               .byte $00,$00,$00,$00,$00,$00,$00,$00,$00,$00,$00,$00,$00,$00,$00,$00
	$87B0               .byte $00,$00,$00,$00,$00,$00,$00,$00,$00,$00,$00,$00,$00,$00,$00,$00
	$87C0               .byte $00,$00,$00,$00,$00,$00,$00,$00,$00,$00,$00,$00,$00,$00,$00,$00
	$87D0               .byte $00,$00,$00,$00,$00,$00,$00,$00,$00,$00,$00,$00,$00,$00,$00,$00
	$87E0               .byte $00,$00,$00,$00,$00,$00,$00,$00,$00,$00,$00,$00,$00,$00,$00,$00
	$87F0               .byte $00,$00,$00,$00,$00,$00,$00,$00,$00,$00,$00,$00,$00,$00,$00,$00
	$8800               .byte $00,$00,$00,$00,$00,$00,$00,$00,$00,$00,$00,$00,$00,$00,$00,$00
	$8810               .byte $00,$00,$00,$00,$00,$00,$00,$00,$00,$00,$00,$00,$00,$00,$00,$00
	$8820               .byte $00,$00,$00,$00,$00,$00,$00,$00,$00,$00,$00,$00,$00,$00,$00,$00
	$8830               .byte $00,$00,$00,$00,$00,$00,$00,$00,$00,$00,$00,$00,$00,$00,$00,$00
	$8840               .byte $00,$00,$00,$00,$00,$00,$00,$00,$00,$00,$00,$00,$00,$00,$00,$00
	$8850               .byte $00,$00,$00,$00,$00,$00,$00,$00,$00,$00,$00,$00,$00,$00,$00,$00
	$8860               .byte $00,$00,$00,$00,$00,$00,$00,$00,$00,$00,$00,$00,$00,$00,$00,$00
	$8870               .byte $00,$00,$00,$00,$00,$00,$00,$00,$00,$00,$00,$00,$00,$00,$00,$00
	$8880               .byte $00,$00,$00,$00,$00,$00,$00,$00,$00,$00,$00,$00,$00,$00,$00,$00
	$8890               .byte $00,$00,$00,$00,$00,$00,$00,$00,$00,$00,$00,$00,$00,$00,$00,$00
	$88A0               .byte $00,$00,$00,$00,$00,$00,$00,$00,$00,$00,$00,$00,$00,$00,$00,$00
	$88B0               .byte $00,$00,$00,$00,$00,$00,$00,$00,$00,$00,$00,$00,$00,$00,$00,$00
	$88C0               .byte $00,$00,$00,$00,$00,$00,$00,$00,$00,$00,$00,$00,$00,$00,$00,$00
	$88D0               .byte $00,$00,$00,$00,$00,$00,$00,$00,$00,$00,$00,$00,$00,$00,$00,$00
	$88E0               .byte $00,$00,$00,$00,$00,$00,$00,$00,$00,$00,$00,$00,$00,$00,$00,$00
	$88F0               .byte $00,$00,$00,$00,$00,$00,$00,$00,$00,$00,$00,$00,$00,$00,$00,$00
	$8900               .byte $00,$00,$00,$00,$00,$00,$00,$00,$00,$00,$00,$00,$00,$00,$00,$00
	$8910               .byte $00,$00,$00,$00,$00,$00,$00,$00,$00,$00,$00,$00,$00,$00,$00,$00
	$8920               .byte $00,$00,$00,$00,$00,$00,$00,$00,$00,$00,$00,$00,$00,$00,$00,$00
	$8930               .byte $00,$00,$00,$00,$00,$00,$00,$00,$00,$00,$00,$00,$00,$00,$00,$00
	$8940               .byte $00,$00,$00,$00,$00,$00,$00,$00,$00,$00,$00,$00,$00,$00,$00,$00
	$8950               .byte $00,$00,$00,$00,$00,$00,$00,$00,$00,$00,$00,$00,$00,$00,$00,$00
	$8960               .byte $00,$00,$00,$00,$00,$00,$00,$00,$00,$00,$00,$00,$00,$00,$00,$00
	$8970               .byte $00,$00,$00,$00,$00,$00,$00,$00,$00,$00,$00,$00,$00,$00,$00,$00
	$8980               .byte $00,$00,$00,$00,$00,$00,$00,$00,$00,$00,$00,$00,$00,$00,$00,$00
	$8990               .byte $00,$00,$00,$00,$00,$00,$00,$00,$00,$00,$00,$00,$00,$00,$00,$00
	$89A0               .byte $00,$00,$00,$00,$00,$00,$00,$00,$00,$00,$00,$00,$00,$00,$00,$00
	$89B0               .byte $00,$00,$00,$00,$00,$00,$00,$00,$00,$00,$00,$00,$00,$00,$00,$00
	$89C0               .byte $00,$00,$00,$00,$00,$00,$00,$00,$00,$00,$00,$00,$00,$00,$00,$00
	$89D0               .byte $00,$00,$00,$00,$00,$00,$00,$00,$00,$00,$00,$00,$00,$00,$00,$00
	$89E0               .byte $00,$00,$00,$00,$00,$00,$00,$00,$00,$00,$00,$00,$00,$00,$00,$00
	$89F0               .byte $00,$00,$00,$00,$00,$00,$00,$00,$00,$00,$00,$00,$00,$00,$00,$00
	$8A00               .byte $00,$00,$00,$00,$00,$00,$00,$00,$00,$00,$00,$00,$00,$00,$00,$00
	$8A10               .byte $00,$00,$00,$00,$00,$00,$00,$00,$00,$00,$00,$00,$00,$00,$00,$00
	$8A20               .byte $00,$00,$00,$00,$00,$00,$00,$00,$00,$00,$00,$00,$00,$00,$00,$00
	$8A30               .byte $00,$00,$00,$00,$00,$00,$00,$00,$00,$00,$00,$00,$00,$00,$00,$00
	$8A40               .byte $00,$00,$00,$00,$00,$00,$00,$00,$00,$00,$00,$00,$00,$00,$00,$00
	$8A50               .byte $00,$00,$00,$00,$00,$00,$00,$00,$00,$00,$00,$00,$00,$00,$00,$00
	$8A60               .byte $00,$00,$00,$00,$00,$00,$00,$00,$00,$00,$00,$00,$00,$00,$00,$00
	$8A70               .byte $00,$00,$00,$00,$00,$00,$00,$00,$00,$00,$00,$00,$00,$00,$00,$00
	$8A80               .byte $00,$00,$00,$00,$00,$00,$00,$00,$00,$00,$00,$00,$00,$00,$00,$00
	$8A90               .byte $00,$00,$00,$00,$00,$00,$00,$00,$00,$00,$00,$00,$00,$00,$00,$00
	$8AA0               .byte $00,$00,$00,$00,$00,$00,$00,$00,$00,$00,$00,$00,$00,$00,$00,$00
	$8AB0               .byte $00,$00,$00,$00,$00,$00,$00,$00,$00,$00,$00,$00,$00,$00,$00,$00
	$8AC0               .byte $00,$00,$00,$00,$00,$00,$00,$00,$00,$00,$00,$00,$00,$00,$00,$00
	$8AD0               .byte $00,$00,$00,$00,$00,$00,$00,$00,$00,$00,$00,$00,$00,$00,$00,$00
	$8AE0               .byte $00,$00,$00,$00,$00,$00,$00,$00,$00,$00,$00,$00,$00,$00,$00,$00
	$8AF0               .byte $00,$00,$00,$00,$00,$00,$00,$00,$00,$00,$00,$00,$00,$00,$00,$00
	$8B00               .byte $00,$00,$00,$00,$00,$00,$00,$00,$00,$00,$00,$00,$00,$00,$00,$00
	$8B10               .byte $00,$00,$00,$00,$00,$00,$00,$00,$00,$00,$00,$00,$00,$00,$00,$00
	$8B20               .byte $00,$00,$00,$00,$00,$00,$00,$00,$00,$00,$00,$00,$00,$00,$00,$00
	$8B30               .byte $00,$00,$00,$00,$00,$00,$00,$00,$00,$00,$00,$00,$00,$00,$00,$00
	$8B40               .byte $00,$00,$00,$00,$00,$00,$00,$00,$00,$00,$00,$00,$00,$00,$00,$00
	$8B50               .byte $00,$00,$00,$00,$00,$00,$00,$00,$00,$00,$00,$00,$00,$00,$00,$00
	$8B60               .byte $00,$00,$00,$00,$00,$00,$00,$00,$00,$00,$00,$00,$00,$00,$00,$00
	$8B70               .byte $00,$00,$00,$00,$00,$00,$00,$00,$00,$00,$00,$00,$00,$00,$00,$00
	$8B80               .byte $00,$00,$00,$00,$00,$00,$00,$00,$00,$00,$00,$00,$00,$00,$00,$00
	$8B90               .byte $00,$00,$00,$00,$00,$00,$00,$00,$00,$00,$00,$00,$00,$00,$00,$00
	$8BA0               .byte $00,$00,$00,$00,$00,$00,$00,$00,$00,$00,$00,$00,$00,$00,$00,$00
	$8BB0               .byte $00,$00,$00,$00,$00,$00,$00,$00,$00,$00,$00,$00,$00,$00,$00,$00
	$8BC0               .byte $00,$00,$00,$00,$00,$00,$00,$00,$00,$00,$00,$00,$00,$00,$00,$00
	$8BD0               .byte $00,$00,$00,$00,$00,$00,$00,$00,$00,$00,$00,$00,$00,$00,$00,$00
	$8BE0               .byte $00,$00,$00,$00,$00,$00,$00,$00,$00,$00,$00,$00,$00,$00,$00,$00
	$8BF0               .byte $00,$00,$00,$00,$00,$00,$00,$00,$00,$00,$00,$00,$00,$00,$00,$00
	$8C00               .byte $00,$00,$00,$00,$00,$00,$00,$00,$00,$00,$00,$00,$00,$00,$00,$00
	$8C10               .byte $00,$00,$00,$00,$00,$00,$00,$00,$00,$00,$00,$00,$00,$00,$00,$00
	$8C20               .byte $00,$00,$00,$00,$00,$00,$00,$00,$00,$00,$00,$00,$00,$00,$00,$00
	$8C30               .byte $00,$00,$00,$00,$00,$00,$00,$00,$00,$00,$00,$00,$00,$00,$00,$00
	$8C40               .byte $00,$00,$00,$00,$00,$00,$00,$00,$00,$00,$00,$00,$00,$00,$00,$00
	$8C50               .byte $00,$00,$00,$00,$00,$00,$00,$00,$00,$00,$00,$00,$00,$00,$00,$00
	$8C60               .byte $00,$00,$00,$00,$00,$00,$00,$00,$00,$00,$00,$00,$00,$00,$00,$00
	$8C70               .byte $00,$00,$00,$00,$00,$00,$00,$00,$00,$00,$00,$00,$00,$00,$00,$00
	$8C80               .byte $00,$00,$00,$00,$00,$00,$00,$00,$00,$00,$00,$00,$00,$00,$00,$00
	$8C90               .byte $00,$00,$00,$00,$00,$00,$00,$00,$00,$00,$00,$00,$00,$00,$00,$00
	$8CA0               .byte $00,$00,$00,$00,$00,$00,$00,$00,$00,$00,$00,$00,$00,$00,$00,$00
	$8CB0               .byte $00,$00,$00,$00,$00,$00,$00,$00,$00,$00,$00,$00,$00,$00,$00,$00
	$8CC0               .byte $00,$00,$00,$00,$00,$00,$00,$00,$00,$00,$00,$00,$00,$00,$00,$00
	$8CD0               .byte $00,$00,$00,$00,$00,$00,$00,$00,$00,$00,$00,$00,$00,$00,$00,$00
	$8CE0               .byte $00,$00,$00,$00,$00,$00,$00,$00,$00,$00,$00,$00,$00,$00,$00,$00
	$8CF0               .byte $00,$00,$00,$00,$00,$00,$00,$00,$00,$00,$00,$00,$00,$00,$00,$00
	$8D00               .byte $00,$00,$00,$00,$00,$00,$00,$00,$00,$00,$00,$00,$00,$00,$00,$00
	$8D10               .byte $00,$00,$00,$00,$00,$00,$00,$00,$00,$00,$00,$00,$00,$00,$00,$00
	$8D20               .byte $00,$00,$00,$00,$00,$00,$00,$00,$00,$00,$00,$00,$00,$00,$00,$00
	$8D30               .byte $00,$00,$00,$00,$00,$00,$00,$00,$00,$00,$00,$00,$00,$00,$00,$00
	$8D40               .byte $00,$00,$00,$00,$00,$00,$00,$00,$00,$00,$00,$00,$00,$00,$00,$00
	$8D50               .byte $00,$00,$00,$00,$00,$00,$00,$00,$00,$00,$00,$00,$00,$00,$00,$00
	$8D60               .byte $00,$00,$00,$00,$00,$00,$00,$00,$00,$00,$00,$00,$00,$00,$00,$00
	$8D70               .byte $00,$00,$00,$00,$00,$00,$00,$00,$00,$00,$00,$00,$00,$00,$00,$00
	$8D80               .byte $00,$00,$00,$00,$00,$00,$00,$00,$00,$00,$00,$00,$00,$00,$00,$00
	$8D90               .byte $00,$00,$00,$00,$00,$00,$00,$00,$00,$00,$00,$00,$00,$00,$00,$00
	$8DA0               .byte $00,$00,$00,$00,$00,$00,$00,$00,$00,$00,$00,$00,$00,$00,$00,$00
	$8DB0               .byte $00,$00,$00,$00,$00,$00,$00,$00,$00,$00,$00,$00,$00,$00,$00,$00
	$8DC0               .byte $00,$00,$00,$00,$00,$00,$00,$00,$00,$00,$00,$00,$00,$00,$00,$00
	$8DD0               .byte $00,$00,$00,$00,$00,$00,$00,$00,$00,$00,$00,$00,$00,$00,$00,$00
	$8DE0               .byte $00,$00,$00,$00,$00,$00,$00,$00,$00,$00,$00,$00,$00,$00,$00,$00
	$8DF0               .byte $00,$00,$00,$00,$00,$00,$00,$00,$00,$00,$00,$00,$00,$00,$00,$00
	$8E00               .byte $00,$00,$00,$00,$00,$00,$00,$00,$00,$00,$00,$00,$00,$00,$00,$00
	$8E10               .byte $00,$00,$00,$00,$00,$00,$00,$00,$00,$00,$00,$00,$00,$00,$00,$00
	$8E20               .byte $00,$00,$00,$00,$00,$00,$00,$00,$00,$00,$00,$00,$00,$00,$00,$00
	$8E30               .byte $00,$00,$00,$00,$00,$00,$00,$00,$00,$00,$00,$00,$00,$00,$00,$00
	$8E40               .byte $00,$00,$00,$00,$00,$00,$00,$00,$00,$00,$00,$00,$00,$00,$00,$00
	$8E50               .byte $00,$00,$00,$00,$00,$00,$00,$00,$00,$00,$00,$00,$00,$00,$00,$00
	$8E60               .byte $00,$00,$00,$00,$00,$00,$00,$00,$00,$00,$00,$00,$00,$00,$00,$00
	$8E70               .byte $00,$00,$00,$00,$00,$00,$00,$00,$00,$00,$00,$00,$00,$00,$00,$00
	$8E80               .byte $00,$00,$00,$00,$00,$00,$00,$00,$00,$00,$00,$00,$00,$00,$00,$00
	$8E90               .byte $00,$00,$00,$00,$00,$00,$00,$00,$00,$00,$00,$00,$00,$00,$00,$00
	$8EA0               .byte $00,$00,$00,$00,$00,$00,$00,$00,$00,$00,$00,$00,$00,$00,$00,$00
	$8EB0               .byte $00,$00,$00,$00,$00,$00,$00,$00,$00,$00,$00,$00,$00,$00,$00,$00
	$8EC0               .byte $00,$00,$00,$00,$00,$00,$00,$00,$00,$00,$00,$00,$00,$00,$00,$00
	$8ED0               .byte $00,$00,$00,$00,$00,$00,$00,$00,$00,$00,$00,$00,$00,$00,$00,$00
	$8EE0               .byte $00,$00,$00,$00,$00,$00,$00,$00,$00,$00,$00,$00,$00,$00,$00,$00
	$8EF0               .byte $00,$00,$00,$00,$00,$00,$00,$00,$00,$00,$00,$00,$00,$00,$00,$00
	$8F00               .byte $00,$00,$00,$00,$00,$00,$00,$00,$00,$00,$00,$00,$00,$00,$00,$00
	$8F10               .byte $00,$00,$00,$00,$00,$00,$00,$00,$00,$00,$00,$00,$00,$00,$00,$00
	$8F20               .byte $00,$00,$00,$00,$00,$00,$00,$00,$00,$00,$00,$00,$00,$00,$00,$00
	$8F30               .byte $00,$00,$00,$00,$00,$00,$00,$00,$00,$00,$00,$00,$00,$00,$00,$00
	$8F40               .byte $00,$00,$00,$00,$00,$00,$00,$00,$00,$00,$00,$00,$00,$00,$00,$00
	$8F50               .byte $00,$00,$00,$00,$00,$00,$00,$00,$00,$00,$00,$00,$00,$00,$00,$00
	$8F60               .byte $00,$00,$00,$00,$00,$00,$00,$00,$00,$00,$00,$00,$00,$00,$00,$00
	$8F70               .byte $00,$00,$00,$00,$00,$00,$00,$00,$00,$00,$00,$00,$00,$00,$00,$00
	$8F80               .byte $00,$00,$00,$00,$00,$00,$00,$00,$00,$00,$00,$00,$00,$00,$00,$00
	$8F90               .byte $00,$00,$00,$00,$00,$00,$00,$00,$00,$00,$00,$00,$00,$00,$00,$00
	$8FA0               .byte $00,$00,$00,$00,$00,$00,$00,$00,$00,$00,$00,$00,$00,$00,$00,$00
	$8FB0               .byte $00,$00,$00,$00,$00,$00,$00,$00,$00,$00,$00,$00,$00,$00,$00,$00
	$8FC0               .byte $00,$00,$00,$00,$00,$00,$00,$00,$00,$00,$00,$00,$00,$00,$00,$00
	$8FD0               .byte $00,$00,$00,$00,$00,$00,$00,$00,$00,$00,$00,$00,$00,$00,$00,$00
	$8FE0               .byte $00,$00,$00,$00,$00,$00,$00,$00,$00,$00,$00,$00,$00,$00,$00,$00
	$8FF0               .byte $00,$00,$00,$00,$00,$00,$00,$00,$00,$00,$00,$00,$00,$00,$00,$00
	$9000               .byte $00,$00,$00,$00,$00,$00,$00,$00,$00,$00,$00,$00,$00,$00,$00,$00
	$9010               .byte $00,$00,$00,$00,$00,$00,$00,$00,$00,$00,$00,$00,$00,$00,$00,$00
	$9020               .byte $00,$00,$00,$00,$00,$00,$00,$00,$00,$00,$00,$00,$00,$00,$00,$00
	$9030               .byte $00,$00,$00,$00,$00,$00,$00,$00,$00,$00,$00,$00,$00,$00,$00,$00
	$9040               .byte $00,$00,$00,$00,$00,$00,$00,$00,$00,$00,$00,$00,$00,$00,$00,$00
	$9050               .byte $00,$00,$00,$00,$00,$00,$00,$00,$00,$00,$00,$00,$00,$00,$00,$00
	$9060               .byte $00,$00,$00,$00,$00,$00,$00,$00,$00,$00,$00,$00,$00,$00,$00,$00
	$9070               .byte $00,$00,$00,$00,$00,$00,$00,$00,$00,$00,$00,$00,$00,$00,$00,$00
	$9080               .byte $00,$00,$00,$00,$00,$00,$00,$00,$00,$00,$00,$00,$00,$00,$00,$00
	$9090               .byte $00,$00,$00,$00,$00,$00,$00,$00,$00,$00,$00,$00,$00,$00,$00,$00
	$90A0               .byte $00,$00,$00,$00,$00,$00,$00,$00,$00,$00,$00,$00,$00,$00,$00,$00
	$90B0               .byte $00,$00,$00,$00,$00,$00,$00,$00,$00,$00,$00,$00,$00,$00,$00,$00
	$90C0               .byte $00,$00,$00,$00,$00,$00,$00,$00,$00,$00,$00,$00,$00,$00,$00,$00
	$90D0               .byte $00,$00,$00,$00,$00,$00,$00,$00,$00,$00,$00,$00,$00,$00,$00,$00
	$90E0               .byte $00,$00,$00,$00,$00,$00,$00,$00,$00,$00,$00,$00,$00,$00,$00,$00
	$90F0               .byte $00,$00,$00,$00,$00,$00,$00,$00,$00,$00,$00,$00,$00,$00,$00,$00
	$9100               .byte $00,$00,$00,$00,$00,$00,$00,$00,$00,$00,$00,$00,$00,$00,$00,$00
	$9110               .byte $00,$00,$00,$00,$00,$00,$00,$00,$00,$00,$00,$00,$00,$00,$00,$00
	$9120               .byte $00,$00,$00,$00,$00,$00,$00,$00,$00,$00,$00,$00,$00,$00,$00,$00
	$9130               .byte $00,$00,$00,$00,$00,$00,$00,$00,$00,$00,$00,$00,$00,$00,$00,$00
	$9140               .byte $00,$00,$00,$00,$00,$00,$00,$00,$00,$00,$00,$00,$00,$00,$00,$00
	$9150               .byte $00,$00,$00,$00,$00,$00,$00,$00,$00,$00,$00,$00,$00,$00,$00,$00
	$9160               .byte $00,$00,$00,$00,$00,$00,$00,$00,$00,$00,$00,$00,$00,$00,$00,$00
	$9170               .byte $00,$00,$00,$00,$00,$00,$00,$00,$00,$00,$00,$00,$00,$00,$00,$00
	$9180               .byte $00,$00,$00,$00,$00,$00,$00,$00,$00,$00,$00,$00,$00,$00,$00,$00
	$9190               .byte $00,$00,$00,$00,$00,$00,$00,$00,$00,$00,$00,$00,$00,$00,$00,$00
	$91A0               .byte $00,$00,$00,$00,$00,$00,$00,$00,$00,$00,$00,$00,$00,$00,$00,$00
	$91B0               .byte $00,$00,$00,$00,$00,$00,$00,$00,$00,$00,$00,$00,$00,$00,$00,$00
	$91C0               .byte $00,$00,$00,$00,$00,$00,$00,$00,$00,$00,$00,$00,$00,$00,$00,$00
	$91D0               .byte $00,$00,$00,$00,$00,$00,$00,$00,$00,$00,$00,$00,$00,$00,$00,$00
	$91E0               .byte $00,$00,$00,$00,$00,$00,$00,$00,$00,$00,$00,$00,$00,$00,$00,$00
	$91F0               .byte $00,$00,$00,$00,$00,$00,$00,$00,$00,$00,$00,$00,$00,$00,$00,$00
	$9200               .byte $00,$00,$00,$00,$00,$00,$00,$00,$00,$00,$00,$00,$00,$00,$00,$00
	$9210               .byte $00,$00,$00,$00,$00,$00,$00,$00,$00,$00,$00,$00,$00,$00,$00,$00
	$9220               .byte $00,$00,$00,$00,$00,$00,$00,$00,$00,$00,$00,$00,$00,$00,$00,$00
	$9230               .byte $00,$00,$00,$00,$00,$00,$00,$00,$00,$00,$00,$00,$00,$00,$00,$00
	$9240               .byte $00,$00,$00,$00,$00,$00,$00,$00,$00,$00,$00,$00,$00,$00,$00,$00
	$9250               .byte $00,$00,$00,$00,$00,$00,$00,$00,$00,$00,$00,$00,$00,$00,$00,$00
	$9260               .byte $00,$00,$00,$00,$00,$00,$00,$00,$00,$00,$00,$00,$00,$00,$00,$00
	$9270               .byte $00,$00,$00,$00,$00,$00,$00,$00,$00,$00,$00,$00,$00,$00,$00,$00
	$9280               .byte $00,$00,$00,$00,$00,$00,$00,$00,$00,$00,$00,$00,$00,$00,$00,$00
	$9290               .byte $00,$00,$00,$00,$00,$00,$00,$00,$00,$00,$00,$00,$00,$00,$00,$00
	$92A0               .byte $00,$00,$00,$00,$00,$00,$00,$00,$00,$00,$00,$00,$00,$00,$00,$00
	$92B0               .byte $00,$00,$00,$00,$00,$00,$00,$00,$00,$00,$00,$00,$00,$00,$00,$00
	$92C0               .byte $00,$00,$00,$00,$00,$00,$00,$00,$00,$00,$00,$00,$00,$00,$00,$00
	$92D0               .byte $00,$00,$00,$00,$00,$00,$00,$00,$00,$00,$00,$00,$00,$00,$00,$00
	$92E0               .byte $00,$00,$00,$00,$00,$00,$00,$00,$00,$00,$00,$00,$00,$00,$00,$00
	$92F0               .byte $00,$00,$00,$00,$00,$00,$00,$00,$00,$00,$00,$00,$00,$00,$00,$00
	$9300               .byte $00,$00,$00,$00,$00,$00,$00,$00,$00,$00,$00,$00,$00,$00,$00,$00
	$9310               .byte $00,$00,$00,$00,$00,$00,$00,$00,$00,$00,$00,$00,$00,$00,$00,$00
	$9320               .byte $00,$00,$00,$00,$00,$00,$00,$00,$00,$00,$00,$00,$00,$00,$00,$00
	$9330               .byte $00,$00,$00,$00,$00,$00,$00,$00,$00,$00,$00,$00,$00,$00,$00,$00
	$9340               .byte $00,$00,$00,$00,$00,$00,$00,$00,$00,$00,$00,$00,$00,$00,$00,$00
	$9350               .byte $00,$00,$00,$00,$00,$00,$00,$00,$00,$00,$00,$00,$00,$00,$00,$00
	$9360               .byte $00,$00,$00,$00,$00,$00,$00,$00,$00,$00,$00,$00,$00,$00,$00,$00
	$9370               .byte $00,$00,$00,$00,$00,$00,$00,$00,$00,$00,$00,$00,$00,$00,$00,$00
	$9380               .byte $00,$00,$00,$00,$00,$00,$00,$00,$00,$00,$00,$00,$00,$00,$00,$00
	$9390               .byte $00,$00,$00,$00,$00,$00,$00,$00,$00,$00,$00,$00,$00,$00,$00,$00
	$93A0               .byte $00,$00,$00,$00,$00,$00,$00,$00,$00,$00,$00,$00,$00,$00,$00,$00
	$93B0               .byte $00,$00,$00,$00,$00,$00,$00,$00,$00,$00,$00,$00,$00,$00,$00,$00
	$93C0               .byte $00,$00,$00,$00,$00,$00,$00,$00,$00,$00,$00,$00,$00,$00,$00,$00
	$93D0               .byte $00,$00,$00,$00,$00,$00,$00,$00,$00,$00,$00,$00,$00,$00,$00,$00
	$93E0               .byte $00,$00,$00,$00,$00,$00,$00,$00,$00,$00,$00,$00,$00,$00,$00,$00
	$93F0               .byte $00,$00,$00,$00,$00,$00,$00,$00,$00,$00,$00,$00,$00,$00,$00,$00
	$9400               .byte $00,$00,$00,$00,$00,$00,$00,$00,$00,$00,$00,$00,$00,$00,$00,$00
	$9410               .byte $00,$00,$00,$00,$00,$00,$00,$00,$00,$00,$00,$00,$00,$00,$00,$00
	$9420               .byte $00,$00,$00,$00,$00,$00,$00,$00,$00,$00,$00,$00,$00,$00,$00,$00
	$9430               .byte $00,$00,$00,$00,$00,$00,$00,$00,$00,$00,$00,$00,$00,$00,$00,$00
	$9440               .byte $00,$00,$00,$00,$00,$00,$00,$00,$00,$00,$00,$00,$00,$00,$00,$00
	$9450               .byte $00,$00,$00,$00,$00,$00,$00,$00,$00,$00,$00,$00,$00,$00,$00,$00
	$9460               .byte $00,$00,$00,$00,$00,$00,$00,$00,$00,$00,$00,$00,$00,$00,$00,$00
	$9470               .byte $00,$00,$00,$00,$00,$00,$00,$00,$00,$00,$00,$00,$00,$00,$00,$00
	$9480               .byte $00,$00,$00,$00,$00,$00,$00,$00,$00,$00,$00,$00,$00,$00,$00,$00
	$9490               .byte $00,$00,$00,$00,$00,$00,$00,$00,$00,$00,$00,$00,$00,$00,$00,$00
	$94A0               .byte $00,$00,$00,$00,$00,$00,$00,$00,$00,$00,$00,$00,$00,$00,$00,$00
	$94B0               .byte $00,$00,$00,$00,$00,$00,$00,$00,$00,$00,$00,$00,$00,$00,$00,$00
	$94C0               .byte $00,$00,$00,$00,$00,$00,$00,$00,$00,$00,$00,$00,$00,$00,$00,$00
	$94D0               .byte $00,$00,$00,$00,$00,$00,$00,$00,$00,$00,$00,$00,$00,$00,$00,$00
	$94E0               .byte $00,$00,$00,$00,$00,$00,$00,$00,$00,$00,$00,$00,$00,$00,$00,$00
	$94F0               .byte $00,$00,$00,$00,$00,$00,$00,$00,$00,$00,$00,$00,$00,$00,$00,$00
	$9500               .byte $00,$00,$00,$00,$00,$00,$00,$00,$00,$00,$00,$00,$00,$00,$00,$00
	$9510               .byte $00,$00,$00,$00,$00,$00,$00,$00,$00,$00,$00,$00,$00,$00,$00,$00
	$9520               .byte $00,$00,$00,$00,$00,$00,$00,$00,$00,$00,$00,$00,$00,$00,$00,$00
	$9530               .byte $00,$00,$00,$00,$00,$00,$00,$00,$00,$00,$00,$00,$00,$00,$00,$00
	$9540               .byte $00,$00,$00,$00,$00,$00,$00,$00,$00,$00,$00,$00,$00,$00,$00,$00
	$9550               .byte $00,$00,$00,$00,$00,$00,$00,$00,$00,$00,$00,$00,$00,$00,$00,$00
	$9560               .byte $00,$00,$00,$00,$00,$00,$00,$00,$00,$00,$00,$00,$00,$00,$00,$00
	$9570               .byte $00,$00,$00,$00,$00,$00,$00,$00,$00,$00,$00,$00,$00,$00,$00,$00
	$9580               .byte $00,$00,$00,$00,$00,$00,$00,$00,$00,$00,$00,$00,$00,$00,$00,$00
	$9590               .byte $00,$00,$00,$00,$00,$00,$00,$00,$00,$00,$00,$00,$00,$00,$00,$00
	$95A0               .byte $00,$00,$00,$00,$00,$00,$00,$00,$00,$00,$00,$00,$00,$00,$00,$00
	$95B0               .byte $00,$00,$00,$00,$00,$00,$00,$00,$00,$00,$00,$00,$00,$00,$00,$00
	$95C0               .byte $00,$00,$00,$00,$00,$00,$00,$00,$00,$00,$00,$00,$00,$00,$00,$00
	$95D0               .byte $00,$00,$00,$00,$00,$00,$00,$00,$00,$00,$00,$00,$00,$00,$00,$00
	$95E0               .byte $00,$00,$00,$00,$00,$00,$00,$00,$00,$00,$00,$00,$00,$00,$00,$00
	$95F0               .byte $00,$00,$00,$00,$00,$00,$00,$00,$00,$00,$00,$00,$00,$00,$00,$00
	$9600               .byte $00,$00,$00,$00,$00,$00,$00,$00,$00,$00,$00,$00,$00,$00,$00,$00
	$9610               .byte $00,$00,$00,$00,$00,$00,$00,$00,$00,$00,$00,$00,$00,$00,$00,$00
	$9620               .byte $00,$00,$00,$00,$00,$00,$00,$00,$00,$00,$00,$00,$00,$00,$00,$00
	$9630               .byte $00,$00,$00,$00,$00,$00,$00,$00,$00,$00,$00,$00,$00,$00,$00,$00
	$9640               .byte $00,$00,$00,$00,$00,$00,$00,$00,$00,$00,$00,$00,$00,$00,$00,$00
	$9650               .byte $00,$00,$00,$00,$00,$00,$00,$00,$00,$00,$00,$00,$00,$00,$00,$00
	$9660               .byte $00,$00,$00,$00,$00,$00,$00,$00,$00,$00,$00,$00,$00,$00,$00,$00
	$9670               .byte $00,$00,$00,$00,$00,$00,$00,$00,$00,$00,$00,$00,$00,$00,$00,$00
	$9680               .byte $00,$00,$00,$00,$00,$00,$00,$00,$00,$00,$00,$00,$00,$00,$00,$00
	$9690               .byte $00,$00,$00,$00,$00,$00,$00,$00,$00,$00,$00,$00,$00,$00,$00,$00
	$96A0               .byte $00,$00,$00,$00,$00,$00,$00,$00,$00,$00,$00,$00,$00,$00,$00,$00
	$96B0               .byte $00,$00,$00,$00,$00,$00,$00,$00,$00,$00,$00,$00,$00,$00,$00,$00
	$96C0               .byte $00,$00,$00,$00,$00,$00,$00,$00,$00,$00,$00,$00,$00,$00,$00,$00
	$96D0               .byte $00,$00,$00,$00,$00,$00,$00,$00,$00,$00,$00,$00,$00,$00,$00,$00
	$96E0               .byte $00,$00,$00,$00,$00,$00,$00,$00,$00,$00,$00,$00,$00,$00,$00,$00
	$96F0               .byte $00,$00,$00,$00,$00,$00,$00,$00,$00,$00,$00,$00,$00,$00,$00,$00
	$9700               .byte $00,$00,$00,$00,$00,$00,$00,$00,$00,$00,$00,$00,$00,$00,$00,$00
	$9710               .byte $00,$00,$00,$00,$00,$00,$00,$00,$00,$00,$00,$00,$00,$00,$00,$00
	$9720               .byte $00,$00,$00,$00,$00,$00,$00,$00,$00,$00,$00,$00,$00,$00,$00,$00
	$9730               .byte $00,$00,$00,$00,$00,$00,$00,$00,$00,$00,$00,$00,$00,$00,$00,$00
	$9740               .byte $00,$00,$00,$00,$00,$00,$00,$00,$00,$00,$00,$00,$00,$00,$00,$00
	$9750               .byte $00,$00,$00,$00,$00,$00,$00,$00,$00,$00,$00,$00,$00,$00,$00,$00
	$9760               .byte $00,$00,$00,$00,$00,$00,$00,$00,$00,$00,$00,$00,$00,$00,$00,$00
	$9770               .byte $00,$00,$00,$00,$00,$00,$00,$00,$00,$00,$00,$00,$00,$00,$00,$00
	$9780               .byte $00,$00,$00,$00,$00,$00,$00,$00,$00,$00,$00,$00,$00,$00,$00,$00
	$9790               .byte $00,$00,$00,$00,$00,$00,$00,$00,$00,$00,$00,$00,$00,$00,$00,$00
	$97A0               .byte $00,$00,$00,$00,$00,$00,$00,$00,$00,$00,$00,$00,$00,$00,$00,$00
	$97B0               .byte $00,$00,$00,$00,$00,$00,$00,$00,$00,$00,$00,$00,$00,$00,$00,$00
	$97C0               .byte $00,$00,$00,$00,$00,$00,$00,$00,$00,$00,$00,$00,$00,$00,$00,$00
	$97D0               .byte $00,$00,$00,$00,$00,$00,$00,$00,$00,$00,$00,$00,$00,$00,$00,$00
	$97E0               .byte $00,$00,$00,$00,$00,$00,$00,$00,$00,$00,$00,$00,$00,$00,$00,$00
	$97F0               .byte $00,$00,$00,$00,$00,$00,$00,$00,$00,$00,$00,$00,$00,$00,$00,$00
	$9800               .byte $00,$00,$00,$00,$00,$00,$00,$00,$00,$00,$00,$00,$00,$00,$00,$00
	$9810               .byte $00,$00,$00,$00,$00,$00,$00,$00,$00,$00,$00,$00,$00,$00,$00,$00
	$9820               .byte $00,$00,$00,$00,$00,$00,$00,$00,$00,$00,$00,$00,$00,$00,$00,$00
	$9830               .byte $00,$00,$00,$00,$00,$00,$00,$00,$00,$00,$00,$00,$00,$00,$00,$00
	$9840               .byte $00,$00,$00,$00,$00,$00,$00,$00,$00,$00,$00,$00,$00,$00,$00,$00
	$9850               .byte $00,$00,$00,$00,$00,$00,$00,$00,$00,$00,$00,$00,$00,$00,$00,$00
	$9860               .byte $00,$00,$00,$00,$00,$00,$00,$00,$00,$00,$00,$00,$00,$00,$00,$00
	$9870               .byte $00,$00,$00,$00,$00,$00,$00,$00,$00,$00,$00,$00,$00,$00,$00,$00
	$9880               .byte $00,$00,$00,$00,$00,$00,$00,$00,$00,$00,$00,$00,$00,$00,$00,$00
	$9890               .byte $00,$00,$00,$00,$00,$00,$00,$00,$00,$00,$00,$00,$00,$00,$00,$00
	$98A0               .byte $00,$00,$00,$00,$00,$00,$00,$00,$00,$00,$00,$00,$00,$00,$00,$00
	$98B0               .byte $00,$00,$00,$00,$00,$00,$00,$00,$00,$00,$00,$00,$00,$00,$00,$00
	$98C0               .byte $00,$00,$00,$00,$00,$00,$00,$00,$00,$00,$00,$00,$00,$00,$00,$00
	$98D0               .byte $00,$00,$00,$00,$00,$00,$00,$00,$00,$00,$00,$00,$00,$00,$00,$00
	$98E0               .byte $00,$00,$00,$00,$00,$00,$00,$00,$00,$00,$00,$00,$00,$00,$00,$00
	$98F0               .byte $00,$00,$00,$00,$00,$00,$00,$00,$00,$00,$00,$00,$00,$00,$00,$00
	$9900               .byte $00,$00,$00,$00,$00,$00,$00,$00,$00,$00,$00,$00,$00,$00,$00,$00
	$9910               .byte $00,$00,$00,$00,$00,$00,$00,$00,$00,$00,$00,$00,$00,$00,$00,$00
	$9920               .byte $00,$00,$00,$00,$00,$00,$00,$00,$00,$00,$00,$00,$00,$00,$00,$00
	$9930               .byte $00,$00,$00,$00,$00,$00,$00,$00,$00,$00,$00,$00,$00,$00,$00,$00
	$9940               .byte $00,$00,$00,$00,$00,$00,$00,$00,$00,$00,$00,$00,$00,$00,$00,$00
	$9950               .byte $00,$00,$00,$00,$00,$00,$00,$00,$00,$00,$00,$00,$00,$00,$00,$00
	$9960               .byte $00,$00,$00,$00,$00,$00,$00,$00,$00,$00,$00,$00,$00,$00,$00,$00
	$9970               .byte $00,$00,$00,$00,$00,$00,$00,$00,$00,$00,$00,$00,$00,$00,$00,$00
	$9980               .byte $00,$00,$00,$00,$00,$00,$00,$00,$00,$00,$00,$00,$00,$00,$00,$00
	$9990               .byte $00,$00,$00,$00,$00,$00,$00,$00,$00,$00,$00,$00,$00,$00,$00,$00
	$99A0               .byte $00,$00,$00,$00,$00,$00,$00,$00,$00,$00,$00,$00,$00,$00,$00,$00
	$99B0               .byte $00,$00,$00,$00,$00,$00,$00,$00,$00,$00,$00,$00,$00,$00,$00,$00
	$99C0               .byte $00,$00,$00,$00,$00,$00,$00,$00,$00,$00,$00,$00,$00,$00,$00,$00
	$99D0               .byte $00,$00,$00,$00,$00,$00,$00,$00,$00,$00,$00,$00,$00,$00,$00,$00
	$99E0               .byte $00,$00,$00,$00,$00,$00,$00,$00,$00,$00,$00,$00,$00,$00,$00,$00
	$99F0               .byte $00,$00,$00,$00,$00,$00,$00,$00,$00,$00,$00,$00,$00,$00,$00,$00
	$9A00               .byte $00,$00,$00,$00,$00,$00,$00,$00,$00,$00,$00,$00,$00,$00,$00,$00
	$9A10               .byte $00,$00,$00,$00,$00,$00,$00,$00,$00,$00,$00,$00,$00,$00,$00,$00
	$9A20               .byte $00,$00,$00,$00,$00,$00,$00,$00,$00,$00,$00,$00,$00,$00,$00,$00
	$9A30               .byte $00,$00,$00,$00,$00,$00,$00,$00,$00,$00,$00,$00,$00,$00,$00,$00
	$9A40               .byte $00,$00,$00,$00,$00,$00,$00,$00,$00,$00,$00,$00,$00,$00,$00,$00
	$9A50               .byte $00,$00,$00,$00,$00,$00,$00,$00,$00,$00,$00,$00,$00,$00,$00,$00
	$9A60               .byte $00,$00,$00,$00,$00,$00,$00,$00,$00,$00,$00,$00,$00,$00,$00,$00
	$9A70               .byte $00,$00,$00,$00,$00,$00,$00,$00,$00,$00,$00,$00,$00,$00,$00,$00
	$9A80               .byte $00,$00,$00,$00,$00,$00,$00,$00,$00,$00,$00,$00,$00,$00,$00,$00
	$9A90               .byte $00,$00,$00,$00,$00,$00,$00,$00,$00,$00,$00,$00,$00,$00,$00,$00
	$9AA0               .byte $00,$00,$00,$00,$00,$00,$00,$00,$00,$00,$00,$00,$00,$00,$00,$00
	$9AB0               .byte $00,$00,$00,$00,$00,$00,$00,$00,$00,$00,$00,$00,$00,$00,$00,$00
	$9AC0               .byte $00,$00,$00,$00,$00,$00,$00,$00,$00,$00,$00,$00,$00,$00,$00,$00
	$9AD0               .byte $00,$00,$00,$00,$00,$00,$00,$00,$00,$00,$00,$00,$00,$00,$00,$00
	$9AE0               .byte $00,$00,$00,$00,$00,$00,$00,$00,$00,$00,$00,$00,$00,$00,$00,$00
	$9AF0               .byte $00,$00,$00,$00,$00,$00,$00,$00,$00,$00,$00,$00,$00,$00,$00,$00
	$9B00               .byte $00,$00,$00,$00,$00,$00,$00,$00,$00,$00,$00,$00,$00,$00,$00,$00
	$9B10               .byte $00,$00,$00,$00,$00,$00,$00,$00,$00,$00,$00,$00,$00,$00,$00,$00
	$9B20               .byte $00,$00,$00,$00,$00,$00,$00,$00,$00,$00,$00,$00,$00,$00,$00,$00
	$9B30               .byte $00,$00,$00,$00,$00,$00,$00,$00,$00,$00,$00,$00,$00,$00,$00,$00
	$9B40               .byte $00,$00,$00,$00,$00,$00,$00,$00,$00,$00,$00,$00,$00,$00,$00,$00
	$9B50               .byte $00,$00,$00,$00,$00,$00,$00,$00,$00,$00,$00,$00,$00,$00,$00,$00
	$9B60               .byte $00,$00,$00,$00,$00,$00,$00,$00,$00,$00,$00,$00,$00,$00,$00,$00
	$9B70               .byte $00,$00,$00,$00,$00,$00,$00,$00,$00,$00,$00,$00,$00,$00,$00,$00
	$9B80               .byte $00,$00,$00,$00,$00,$00,$00,$00,$00,$00,$00,$00,$00,$00,$00,$00
	$9B90               .byte $00,$00,$00,$00,$00,$00,$00,$00,$00,$00,$00,$00,$00,$00,$00,$00
	$9BA0               .byte $00,$00,$00,$00,$00,$00,$00,$00,$00,$00,$00,$00,$00,$00,$00,$00
	$9BB0               .byte $00,$00,$00,$00,$00,$00,$00,$00,$00,$00,$00,$00,$00,$00,$00,$00
	$9BC0               .byte $00,$00,$00,$00,$00,$00,$00,$00,$00,$00,$00,$00,$00,$00,$00,$00
	$9BD0               .byte $00,$00,$00,$00,$00,$00,$00,$00,$00,$00,$00,$00,$00,$00,$00,$00
	$9BE0               .byte $00,$00,$00,$00,$00,$00,$00,$00,$00,$00,$00,$00,$00,$00,$00,$00
	$9BF0               .byte $00,$00,$00,$00,$00,$00,$00,$00,$00,$00,$00,$00,$00,$00,$00,$00
	$9C00               .byte $00,$00,$00,$00,$00,$00,$00,$00,$00,$00,$00,$00,$00,$00,$00,$00
	$9C10               .byte $00,$00,$00,$00,$00,$00,$00,$00,$00,$00,$00,$00,$00,$00,$00,$00
	$9C20               .byte $00,$00,$00,$00,$00,$00,$00,$00,$00,$00,$00,$00,$00,$00,$00,$00
	$9C30               .byte $00,$00,$00,$00,$00,$00,$00,$00,$00,$00,$00,$00,$00,$00,$00,$00
	$9C40               .byte $00,$00,$00,$00,$00,$00,$00,$00,$00,$00,$00,$00,$00,$00,$00,$00
	$9C50               .byte $00,$00,$00,$00,$00,$00,$00,$00,$00,$00,$00,$00,$00,$00,$00,$00
	$9C60               .byte $00,$00,$00,$00,$00,$00,$00,$00,$00,$00,$00,$00,$00,$00,$00,$00
	$9C70               .byte $00,$00,$00,$00,$00,$00,$00,$00,$00,$00,$00,$00,$00,$00,$00,$00
	$9C80               .byte $00,$00,$00,$00,$00,$00,$00,$00,$00,$00,$00,$00,$00,$00,$00,$00
	$9C90               .byte $00,$00,$00,$00,$00,$00,$00,$00,$00,$00,$00,$00,$00,$00,$00,$00
	$9CA0               .byte $00,$00,$00,$00,$00,$00,$00,$00,$00,$00,$00,$00,$00,$00,$00,$00
	$9CB0               .byte $00,$00,$00,$00,$00,$00,$00,$00,$00,$00,$00,$00,$00,$00,$00,$00
	$9CC0               .byte $00,$00,$00,$00,$00,$00,$00,$00,$00,$00,$00,$00,$00,$00,$00,$00
	$9CD0               .byte $00,$00,$00,$00,$00,$00,$00,$00,$00,$00,$00,$00,$00,$00,$00,$00
	$9CE0               .byte $00,$00,$00,$00,$00,$00,$00,$00,$00,$00,$00,$00,$00,$00,$00,$00
	$9CF0               .byte $00,$00,$00,$00,$00,$00,$00,$00,$00,$00,$00,$00,$00,$00,$00,$00
	$9D00               .byte $00,$00,$00,$00,$00,$00,$00,$00,$00,$00,$00,$00,$00,$00,$00,$00
	$9D10               .byte $00,$00,$00,$00,$00,$00,$00,$00,$00,$00,$00,$00,$00,$00,$00,$00
	$9D20               .byte $00,$00,$00,$00,$00,$00,$00,$00,$00,$00,$00,$00,$00,$00,$00,$00
	$9D30               .byte $00,$00,$00,$00,$00,$00,$00,$00,$00,$00,$00,$00,$00,$00,$00,$00
	$9D40               .byte $00,$00,$00,$00,$00,$00,$00,$00,$00,$00,$00,$00,$00,$00,$00,$00
	$9D50               .byte $00,$00,$00,$00,$00,$00,$00,$00,$00,$00,$00,$00,$00,$00,$00,$00
	$9D60               .byte $00,$00,$00,$00,$00,$00,$00,$00,$00,$00,$00,$00,$00,$00,$00,$00
	$9D70               .byte $00,$00,$00,$00,$00,$00,$00,$00,$00,$00,$00,$00,$00,$00,$00,$00
	$9D80               .byte $00,$00,$00,$00,$00,$00,$00,$00,$00,$00,$00,$00,$00,$00,$00,$00
	$9D90               .byte $00,$00,$00,$00,$00,$00,$00,$00,$00,$00,$00,$00,$00,$00,$00,$00
	$9DA0               .byte $00,$00,$00,$00,$00,$00,$00,$00,$00,$00,$00,$00,$00,$00,$00,$00
	$9DB0               .byte $00,$00,$00,$00,$00,$00,$00,$00,$00,$00,$00,$00,$00,$00,$00,$00
	$9DC0               .byte $00,$00,$00,$00,$00,$00,$00,$00,$00,$00,$00,$00,$00,$00,$00,$00
	$9DD0               .byte $00,$00,$00,$00,$00,$00,$00,$00,$00,$00,$00,$00,$00,$00,$00,$00
	$9DE0               .byte $00,$00,$00,$00,$00,$00,$00,$00,$00,$00,$00,$00,$00,$00,$00,$00
	$9DF0               .byte $00,$00,$00,$00,$00,$00,$00,$00,$00,$00,$00,$00,$00,$00,$00,$00
	$9E00               .byte $00,$00,$00,$00,$00,$00,$00,$00,$00,$00,$00,$00,$00,$00,$00,$00
	$9E10               .byte $00,$00,$00,$00,$00,$00,$00,$00,$00,$00,$00,$00,$00,$00,$00,$00
	$9E20               .byte $00,$00,$00,$00,$00,$00,$00,$00,$00,$00,$00,$00,$00,$00,$00,$00
	$9E30               .byte $00,$00,$00,$00,$00,$00,$00,$00,$00,$00,$00,$00,$00,$00,$00,$00
	$9E40               .byte $00,$00,$00,$00,$00,$00,$00,$00,$00,$00,$00,$00,$00,$00,$00,$00
	$9E50               .byte $00,$00,$00,$00,$00,$00,$00,$00,$00,$00,$00,$00,$00,$00,$00,$00
	$9E60               .byte $00,$00,$00,$00,$00,$00,$00,$00,$00,$00,$00,$00,$00,$00,$00,$00
	$9E70               .byte $00,$00,$00,$00,$00,$00,$00,$00,$00,$00,$00,$00,$00,$00,$00,$00
	$9E80               .byte $00,$00,$00,$00,$00,$00,$00,$00,$00,$00,$00,$00,$00,$00,$00,$00
	$9E90               .byte $00,$00,$00,$00,$00,$00,$00,$00,$00,$00,$00,$00,$00,$00,$00,$00
	$9EA0               .byte $00,$00,$00,$00,$00,$00,$00,$00,$00,$00,$00,$00,$00,$00,$00,$00
	$9EB0               .byte $00,$00,$00,$00,$00,$00,$00,$00,$00,$00,$00,$00,$00,$00,$00,$00
	$9EC0               .byte $00,$00,$00,$00,$00,$00,$00,$00,$00,$00,$00,$00,$00,$00,$00,$00
	$9ED0               .byte $00,$00,$00,$00,$00,$00,$00,$00,$00,$00,$00,$00,$00,$00,$00,$00
	$9EE0               .byte $00,$00,$00,$00,$00,$00,$00,$00,$00,$00,$00,$00,$00,$00,$00,$00
	$9EF0               .byte $00,$00,$00,$00,$00,$00,$00,$00,$00,$00,$00,$00,$00,$00,$00,$00
	$9F00               .byte $00,$00,$00,$00,$00,$00,$00,$00,$00,$00,$00,$00,$00,$00,$00,$00
	$9F10               .byte $00,$00,$00,$00,$00,$00,$00,$00,$00,$00,$00,$00,$00,$00,$00,$00
	$9F20               .byte $00,$00,$00,$00,$00,$00,$00,$00,$00,$00,$00,$00,$00,$00,$00,$00
	$9F30               .byte $00,$00,$00,$00,$00,$00,$00,$00,$00,$00,$00,$00,$00,$00,$00,$00
	$9F40               .byte $00,$00,$00,$00,$00,$00,$00,$00,$00,$00,$00,$00,$00,$00,$00,$00
	$9F50               .byte $00,$00,$00,$00,$00,$00,$00,$00,$00,$00,$00,$00,$00,$00,$00,$00
	$9F60               .byte $00,$00,$00,$00,$00,$00,$00,$00,$00,$00,$00,$00,$00,$00,$00,$00
	$9F70               .byte $00,$00,$00,$00,$00,$00,$00,$00,$00,$00,$00,$00,$00,$00,$00,$00
	$9F80               .byte $00,$00,$00,$00,$00,$00,$00,$00,$00,$00,$00,$00,$00,$00,$00,$00
	$9F90               .byte $00,$00,$00,$00,$00,$00,$00,$00,$00,$00,$00,$00,$00,$00,$00,$00
	$9FA0               .byte $00,$00,$00,$00,$00,$00,$00,$00,$00,$00,$00,$00,$00,$00,$00,$00
	$9FB0               .byte $00,$00,$00,$00,$00,$00,$00,$00,$00,$00,$00,$00,$00,$00,$00,$00
	$9FC0               .byte $00,$00,$00,$00,$00,$00,$00,$00,$00,$00,$00,$00,$00,$00,$00,$00
	$9FD0               .byte $00,$00,$00,$00,$00,$00,$00,$00,$00,$00,$00,$00,$00,$00,$00,$00
	$9FE0               .byte $00,$00,$00,$00,$00,$00,$00,$00,$00,$00,$00,$00,$00,$00,$00,$00
	$9FF0               .byte $00,$00,$00,$00,$00,$00,$00,$00,$00,$00,$00,$00,$00,$00,$00,$00
	$A000               .byte $00,$00,$00,$00,$00,$00,$00,$00,$00,$00,$00,$00,$00,$00,$00,$00
	$A010               .byte $00,$00,$00,$00,$00,$00,$00,$00,$00,$00,$00,$00,$00,$00,$00,$00
	$A020               .byte $00,$00,$00,$00,$00,$00,$00,$00,$00,$00,$00,$00,$00,$00,$00,$00
	$A030               .byte $00,$00,$00,$00,$00,$00,$00,$00,$00,$00,$00,$00,$00,$00,$00,$00
	$A040               .byte $00,$00,$00,$00,$00,$00,$00,$00,$00,$00,$00,$00,$00,$00,$00,$00
	$A050               .byte $00,$00,$00,$00,$00,$00,$00,$00,$00,$00,$00,$00,$00,$00,$00,$00
	$A060               .byte $00,$00,$00,$00,$00,$00,$00,$00,$00,$00,$00,$00,$00,$00,$00,$00
	$A070               .byte $00,$00,$00,$00,$00,$00,$00,$00,$00,$00,$00,$00,$00,$00,$00,$00
	$A080               .byte $00,$00,$00,$00,$00,$00,$00,$00,$00,$00,$00,$00,$00,$00,$00,$00
	$A090               .byte $00,$00,$00,$00,$00,$00,$00,$00,$00,$00,$00,$00,$00,$00,$00,$00
	$A0A0               .byte $00,$00,$00,$00,$00,$00,$00,$00,$00,$00,$00,$00,$00,$00,$00,$00
	$A0B0               .byte $00,$00,$00,$00,$00,$00,$00,$00,$00,$00,$00,$00,$00,$00,$00,$00
	$A0C0               .byte $00,$00,$00,$00,$00,$00,$00,$00,$00,$00,$00,$00,$00,$00,$00,$00
	$A0D0               .byte $00,$00,$00,$00,$00,$00,$00,$00,$00,$00,$00,$00,$00,$00,$00,$00
	$A0E0               .byte $00,$00,$00,$00,$00,$00,$00,$00,$00,$00,$00,$00,$00,$00,$00,$00
	$A0F0               .byte $00,$00,$00,$00,$00,$00,$00,$00,$00,$00,$00,$00,$00,$00,$00,$00
	$A100               .byte $00,$00,$00,$00,$00,$00,$00,$00,$00,$00,$00,$00,$00,$00,$00,$00
	$A110               .byte $00,$00,$00,$00,$00,$00,$00,$00,$00,$00,$00,$00,$00,$00,$00,$00
	$A120               .byte $00,$00,$00,$00,$00,$00,$00,$00,$00,$00,$00,$00,$00,$00,$00,$00
	$A130               .byte $00,$00,$00,$00,$00,$00,$00,$00,$00,$00,$00,$00,$00,$00,$00,$00
	$A140               .byte $00,$00,$00,$00,$00,$00,$00,$00,$00,$00,$00,$00,$00,$00,$00,$00
	$A150               .byte $00,$00,$00,$00,$00,$00,$00,$00,$00,$00,$00,$00,$00,$00,$00,$00
	$A160               .byte $00,$00,$00,$00,$00,$00,$00,$00,$00,$00,$00,$00,$00,$00,$00,$00
	$A170               .byte $00,$00,$00,$00,$00,$00,$00,$00,$00,$00,$00,$00,$00,$00,$00,$00
	$A180               .byte $00,$00,$00,$00,$00,$00,$00,$00,$00,$00,$00,$00,$00,$00,$00,$00
	$A190               .byte $00,$00,$00,$00,$00,$00,$00,$00,$00,$00,$00,$00,$00,$00,$00,$00
	$A1A0               .byte $00,$00,$00,$00,$00,$00,$00,$00,$00,$00,$00,$00,$00,$00,$00,$00
	$A1B0               .byte $00,$00,$00,$00,$00,$00,$00,$00,$00,$00,$00,$00,$00,$00,$00,$00
	$A1C0               .byte $00,$00,$00,$00,$00,$00,$00,$00,$00,$00,$00,$00,$00,$00,$00,$00
	$A1D0               .byte $00,$00,$00,$00,$00,$00,$00,$00,$00,$00,$00,$00,$00,$00,$00,$00
	$A1E0               .byte $00,$00,$00,$00,$00,$00,$00,$00,$00,$00,$00,$00,$00,$00,$00,$00
	$A1F0               .byte $00,$00,$00,$00,$00,$00,$00,$00,$00,$00,$00,$00,$00,$00,$00,$00
	$A200               .byte $00,$00,$00,$00,$00,$00,$00,$00,$00,$00,$00,$00,$00,$00,$00,$00
	$A210               .byte $00,$00,$00,$00,$00,$00,$00,$00,$00,$00,$00,$00,$00,$00,$00,$00
	$A220               .byte $00,$00,$00,$00,$00,$00,$00,$00,$00,$00,$00,$00,$00,$00,$00,$00
	$A230               .byte $00,$00,$00,$00,$00,$00,$00,$00,$00,$00,$00,$00,$00,$00,$00,$00
	$A240               .byte $00,$00,$00,$00,$00,$00,$00,$00,$00,$00,$00,$00,$00,$00,$00,$00
	$A250               .byte $00,$00,$00,$00,$00,$00,$00,$00,$00,$00,$00,$00,$00,$00,$00,$00
	$A260               .byte $00,$00,$00,$00,$00,$00,$00,$00,$00,$00,$00,$00,$00,$00,$00,$00
	$A270               .byte $00,$00,$00,$00,$00,$00,$00,$00,$00,$00,$00,$00,$00,$00,$00,$00
	$A280               .byte $00,$00,$00,$00,$00,$00,$00,$00,$00,$00,$00,$00,$00,$00,$00,$00
	$A290               .byte $00,$00,$00,$00,$00,$00,$00,$00,$00,$00,$00,$00,$00,$00,$00,$00
	$A2A0               .byte $00,$00,$00,$00,$00,$00,$00,$00,$00,$00,$00,$00,$00,$00,$00,$00
	$A2B0               .byte $00,$00,$00,$00,$00,$00,$00,$00,$00,$00,$00,$00,$00,$00,$00,$00
	$A2C0               .byte $00,$00,$00,$00,$00,$00,$00,$00,$00,$00,$00,$00,$00,$00,$00,$00
	$A2D0               .byte $00,$00,$00,$00,$00,$00,$00,$00,$00,$00,$00,$00,$00,$00,$00,$00
	$A2E0               .byte $00,$00,$00,$00,$00,$00,$00,$00,$00,$00,$00,$00,$00,$00,$00,$00
	$A2F0               .byte $00,$00,$00,$00,$00,$00,$00,$00,$00,$00,$00,$00,$00,$00,$00,$00
	$A300               .byte $00,$00,$00,$00,$00,$00,$00,$00,$00,$00,$00,$00,$00,$00,$00,$00
	$A310               .byte $00,$00,$00,$00,$00,$00,$00,$00,$00,$00,$00,$00,$00,$00,$00,$00
	$A320               .byte $00,$00,$00,$00,$00,$00,$00,$00,$00,$00,$00,$00,$00,$00,$00,$00
	$A330               .byte $00,$00,$00,$00,$00,$00,$00,$00,$00,$00,$00,$00,$00,$00,$00,$00
	$A340               .byte $00,$00,$00,$00,$00,$00,$00,$00,$00,$00,$00,$00,$00,$00,$00,$00
	$A350               .byte $00,$00,$00,$00,$00,$00,$00,$00,$00,$00,$00,$00,$00,$00,$00,$00
	$A360               .byte $00,$00,$00,$00,$00,$00,$00,$00,$00,$00,$00,$00,$00,$00,$00,$00
	$A370               .byte $00,$00,$00,$00,$00,$00,$00,$00,$00,$00,$00,$00,$00,$00,$00,$00
	$A380               .byte $00,$00,$00,$00,$00,$00,$00,$00,$00,$00,$00,$00,$00,$00,$00,$00
	$A390               .byte $00,$00,$00,$00,$00,$00,$00,$00,$00,$00,$00,$00,$00,$00,$00,$00
	$A3A0               .byte $00,$00,$00,$00,$00,$00,$00,$00,$00,$00,$00,$00,$00,$00,$00,$00
	$A3B0               .byte $00,$00,$00,$00,$00,$00,$00,$00,$00,$00,$00,$00,$00,$00,$00,$00
	$A3C0               .byte $00,$00,$00,$00,$00,$00,$00,$00,$00,$00,$00,$00,$00,$00,$00,$00
	$A3D0               .byte $00,$00,$00,$00,$00,$00,$00,$00,$00,$00,$00,$00,$00,$00,$00,$00
	$A3E0               .byte $00,$00,$00,$00,$00,$00,$00,$00,$00,$00,$00,$00,$00,$00,$00,$00
	$A3F0               .byte $00,$00,$00,$00,$00,$00,$00,$00,$00,$00,$00,$00,$00,$00,$00,$00
	$A400               .byte $00,$00,$00,$00,$00,$00,$00,$00,$00,$00,$00,$00,$00,$00,$00,$00
	$A410               .byte $00,$00,$00,$00,$00,$00,$00,$00,$00,$00,$00,$00,$00,$00,$00,$00
	$A420               .byte $00,$00,$00,$00,$00,$00,$00,$00,$00,$00,$00,$00,$00,$00,$00,$00
	$A430               .byte $00,$00,$00,$00,$00,$00,$00,$00,$00,$00,$00,$00,$00,$00,$00,$00
	$A440               .byte $00,$00,$00,$00,$00,$00,$00,$00,$00,$00,$00,$00,$00,$00,$00,$00
	$A450               .byte $00,$00,$00,$00,$00,$00,$00,$00,$00,$00,$00,$00,$00,$00,$00,$00
	$A460               .byte $00,$00,$00,$00,$00,$00,$00,$00,$00,$00,$00,$00,$00,$00,$00,$00
	$A470               .byte $00,$00,$00,$00,$00,$00,$00,$00,$00,$00,$00,$00,$00,$00,$00,$00
	$A480               .byte $00,$00,$00,$00,$00,$00,$00,$00,$00,$00,$00,$00,$00,$00,$00,$00
	$A490               .byte $00,$00,$00,$00,$00,$00,$00,$00,$00,$00,$00,$00,$00,$00,$00,$00
	$A4A0               .byte $00,$00,$00,$00,$00,$00,$00,$00,$00,$00,$00,$00,$00,$00,$00,$00
	$A4B0               .byte $00,$00,$00,$00,$00,$00,$00,$00,$00,$00,$00,$00,$00,$00,$00,$00
	$A4C0               .byte $00,$00,$00,$00,$00,$00,$00,$00,$00,$00,$00,$00,$00,$00,$00,$00
	$A4D0               .byte $00,$00,$00,$00,$00,$00,$00,$00,$00,$00,$00,$00,$00,$00,$00,$00
	$A4E0               .byte $00,$00,$00,$00,$00,$00,$00,$00,$00,$00,$00,$00,$00,$00,$00,$00
	$A4F0               .byte $00,$00,$00,$00,$00,$00,$00,$00,$00,$00,$00,$00,$00,$00,$00,$00
	$A500               .byte $00,$00,$00,$00,$00,$00,$00,$00,$00,$00,$00,$00,$00,$00,$00,$00
	$A510               .byte $00,$00,$00,$00,$00,$00,$00,$00,$00,$00,$00,$00,$00,$00,$00,$00
	$A520               .byte $00,$00,$00,$00,$00,$00,$00,$00,$00,$00,$00,$00,$00,$00,$00,$00
	$A530               .byte $00,$00,$00,$00,$00,$00,$00,$00,$00,$00,$00,$00,$00,$00,$00,$00
	$A540               .byte $00,$00,$00,$00,$00,$00,$00,$00,$00,$00,$00,$00,$00,$00,$00,$00
	$A550               .byte $00,$00,$00,$00,$00,$00,$00,$00,$00,$00,$00,$00,$00,$00,$00,$00
	$A560               .byte $00,$00,$00,$00,$00,$00,$00,$00,$00,$00,$00,$00,$00,$00,$00,$00
	$A570               .byte $00,$00,$00,$00,$00,$00,$00,$00,$00,$00,$00,$00,$00,$00,$00,$00
	$A580               .byte $00,$00,$00,$00,$00,$00,$00,$00,$00,$00,$00,$00,$00,$00,$00,$00
	$A590               .byte $00,$00,$00,$00,$00,$00,$00,$00,$00,$00,$00,$00,$00,$00,$00,$00
	$A5A0               .byte $00,$00,$00,$00,$00,$00,$00,$00,$00,$00,$00,$00,$00,$00,$00,$00
	$A5B0               .byte $00,$00,$00,$00,$00,$00,$00,$00,$00,$00,$00,$00,$00,$00,$00,$00
	$A5C0               .byte $00,$00,$00,$00,$00,$00,$00,$00,$00,$00,$00,$00,$00,$00,$00,$00
	$A5D0               .byte $00,$00,$00,$00,$00,$00,$00,$00,$00,$00,$00,$00,$00,$00,$00,$00
	$A5E0               .byte $00,$00,$00,$00,$00,$00,$00,$00,$00,$00,$00,$00,$00,$00,$00,$00
	$A5F0               .byte $00,$00,$00,$00,$00,$00,$00,$00,$00,$00,$00,$00,$00,$00,$00,$00
	$A600               .byte $00,$00,$00,$00,$00,$00,$00,$00,$00,$00,$00,$00,$00,$00,$00,$00
	$A610               .byte $00,$00,$00,$00,$00,$00,$00,$00,$00,$00,$00,$00,$00,$00,$00,$00
	$A620               .byte $00,$00,$00,$00,$00,$00,$00,$00,$00,$00,$00,$00,$00,$00,$00,$00
	$A630               .byte $00,$00,$00,$00,$00,$00,$00,$00,$00,$00,$00,$00,$00,$00,$00,$00
	$A640               .byte $00,$00,$00,$00,$00,$00,$00,$00,$00,$00,$00,$00,$00,$00,$00,$00
	$A650               .byte $00,$00,$00,$00,$00,$00,$00,$00,$00,$00,$00,$00,$00,$00,$00,$00
	$A660               .byte $00,$00,$00,$00,$00,$00,$00,$00,$00,$00,$00,$00,$00,$00,$00,$00
	$A670               .byte $00,$00,$00,$00,$00,$00,$00,$00,$00,$00,$00,$00,$00,$00,$00,$00
	$A680               .byte $00,$00,$00,$00,$00,$00,$00,$00,$00,$00,$00,$00,$00,$00,$00,$00
	$A690               .byte $00,$00,$00,$00,$00,$00,$00,$00,$00,$00,$00,$00,$00,$00,$00,$00
	$A6A0               .byte $00,$00,$00,$00,$00,$00,$00,$00,$00,$00,$00,$00,$00,$00,$00,$00
	$A6B0               .byte $00,$00,$00,$00,$00,$00,$00,$00,$00,$00,$00,$00,$00,$00,$00,$00
	$A6C0               .byte $00,$00,$00,$00,$00,$00,$00,$00,$00,$00,$00,$00,$00,$00,$00,$00
	$A6D0               .byte $00,$00,$00,$00,$00,$00,$00,$00,$00,$00,$00,$00,$00,$00,$00,$00
	$A6E0               .byte $00,$00,$00,$00,$00,$00,$00,$00,$00,$00,$00,$00,$00,$00,$00,$00
	$A6F0               .byte $00,$00,$00,$00,$00,$00,$00,$00,$00,$00,$00,$00,$00,$00,$00,$00
	$A700               .byte $00,$00,$00,$00,$00,$00,$00,$00,$00,$00,$00,$00,$00,$00,$00,$00
	$A710               .byte $00,$00,$00,$00,$00,$00,$00,$00,$00,$00,$00,$00,$00,$00,$00,$00
	$A720               .byte $00,$00,$00,$00,$00,$00,$00,$00,$00,$00,$00,$00,$00,$00,$00,$00
	$A730               .byte $00,$00,$00,$00,$00,$00,$00,$00,$00,$00,$00,$00,$00,$00,$00,$00
	$A740               .byte $00,$00,$00,$00,$00,$00,$00,$00,$00,$00,$00,$00,$00,$00,$00,$00
	$A750               .byte $00,$00,$00,$00,$00,$00,$00,$00,$00,$00,$00,$00,$00,$00,$00,$00
	$A760               .byte $00,$00,$00,$00,$00,$00,$00,$00,$00,$00,$00,$00,$00,$00,$00,$00
	$A770               .byte $00,$00,$00,$00,$00,$00,$00,$00,$00,$00,$00,$00,$00,$00,$00,$00
	$A780               .byte $00,$00,$00,$00,$00,$00,$00,$00,$00,$00,$00,$00,$00,$00,$00,$00
	$A790               .byte $00,$00,$00,$00,$00,$00,$00,$00,$00,$00,$00,$00,$00,$00,$00,$00
	$A7A0               .byte $00,$00,$00,$00,$00,$00,$00,$00,$00,$00,$00,$00,$00,$00,$00,$00
	$A7B0               .byte $00,$00,$00,$00,$00,$00,$00,$00,$00,$00,$00,$00,$00,$00,$00,$00
	$A7C0               .byte $00,$00,$00,$00,$00,$00,$00,$00,$00,$00,$00,$00,$00,$00,$00,$00
	$A7D0               .byte $00,$00,$00,$00,$00,$00,$00,$00,$00,$00,$00,$00,$00,$00,$00,$00
	$A7E0               .byte $00,$00,$00,$00,$00,$00,$00,$00,$00,$00,$00,$00,$00,$00,$00,$00
	$A7F0               .byte $00,$00,$00,$00,$00,$00,$00,$00,$00,$00,$00,$00,$00,$00,$00,$00
	$A800               .byte $00,$00,$00,$00,$00,$00,$00,$00,$00,$00,$00,$00,$00,$00,$00,$00
	$A810               .byte $00,$00,$00,$00,$00,$00,$00,$00,$00,$00,$00,$00,$00,$00,$00,$00
	$A820               .byte $00,$00,$00,$00,$00,$00,$00,$00,$00,$00,$00,$00,$00,$00,$00,$00
	$A830               .byte $00,$00,$00,$00,$00,$00,$00,$00,$00,$00,$00,$00,$00,$00,$00,$00
	$A840               .byte $00,$00,$00,$00,$00,$00,$00,$00,$00,$00,$00,$00,$00,$00,$00,$00
	$A850               .byte $00,$00,$00,$00,$00,$00,$00,$00,$00,$00,$00,$00,$00,$00,$00,$00
	$A860               .byte $00,$00,$00,$00,$00,$00,$00,$00,$00,$00,$00,$00,$00,$00,$00,$00
	$A870               .byte $00,$00,$00,$00,$00,$00,$00,$00,$00,$00,$00,$00,$00,$00,$00,$00
	$A880               .byte $00,$00,$00,$00,$00,$00,$00,$00,$00,$00,$00,$00,$00,$00,$00,$00
	$A890               .byte $00,$00,$00,$00,$00,$00,$00,$00,$00,$00,$00,$00,$00,$00,$00,$00
	$A8A0               .byte $00,$00,$00,$00,$00,$00,$00,$00,$00,$00,$00,$00,$00,$00,$00,$00
	$A8B0               .byte $00,$00,$00,$00,$00,$00,$00,$00,$00,$00,$00,$00,$00,$00,$00,$00
	$A8C0               .byte $00,$00,$00,$00,$00,$00,$00,$00,$00,$00,$00,$00,$00,$00,$00,$00
	$A8D0               .byte $00,$00,$00,$00,$00,$00,$00,$00,$00,$00,$00,$00,$00,$00,$00,$00
	$A8E0               .byte $00,$00,$00,$00,$00,$00,$00,$00,$00,$00,$00,$00,$00,$00,$00,$00
	$A8F0               .byte $00,$00,$00,$00,$00,$00,$00,$00,$00,$00,$00,$00,$00,$00,$00,$00
	$A900               .byte $00,$00,$00,$00,$00,$00,$00,$00,$00,$00,$00,$00,$00,$00,$00,$00
	$A910               .byte $00,$00,$00,$00,$00,$00,$00,$00,$00,$00,$00,$00,$00,$00,$00,$00
	$A920               .byte $00,$00,$00,$00,$00,$00,$00,$00,$00,$00,$00,$00,$00,$00,$00,$00
	$A930               .byte $00,$00,$00,$00,$00,$00,$00,$00,$00,$00,$00,$00,$00,$00,$00,$00
	$A940               .byte $00,$00,$00,$00,$00,$00,$00,$00,$00,$00,$00,$00,$00,$00,$00,$00
	$A950               .byte $00,$00,$00,$00,$00,$00,$00,$00,$00,$00,$00,$00,$00,$00,$00,$00
	$A960               .byte $00,$00,$00,$00,$00,$00,$00,$00,$00,$00,$00,$00,$00,$00,$00,$00
	$A970               .byte $00,$00,$00,$00,$00,$00,$00,$00,$00,$00,$00,$00,$00,$00,$00,$00
	$A980               .byte $00,$00,$00,$00,$00,$00,$00,$00,$00,$00,$00,$00,$00,$00,$00,$00
	$A990               .byte $00,$00,$00,$00,$00,$00,$00,$00,$00,$00,$00,$00,$00,$00,$00,$00
	$A9A0               .byte $00,$00,$00,$00,$00,$00,$00,$00,$00,$00,$00,$00,$00,$00,$00,$00
	$A9B0               .byte $00,$00,$00,$00,$00,$00,$00,$00,$00,$00,$00,$00,$00,$00,$00,$00
	$A9C0               .byte $00,$00,$00,$00,$00,$00,$00,$00,$00,$00,$00,$00,$00,$00,$00,$00
	$A9D0               .byte $00,$00,$00,$00,$00,$00,$00,$00,$00,$00,$00,$00,$00,$00,$00,$00
	$A9E0               .byte $00,$00,$00,$00,$00,$00,$00,$00,$00,$00,$00,$00,$00,$00,$00,$00
	$A9F0               .byte $00,$00,$00,$00,$00,$00,$00,$00,$00,$00,$00,$00,$00,$00,$00,$00
	$AA00               .byte $00,$00,$00,$00,$00,$00,$00,$00,$00,$00,$00,$00,$00,$00,$00,$00
	$AA10               .byte $00,$00,$00,$00,$00,$00,$00,$00,$00,$00,$00,$00,$00,$00,$00,$00
	$AA20               .byte $00,$00,$00,$00,$00,$00,$00,$00,$00,$00,$00,$00,$00,$00,$00,$00
	$AA30               .byte $00,$00,$00,$00,$00,$00,$00,$00,$00,$00,$00,$00,$00,$00,$00,$00
	$AA40               .byte $00,$00,$00,$00,$00,$00,$00,$00,$00,$00,$00,$00,$00,$00,$00,$00
	$AA50               .byte $00,$00,$00,$00,$00,$00,$00,$00,$00,$00,$00,$00,$00,$00,$00,$00
	$AA60               .byte $00,$00,$00,$00,$00,$00,$00,$00,$00,$00,$00,$00,$00,$00,$00,$00
	$AA70               .byte $00,$00,$00,$00,$00,$00,$00,$00,$00,$00,$00,$00,$00,$00,$00,$00
	$AA80               .byte $00,$00,$00,$00,$00,$00,$00,$00,$00,$00,$00,$00,$00,$00,$00,$00
	$AA90               .byte $00,$00,$00,$00,$00,$00,$00,$00,$00,$00,$00,$00,$00,$00,$00,$00
	$AAA0               .byte $00,$00,$00,$00,$00,$00,$00,$00,$00,$00,$00,$00,$00,$00,$00,$00
	$AAB0               .byte $00,$00,$00,$00,$00,$00,$00,$00,$00,$00,$00,$00,$00,$00,$00,$00
	$AAC0               .byte $00,$00,$00,$00,$00,$00,$00,$00,$00,$00,$00,$00,$00,$00,$00,$00
	$AAD0               .byte $00,$00,$00,$00,$00,$00,$00,$00,$00,$00,$00,$00,$00,$00,$00,$00
	$AAE0               .byte $00,$00,$00,$00,$00,$00,$00,$00,$00,$00,$00,$00,$00,$00,$00,$00
	$AAF0               .byte $00,$00,$00,$00,$00,$00,$00,$00,$00,$00,$00,$00,$00,$00,$00,$00
	$AB00               .byte $00,$00,$00,$00,$00,$00,$00,$00,$00,$00,$00,$00,$00,$00,$00,$00
	$AB10               .byte $00,$00,$00,$00,$00,$00,$00,$00,$00,$00,$00,$00,$00,$00,$00,$00
	$AB20               .byte $00,$00,$00,$00,$00,$00,$00,$00,$00,$00,$00,$00,$00,$00,$00,$00
	$AB30               .byte $00,$00,$00,$00,$00,$00,$00,$00,$00,$00,$00,$00,$00,$00,$00,$00
	$AB40               .byte $00,$00,$00,$00,$00,$00,$00,$00,$00,$00,$00,$00,$00,$00,$00,$00
	$AB50               .byte $00,$00,$00,$00,$00,$00,$00,$00,$00,$00,$00,$00,$00,$00,$00,$00
	$AB60               .byte $00,$00,$00,$00,$00,$00,$00,$00,$00,$00,$00,$00,$00,$00,$00,$00
	$AB70               .byte $00,$00,$00,$00,$00,$00,$00,$00,$00,$00,$00,$00,$00,$00,$00,$00
	$AB80               .byte $00,$00,$00,$00,$00,$00,$00,$00,$00,$00,$00,$00,$00,$00,$00,$00
	$AB90               .byte $00,$00,$00,$00,$00,$00,$00,$00,$00,$00,$00,$00,$00,$00,$00,$00
	$ABA0               .byte $00,$00,$00,$00,$00,$00,$00,$00,$00,$00,$00,$00,$00,$00,$00,$00
	$ABB0               .byte $00,$00,$00,$00,$00,$00,$00,$00,$00,$00,$00,$00,$00,$00,$00,$00
	$ABC0               .byte $00,$00,$00,$00,$00,$00,$00,$00,$00,$00,$00,$00,$00,$00,$00,$00
	$ABD0               .byte $00,$00,$00,$00,$00,$00,$00,$00,$00,$00,$00,$00,$00,$00,$00,$00
	$ABE0               .byte $00,$00,$00,$00,$00,$00,$00,$00,$00,$00,$00,$00,$00,$00,$00,$00
	$ABF0               .byte $00,$00,$00,$00,$00,$00,$00,$00,$00,$00,$00,$00,$00,$00,$00,$00
	$AC00               .byte $00,$00,$00,$00,$00,$00,$00,$00,$00,$00,$00,$00,$00,$00,$00,$00
	$AC10               .byte $00,$00,$00,$00,$00,$00,$00,$00,$00,$00,$00,$00,$00,$00,$00,$00
	$AC20               .byte $00,$00,$00,$00,$00,$00,$00,$00,$00,$00,$00,$00,$00,$00,$00,$00
	$AC30               .byte $00,$00,$00,$00,$00,$00,$00,$00,$00,$00,$00,$00,$00,$00,$00,$00
	$AC40               .byte $00,$00,$00,$00,$00,$00,$00,$00,$00,$00,$00,$00,$00,$00,$00,$00
	$AC50               .byte $00,$00,$00,$00,$00,$00,$00,$00,$00,$00,$00,$00,$00,$00,$00,$00
	$AC60               .byte $00,$00,$00,$00,$00,$00,$00,$00,$00,$00,$00,$00,$00,$00,$00,$00
	$AC70               .byte $00,$00,$00,$00,$00,$00,$00,$00,$00,$00,$00,$00,$00,$00,$00,$00
	$AC80               .byte $00,$00,$00,$00,$00,$00,$00,$00,$00,$00,$00,$00,$00,$00,$00,$00
	$AC90               .byte $00,$00,$00,$00,$00,$00,$00,$00,$00,$00,$00,$00,$00,$00,$00,$00
	$ACA0               .byte $00,$00,$00,$00,$00,$00,$00,$00,$00,$00,$00,$00,$00,$00,$00,$00
	$ACB0               .byte $00,$00,$00,$00,$00,$00,$00,$00,$00,$00,$00,$00,$00,$00,$00,$00
	$ACC0               .byte $00,$00,$00,$00,$00,$00,$00,$00,$00,$00,$00,$00,$00,$00,$00,$00
	$ACD0               .byte $00,$00,$00,$00,$00,$00,$00,$00,$00,$00,$00,$00,$00,$00,$00,$00
	$ACE0               .byte $00,$00,$00,$00,$00,$00,$00,$00,$00,$00,$00,$00,$00,$00,$00,$00
	$ACF0               .byte $00,$00,$00,$00,$00,$00,$00,$00,$00,$00,$00,$00,$00,$00,$00,$00
	$AD00               .byte $00,$00,$00,$00,$00,$00,$00,$00,$00,$00,$00,$00,$00,$00,$00,$00
	$AD10               .byte $00,$00,$00,$00,$00,$00,$00,$00,$00,$00,$00,$00,$00,$00,$00,$00
	$AD20               .byte $00,$00,$00,$00,$00,$00,$00,$00,$00,$00,$00,$00,$00,$00,$00,$00
	$AD30               .byte $00,$00,$00,$00,$00,$00,$00,$00,$00,$00,$00,$00,$00,$00,$00,$00
	$AD40               .byte $00,$00,$00,$00,$00,$00,$00,$00,$00,$00,$00,$00,$00,$00,$00,$00
	$AD50               .byte $00,$00,$00,$00,$00,$00,$00,$00,$00,$00,$00,$00,$00,$00,$00,$00
	$AD60               .byte $00,$00,$00,$00,$00,$00,$00,$00,$00,$00,$00,$00,$00,$00,$00,$00
	$AD70               .byte $00,$00,$00,$00,$00,$00,$00,$00,$00,$00,$00,$00,$00,$00,$00,$00
	$AD80               .byte $00,$00,$00,$00,$00,$00,$00,$00,$00,$00,$00,$00,$00,$00,$00,$00
	$AD90               .byte $00,$00,$00,$00,$00,$00,$00,$00,$00,$00,$00,$00,$00,$00,$00,$00
	$ADA0               .byte $00,$00,$00,$00,$00,$00,$00,$00,$00,$00,$00,$00,$00,$00,$00,$00
	$ADB0               .byte $00,$00,$00,$00,$00,$00,$00,$00,$00,$00,$00,$00,$00,$00,$00,$00
	$ADC0               .byte $00,$00,$00,$00,$00,$00,$00,$00,$00,$00,$00,$00,$00,$00,$00,$00
	$ADD0               .byte $00,$00,$00,$00,$00,$00,$00,$00,$00,$00,$00,$00,$00,$00,$00,$00
	$ADE0               .byte $00,$00,$00,$00,$00,$00,$00,$00,$00,$00,$00,$00,$00,$00,$00,$00
	$ADF0               .byte $00,$00,$00,$00,$00,$00,$00,$00,$00,$00,$00,$00,$00,$00,$00,$00
	$AE00               .byte $00,$00,$00,$00,$00,$00,$00,$00,$00,$00,$00,$00,$00,$00,$00,$00
	$AE10               .byte $00,$00,$00,$00,$00,$00,$00,$00,$00,$00,$00,$00,$00,$00,$00,$00
	$AE20               .byte $00,$00,$00,$00,$00,$00,$00,$00,$00,$00,$00,$00,$00,$00,$00,$00
	$AE30               .byte $00,$00,$00,$00,$00,$00,$00,$00,$00,$00,$00,$00,$00,$00,$00,$00
	$AE40               .byte $00,$00,$00,$00,$00,$00,$00,$00,$00,$00,$00,$00,$00,$00,$00,$00
	$AE50               .byte $00,$00,$00,$00,$00,$00,$00,$00,$00,$00,$00,$00,$00,$00,$00,$00
	$AE60               .byte $00,$00,$00,$00,$00,$00,$00,$00,$00,$00,$00,$00,$00,$00,$00,$00
	$AE70               .byte $00,$00,$00,$00,$00,$00,$00,$00,$00,$00,$00,$00,$00,$00,$00,$00
	$AE80               .byte $00,$00,$00,$00,$00,$00,$00,$00,$00,$00,$00,$00,$00,$00,$00,$00
	$AE90               .byte $00,$00,$00,$00,$00,$00,$00,$00,$00,$00,$00,$00,$00,$00,$00,$00
	$AEA0               .byte $00,$00,$00,$00,$00,$00,$00,$00,$00,$00,$00,$00,$00,$00,$00,$00
	$AEB0               .byte $00,$00,$00,$00,$00,$00,$00,$00,$00,$00,$00,$00,$00,$00,$00,$00
	$AEC0               .byte $00,$00,$00,$00,$00,$00,$00,$00,$00,$00,$00,$00,$00,$00,$00,$00
	$AED0               .byte $00,$00,$00,$00,$00,$00,$00,$00,$00,$00,$00,$00,$00,$00,$00,$00
	$AEE0               .byte $00,$00,$00,$00,$00,$00,$00,$00,$00,$00,$00,$00,$00,$00,$00,$00
	$AEF0               .byte $00,$00,$00,$00,$00,$00,$00,$00,$00,$00,$00,$00,$00,$00,$00,$00
	$AF00               .byte $00,$00,$00,$00,$00,$00,$00,$00,$00,$00,$00,$00,$00,$00,$00,$00
	$AF10               .byte $00,$00,$00,$00,$00,$00,$00,$00,$00,$00,$00,$00,$00,$00,$00,$00
	$AF20               .byte $00,$00,$00,$00,$00,$00,$00,$00,$00,$00,$00,$00,$00,$00,$00,$00
	$AF30               .byte $00,$00,$00,$00,$00,$00,$00,$00,$00,$00,$00,$00,$00,$00,$00,$00
	$AF40               .byte $00,$00,$00,$00,$00,$00,$00,$00,$00,$00,$00,$00,$00,$00,$00,$00
	$AF50               .byte $00,$00,$00,$00,$00,$00,$00,$00,$00,$00,$00,$00,$00,$00,$00,$00
	$AF60               .byte $00,$00,$00,$00,$00,$00,$00,$00,$00,$00,$00,$00,$00,$00,$00,$00
	$AF70               .byte $00,$00,$00,$00,$00,$00,$00,$00,$00,$00,$00,$00,$00,$00,$00,$00
	$AF80               .byte $00,$00,$00,$00,$00,$00,$00,$00,$00,$00,$00,$00,$00,$00,$00,$00
	$AF90               .byte $00,$00,$00,$00,$00,$00,$00,$00,$00,$00,$00,$00,$00,$00,$00,$00
	$AFA0               .byte $00,$00,$00,$00,$00,$00,$00,$00,$00,$00,$00,$00,$00,$00,$00,$00
	$AFB0               .byte $00,$00,$00,$00,$00,$00,$00,$00,$00,$00,$00,$00,$00,$00,$00,$00
	$AFC0               .byte $00,$00,$00,$00,$00,$00,$00,$00,$00,$00,$00,$00,$00,$00,$00,$00
	$AFD0               .byte $00,$00,$00,$00,$00,$00,$00,$00,$00,$00,$00,$00,$00,$00,$00,$00
	$AFE0               .byte $00,$00,$00,$00,$00,$00,$00,$00,$00,$00,$00,$00,$00,$00,$00,$00
	$AFF0               .byte $00,$00,$00,$00,$00,$00,$00,$00,$00,$00,$00,$00,$00,$00,$00,$00
	$B000               .byte $00,$00,$00,$00,$00,$00,$00,$00,$00,$00,$00,$00,$00,$00,$00,$00
	$B010               .byte $00,$00,$00,$00,$00,$00,$00,$00,$00,$00,$00,$00,$00,$00,$00,$00
	$B020               .byte $00,$00,$00,$00,$00,$00,$00,$00,$00,$00,$00,$00,$00,$00,$00,$00
	$B030               .byte $00,$00,$00,$00,$00,$00,$00,$00,$00,$00,$00,$00,$00,$00,$00,$00
	$B040               .byte $00,$00,$00,$00,$00,$00,$00,$00,$00,$00,$00,$00,$00,$00,$00,$00
	$B050               .byte $00,$00,$00,$00,$00,$00,$00,$00,$00,$00,$00,$00,$00,$00,$00,$00
	$B060               .byte $00,$00,$00,$00,$00,$00,$00,$00,$00,$00,$00,$00,$00,$00,$00,$00
	$B070               .byte $00,$00,$00,$00,$00,$00,$00,$00,$00,$00,$00,$00,$00,$00,$00,$00
	$B080               .byte $00,$00,$00,$00,$00,$00,$00,$00,$00,$00,$00,$00,$00,$00,$00,$00
	$B090               .byte $00,$00,$00,$00,$00,$00,$00,$00,$00,$00,$00,$00,$00,$00,$00,$00
	$B0A0               .byte $00,$00,$00,$00,$00,$00,$00,$00,$00,$00,$00,$00,$00,$00,$00,$00
	$B0B0               .byte $00,$00,$00,$00,$00,$00,$00,$00,$00,$00,$00,$00,$00,$00,$00,$00
	$B0C0               .byte $00,$00,$00,$00,$00,$00,$00,$00,$00,$00,$00,$00,$00,$00,$00,$00
	$B0D0               .byte $00,$00,$00,$00,$00,$00,$00,$00,$00,$00,$00,$00,$00,$00,$00,$00
	$B0E0               .byte $00,$00,$00,$00,$00,$00,$00,$00,$00,$00,$00,$00,$00,$00,$00,$00
	$B0F0               .byte $00,$00,$00,$00,$00,$00,$00,$00,$00,$00,$00,$00,$00,$00,$00,$00
	$B100               .byte $00,$00,$00,$00,$00,$00,$00,$00,$00,$00,$00,$00,$00,$00,$00,$00
	$B110               .byte $00,$00,$00,$00,$00,$00,$00,$00,$00,$00,$00,$00,$00,$00,$00,$00
	$B120               .byte $00,$00,$00,$00,$00,$00,$00,$00,$00,$00,$00,$00,$00,$00,$00,$00
	$B130               .byte $00,$00,$00,$00,$00,$00,$00,$00,$00,$00,$00,$00,$00,$00,$00,$00
	$B140               .byte $00,$00,$00,$00,$00,$00,$00,$00,$00,$00,$00,$00,$00,$00,$00,$00
	$B150               .byte $00,$00,$00,$00,$00,$00,$00,$00,$00,$00,$00,$00,$00,$00,$00,$00
	$B160               .byte $00,$00,$00,$00,$00,$00,$00,$00,$00,$00,$00,$00,$00,$00,$00,$00
	$B170               .byte $00,$00,$00,$00,$00,$00,$00,$00,$00,$00,$00,$00,$00,$00,$00,$00
	$B180               .byte $00,$00,$00,$00,$00,$00,$00,$00,$00,$00,$00,$00,$00,$00,$00,$00
	$B190               .byte $00,$00,$00,$00,$00,$00,$00,$00,$00,$00,$00,$00,$00,$00,$00,$00
	$B1A0               .byte $00,$00,$00,$00,$00,$00,$00,$00,$00,$00,$00,$00,$00,$00,$00,$00
	$B1B0               .byte $00,$00,$00,$00,$00,$00,$00,$00,$00,$00,$00,$00,$00,$00,$00,$00
	$B1C0               .byte $00,$00,$00,$00,$00,$00,$00,$00,$00,$00,$00,$00,$00,$00,$00,$00
	$B1D0               .byte $00,$00,$00,$00,$00,$00,$00,$00,$00,$00,$00,$00,$00,$00,$00,$00
	$B1E0               .byte $00,$00,$00,$00,$00,$00,$00,$00,$00,$00,$00,$00,$00,$00,$00,$00
	$B1F0               .byte $00,$00,$00,$00,$00,$00,$00,$00,$00,$00,$00,$00,$00,$00,$00,$00
	$B200               .byte $00,$00,$00,$00,$00,$00,$00,$00,$00,$00,$00,$00,$00,$00,$00,$00
	$B210               .byte $00,$00,$00,$00,$00,$00,$00,$00,$00,$00,$00,$00,$00,$00,$00,$00
	$B220               .byte $00,$00,$00,$00,$00,$00,$00,$00,$00,$00,$00,$00,$00,$00,$00,$00
	$B230               .byte $00,$00,$00,$00,$00,$00,$00,$00,$00,$00,$00,$00,$00,$00,$00,$00
	$B240               .byte $00,$00,$00,$00,$00,$00,$00,$00,$00,$00,$00,$00,$00,$00,$00,$00
	$B250               .byte $00,$00,$00,$00,$00,$00,$00,$00,$00,$00,$00,$00,$00,$00,$00,$00
	$B260               .byte $00,$00,$00,$00,$00,$00,$00,$00,$00,$00,$00,$00,$00,$00,$00,$00
	$B270               .byte $00,$00,$00,$00,$00,$00,$00,$00,$00,$00,$00,$00,$00,$00,$00,$00
	$B280               .byte $00,$00,$00,$00,$00,$00,$00,$00,$00,$00,$00,$00,$00,$00,$00,$00
	$B290               .byte $00,$00,$00,$00,$00,$00,$00,$00,$00,$00,$00,$00,$00,$00,$00,$00
	$B2A0               .byte $00,$00,$00,$00,$00,$00,$00,$00,$00,$00,$00,$00,$00,$00,$00,$00
	$B2B0               .byte $00,$00,$00,$00,$00,$00,$00,$00,$00,$00,$00,$00,$00,$00,$00,$00
	$B2C0               .byte $00,$00,$00,$00,$00,$00,$00,$00,$00,$00,$00,$00,$00,$00,$00,$00
	$B2D0               .byte $00,$00,$00,$00,$00,$00,$00,$00,$00,$00,$00,$00,$00,$00,$00,$00
	$B2E0               .byte $00,$00,$00,$00,$00,$00,$00,$00,$00,$00,$00,$00,$00,$00,$00,$00
	$B2F0               .byte $00,$00,$00,$00,$00,$00,$00,$00,$00,$00,$00,$00,$00,$00,$00,$00
	$B300               .byte $00,$00,$00,$00,$00,$00,$00,$00,$00,$00,$00,$00,$00,$00,$00,$00
	$B310               .byte $00,$00,$00,$00,$00,$00,$00,$00,$00,$00,$00,$00,$00,$00,$00,$00
	$B320               .byte $00,$00,$00,$00,$00,$00,$00,$00,$00,$00,$00,$00,$00,$00,$00,$00
	$B330               .byte $00,$00,$00,$00,$00,$00,$00,$00,$00,$00,$00,$00,$00,$00,$00,$00
	$B340               .byte $00,$00,$00,$00,$00,$00,$00,$00,$00,$00,$00,$00,$00,$00,$00,$00
	$B350               .byte $00,$00,$00,$00,$00,$00,$00,$00,$00,$00,$00,$00,$00,$00,$00,$00
	$B360               .byte $00,$00,$00,$00,$00,$00,$00,$00,$00,$00,$00,$00,$00,$00,$00,$00
	$B370               .byte $00,$00,$00,$00,$00,$00,$00,$00,$00,$00,$00,$00,$00,$00,$00,$00
	$B380               .byte $00,$00,$00,$00,$00,$00,$00,$00,$00,$00,$00,$00,$00,$00,$00,$00
	$B390               .byte $00,$00,$00,$00,$00,$00,$00,$00,$00,$00,$00,$00,$00,$00,$00,$00
	$B3A0               .byte $00,$00,$00,$00,$00,$00,$00,$00,$00,$00,$00,$00,$00,$00,$00,$00
	$B3B0               .byte $00,$00,$00,$00,$00,$00,$00,$00,$00,$00,$00,$00,$00,$00,$00,$00
	$B3C0               .byte $00,$00,$00,$00,$00,$00,$00,$00,$00,$00,$00,$00,$00,$00,$00,$00
	$B3D0               .byte $00,$00,$00,$00,$00,$00,$00,$00,$00,$00,$00,$00,$00,$00,$00,$00
	$B3E0               .byte $00,$00,$00,$00,$00,$00,$00,$00,$00,$00,$00,$00,$00,$00,$00,$00
	$B3F0               .byte $00,$00,$00,$00,$00,$00,$00,$00,$00,$00,$00,$00,$00,$00,$00,$00
	$B400               .byte $00,$00,$00,$00,$00,$00,$00,$00,$00,$00,$00,$00,$00,$00,$00,$00
	$B410               .byte $00,$00,$00,$00,$00,$00,$00,$00,$00,$00,$00,$00,$00,$00,$00,$00
	$B420               .byte $00,$00,$00,$00,$00,$00,$00,$00,$00,$00,$00,$00,$00,$00,$00,$00
	$B430               .byte $00,$00,$00,$00,$00,$00,$00,$00,$00,$00,$00,$00,$00,$00,$00,$00
	$B440               .byte $00,$00,$00,$00,$00,$00,$00,$00,$00,$00,$00,$00,$00,$00,$00,$00
	$B450               .byte $00,$00,$00,$00,$00,$00,$00,$00,$00,$00,$00,$00,$00,$00,$00,$00
	$B460               .byte $00,$00,$00,$00,$00,$00,$00,$00,$00,$00,$00,$00,$00,$00,$00,$00
	$B470               .byte $00,$00,$00,$00,$00,$00,$00,$00,$00,$00,$00,$00,$00,$00,$00,$00
	$B480               .byte $00,$00,$00,$00,$00,$00,$00,$00,$00,$00,$00,$00,$00,$00,$00,$00
	$B490               .byte $00,$00,$00,$00,$00,$00,$00,$00,$00,$00,$00,$00,$00,$00,$00,$00
	$B4A0               .byte $00,$00,$00,$00,$00,$00,$00,$00,$00,$00,$00,$00,$00,$00,$00,$00
	$B4B0               .byte $00,$00,$00,$00,$00,$00,$00,$00,$00,$00,$00,$00,$00,$00,$00,$00
	$B4C0               .byte $00,$00,$00,$00,$00,$00,$00,$00,$00,$00,$00,$00,$00,$00,$00,$00
	$B4D0               .byte $00,$00,$00,$00,$00,$00,$00,$00,$00,$00,$00,$00,$00,$00,$00,$00
	$B4E0               .byte $00,$00,$00,$00,$00,$00,$00,$00,$00,$00,$00,$00,$00,$00,$00,$00
	$B4F0               .byte $00,$00,$00,$00,$00,$00,$00,$00,$00,$00,$00,$00,$00,$00,$00,$00
	$B500               .byte $00,$00,$00,$00,$00,$00,$00,$00,$00,$00,$00,$00,$00,$00,$00,$00
	$B510               .byte $00,$00,$00,$00,$00,$00,$00,$00,$00,$00,$00,$00,$00,$00,$00,$00
	$B520               .byte $00,$00,$00,$00,$00,$00,$00,$00,$00,$00,$00,$00,$00,$00,$00,$00
	$B530               .byte $00,$00,$00,$00,$00,$00,$00,$00,$00,$00,$00,$00,$00,$00,$00,$00
	$B540               .byte $00,$00,$00,$00,$00,$00,$00,$00,$00,$00,$00,$00,$00,$00,$00,$00
	$B550               .byte $00,$00,$00,$00,$00,$00,$00,$00,$00,$00,$00,$00,$00,$00,$00,$00
	$B560               .byte $00,$00,$00,$00,$00,$00,$00,$00,$00,$00,$00,$00,$00,$00,$00,$00
	$B570               .byte $00,$00,$00,$00,$00,$00,$00,$00,$00,$00,$00,$00,$00,$00,$00,$00
	$B580               .byte $00,$00,$00,$00,$00,$00,$00,$00,$00,$00,$00,$00,$00,$00,$00,$00
	$B590               .byte $00,$00,$00,$00,$00,$00,$00,$00,$00,$00,$00,$00,$00,$00,$00,$00
	$B5A0               .byte $00,$00,$00,$00,$00,$00,$00,$00,$00,$00,$00,$00,$00,$00,$00,$00
	$B5B0               .byte $00,$00,$00,$00,$00,$00,$00,$00,$00,$00,$00,$00,$00,$00,$00,$00
	$B5C0               .byte $00,$00,$00,$00,$00,$00,$00,$00,$00,$00,$00,$00,$00,$00,$00,$00
	$B5D0               .byte $00,$00,$00,$00,$00,$00,$00,$00,$00,$00,$00,$00,$00,$00,$00,$00
	$B5E0               .byte $00,$00,$00,$00,$00,$00,$00,$00,$00,$00,$00,$00,$00,$00,$00,$00
	$B5F0               .byte $00,$00,$00,$00,$00,$00,$00,$00,$00,$00,$00,$00,$00,$00,$00,$00
	$B600               .byte $00,$00,$00,$00,$00,$00,$00,$00,$00,$00,$00,$00,$00,$00,$00,$00
	$B610               .byte $00,$00,$00,$00,$00,$00,$00,$00,$00,$00,$00,$00,$00,$00,$00,$00
	$B620               .byte $00,$00,$00,$00,$00,$00,$00,$00,$00,$00,$00,$00,$00,$00,$00,$00
	$B630               .byte $00,$00,$00,$00,$00,$00,$00,$00,$00,$00,$00,$00,$00,$00,$00,$00
	$B640               .byte $00,$00,$00,$00,$00,$00,$00,$00,$00,$00,$00,$00,$00,$00,$00,$00
	$B650               .byte $00,$00,$00,$00,$00,$00,$00,$00,$00,$00,$00,$00,$00,$00,$00,$00
	$B660               .byte $00,$00,$00,$00,$00,$00,$00,$00,$00,$00,$00,$00,$00,$00,$00,$00
	$B670               .byte $00,$00,$00,$00,$00,$00,$00,$00,$00,$00,$00,$00,$00,$00,$00,$00
	$B680               .byte $00,$00,$00,$00,$00,$00,$00,$00,$00,$00,$00,$00,$00,$00,$00,$00
	$B690               .byte $00,$00,$00,$00,$00,$00,$00,$00,$00,$00,$00,$00,$00,$00,$00,$00
	$B6A0               .byte $00,$00,$00,$00,$00,$00,$00,$00,$00,$00,$00,$00,$00,$00,$00,$00
	$B6B0               .byte $00,$00,$00,$00,$00,$00,$00,$00,$00,$00,$00,$00,$00,$00,$00,$00
	$B6C0               .byte $00,$00,$00,$00,$00,$00,$00,$00,$00,$00,$00,$00,$00,$00,$00,$00
	$B6D0               .byte $00,$00,$00,$00,$00,$00,$00,$00,$00,$00,$00,$00,$00,$00,$00,$00
	$B6E0               .byte $00,$00,$00,$00,$00,$00,$00,$00,$00,$00,$00,$00,$00,$00,$00,$00
	$B6F0               .byte $00,$00,$00,$00,$00,$00,$00,$00,$00,$00,$00,$00,$00,$00,$00,$00
	$B700               .byte $00,$00,$00,$00,$00,$00,$00,$00,$00,$00,$00,$00,$00,$00,$00,$00
	$B710               .byte $00,$00,$00,$00,$00,$00,$00,$00,$00,$00,$00,$00,$00,$00,$00,$00
	$B720               .byte $00,$00,$00,$00,$00,$00,$00,$00,$00,$00,$00,$00,$00,$00,$00,$00
	$B730               .byte $00,$00,$00,$00,$00,$00,$00,$00,$00,$00,$00,$00,$00,$00,$00,$00
	$B740               .byte $00,$00,$00,$00,$00,$00,$00,$00,$00,$00,$00,$00,$00,$00,$00,$00
	$B750               .byte $00,$00,$00,$00,$00,$00,$00,$00,$00,$00,$00,$00,$00,$00,$00,$00
	$B760               .byte $00,$00,$00,$00,$00,$00,$00,$00,$00,$00,$00,$00,$00,$00,$00,$00
	$B770               .byte $00,$00,$00,$00,$00,$00,$00,$00,$00,$00,$00,$00,$00,$00,$00,$00
	$B780               .byte $00,$00,$00,$00,$00,$00,$00,$00,$00,$00,$00,$00,$00,$00,$00,$00
	$B790               .byte $00,$00,$00,$00,$00,$00,$00,$00,$00,$00,$00,$00,$00,$00,$00,$00
	$B7A0               .byte $00,$00,$00,$00,$00,$00,$00,$00,$00,$00,$00,$00,$00,$00,$00,$00
	$B7B0               .byte $00,$00,$00,$00,$00,$00,$00,$00,$00,$00,$00,$00,$00,$00,$00,$00
	$B7C0               .byte $00,$00,$00,$00,$00,$00,$00,$00,$00,$00,$00,$00,$00,$00,$00,$00
	$B7D0               .byte $00,$00,$00,$00,$00,$00,$00,$00,$00,$00,$00,$00,$00,$00,$00,$00
	$B7E0               .byte $00,$00,$00,$00,$00,$00,$00,$00,$00,$00,$00,$00,$00,$00,$00,$00
	$B7F0               .byte $00,$00,$00,$00,$00,$00,$00,$00,$00,$00,$00,$00,$00,$00,$00,$00
	$B800               .byte $00,$00,$00,$00,$00,$00,$00,$00,$00,$00,$00,$00,$00,$00,$00,$00
	$B810               .byte $00,$00,$00,$00,$00,$00,$00,$00,$00,$00,$00,$00,$00,$00,$00,$00
	$B820               .byte $00,$00,$00,$00,$00,$00,$00,$00,$00,$00,$00,$00,$00,$00,$00,$00
	$B830               .byte $00,$00,$00,$00,$00,$00,$00,$00,$00,$00,$00,$00,$00,$00,$00,$00
	$B840               .byte $00,$00,$00,$00,$00,$00,$00,$00,$00,$00,$00,$00,$00,$00,$00,$00
	$B850               .byte $00,$00,$00,$00,$00,$00,$00,$00,$00,$00,$00,$00,$00,$00,$00,$00
	$B860               .byte $00,$00,$00,$00,$00,$00,$00,$00,$00,$00,$00,$00,$00,$00,$00,$00
	$B870               .byte $00,$00,$00,$00,$00,$00,$00,$00,$00,$00,$00,$00,$00,$00,$00,$00
	$B880               .byte $00,$00,$00,$00,$00,$00,$00,$00,$00,$00,$00,$00,$00,$00,$00,$00
	$B890               .byte $00,$00,$00,$00,$00,$00,$00,$00,$00,$00,$00,$00,$00,$00,$00,$00
	$B8A0               .byte $00,$00,$00,$00,$00,$00,$00,$00,$00,$00,$00,$00,$00,$00,$00,$00
	$B8B0               .byte $00,$00,$00,$00,$00,$00,$00,$00,$00,$00,$00,$00,$00,$00,$00,$00
	$B8C0               .byte $00,$00,$00,$00,$00,$00,$00,$00,$00,$00,$00,$00,$00,$00,$00,$00
	$B8D0               .byte $00,$00,$00,$00,$00,$00,$00,$00,$00,$00,$00,$00,$00,$00,$00,$00
	$B8E0               .byte $00,$00,$00,$00,$00,$00,$00,$00,$00,$00,$00,$00,$00,$00,$00,$00
	$B8F0               .byte $00,$00,$00,$00,$00,$00,$00,$00,$00,$00,$00,$00,$00,$00,$00,$00
	$B900               .byte $00,$00,$00,$00,$00,$00,$00,$00,$00,$00,$00,$00,$00,$00,$00,$00
	$B910               .byte $00,$00,$00,$00,$00,$00,$00,$00,$00,$00,$00,$00,$00,$00,$00,$00
	$B920               .byte $00,$00,$00,$00,$00,$00,$00,$00,$00,$00,$00,$00,$00,$00,$00,$00
	$B930               .byte $00,$00,$00,$00,$00,$00,$00,$00,$00,$00,$00,$00,$00,$00,$00,$00
	$B940               .byte $00,$00,$00,$00,$00,$00,$00,$00,$00,$00,$00,$00,$00,$00,$00,$00
	$B950               .byte $00,$00,$00,$00,$00,$00,$00,$00,$00,$00,$00,$00,$00,$00,$00,$00
	$B960               .byte $00,$00,$00,$00,$00,$00,$00,$00,$00,$00,$00,$00,$00,$00,$00,$00
	$B970               .byte $00,$00,$00,$00,$00,$00,$00,$00,$00,$00,$00,$00,$00,$00,$00,$00
	$B980               .byte $00,$00,$00,$00,$00,$00,$00,$00,$00,$00,$00,$00,$00,$00,$00,$00
	$B990               .byte $00,$00,$00,$00,$00,$00,$00,$00,$00,$00,$00,$00,$00,$00,$00,$00
	$B9A0               .byte $00,$00,$00,$00,$00,$00,$00,$00,$00,$00,$00,$00,$00,$00,$00,$00
	$B9B0               .byte $00,$00,$00,$00,$00,$00,$00,$00,$00,$00,$00,$00,$00,$00,$00,$00
	$B9C0               .byte $00,$00,$00,$00,$00,$00,$00,$00,$00,$00,$00,$00,$00,$00,$00,$00
	$B9D0               .byte $00,$00,$00,$00,$00,$00,$00,$00,$00,$00,$00,$00,$00,$00,$00,$00
	$B9E0               .byte $00,$00,$00,$00,$00,$00,$00,$00,$00,$00,$00,$00,$00,$00,$00,$00
	$B9F0               .byte $00,$00,$00,$00,$00,$00,$00,$00,$00,$00,$00,$00,$00,$00,$00,$00
	$BA00               .byte $00,$00,$00,$00,$00,$00,$00,$00,$00,$00,$00,$00,$00,$00,$00,$00
	$BA10               .byte $00,$00,$00,$00,$00,$00,$00,$00,$00,$00,$00,$00,$00,$00,$00,$00
	$BA20               .byte $00,$00,$00,$00,$00,$00,$00,$00,$00,$00,$00,$00,$00,$00,$00,$00
	$BA30               .byte $00,$00,$00,$00,$00,$00,$00,$00,$00,$00,$00,$00,$00,$00,$00,$00
	$BA40               .byte $00,$00,$00,$00,$00,$00,$00,$00,$00,$00,$00,$00,$00,$00,$00,$00
	$BA50               .byte $00,$00,$00,$00,$00,$00,$00,$00,$00,$00,$00,$00,$00,$00,$00,$00
	$BA60               .byte $00,$00,$00,$00,$00,$00,$00,$00,$00,$00,$00,$00,$00,$00,$00,$00
	$BA70               .byte $00,$00,$00,$00,$00,$00,$00,$00,$00,$00,$00,$00,$00,$00,$00,$00
	$BA80               .byte $00,$00,$00,$00,$00,$00,$00,$00,$00,$00,$00,$00,$00,$00,$00,$00
	$BA90               .byte $00,$00,$00,$00,$00,$00,$00,$00,$00,$00,$00,$00,$00,$00,$00,$00
	$BAA0               .byte $00,$00,$00,$00,$00,$00,$00,$00,$00,$00,$00,$00,$00,$00,$00,$00
	$BAB0               .byte $00,$00,$00,$00,$00,$00,$00,$00,$00,$00,$00,$00,$00,$00,$00,$00
	$BAC0               .byte $00,$00,$00,$00,$00,$00,$00,$00,$00,$00,$00,$00,$00,$00,$00,$00
	$BAD0               .byte $00,$00,$00,$00,$00,$00,$00,$00,$00,$00,$00,$00,$00,$00,$00,$00
	$BAE0               .byte $00,$00,$00,$00,$00,$00,$00,$00,$00,$00,$00,$00,$00,$00,$00,$00
	$BAF0               .byte $00,$00,$00,$00,$00,$00,$00,$00,$00,$00,$00,$00,$00,$00,$00,$00
	$BB00               .byte $00,$00,$00,$00,$00,$00,$00,$00,$00,$00,$00,$00,$00,$00,$00,$00
	$BB10               .byte $00,$00,$00,$00,$00,$00,$00,$00,$00,$00,$00,$00,$00,$00,$00,$00
	$BB20               .byte $00,$00,$00,$00,$00,$00,$00,$00,$00,$00,$00,$00,$00,$00,$00,$00
	$BB30               .byte $00,$00,$00,$00,$00,$00,$00,$00,$00,$00,$00,$00,$00,$00,$00,$00
	$BB40               .byte $00,$00,$00,$00,$00,$00,$00,$00,$00,$00,$00,$00,$00,$00,$00,$00
	$BB50               .byte $00,$00,$00,$00,$00,$00,$00,$00,$00,$00,$00,$00,$00,$00,$00,$00
	$BB60               .byte $00,$00,$00,$00,$00,$00,$00,$00,$00,$00,$00,$00,$00,$00,$00,$00
	$BB70               .byte $00,$00,$00,$00,$00,$00,$00,$00,$00,$00,$00,$00,$00,$00,$00,$00
	$BB80               .byte $00,$00,$00,$00,$00,$00,$00,$00,$00,$00,$00,$00,$00,$00,$00,$00
	$BB90               .byte $00,$00,$00,$00,$00,$00,$00,$00,$00,$00,$00,$00,$00,$00,$00,$00
	$BBA0               .byte $00,$00,$00,$00,$00,$00,$00,$00,$00,$00,$00,$00,$00,$00,$00,$00
	$BBB0               .byte $00,$00,$00,$00,$00,$00,$00,$00,$00,$00,$00,$00,$00,$00,$00,$00
	$BBC0               .byte $00,$00,$00,$00,$00,$00,$00,$00,$00,$00,$00,$00,$00,$00,$00,$00
	$BBD0               .byte $00,$00,$00,$00,$00,$00,$00,$00,$00,$00,$00,$00,$00,$00,$00,$00
	$BBE0               .byte $00,$00,$00,$00,$00,$00,$00,$00,$00,$00,$00,$00,$00,$00,$00,$00
	$BBF0               .byte $00,$00,$00,$00,$00,$00,$00,$00,$00,$00,$00,$00,$00,$00,$00,$00
	$BC00               .byte $00,$00,$00,$00,$00,$00,$00,$00,$00,$00,$00,$00,$00,$00,$00,$00
	$BC10               .byte $00,$00,$00,$00,$00,$00,$00,$00,$00,$00,$00,$00,$00,$00,$00,$00
	$BC20               .byte $00,$00,$00,$00,$00,$00,$00,$00,$00,$00,$00,$00,$00,$00,$00,$00
	$BC30               .byte $00,$00,$00,$00,$00,$00,$00,$00,$00,$00,$00,$00,$00,$00,$00,$00
	$BC40               .byte $00,$00,$00,$00,$00,$00,$00,$00,$00,$00,$00,$00,$00,$00,$00,$00
	$BC50               .byte $00,$00,$00,$00,$00,$00,$00,$00,$00,$00,$00,$00,$00,$00,$00,$00
	$BC60               .byte $00,$00,$00,$00,$00,$00,$00,$00,$00,$00,$00,$00,$00,$00,$00,$00
	$BC70               .byte $00,$00,$00,$00,$00,$00,$00,$00,$00,$00,$00,$00,$00,$00,$00,$00
	$BC80               .byte $00,$00,$00,$00,$00,$00,$00,$00,$00,$00,$00,$00,$00,$00,$00,$00
	$BC90               .byte $00,$00,$00,$00,$00,$00,$00,$00,$00,$00,$00,$00,$00,$00,$00,$00
	$BCA0               .byte $00,$00,$00,$00,$00,$00,$00,$00,$00,$00,$00,$00,$00,$00,$00,$00
	$BCB0               .byte $00,$00,$00,$00,$00,$00,$00,$00,$00,$00,$00,$00,$00,$00,$00,$00
	$BCC0               .byte $00,$00,$00,$00,$00,$00,$00,$00,$00,$00,$00,$00,$00,$00,$00,$00
	$BCD0               .byte $00,$00,$00,$00,$00,$00,$00,$00,$00,$00,$00,$00,$00,$00,$00,$00
	$BCE0               .byte $00,$00,$00,$00,$00,$00,$00,$00,$00,$00,$00,$00,$00,$00,$00,$00
	$BCF0               .byte $00,$00,$00,$00,$00,$00,$00,$00,$00,$00,$00,$00,$00,$00,$00,$00
	$BD00               .byte $00,$00,$00,$00,$00,$00,$00,$00,$00,$00,$00,$00,$00,$00,$00,$00
	$BD10               .byte $00,$00,$00,$00,$00,$00,$00,$00,$00,$00,$00,$00,$00,$00,$00,$00
	$BD20               .byte $00,$00,$00,$00,$00,$00,$00,$00,$00,$00,$00,$00,$00,$00,$00,$00
	$BD30               .byte $00,$00,$00,$00,$00,$00,$00,$00,$00,$00,$00,$00,$00,$00,$00,$00
	$BD40               .byte $00,$00,$00,$00,$00,$00,$00,$00,$00,$00,$00,$00,$00,$00,$00,$00
	$BD50               .byte $00,$00,$00,$00,$00,$00,$00,$00,$00,$00,$00,$00,$00,$00,$00,$00
	$BD60               .byte $00,$00,$00,$00,$00,$00,$00,$00,$00,$00,$00,$00,$00,$00,$00,$00
	$BD70               .byte $00,$00,$00,$00,$00,$00,$00,$00,$00,$00,$00,$00,$00,$00,$00,$00
	$BD80               .byte $00,$00,$00,$00,$00,$00,$00,$00,$00,$00,$00,$00,$00,$00,$00,$00
	$BD90               .byte $00,$00,$00,$00,$00,$00,$00,$00,$00,$00,$00,$00,$00,$00,$00,$00
	$BDA0               .byte $00,$00,$00,$00,$00,$00,$00,$00,$00,$00,$00,$00,$00,$00,$00,$00
	$BDB0               .byte $00,$00,$00,$00,$00,$00,$00,$00,$00,$00,$00,$00,$00,$00,$00,$00
	$BDC0               .byte $00,$00,$00,$00,$00,$00,$00,$00,$00,$00,$00,$00,$00,$00,$00,$00
	$BDD0               .byte $00,$00,$00,$00,$00,$00,$00,$00,$00,$00,$00,$00,$00,$00,$00,$00
	$BDE0               .byte $00,$00,$00,$00,$00,$00,$00,$00,$00,$00,$00,$00,$00,$00,$00,$00
	$BDF0               .byte $00,$00,$00,$00,$00,$00,$00,$00,$00,$00,$00,$00,$00,$00,$00,$00
	$BE00               .byte $00,$00,$00,$00,$00,$00,$00,$00,$00,$00,$00,$00,$00,$00,$00,$00
	$BE10               .byte $00,$00,$00,$00,$00,$00,$00,$00,$00,$00,$00,$00,$00,$00,$00,$00
	$BE20               .byte $00,$00,$00,$00,$00,$00,$00,$00,$00,$00,$00,$00,$00,$00,$00,$00
	$BE30               .byte $00,$00,$00,$00,$00,$00,$00,$00,$00,$00,$00,$00,$00,$00,$00,$00
	$BE40               .byte $00,$00,$00,$00,$00,$00,$00,$00,$00,$00,$00,$00,$00,$00,$00,$00
	$BE50               .byte $00,$00,$00,$00,$00,$00,$00,$00,$00,$00,$00,$00,$00,$00,$00,$00
	$BE60               .byte $00,$00,$00,$00,$00,$00,$00,$00,$00,$00,$00,$00,$00,$00,$00,$00
	$BE70               .byte $00,$00,$00,$00,$00,$00,$00,$00,$00,$00,$00,$00,$00,$00,$00,$00
	$BE80               .byte $00,$00,$00,$00,$00,$00,$00,$00,$00,$00,$00,$00,$00,$00,$00,$00
	$BE90               .byte $00,$00,$00,$00,$00,$00,$00,$00,$00,$00,$00,$00,$00,$00,$00,$00
	$BEA0               .byte $00,$00,$00,$00,$00,$00,$00,$00,$00,$00,$00,$00,$00,$00,$00,$00
	$BEB0               .byte $00,$00,$00,$00,$00,$00,$00,$00,$00,$00,$00,$00,$00,$00,$00,$00
	$BEC0               .byte $00,$00,$00,$00,$00,$00,$00,$00,$00,$00,$00,$00,$00,$00,$00,$00
	$BED0               .byte $00,$00,$00,$00,$00,$00,$00,$00,$00,$00,$00,$00,$00,$00,$00,$00
	$BEE0               .byte $00,$00,$00,$00,$00,$00,$00,$00,$00,$00,$00,$00,$00,$00,$00,$00
	$BEF0               .byte $00,$00,$00,$00,$00,$00,$00,$00,$00,$00,$00,$00,$00,$00,$00,$00
	$BF00               .byte $00,$00,$00,$00,$00,$00,$00,$00,$00,$00,$00,$00,$00,$00,$00,$00
	$BF10               .byte $00,$00,$00,$00,$00,$00,$00,$00,$00,$00,$00,$00,$00,$00,$00,$00
	$BF20               .byte $00,$00,$00,$00,$00,$00,$00,$00,$00,$00,$00,$00,$00,$00,$00,$00
	$BF30               .byte $00,$00,$00,$00,$00,$00,$00,$00,$00,$00,$00,$00,$00,$00,$00,$00
	$BF40               .byte $00,$00,$00,$00,$00,$00,$00,$00,$00,$00,$00,$00,$00,$00,$00,$00
	$BF50               .byte $00,$00,$00,$00,$00,$00,$00,$00,$00,$00,$00,$00,$00,$00,$00,$00
	$BF60               .byte $00,$00,$00,$00,$00,$00,$00,$00,$00,$00,$00,$00,$00,$00,$00,$00
	$BF70               .byte $00,$00,$00,$00,$00,$00,$00,$00,$00,$00,$00,$00,$00,$00,$00,$00
	$BF80               .byte $00,$00,$00,$00,$00,$00,$00,$00,$00,$00,$00,$00,$00,$00,$00,$00
	$BF90               .byte $00,$00,$00,$00,$00,$00,$00,$00,$00,$00,$00,$00,$00,$00,$00,$00
	$BFA0               .byte $00,$00,$00,$00,$00,$00,$00,$00,$00,$00,$00,$00,$00,$00,$00,$00
	$BFB0               .byte $00,$00,$00,$00,$00,$00,$00,$00,$00,$00,$00,$00,$00,$00,$00,$00
	$BFC0               .byte $00,$00,$00,$00,$00,$00,$00,$00,$00,$00,$00,$00,$00,$00,$00,$00
	$BFD0               .byte $00,$00,$00,$00,$00,$00,$00,$00,$00,$00,$00,$00,$00,$00,$00,$00
	$BFE0               .byte $00,$00,$00,$00,$00,$00,$00,$00,$00,$00,$00,$00,$00,$00,$00,$00
	$BFF0               .byte $00,$00,$00,$00,$00,$00,$00,$00,$00,$00,$00,$00,$00,$00,$00,$00
	$C000               .byte $00,$00,$00,$00,$00,$00,$00,$00,$00,$00,$00,$00,$00,$00,$00,$00
	$C010               .byte $00,$00,$00,$00,$00,$00,$00,$00,$00,$00,$00,$00,$00,$00,$00,$00
	$C020               .byte $00,$00,$00,$00,$00,$00,$00,$00,$00,$00,$00,$00,$00,$00,$00,$00
	$C030               .byte $00,$00,$00,$00,$00,$00,$00,$00,$00,$00,$00,$00,$00,$00,$00,$00
	$C040               .byte $00,$00,$00,$00,$00,$00,$00,$00,$00,$00,$00,$00,$00,$00,$00,$00
	$C050               .byte $00,$00,$00,$00,$00,$00,$00,$00,$00,$00,$00,$00,$00,$00,$00,$00
	$C060               .byte $00,$00,$00,$00,$00,$00,$00,$00,$00,$00,$00,$00,$00,$00,$00,$00
	$C070               .byte $00,$00,$00,$00,$00,$00,$00,$00,$00,$00,$00,$00,$00,$00,$00,$00
	$C080               .byte $00,$00,$00,$00,$00,$00,$00,$00,$00,$00,$00,$00,$00,$00,$00,$00
	$C090               .byte $00,$00,$00,$00,$00,$00,$00,$00,$00,$00,$00,$00,$00,$00,$00,$00
	$C0A0               .byte $00,$00,$00,$00,$00,$00,$00,$00,$00,$00,$00,$00,$00,$00,$00,$00
	$C0B0               .byte $00,$00,$00,$00,$00,$00,$00,$00,$00,$00,$00,$00,$00,$00,$00,$00
	$C0C0               .byte $00,$00,$00,$00,$00,$00,$00,$00,$00,$00,$00,$00,$00,$00,$00,$00
	$C0D0               .byte $00,$00,$00,$00,$00,$00,$00,$00,$00,$00,$00,$00,$00,$00,$00,$00
	$C0E0               .byte $00,$00,$00,$00,$00,$00,$00,$00,$00,$00,$00,$00,$00,$00,$00,$00
	$C0F0               .byte $00,$00,$00,$00,$00,$00,$00,$00,$00,$00,$00,$00,$00,$00,$00,$00
	$C100               .byte $00,$00,$00,$00,$00,$00,$00,$00,$00,$00,$00,$00,$00,$00,$00,$00
	$C110               .byte $00,$00,$00,$00,$00,$00,$00,$00,$00,$00,$00,$00,$00,$00,$00,$00
	$C120               .byte $00,$00,$00,$00,$00,$00,$00,$00,$00,$00,$00,$00,$00,$00,$00,$00
	$C130               .byte $00,$00,$00,$00,$00,$00,$00,$00,$00,$00,$00,$00,$00,$00,$00,$00
	$C140               .byte $00,$00,$00,$00,$00,$00,$00,$00,$00,$00,$00,$00,$00,$00,$00,$00
	$C150               .byte $00,$00,$00,$00,$00,$00,$00,$00,$00,$00,$00,$00,$00,$00,$00,$00
	$C160               .byte $00,$00,$00,$00,$00,$00,$00,$00,$00,$00,$00,$00,$00,$00,$00,$00
	$C170               .byte $00,$00,$00,$00,$00,$00,$00,$00,$00,$00,$00,$00,$00,$00,$00,$00
	$C180               .byte $00,$00,$00,$00,$00,$00,$00,$00,$00,$00,$00,$00,$00,$00,$00,$00
	$C190               .byte $00,$00,$00,$00,$00,$00,$00,$00,$00,$00,$00,$00,$00,$00,$00,$00
	$C1A0               .byte $00,$00,$00,$00,$00,$00,$00,$00,$00,$00,$00,$00,$00,$00,$00,$00
	$C1B0               .byte $00,$00,$00,$00,$00,$00,$00,$00,$00,$00,$00,$00,$00,$00,$00,$00
	$C1C0               .byte $00,$00,$00,$00,$00,$00,$00,$00,$00,$00,$00,$00,$00,$00,$00,$00
	$C1D0               .byte $00,$00,$00,$00,$00,$00,$00,$00,$00,$00,$00,$00,$00,$00,$00,$00
	$C1E0               .byte $00,$00,$00,$00,$00,$00,$00,$00,$00,$00,$00,$00,$00,$00,$00,$00
	$C1F0               .byte $00,$00,$00,$00,$00,$00,$00,$00,$00,$00,$00,$00,$00,$00,$00,$00
	$C200               .byte $00,$00,$00,$00,$00,$00,$00,$00,$00,$00,$00,$00,$00,$00,$00,$00
	$C210               .byte $00,$00,$00,$00,$00,$00,$00,$00,$00,$00,$00,$00,$00,$00,$00,$00
	$C220               .byte $00,$00,$00,$00,$00,$00,$00,$00,$00,$00,$00,$00,$00,$00,$00,$00
	$C230               .byte $00,$00,$00,$00,$00,$00,$00,$00,$00,$00,$00,$00,$00,$00,$00,$00
	$C240               .byte $00,$00,$00,$00,$00,$00,$00,$00,$00,$00,$00,$00,$00,$00,$00,$00
	$C250               .byte $00,$00,$00,$00,$00,$00,$00,$00,$00,$00,$00,$00,$00,$00,$00,$00
	$C260               .byte $00,$00,$00,$00,$00,$00,$00,$00,$00,$00,$00,$00,$00,$00,$00,$00
	$C270               .byte $00,$00,$00,$00,$00,$00,$00,$00,$00,$00,$00,$00,$00,$00,$00,$00
	$C280               .byte $00,$00,$00,$00,$00,$00,$00,$00,$00,$00,$00,$00,$00,$00,$00,$00
	$C290               .byte $00,$00,$00,$00,$00,$00,$00,$00,$00,$00,$00,$00,$00,$00,$00,$00
	$C2A0               .byte $00,$00,$00,$00,$00,$00,$00,$00,$00,$00,$00,$00,$00,$00,$00,$00
	$C2B0               .byte $00,$00,$00,$00,$00,$00,$00,$00,$00,$00,$00,$00,$00,$00,$00,$00
	$C2C0               .byte $00,$00,$00,$00,$00,$00,$00,$00,$00,$00,$00,$00,$00,$00,$00,$00
	$C2D0               .byte $00,$00,$00,$00,$00,$00,$00,$00,$00,$00,$00,$00,$00,$00,$00,$00
	$C2E0               .byte $00,$00,$00,$00,$00,$00,$00,$00,$00,$00,$00,$00,$00,$00,$00,$00
	$C2F0               .byte $00,$00,$00,$00,$00,$00,$00,$00,$00,$00,$00,$00,$00,$00,$00,$00
	$C300               .byte $00,$00,$00,$00,$00,$00,$00,$00,$00,$00,$00,$00,$00,$00,$00,$00
	$C310               .byte $00,$00,$00,$00,$00,$00,$00,$00,$00,$00,$00,$00,$00,$00,$00,$00
	$C320               .byte $00,$00,$00,$00,$00,$00,$00,$00,$00,$00,$00,$00,$00,$00,$00,$00
	$C330               .byte $00,$00,$00,$00,$00,$00,$00,$00,$00,$00,$00,$00,$00,$00,$00,$00
	$C340               .byte $00,$00,$00,$00,$00,$00,$00,$00,$00,$00,$00,$00,$00,$00,$00,$00
	$C350               .byte $00,$00,$00,$00,$00,$00,$00,$00,$00,$00,$00,$00,$00,$00,$00,$00
	$C360               .byte $00,$00,$00,$00,$00,$00,$00,$00,$00,$00,$00,$00,$00,$00,$00,$00
	$C370               .byte $00,$00,$00,$00,$00,$00,$00,$00,$00,$00,$00,$00,$00,$00,$00,$00
	$C380               .byte $00,$00,$00,$00,$00,$00,$00,$00,$00,$00,$00,$00,$00,$00,$00,$00
	$C390               .byte $00,$00,$00,$00,$00,$00,$00,$00,$00,$00,$00,$00,$00,$00,$00,$00
	$C3A0               .byte $00,$00,$00,$00,$00,$00,$00,$00,$00,$00,$00,$00,$00,$00,$00,$00
	$C3B0               .byte $00,$00,$00,$00,$00,$00,$00,$00,$00,$00,$00,$00,$00,$00,$00,$00
	$C3C0               .byte $00,$00,$00,$00,$00,$00,$00,$00,$00,$00,$00,$00,$00,$00,$00,$00
	$C3D0               .byte $00,$00,$00,$00,$00,$00,$00,$00,$00,$00,$00,$00,$00,$00,$00,$00
	$C3E0               .byte $00,$00,$00,$00,$00,$00,$00,$00,$00,$00,$00,$00,$00,$00,$00,$00
	$C3F0               .byte $00,$00,$00,$00,$00,$00,$00,$00,$00,$00,$00,$00,$00,$00,$00,$00
	$C400               .byte $00,$00,$00,$00,$00,$00,$00,$00,$00,$00,$00,$00,$00,$00,$00,$00
	$C410               .byte $00,$00,$00,$00,$00,$00,$00,$00,$00,$00,$00,$00,$00,$00,$00,$00
	$C420               .byte $00,$00,$00,$00,$00,$00,$00,$00,$00,$00,$00,$00,$00,$00,$00,$00
	$C430               .byte $00,$00,$00,$00,$00,$00,$00,$00,$00,$00,$00,$00,$00,$00,$00,$00
	$C440               .byte $00,$00,$00,$00,$00,$00,$00,$00,$00,$00,$00,$00,$00,$00,$00,$00
	$C450               .byte $00,$00,$00,$00,$00,$00,$00,$00,$00,$00,$00,$00,$00,$00,$00,$00
	$C460               .byte $00,$00,$00,$00,$00,$00,$00,$00,$00,$00,$00,$00,$00,$00,$00,$00
	$C470               .byte $00,$00,$00,$00,$00,$00,$00,$00,$00,$00,$00,$00,$00,$00,$00,$00
	$C480               .byte $00,$00,$00,$00,$00,$00,$00,$00,$00,$00,$00,$00,$00,$00,$00,$00
	$C490               .byte $00,$00,$00,$00,$00,$00,$00,$00,$00,$00,$00,$00,$00,$00,$00,$00
	$C4A0               .byte $00,$00,$00,$00,$00,$00,$00,$00,$00,$00,$00,$00,$00,$00,$00,$00
	$C4B0               .byte $00,$00,$00,$00,$00,$00,$00,$00,$00,$00,$00,$00,$00,$00,$00,$00
	$C4C0               .byte $00,$00,$00,$00,$00,$00,$00,$00,$00,$00,$00,$00,$00,$00,$00,$00
	$C4D0               .byte $00,$00,$00,$00,$00,$00,$00,$00,$00,$00,$00,$00,$00,$00,$00,$00
	$C4E0               .byte $00,$00,$00,$00,$00,$00,$00,$00,$00,$00,$00,$00,$00,$00,$00,$00
	$C4F0               .byte $00,$00,$00,$00,$00,$00,$00,$00,$00,$00,$00,$00,$00,$00,$00,$00
	$C500               .byte $00,$00,$00,$00,$00,$00,$00,$00,$00,$00,$00,$00,$00,$00,$00,$00
	$C510               .byte $00,$00,$00,$00,$00,$00,$00,$00,$00,$00,$00,$00,$00,$00,$00,$00
	$C520               .byte $00,$00,$00,$00,$00,$00,$00,$00,$00,$00,$00,$00,$00,$00,$00,$00
	$C530               .byte $00,$00,$00,$00,$00,$00,$00,$00,$00,$00,$00,$00,$00,$00,$00,$00
	$C540               .byte $00,$00,$00,$00,$00,$00,$00,$00,$00,$00,$00,$00,$00,$00,$00,$00
	$C550               .byte $00,$00,$00,$00,$00,$00,$00,$00,$00,$00,$00,$00,$00,$00,$00,$00
	$C560               .byte $00,$00,$00,$00,$00,$00,$00,$00,$00,$00,$00,$00,$00,$00,$00,$00
	$C570               .byte $00,$00,$00,$00,$00,$00,$00,$00,$00,$00,$00,$00,$00,$00,$00,$00
	$C580               .byte $00,$00,$00,$00,$00,$00,$00,$00,$00,$00,$00,$00,$00,$00,$00,$00
	$C590               .byte $00,$00,$00,$00,$00,$00,$00,$00,$00,$00,$00,$00,$00,$00,$00,$00
	$C5A0               .byte $00,$00,$00,$00,$00,$00,$00,$00,$00,$00,$00,$00,$00,$00,$00,$00
	$C5B0               .byte $00,$00,$00,$00,$00,$00,$00,$00,$00,$00,$00,$00,$00,$00,$00,$00
	$C5C0               .byte $00,$00,$00,$00,$00,$00,$00,$00,$00,$00,$00,$00,$00,$00,$00,$00
	$C5D0               .byte $00,$00,$00,$00,$00,$00,$00,$00,$00,$00,$00,$00,$00,$00,$00,$00
	$C5E0               .byte $00,$00,$00,$00,$00,$00,$00,$00,$00,$00,$00,$00,$00,$00,$00,$00
	$C5F0               .byte $00,$00,$00,$00,$00,$00,$00,$00,$00,$00,$00,$00,$00,$00,$00,$00
	$C600               .byte $00,$00,$00,$00,$00,$00,$00,$00,$00,$00,$00,$00,$00,$00,$00,$00
	$C610               .byte $00,$00,$00,$00,$00,$00,$00,$00,$00,$00,$00,$00,$00,$00,$00,$00
	$C620               .byte $00,$00,$00,$00,$00,$00,$00,$00,$00,$00,$00,$00,$00,$00,$00,$00
	$C630               .byte $00,$00,$00,$00,$00,$00,$00,$00,$00,$00,$00,$00,$00,$00,$00,$00
	$C640               .byte $00,$00,$00,$00,$00,$00,$00,$00,$00,$00,$00,$00,$00,$00,$00,$00
	$C650               .byte $00,$00,$00,$00,$00,$00,$00,$00,$00,$00,$00,$00,$00,$00,$00,$00
	$C660               .byte $00,$00,$00,$00,$00,$00,$00,$00,$00,$00,$00,$00,$00,$00,$00,$00
	$C670               .byte $00,$00,$00,$00,$00,$00,$00,$00,$00,$00,$00,$00,$00,$00,$00,$00
	$C680               .byte $00,$00,$00,$00,$00,$00,$00,$00,$00,$00,$00,$00,$00,$00,$00,$00
	$C690               .byte $00,$00,$00,$00,$00,$00,$00,$00,$00,$00,$00,$00,$00,$00,$00,$00
	$C6A0               .byte $00,$00,$00,$00,$00,$00,$00,$00,$00,$00,$00,$00,$00,$00,$00,$00
	$C6B0               .byte $00,$00,$00,$00,$00,$00,$00,$00,$00,$00,$00,$00,$00,$00,$00,$00
	$C6C0               .byte $00,$00,$00,$00,$00,$00,$00,$00,$00,$00,$00,$00,$00,$00,$00,$00
	$C6D0               .byte $00,$00,$00,$00,$00,$00,$00,$00,$00,$00,$00,$00,$00,$00,$00,$00
	$C6E0               .byte $00,$00,$00,$00,$00,$00,$00,$00,$00,$00,$00,$00,$00,$00,$00,$00
	$C6F0               .byte $00,$00,$00,$00,$00,$00,$00,$00,$00,$00,$00,$00,$00,$00,$00,$00
	$C700               .byte $00,$00,$00,$00,$00,$00,$00,$00,$00,$00,$00,$00,$00,$00,$00,$00
	$C710               .byte $00,$00,$00,$00,$00,$00,$00,$00,$00,$00,$00,$00,$00,$00,$00,$00
	$C720               .byte $00,$00,$00,$00,$00,$00,$00,$00,$00,$00,$00,$00,$00,$00,$00,$00
	$C730               .byte $00,$00,$00,$00,$00,$00,$00,$00,$00,$00,$00,$00,$00,$00,$00,$00
	$C740               .byte $00,$00,$00,$00,$00,$00,$00,$00,$00,$00,$00,$00,$00,$00,$00,$00
	$C750               .byte $00,$00,$00,$00,$00,$00,$00,$00,$00,$00,$00,$00,$00,$00,$00,$00
	$C760               .byte $00,$00,$00,$00,$00,$00,$00,$00,$00,$00,$00,$00,$00,$00,$00,$00
	$C770               .byte $00,$00,$00,$00,$00,$00,$00,$00,$00,$00,$00,$00,$00,$00,$00,$00
	$C780               .byte $00,$00,$00,$00,$00,$00,$00,$00,$00,$00,$00,$00,$00,$00,$00,$00
	$C790               .byte $00,$00,$00,$00,$00,$00,$00,$00,$00,$00,$00,$00,$00,$00,$00,$00
	$C7A0               .byte $00,$00,$00,$00,$00,$00,$00,$00,$00,$00,$00,$00,$00,$00,$00,$00
	$C7B0               .byte $00,$00,$00,$00,$00,$00,$00,$00,$00,$00,$00,$00,$00,$00,$00,$00
	$C7C0               .byte $00,$00,$00,$00,$00,$00,$00,$00,$00,$00,$00,$00,$00,$00,$00,$00
	$C7D0               .byte $00,$00,$00,$00,$00,$00,$00,$00,$00,$00,$00,$00,$00,$00,$00,$00
	$C7E0               .byte $00,$00,$00,$00,$00,$00,$00,$00,$00,$00,$00,$00,$00,$00,$00,$00
	$C7F0               .byte $00,$00,$00,$00,$00,$00,$00,$00,$00,$00,$00,$00,$00,$00,$00,$00
	$C800               .byte $00,$00,$00,$00,$00,$00,$00,$00,$00,$00,$00,$00,$00,$00,$00,$00
	$C810               .byte $00,$00,$00,$00,$00,$00,$00,$00,$00,$00,$00,$00,$00,$00,$00,$00
	$C820               .byte $00,$00,$00,$00,$00,$00,$00,$00,$00,$00,$00,$00,$00,$00,$00,$00
	$C830               .byte $00,$00,$00,$00,$00,$00,$00,$00,$00,$00,$00,$00,$00,$00,$00,$00
	$C840               .byte $00,$00,$00,$00,$00,$00,$00,$00,$00,$00,$00,$00,$00,$00,$00,$00
	$C850               .byte $00,$00,$00,$00,$00,$00,$00,$00,$00,$00,$00,$00,$00,$00,$00,$00
	$C860               .byte $00,$00,$00,$00,$00,$00,$00,$00,$00,$00,$00,$00,$00,$00,$00,$00
	$C870               .byte $00,$00,$00,$00,$00,$00,$00,$00,$00,$00,$00,$00,$00,$00,$00,$00
	$C880               .byte $00,$00,$00,$00,$00,$00,$00,$00,$00,$00,$00,$00,$00,$00,$00,$00
	$C890               .byte $00,$00,$00,$00,$00,$00,$00,$00,$00,$00,$00,$00,$00,$00,$00,$00
	$C8A0               .byte $00,$00,$00,$00,$00,$00,$00,$00,$00,$00,$00,$00,$00,$00,$00,$00
	$C8B0               .byte $00,$00,$00,$00,$00,$00,$00,$00,$00,$00,$00,$00,$00,$00,$00,$00
	$C8C0               .byte $00,$00,$00,$00,$00,$00,$00,$00,$00,$00,$00,$00,$00,$00,$00,$00
	$C8D0               .byte $00,$00,$00,$00,$00,$00,$00,$00,$00,$00,$00,$00,$00,$00,$00,$00
	$C8E0               .byte $00,$00,$00,$00,$00,$00,$00,$00,$00,$00,$00,$00,$00,$00,$00,$00
	$C8F0               .byte $00,$00,$00,$00,$00,$00,$00,$00,$00,$00,$00,$00,$00,$00,$00,$00
	$C900               .byte $00,$00,$00,$00,$00,$00,$00,$00,$00,$00,$00,$00,$00,$00,$00,$00
	$C910               .byte $00,$00,$00,$00,$00,$00,$00,$00,$00,$00,$00,$00,$00,$00,$00,$00
	$C920               .byte $00,$00,$00,$00,$00,$00,$00,$00,$00,$00,$00,$00,$00,$00,$00,$00
	$C930               .byte $00,$00,$00,$00,$00,$00,$00,$00,$00,$00,$00,$00,$00,$00,$00,$00
	$C940               .byte $00,$00,$00,$00,$00,$00,$00,$00,$00,$00,$00,$00,$00,$00,$00,$00
	$C950               .byte $00,$00,$00,$00,$00,$00,$00,$00,$00,$00,$00,$00,$00,$00,$00,$00
	$C960               .byte $00,$00,$00,$00,$00,$00,$00,$00,$00,$00,$00,$00,$00,$00,$00,$00
	$C970               .byte $00,$00,$00,$00,$00,$00,$00,$00,$00,$00,$00,$00,$00,$00,$00,$00
	$C980               .byte $00,$00,$00,$00,$00,$00,$00,$00,$00,$00,$00,$00,$00,$00,$00,$00
	$C990               .byte $00,$00,$00,$00,$00,$00,$00,$00,$00,$00,$00,$00,$00,$00,$00,$00
	$C9A0               .byte $00,$00,$00,$00,$00,$00,$00,$00,$00,$00,$00,$00,$00,$00,$00,$00
	$C9B0               .byte $00,$00,$00,$00,$00,$00,$00,$00,$00,$00,$00,$00,$00,$00,$00,$00
	$C9C0               .byte $00,$00,$00,$00,$00,$00,$00,$00,$00,$00,$00,$00,$00,$00,$00,$00
	$C9D0               .byte $00,$00,$00,$00,$00,$00,$00,$00,$00,$00,$00,$00,$00,$00,$00,$00
	$C9E0               .byte $00,$00,$00,$00,$00,$00,$00,$00,$00,$00,$00,$00,$00,$00,$00,$00
	$C9F0               .byte $00,$00,$00,$00,$00,$00,$00,$00,$00,$00,$00,$00,$00,$00,$00,$00
	$CA00               .byte $00,$00,$00,$00,$00,$00,$00,$00,$00,$00,$00,$00,$00,$00,$00,$00
	$CA10               .byte $00,$00,$00,$00,$00,$00,$00,$00,$00,$00,$00,$00,$00,$00,$00,$00
	$CA20               .byte $00,$00,$00,$00,$00,$00,$00,$00,$00,$00,$00,$00,$00,$00,$00,$00
	$CA30               .byte $00,$00,$00,$00,$00,$00,$00,$00,$00,$00,$00,$00,$00,$00,$00,$00
	$CA40               .byte $00,$00,$00,$00,$00,$00,$00,$00,$00,$00,$00,$00,$00,$00,$00,$00
	$CA50               .byte $00,$00,$00,$00,$00,$00,$00,$00,$00,$00,$00,$00,$00,$00,$00,$00
	$CA60               .byte $00,$00,$00,$00,$00,$00,$00,$00,$00,$00,$00,$00,$00,$00,$00,$00
	$CA70               .byte $00,$00,$00,$00,$00,$00,$00,$00,$00,$00,$00,$00,$00,$00,$00,$00
	$CA80               .byte $00,$00,$00,$00,$00,$00,$00,$00,$00,$00,$00,$00,$00,$00,$00,$00
	$CA90               .byte $00,$00,$00,$00,$00,$00,$00,$00,$00,$00,$00,$00,$00,$00,$00,$00
	$CAA0               .byte $00,$00,$00,$00,$00,$00,$00,$00,$00,$00,$00,$00,$00,$00,$00,$00
	$CAB0               .byte $00,$00,$00,$00,$00,$00,$00,$00,$00,$00,$00,$00,$00,$00,$00,$00
	$CAC0               .byte $00,$00,$00,$00,$00,$00,$00,$00,$00,$00,$00,$00,$00,$00,$00,$00
	$CAD0               .byte $00,$00,$00,$00,$00,$00,$00,$00,$00,$00,$00,$00,$00,$00,$00,$00
	$CAE0               .byte $00,$00,$00,$00,$00,$00,$00,$00,$00,$00,$00,$00,$00,$00,$00,$00
	$CAF0               .byte $00,$00,$00,$00,$00,$00,$00,$00,$00,$00,$00,$00,$00,$00,$00,$00
	$CB00               .byte $00,$00,$00,$00,$00,$00,$00,$00,$00,$00,$00,$00,$00,$00,$00,$00
	$CB10               .byte $00,$00,$00,$00,$00,$00,$00,$00,$00,$00,$00,$00,$00,$00,$00,$00
	$CB20               .byte $00,$00,$00,$00,$00,$00,$00,$00,$00,$00,$00,$00,$00,$00,$00,$00
	$CB30               .byte $00,$00,$00,$00,$00,$00,$00,$00,$00,$00,$00,$00,$00,$00,$00,$00
	$CB40               .byte $00,$00,$00,$00,$00,$00,$00,$00,$00,$00,$00,$00,$00,$00,$00,$00
	$CB50               .byte $00,$00,$00,$00,$00,$00,$00,$00,$00,$00,$00,$00,$00,$00,$00,$00
	$CB60               .byte $00,$00,$00,$00,$00,$00,$00,$00,$00,$00,$00,$00,$00,$00,$00,$00
	$CB70               .byte $00,$00,$00,$00,$00,$00,$00,$00,$00,$00,$00,$00,$00,$00,$00,$00
	$CB80               .byte $00,$00,$00,$00,$00,$00,$00,$00,$00,$00,$00,$00,$00,$00,$00,$00
	$CB90               .byte $00,$00,$00,$00,$00,$00,$00,$00,$00,$00,$00,$00,$00,$00,$00,$00
	$CBA0               .byte $00,$00,$00,$00,$00,$00,$00,$00,$00,$00,$00,$00,$00,$00,$00,$00
	$CBB0               .byte $00,$00,$00,$00,$00,$00,$00,$00,$00,$00,$00,$00,$00,$00,$00,$00
	$CBC0               .byte $00,$00,$00,$00,$00,$00,$00,$00,$00,$00,$00,$00,$00,$00,$00,$00
	$CBD0               .byte $00,$00,$00,$00,$00,$00,$00,$00,$00,$00,$00,$00,$00,$00,$00,$00
	$CBE0               .byte $00,$00,$00,$00,$00,$00,$00,$00,$00,$00,$00,$00,$00,$00,$00,$00
	$CBF0               .byte $00,$00,$00,$00,$00,$00,$00,$00,$00,$00,$00,$00,$00,$00,$00,$00
	$CC00               .byte $00,$00,$00,$00,$00,$00,$00,$00,$00,$00,$00,$00,$00,$00,$00,$00
	$CC10               .byte $00,$00,$00,$00,$00,$00,$00,$00,$00,$00,$00,$00,$00,$00,$00,$00
	$CC20               .byte $00,$00,$00,$00,$00,$00,$00,$00,$00,$00,$00,$00,$00,$00,$00,$00
	$CC30               .byte $00,$00,$00,$00,$00,$00,$00,$00,$00,$00,$00,$00,$00,$00,$00,$00
	$CC40               .byte $00,$00,$00,$00,$00,$00,$00,$00,$00,$00,$00,$00,$00,$00,$00,$00
	$CC50               .byte $00,$00,$00,$00,$00,$00,$00,$00,$00,$00,$00,$00,$00,$00,$00,$00
	$CC60               .byte $00,$00,$00,$00,$00,$00,$00,$00,$00,$00,$00,$00,$00,$00,$00,$00
	$CC70               .byte $00,$00,$00,$00,$00,$00,$00,$00,$00,$00,$00,$00,$00,$00,$00,$00
	$CC80               .byte $00,$00,$00,$00,$00,$00,$00,$00,$00,$00,$00,$00,$00,$00,$00,$00
	$CC90               .byte $00,$00,$00,$00,$00,$00,$00,$00,$00,$00,$00,$00,$00,$00,$00,$00
	$CCA0               .byte $00,$00,$00,$00,$00,$00,$00,$00,$00,$00,$00,$00,$00,$00,$00,$00
	$CCB0               .byte $00,$00,$00,$00,$00,$00,$00,$00,$00,$00,$00,$00,$00,$00,$00,$00
	$CCC0               .byte $00,$00,$00,$00,$00,$00,$00,$00,$00,$00,$00,$00,$00,$00,$00,$00
	$CCD0               .byte $00,$00,$00,$00,$00,$00,$00,$00,$00,$00,$00,$00,$00,$00,$00,$00
	$CCE0               .byte $00,$00,$00,$00,$00,$00,$00,$00,$00,$00,$00,$00,$00,$00,$00,$00
	$CCF0               .byte $00,$00,$00,$00,$00,$00,$00,$00,$00,$00,$00,$00,$00,$00,$00,$00
	$CD00               .byte $00,$00,$00,$00,$00,$00,$00,$00,$00,$00,$00,$00,$00,$00,$00,$00
	$CD10               .byte $00,$00,$00,$00,$00,$00,$00,$00,$00,$00,$00,$00,$00,$00,$00,$00
	$CD20               .byte $00,$00,$00,$00,$00,$00,$00,$00,$00,$00,$00,$00,$00,$00,$00,$00
	$CD30               .byte $00,$00,$00,$00,$00,$00,$00,$00,$00,$00,$00,$00,$00,$00,$00,$00
	$CD40               .byte $00,$00,$00,$00,$00,$00,$00,$00,$00,$00,$00,$00,$00,$00,$00,$00
	$CD50               .byte $00,$00,$00,$00,$00,$00,$00,$00,$00,$00,$00,$00,$00,$00,$00,$00
	$CD60               .byte $00,$00,$00,$00,$00,$00,$00,$00,$00,$00,$00,$00,$00,$00,$00,$00
	$CD70               .byte $00,$00,$00,$00,$00,$00,$00,$00,$00,$00,$00,$00,$00,$00,$00,$00
	$CD80               .byte $00,$00,$00,$00,$00,$00,$00,$00,$00,$00,$00,$00,$00,$00,$00,$00
	$CD90               .byte $00,$00,$00,$00,$00,$00,$00,$00,$00,$00,$00,$00,$00,$00,$00,$00
	$CDA0               .byte $00,$00,$00,$00,$00,$00,$00,$00,$00,$00,$00,$00,$00,$00,$00,$00
	$CDB0               .byte $00,$00,$00,$00,$00,$00,$00,$00,$00,$00,$00,$00,$00,$00,$00,$00
	$CDC0               .byte $00,$00,$00,$00,$00,$00,$00,$00,$00,$00,$00,$00,$00,$00,$00,$00
	$CDD0               .byte $00,$00,$00,$00,$00,$00,$00,$00,$00,$00,$00,$00,$00,$00,$00,$00
	$CDE0               .byte $00,$00,$00,$00,$00,$00,$00,$00,$00,$00,$00,$00,$00,$00,$00,$00
	$CDF0               .byte $00,$00,$00,$00,$00,$00,$00,$00,$00,$00,$00,$00,$00,$00,$00,$00
	$CE00               .byte $00,$00,$00,$00,$00,$00,$00,$00,$00,$00,$00,$00,$00,$00,$00,$00
	$CE10               .byte $00,$00,$00,$00,$00,$00,$00,$00,$00,$00,$00,$00,$00,$00,$00,$00
	$CE20               .byte $00,$00,$00,$00,$00,$00,$00,$00,$00,$00,$00,$00,$00,$00,$00,$00
	$CE30               .byte $00,$00,$00,$00,$00,$00,$00,$00,$00,$00,$00,$00,$00,$00,$00,$00
	$CE40               .byte $00,$00,$00,$00,$00,$00,$00,$00,$00,$00,$00,$00,$00,$00,$00,$00
	$CE50               .byte $00,$00,$00,$00,$00,$00,$00,$00,$00,$00,$00,$00,$00,$00,$00,$00
	$CE60               .byte $00,$00,$00,$00,$00,$00,$00,$00,$00,$00,$00,$00,$00,$00,$00,$00
	$CE70               .byte $00,$00,$00,$00,$00,$00,$00,$00,$00,$00,$00,$00,$00,$00,$00,$00
	$CE80               .byte $00,$00,$00,$00,$00,$00,$00,$00,$00,$00,$00,$00,$00,$00,$00,$00
	$CE90               .byte $00,$00,$00,$00,$00,$00,$00,$00,$00,$00,$00,$00,$00,$00,$00,$00
	$CEA0               .byte $00,$00,$00,$00,$00,$00,$00,$00,$00,$00,$00,$00,$00,$00,$00,$00
	$CEB0               .byte $00,$00,$00,$00,$00,$00,$00,$00,$00,$00,$00,$00,$00,$00,$00,$00
	$CEC0               .byte $00,$00,$00,$00,$00,$00,$00,$00,$00,$00,$00,$00,$00,$00,$00,$00
	$CED0               .byte $00,$00,$00,$00,$00,$00,$00,$00,$00,$00,$00,$00,$00,$00,$00,$00
	$CEE0               .byte $00,$00,$00,$00,$00,$00,$00,$00,$00,$00,$00,$00,$00,$00,$00,$00
	$CEF0               .byte $00,$00,$00,$00,$00,$00,$00,$00,$00,$00,$00,$00,$00,$00,$00,$00
	$CF00               .byte $00,$00,$00,$00,$00,$00,$00,$00,$00,$00,$00,$00,$00,$00,$00,$00
	$CF10               .byte $00,$00,$00,$00,$00,$00,$00,$00,$00,$00,$00,$00,$00,$00,$00,$00
	$CF20               .byte $00,$00,$00,$00,$00,$00,$00,$00,$00,$00,$00,$00,$00,$00,$00,$00
	$CF30               .byte $00,$00,$00,$00,$00,$00,$00,$00,$00,$00,$00,$00,$00,$00,$00,$00
	$CF40               .byte $00,$00,$00,$00,$00,$00,$00,$00,$00,$00,$00,$00,$00,$00,$00,$00
	$CF50               .byte $00,$00,$00,$00,$00,$00,$00,$00,$00,$00,$00,$00,$00,$00,$00,$00
	$CF60               .byte $00,$00,$00,$00,$00,$00,$00,$00,$00,$00,$00,$00,$00,$00,$00,$00
	$CF70               .byte $00,$00,$00,$00,$00,$00,$00,$00,$00,$00,$00,$00,$00,$00,$00,$00
	$CF80               .byte $00,$00,$00,$00,$00,$00,$00,$00,$00,$00,$00,$00,$00,$00,$00,$00
	$CF90               .byte $00,$00,$00,$00,$00,$00,$00,$00,$00,$00,$00,$00,$00,$00,$00,$00
	$CFA0               .byte $00,$00,$00,$00,$00,$00,$00,$00,$00,$00,$00,$00,$00,$00,$00,$00
	$CFB0               .byte $00,$00,$00,$00,$00,$00,$00,$00,$00,$00,$00,$00,$00,$00,$00,$00
	$CFC0               .byte $00,$00,$00,$00,$00,$00,$00,$00,$00,$00,$00,$00,$00,$00,$00,$00
	$CFD0               .byte $00,$00,$00,$00,$00,$00,$00,$00,$00,$00,$00,$00,$00,$00,$00,$00
	$CFE0               .byte $00,$00,$00,$00,$00,$00,$00,$00,$00,$00,$00,$00,$00,$00,$00,$00
	$CFF0               .byte $00,$00,$00,$00,$00,$00,$00,$00,$00,$00,$00,$00,$00,$00,$00,$00
	$D000               .byte $00,$00,$00,$00,$00,$00,$00,$00,$00,$00,$00,$00,$00,$00,$00,$00
	$D010               .byte $00,$00,$00,$00,$00,$00,$00,$00,$00,$00,$00,$00,$00,$00,$00,$00
	$D020               .byte $00,$00,$00,$00,$00,$00,$00,$00,$00,$00,$00,$00,$00,$00,$00,$00
	$D030               .byte $00,$00,$00,$00,$00,$00,$00,$00,$00,$00,$00,$00,$00,$00,$00,$00
	$D040               .byte $00,$00,$00,$00,$00,$00,$00,$00,$00,$00,$00,$00,$00,$00,$00,$00
	$D050               .byte $00,$00,$00,$00,$00,$00,$00,$00,$00,$00,$00,$00,$00,$00,$00,$00
	$D060               .byte $00,$00,$00,$00,$00,$00,$00,$00,$00,$00,$00,$00,$00,$00,$00,$00
	$D070               .byte $00,$00,$00,$00,$00,$00,$00,$00,$00,$00,$00,$00,$00,$00,$00,$00
	$D080               .byte $00,$00,$00,$00,$00,$00,$00,$00,$00,$00,$00,$00,$00,$00,$00,$00
	$D090               .byte $00,$00,$00,$00,$00,$00,$00,$00,$00,$00,$00,$00,$00,$00,$00,$00
	$D0A0               .byte $00,$00,$00,$00,$00,$00,$00,$00,$00,$00,$00,$00,$00,$00,$00,$00
	$D0B0               .byte $00,$00,$00,$00,$00,$00,$00,$00,$00,$00,$00,$00,$00,$00,$00,$00
	$D0C0               .byte $00,$00,$00,$00,$00,$00,$00,$00,$00,$00,$00,$00,$00,$00,$00,$00
	$D0D0               .byte $00,$00,$00,$00,$00,$00,$00,$00,$00,$00,$00,$00,$00,$00,$00,$00
	$D0E0               .byte $00,$00,$00,$00,$00,$00,$00,$00,$00,$00,$00,$00,$00,$00,$00,$00
	$D0F0               .byte $00,$00,$00,$00,$00,$00,$00,$00,$00,$00,$00,$00,$00,$00,$00,$00
	$D100               .byte $00,$00,$00,$00,$00,$00,$00,$00,$00,$00,$00,$00,$00,$00,$00,$00
	$D110               .byte $00,$00,$00,$00,$00,$00,$00,$00,$00,$00,$00,$00,$00,$00,$00,$00
	$D120               .byte $00,$00,$00,$00,$00,$00,$00,$00,$00,$00,$00,$00,$00,$00,$00,$00
	$D130               .byte $00,$00,$00,$00,$00,$00,$00,$00,$00,$00,$00,$00,$00,$00,$00,$00
	$D140               .byte $00,$00,$00,$00,$00,$00,$00,$00,$00,$00,$00,$00,$00,$00,$00,$00
	$D150               .byte $00,$00,$00,$00,$00,$00,$00,$00,$00,$00,$00,$00,$00,$00,$00,$00
	$D160               .byte $00,$00,$00,$00,$00,$00,$00,$00,$00,$00,$00,$00,$00,$00,$00,$00
	$D170               .byte $00,$00,$00,$00,$00,$00,$00,$00,$00,$00,$00,$00,$00,$00,$00,$00
	$D180               .byte $00,$00,$00,$00,$00,$00,$00,$00,$00,$00,$00,$00,$00,$00,$00,$00
	$D190               .byte $00,$00,$00,$00,$00,$00,$00,$00,$00,$00,$00,$00,$00,$00,$00,$00
	$D1A0               .byte $00,$00,$00,$00,$00,$00,$00,$00,$00,$00,$00,$00,$00,$00,$00,$00
	$D1B0               .byte $00,$00,$00,$00,$00,$00,$00,$00,$00,$00,$00,$00,$00,$00,$00,$00
	$D1C0               .byte $00,$00,$00,$00,$00,$00,$00,$00,$00,$00,$00,$00,$00,$00,$00,$00
	$D1D0               .byte $00,$00,$00,$00,$00,$00,$00,$00,$00,$00,$00,$00,$00,$00,$00,$00
	$D1E0               .byte $00,$00,$00,$00,$00,$00,$00,$00,$00,$00,$00,$00,$00,$00,$00,$00
	$D1F0               .byte $00,$00,$00,$00,$00,$00,$00,$00,$00,$00,$00,$00,$00,$00,$00,$00
	$D200               .byte $00,$00,$00,$00,$00,$00,$00,$00,$00,$00,$00,$00,$00,$00,$00,$00
	$D210               .byte $00,$00,$00,$00,$00,$00,$00,$00,$00,$00,$00,$00,$00,$00,$00,$00
	$D220               .byte $00,$00,$00,$00,$00,$00,$00,$00,$00,$00,$00,$00,$00,$00,$00,$00
	$D230               .byte $00,$00,$00,$00,$00,$00,$00,$00,$00,$00,$00,$00,$00,$00,$00,$00
	$D240               .byte $00,$00,$00,$00,$00,$00,$00,$00,$00,$00,$00,$00,$00,$00,$00,$00
	$D250               .byte $00,$00,$00,$00,$00,$00,$00,$00,$00,$00,$00,$00,$00,$00,$00,$00
	$D260               .byte $00,$00,$00,$00,$00,$00,$00,$00,$00,$00,$00,$00,$00,$00,$00,$00
	$D270               .byte $00,$00,$00,$00,$00,$00,$00,$00,$00,$00,$00,$00,$00,$00,$00,$00
	$D280               .byte $00,$00,$00,$00,$00,$00,$00,$00,$00,$00,$00,$00,$00,$00,$00,$00
	$D290               .byte $00,$00,$00,$00,$00,$00,$00,$00,$00,$00,$00,$00,$00,$00,$00,$00
	$D2A0               .byte $00,$00,$00,$00,$00,$00,$00,$00,$00,$00,$00,$00,$00,$00,$00,$00
	$D2B0               .byte $00,$00,$00,$00,$00,$00,$00,$00,$00,$00,$00,$00,$00,$00,$00,$00
	$D2C0               .byte $00,$00,$00,$00,$00,$00,$00,$00,$00,$00,$00,$00,$00,$00,$00,$00
	$D2D0               .byte $00,$00,$00,$00,$00,$00,$00,$00,$00,$00,$00,$00,$00,$00,$00,$00
	$D2E0               .byte $00,$00,$00,$00,$00,$00,$00,$00,$00,$00,$00,$00,$00,$00,$00,$00
	$D2F0               .byte $00,$00,$00,$00,$00,$00,$00,$00,$00,$00,$00,$00,$00,$00,$00,$00
	$D300               .byte $00,$00,$00,$00,$00,$00,$00,$00,$00,$00,$00,$00,$00,$00,$00,$00
	$D310               .byte $00,$00,$00,$00,$00,$00,$00,$00,$00,$00,$00,$00,$00,$00,$00,$00
	$D320               .byte $00,$00,$00,$00,$00,$00,$00,$00,$00,$00,$00,$00,$00,$00,$00,$00
	$D330               .byte $00,$00,$00,$00,$00,$00,$00,$00,$00,$00,$00,$00,$00,$00,$00,$00
	$D340               .byte $00,$00,$00,$00,$00,$00,$00,$00,$00,$00,$00,$00,$00,$00,$00,$00
	$D350               .byte $00,$00,$00,$00,$00,$00,$00,$00,$00,$00,$00,$00,$00,$00,$00,$00
	$D360               .byte $00,$00,$00,$00,$00,$00,$00,$00,$00,$00,$00,$00,$00,$00,$00,$00
	$D370               .byte $00,$00,$00,$00,$00,$00,$00,$00,$00,$00,$00,$00,$00,$00,$00,$00
	$D380               .byte $00,$00,$00,$00,$00,$00,$00,$00,$00,$00,$00,$00,$00,$00,$00,$00
	$D390               .byte $00,$00,$00,$00,$00,$00,$00,$00,$00,$00,$00,$00,$00,$00,$00,$00
	$D3A0               .byte $00,$00,$00,$00,$00,$00,$00,$00,$00,$00,$00,$00,$00,$00,$00,$00
	$D3B0               .byte $00,$00,$00,$00,$00,$00,$00,$00,$00,$00,$00,$00,$00,$00,$00,$00
	$D3C0               .byte $00,$00,$00,$00,$00,$00,$00,$00,$00,$00,$00,$00,$00,$00,$00,$00
	$D3D0               .byte $00,$00,$00,$00,$00,$00,$00,$00,$00,$00,$00,$00,$00,$00,$00,$00
	$D3E0               .byte $00,$00,$00,$00,$00,$00,$00,$00,$00,$00,$00,$00,$00,$00,$00,$00
	$D3F0               .byte $00,$00,$00,$00,$00,$00,$00,$00,$00,$00,$00,$00,$00,$00,$00,$00
	$D400               .byte $00,$00,$00,$00,$00,$00,$00,$00,$00,$00,$00,$00,$00,$00,$00,$00
	$D410               .byte $00,$00,$00,$00,$00,$00,$00,$00,$00,$00,$00,$00,$00,$00,$00,$00
	$D420               .byte $00,$00,$00,$00,$00,$00,$00,$00,$00,$00,$00,$00,$00,$00,$00,$00
	$D430               .byte $00,$00,$00,$00,$00,$00,$00,$00,$00,$00,$00,$00,$00,$00,$00,$00
	$D440               .byte $00,$00,$00,$00,$00,$00,$00,$00,$00,$00,$00,$00,$00,$00,$00,$00
	$D450               .byte $00,$00,$00,$00,$00,$00,$00,$00,$00,$00,$00,$00,$00,$00,$00,$00
	$D460               .byte $00,$00,$00,$00,$00,$00,$00,$00,$00,$00,$00,$00,$00,$00,$00,$00
	$D470               .byte $00,$00,$00,$00,$00,$00,$00,$00,$00,$00,$00,$00,$00,$00,$00,$00
	$D480               .byte $00,$00,$00,$00,$00,$00,$00,$00,$00,$00,$00,$00,$00,$00,$00,$00
	$D490               .byte $00,$00,$00,$00,$00,$00,$00,$00,$00,$00,$00,$00,$00,$00,$00,$00
	$D4A0               .byte $00,$00,$00,$00,$00,$00,$00,$00,$00,$00,$00,$00,$00,$00,$00,$00
	$D4B0               .byte $00,$00,$00,$00,$00,$00,$00,$00,$00,$00,$00,$00,$00,$00,$00,$00
	$D4C0               .byte $00,$00,$00,$00,$00,$00,$00,$00,$00,$00,$00,$00,$00,$00,$00,$00
	$D4D0               .byte $00,$00,$00,$00,$00,$00,$00,$00,$00,$00,$00,$00,$00,$00,$00,$00
	$D4E0               .byte $00,$00,$00,$00,$00,$00,$00,$00,$00,$00,$00,$00,$00,$00,$00,$00
	$D4F0               .byte $00,$00,$00,$00,$00,$00,$00,$00,$00,$00,$00,$00,$00,$00,$00,$00
	$D500               .byte $00,$00,$00,$00,$00,$00,$00,$00,$00,$00,$00,$00,$00,$00,$00,$00
	$D510               .byte $00,$00,$00,$00,$00,$00,$00,$00,$00,$00,$00,$00,$00,$00,$00,$00
	$D520               .byte $00,$00,$00,$00,$00,$00,$00,$00,$00,$00,$00,$00,$00,$00,$00,$00
	$D530               .byte $00,$00,$00,$00,$00,$00,$00,$00,$00,$00,$00,$00,$00,$00,$00,$00
	$D540               .byte $00,$00,$00,$00,$00,$00,$00,$00,$00,$00,$00,$00,$00,$00,$00,$00
	$D550               .byte $00,$00,$00,$00,$00,$00,$00,$00,$00,$00,$00,$00,$00,$00,$00,$00
	$D560               .byte $00,$00,$00,$00,$00,$00,$00,$00,$00,$00,$00,$00,$00,$00,$00,$00
	$D570               .byte $00,$00,$00,$00,$00,$00,$00,$00,$00,$00,$00,$00,$00,$00,$00,$00
	$D580               .byte $00,$00,$00,$00,$00,$00,$00,$00,$00,$00,$00,$00,$00,$00,$00,$00
	$D590               .byte $00,$00,$00,$00,$00,$00,$00,$00,$00,$00,$00,$00,$00,$00,$00,$00
	$D5A0               .byte $00,$00,$00,$00,$00,$00,$00,$00,$00,$00,$00,$00,$00,$00,$00,$00
	$D5B0               .byte $00,$00,$00,$00,$00,$00,$00,$00,$00,$00,$00,$00,$00,$00,$00,$00
	$D5C0               .byte $00,$00,$00,$00,$00,$00,$00,$00,$00,$00,$00,$00,$00,$00,$00,$00
	$D5D0               .byte $00,$00,$00,$00,$00,$00,$00,$00,$00,$00,$00,$00,$00,$00,$00,$00
	$D5E0               .byte $00,$00,$00,$00,$00,$00,$00,$00,$00,$00,$00,$00,$00,$00,$00,$00
	$D5F0               .byte $00,$00,$00,$00,$00,$00,$00,$00,$00,$00,$00,$00,$00,$00,$00,$00
	$D600               .byte $00,$00,$00,$00,$00,$00,$00,$00,$00,$00,$00,$00,$00,$00,$00,$00
	$D610               .byte $00,$00,$00,$00,$00,$00,$00,$00,$00,$00,$00,$00,$00,$00,$00,$00
	$D620               .byte $00,$00,$00,$00,$00,$00,$00,$00,$00,$00,$00,$00,$00,$00,$00,$00
	$D630               .byte $00,$00,$00,$00,$00,$00,$00,$00,$00,$00,$00,$00,$00,$00,$00,$00
	$D640               .byte $00,$00,$00,$00,$00,$00,$00,$00,$00,$00,$00,$00,$00,$00,$00,$00
	$D650               .byte $00,$00,$00,$00,$00,$00,$00,$00,$00,$00,$00,$00,$00,$00,$00,$00
	$D660               .byte $00,$00,$00,$00,$00,$00,$00,$00,$00,$00,$00,$00,$00,$00,$00,$00
	$D670               .byte $00,$00,$00,$00,$00,$00,$00,$00,$00,$00,$00,$00,$00,$00,$00,$00
	$D680               .byte $00,$00,$00,$00,$00,$00,$00,$00,$00,$00,$00,$00,$00,$00,$00,$00
	$D690               .byte $00,$00,$00,$00,$00,$00,$00,$00,$00,$00,$00,$00,$00,$00,$00,$00
	$D6A0               .byte $00,$00,$00,$00,$00,$00,$00,$00,$00,$00,$00,$00,$00,$00,$00,$00
	$D6B0               .byte $00,$00,$00,$00,$00,$00,$00,$00,$00,$00,$00,$00,$00,$00,$00,$00
	$D6C0               .byte $00,$00,$00,$00,$00,$00,$00,$00,$00,$00,$00,$00,$00,$00,$00,$00
	$D6D0               .byte $00,$00,$00,$00,$00,$00,$00,$00,$00,$00,$00,$00,$00,$00,$00,$00
	$D6E0               .byte $00,$00,$00,$00,$00,$00,$00,$00,$00,$00,$00,$00,$00,$00,$00,$00
	$D6F0               .byte $00,$00,$00,$00,$00,$00,$00,$00,$00,$00,$00,$00,$00,$00,$00,$00
	$D700               .byte $00,$00,$00,$00,$00,$00,$00,$00,$00,$00,$00,$00,$00,$00,$00,$00
	$D710               .byte $00,$00,$00,$00,$00,$00,$00,$00,$00,$00,$00,$00,$00,$00,$00,$00
	$D720               .byte $00,$00,$00,$00,$00,$00,$00,$00,$00,$00,$00,$00,$00,$00,$00,$00
	$D730               .byte $00,$00,$00,$00,$00,$00,$00,$00,$00,$00,$00,$00,$00,$00,$00,$00
	$D740               .byte $00,$00,$00,$00,$00,$00,$00,$00,$00,$00,$00,$00,$00,$00,$00,$00
	$D750               .byte $00,$00,$00,$00,$00,$00,$00,$00,$00,$00,$00,$00,$00,$00,$00,$00
	$D760               .byte $00,$00,$00,$00,$00,$00,$00,$00,$00,$00,$00,$00,$00,$00,$00,$00
	$D770               .byte $00,$00,$00,$00,$00,$00,$00,$00,$00,$00,$00,$00,$00,$00,$00,$00
	$D780               .byte $00,$00,$00,$00,$00,$00,$00,$00,$00,$00,$00,$00,$00,$00,$00,$00
	$D790               .byte $00,$00,$00,$00,$00,$00,$00,$00,$00,$00,$00,$00,$00,$00,$00,$00
	$D7A0               .byte $00,$00,$00,$00,$00,$00,$00,$00,$00,$00,$00,$00,$00,$00,$00,$00
	$D7B0               .byte $00,$00,$00,$00,$00,$00,$00,$00,$00,$00,$00,$00,$00,$00,$00,$00
	$D7C0               .byte $00,$00,$00,$00,$00,$00,$00,$00,$00,$00,$00,$00,$00,$00,$00,$00
	$D7D0               .byte $00,$00,$00,$00,$00,$00,$00,$00,$00,$00,$00,$00,$00,$00,$00,$00
	$D7E0               .byte $00,$00,$00,$00,$00,$00,$00,$00,$00,$00,$00,$00,$00,$00,$00,$00
	$D7F0               .byte $00,$00,$00,$00,$00,$00,$00,$00,$00,$00,$00,$00,$00,$00,$00,$00
	$D800               .byte $00,$00,$00,$00,$00,$00,$00,$00,$00,$00,$00,$00,$00,$00,$00,$00
	$D810               .byte $00,$00,$00,$00,$00,$00,$00,$00,$00,$00,$00,$00,$00,$00,$00,$00
	$D820               .byte $00,$00,$00,$00,$00,$00,$00,$00,$00,$00,$00,$00,$00,$00,$00,$00
	$D830               .byte $00,$00,$00,$00,$00,$00,$00,$00,$00,$00,$00,$00,$00,$00,$00,$00
	$D840               .byte $00,$00,$00,$00,$00,$00,$00,$00,$00,$00,$00,$00,$00,$00,$00,$00
	$D850               .byte $00,$00,$00,$00,$00,$00,$00,$00,$00,$00,$00,$00,$00,$00,$00,$00
	$D860               .byte $00,$00,$00,$00,$00,$00,$00,$00,$00,$00,$00,$00,$00,$00,$00,$00
	$D870               .byte $00,$00,$00,$00,$00,$00,$00,$00,$00,$00,$00,$00,$00,$00,$00,$00
	$D880               .byte $00,$00,$00,$00,$00,$00,$00,$00,$00,$00,$00,$00,$00,$00,$00,$00
	$D890               .byte $00,$00,$00,$00,$00,$00,$00,$00,$00,$00,$00,$00,$00,$00,$00,$00
	$D8A0               .byte $00,$00,$00,$00,$00,$00,$00,$00,$00,$00,$00,$00,$00,$00,$00,$00
	$D8B0               .byte $00,$00,$00,$00,$00,$00,$00,$00,$00,$00,$00,$00,$00,$00,$00,$00
	$D8C0               .byte $00,$00,$00,$00,$00,$00,$00,$00,$00,$00,$00,$00,$00,$00,$00,$00
	$D8D0               .byte $00,$00,$00,$00,$00,$00,$00,$00,$00,$00,$00,$00,$00,$00,$00,$00
	$D8E0               .byte $00,$00,$00,$00,$00,$00,$00,$00,$00,$00,$00,$00,$00,$00,$00,$00
	$D8F0               .byte $00,$00,$00,$00,$00,$00,$00,$00,$00,$00,$00,$00,$00,$00,$00,$00
	$D900               .byte $00,$00,$00,$00,$00,$00,$00,$00,$00,$00,$00,$00,$00,$00,$00,$00
	$D910               .byte $00,$00,$00,$00,$00,$00,$00,$00,$00,$00,$00,$00,$00,$00,$00,$00
	$D920               .byte $00,$00,$00,$00,$00,$00,$00,$00,$00,$00,$00,$00,$00,$00,$00,$00
	$D930               .byte $00,$00,$00,$00,$00,$00,$00,$00,$00,$00,$00,$00,$00,$00,$00,$00
	$D940               .byte $00,$00,$00,$00,$00,$00,$00,$00,$00,$00,$00,$00,$00,$00,$00,$00
	$D950               .byte $00,$00,$00,$00,$00,$00,$00,$00,$00,$00,$00,$00,$00,$00,$00,$00
	$D960               .byte $00,$00,$00,$00,$00,$00,$00,$00,$00,$00,$00,$00,$00,$00,$00,$00
	$D970               .byte $00,$00,$00,$00,$00,$00,$00,$00,$00,$00,$00,$00,$00,$00,$00,$00
	$D980               .byte $00,$00,$00,$00,$00,$00,$00,$00,$00,$00,$00,$00,$00,$00,$00,$00
	$D990               .byte $00,$00,$00,$00,$00,$00,$00,$00,$00,$00,$00,$00,$00,$00,$00,$00
	$D9A0               .byte $00,$00,$00,$00,$00,$00,$00,$00,$00,$00,$00,$00,$00,$00,$00,$00
	$D9B0               .byte $00,$00,$00,$00,$00,$00,$00,$00,$00,$00,$00,$00,$00,$00,$00,$00
	$D9C0               .byte $00,$00,$00,$00,$00,$00,$00,$00,$00,$00,$00,$00,$00,$00,$00,$00
	$D9D0               .byte $00,$00,$00,$00,$00,$00,$00,$00,$00,$00,$00,$00,$00,$00,$00,$00
	$D9E0               .byte $00,$00,$00,$00,$00,$00,$00,$00,$00,$00,$00,$00,$00,$00,$00,$00
	$D9F0               .byte $00,$00,$00,$00,$00,$00,$00,$00,$00,$00,$00,$00,$00,$00,$00,$00
	$DA00               .byte $00,$00,$00,$00,$00,$00,$00,$00,$00,$00,$00,$00,$00,$00,$00,$00
	$DA10               .byte $00,$00,$00,$00,$00,$00,$00,$00,$00,$00,$00,$00,$00,$00,$00,$00
	$DA20               .byte $00,$00,$00,$00,$00,$00,$00,$00,$00,$00,$00,$00,$00,$00,$00,$00
	$DA30               .byte $00,$00,$00,$00,$00,$00,$00,$00,$00,$00,$00,$00,$00,$00,$00,$00
	$DA40               .byte $00,$00,$00,$00,$00,$00,$00,$00,$00,$00,$00,$00,$00,$00,$00,$00
	$DA50               .byte $00,$00,$00,$00,$00,$00,$00,$00,$00,$00,$00,$00,$00,$00,$00,$00
	$DA60               .byte $00,$00,$00,$00,$00,$00,$00,$00,$00,$00,$00,$00,$00,$00,$00,$00
	$DA70               .byte $00,$00,$00,$00,$00,$00,$00,$00,$00,$00,$00,$00,$00,$00,$00,$00
	$DA80               .byte $00,$00,$00,$00,$00,$00,$00,$00,$00,$00,$00,$00,$00,$00,$00,$00
	$DA90               .byte $00,$00,$00,$00,$00,$00,$00,$00,$00,$00,$00,$00,$00,$00,$00,$00
	$DAA0               .byte $00,$00,$00,$00,$00,$00,$00,$00,$00,$00,$00,$00,$00,$00,$00,$00
	$DAB0               .byte $00,$00,$00,$00,$00,$00,$00,$00,$00,$00,$00,$00,$00,$00,$00,$00
	$DAC0               .byte $00,$00,$00,$00,$00,$00,$00,$00,$00,$00,$00,$00,$00,$00,$00,$00
	$DAD0               .byte $00,$00,$00,$00,$00,$00,$00,$00,$00,$00,$00,$00,$00,$00,$00,$00
	$DAE0               .byte $00,$00,$00,$00,$00,$00,$00,$00,$00,$00,$00,$00,$00,$00,$00,$00
	$DAF0               .byte $00,$00,$00,$00,$00,$00,$00,$00,$00,$00,$00,$00,$00,$00,$00,$00
	$DB00               .byte $00,$00,$00,$00,$00,$00,$00,$00,$00,$00,$00,$00,$00,$00,$00,$00
	$DB10               .byte $00,$00,$00,$00,$00,$00,$00,$00,$00,$00,$00,$00,$00,$00,$00,$00
	$DB20               .byte $00,$00,$00,$00,$00,$00,$00,$00,$00,$00,$00,$00,$00,$00,$00,$00
	$DB30               .byte $00,$00,$00,$00,$00,$00,$00,$00,$00,$00,$00,$00,$00,$00,$00,$00
	$DB40               .byte $00,$00,$00,$00,$00,$00,$00,$00,$00,$00,$00,$00,$00,$00,$00,$00
	$DB50               .byte $00,$00,$00,$00,$00,$00,$00,$00,$00,$00,$00,$00,$00,$00,$00,$00
	$DB60               .byte $00,$00,$00,$00,$00,$00,$00,$00,$00,$00,$00,$00,$00,$00,$00,$00
	$DB70               .byte $00,$00,$00,$00,$00,$00,$00,$00,$00,$00,$00,$00,$00,$00,$00,$00
	$DB80               .byte $00,$00,$00,$00,$00,$00,$00,$00,$00,$00,$00,$00,$00,$00,$00,$00
	$DB90               .byte $00,$00,$00,$00,$00,$00,$00,$00,$00,$00,$00,$00,$00,$00,$00,$00
	$DBA0               .byte $00,$00,$00,$00,$00,$00,$00,$00,$00,$00,$00,$00,$00,$00,$00,$00
	$DBB0               .byte $00,$00,$00,$00,$00,$00,$00,$00,$00,$00,$00,$00,$00,$00,$00,$00
	$DBC0               .byte $00,$00,$00,$00,$00,$00,$00,$00,$00,$00,$00,$00,$00,$00,$00,$00
	$DBD0               .byte $00,$00,$00,$00,$00,$00,$00,$00,$00,$00,$00,$00,$00,$00,$00,$00
	$DBE0               .byte $00,$00,$00,$00,$00,$00,$00,$00,$00,$00,$00,$00,$00,$00,$00,$00
	$DBF0               .byte $00,$00,$00,$00,$00,$00,$00,$00,$00,$00,$00,$00,$00,$00,$00,$00
	$DC00               .byte $00,$00,$00,$00,$00,$00,$00,$00,$00,$00,$00,$00,$00,$00,$00,$00
	$DC10               .byte $00,$00,$00,$00,$00,$00,$00,$00,$00,$00,$00,$00,$00,$00,$00,$00
	$DC20               .byte $00,$00,$00,$00,$00,$00,$00,$00,$00,$00,$00,$00,$00,$00,$00,$00
	$DC30               .byte $00,$00,$00,$00,$00,$00,$00,$00,$00,$00,$00,$00,$00,$00,$00,$00
	$DC40               .byte $00,$00,$00,$00,$00,$00,$00,$00,$00,$00,$00,$00,$00,$00,$00,$00
	$DC50               .byte $00,$00,$00,$00,$00,$00,$00,$00,$00,$00,$00,$00,$00,$00,$00,$00
	$DC60               .byte $00,$00,$00,$00,$00,$00,$00,$00,$00,$00,$00,$00,$00,$00,$00,$00
	$DC70               .byte $00,$00,$00,$00,$00,$00,$00,$00,$00,$00,$00,$00,$00,$00,$00,$00
	$DC80               .byte $00,$00,$00,$00,$00,$00,$00,$00,$00,$00,$00,$00,$00,$00,$00,$00
	$DC90               .byte $00,$00,$00,$00,$00,$00,$00,$00,$00,$00,$00,$00,$00,$00,$00,$00
	$DCA0               .byte $00,$00,$00,$00,$00,$00,$00,$00,$00,$00,$00,$00,$00,$00,$00,$00
	$DCB0               .byte $00,$00,$00,$00,$00,$00,$00,$00,$00,$00,$00,$00,$00,$00,$00,$00
	$DCC0               .byte $00,$00,$00,$00,$00,$00,$00,$00,$00,$00,$00,$00,$00,$00,$00,$00
	$DCD0               .byte $00,$00,$00,$00,$00,$00,$00,$00,$00,$00,$00,$00,$00,$00,$00,$00
	$DCE0               .byte $00,$00,$00,$00,$00,$00,$00,$00,$00,$00,$00,$00,$00,$00,$00,$00
	$DCF0               .byte $00,$00,$00,$00,$00,$00,$00,$00,$00,$00,$00,$00,$00,$00,$00,$00
	$DD00               .byte $00,$00,$00,$00,$00,$00,$00,$00,$00,$00,$00,$00,$00,$00,$00,$00
	$DD10               .byte $00,$00,$00,$00,$00,$00,$00,$00,$00,$00,$00,$00,$00,$00,$00,$00
	$DD20               .byte $00,$00,$00,$00,$00,$00,$00,$00,$00,$00,$00,$00,$00,$00,$00,$00
	$DD30               .byte $00,$00,$00,$00,$00,$00,$00,$00,$00,$00,$00,$00,$00,$00,$00,$00
	$DD40               .byte $00,$00,$00,$00,$00,$00,$00,$00,$00,$00,$00,$00,$00,$00,$00,$00
	$DD50               .byte $00,$00,$00,$00,$00,$00,$00,$00,$00,$00,$00,$00,$00,$00,$00,$00
	$DD60               .byte $00,$00,$00,$00,$00,$00,$00,$00,$00,$00,$00,$00,$00,$00,$00,$00
	$DD70               .byte $00,$00,$00,$00,$00,$00,$00,$00,$00,$00,$00,$00,$00,$00,$00,$00
	$DD80               .byte $00,$00,$00,$00,$00,$00,$00,$00,$00,$00,$00,$00,$00,$00,$00,$00
	$DD90               .byte $00,$00,$00,$00,$00,$00,$00,$00,$00,$00,$00,$00,$00,$00,$00,$00
	$DDA0               .byte $00,$00,$00,$00,$00,$00,$00,$00,$00,$00,$00,$00,$00,$00,$00,$00
	$DDB0               .byte $00,$00,$00,$00,$00,$00,$00,$00,$00,$00,$00,$00,$00,$00,$00,$00
	$DDC0               .byte $00,$00,$00,$00,$00,$00,$00,$00,$00,$00,$00,$00,$00,$00,$00,$00
	$DDD0               .byte $00,$00,$00,$00,$00,$00,$00,$00,$00,$00,$00,$00,$00,$00,$00,$00
	$DDE0               .byte $00,$00,$00,$00,$00,$00,$00,$00,$00,$00,$00,$00,$00,$00,$00,$00
	$DDF0               .byte $00,$00,$00,$00,$00,$00,$00,$00,$00,$00,$00,$00,$00,$00,$00,$00
	$DE00               .byte $00,$00,$00,$00,$00,$00,$00,$00,$00,$00,$00,$00,$00,$00,$00,$00
	$DE10               .byte $00,$00,$00,$00,$00,$00,$00,$00,$00,$00,$00,$00,$00,$00,$00,$00
	$DE20               .byte $00,$00,$00,$00,$00,$00,$00,$00,$00,$00,$00,$00,$00,$00,$00,$00
	$DE30               .byte $00,$00,$00,$00,$00,$00,$00,$00,$00,$00,$00,$00,$00,$00,$00,$00
	$DE40               .byte $00,$00,$00,$00,$00,$00,$00,$00,$00,$00,$00,$00,$00,$00,$00,$00
	$DE50               .byte $00,$00,$00,$00,$00,$00,$00,$00,$00,$00,$00,$00,$00,$00,$00,$00
	$DE60               .byte $00,$00,$00,$00,$00,$00,$00,$00,$00,$00,$00,$00,$00,$00,$00,$00
	$DE70               .byte $00,$00,$00,$00,$00,$00,$00,$00,$00,$00,$00,$00,$00,$00,$00,$00
	$DE80               .byte $00,$00,$00,$00,$00,$00,$00,$00,$00,$00,$00,$00,$00,$00,$00,$00
	$DE90               .byte $00,$00,$00,$00,$00,$00,$00,$00,$00,$00,$00,$00,$00,$00,$00,$00
	$DEA0               .byte $00,$00,$00,$00,$00,$00,$00,$00,$00,$00,$00,$00,$00,$00,$00,$00
	$DEB0               .byte $00,$00,$00,$00,$00,$00,$00,$00,$00,$00,$00,$00,$00,$00,$00,$00
	$DEC0               .byte $00,$00,$00,$00,$00,$00,$00,$00,$00,$00,$00,$00,$00,$00,$00,$00
	$DED0               .byte $00,$00,$00,$00,$00,$00,$00,$00,$00,$00,$00,$00,$00,$00,$00,$00
	$DEE0               .byte $00,$00,$00,$00,$00,$00,$00,$00,$00,$00,$00,$00,$00,$00,$00,$00
	$DEF0               .byte $00,$00,$00,$00,$00,$00,$00,$00,$00,$00,$00,$00,$00,$00,$00,$00
	$DF00               .byte $00,$00,$00,$00,$00,$00,$00,$00,$00,$00,$00,$00,$00,$00,$00,$00
	$DF10               .byte $00,$00,$00,$00,$00,$00,$00,$00,$00,$00,$00,$00,$00,$00,$00,$00
	$DF20               .byte $00,$00,$00,$00,$00,$00,$00,$00,$00,$00,$00,$00,$00,$00,$00,$00
	$DF30               .byte $00,$00,$00,$00,$00,$00,$00,$00,$00,$00,$00,$00,$00,$00,$00,$00
	$DF40               .byte $00,$00,$00,$00,$00,$00,$00,$00,$00,$00,$00,$00,$00,$00,$00,$00
	$DF50               .byte $00,$00,$00,$00,$00,$00,$00,$00,$00,$00,$00,$00,$00,$00,$00,$00
	$DF60               .byte $00,$00,$00,$00,$00,$00,$00,$00,$00,$00,$00,$00,$00,$00,$00,$00
	$DF70               .byte $00,$00,$00,$00,$00,$00,$00,$00,$00,$00,$00,$00,$00,$00,$00,$00
	$DF80               .byte $00,$00,$00,$00,$00,$00,$00,$00,$00,$00,$00,$00,$00,$00,$00,$00
	$DF90               .byte $00,$00,$00,$00,$00,$00,$00,$00,$00,$00,$00,$00,$00,$00,$00,$00
	$DFA0               .byte $00,$00,$00,$00,$00,$00,$00,$00,$00,$00,$00,$00,$00,$00,$00,$00
	$DFB0               .byte $00,$00,$00,$00,$00,$00,$00,$00,$00,$00,$00,$00,$00,$00,$00,$00
	$DFC0               .byte $00,$00,$00,$00,$00,$00,$00,$00,$00,$00,$00,$00,$00,$00,$00,$00
	$DFD0               .byte $00,$00,$00,$00,$00,$00,$00,$00,$00,$00,$00,$00,$00,$00,$00,$00
	$DFE0               .byte $00,$00,$00,$00,$00,$00,$00,$00,$00,$00,$00,$00,$00,$00,$00,$00
	$DFF0               .byte $00,$00,$00,$00,$00,$00,$00,$00,$00,$00,$00,$00,$00,$00,$00,$00
	$E000               .byte $EA
_func_6001
	$E001  20 00 E6:    jsr _func_6600			/* A(??)X(??)Y(22)<610A>MAP[00:[00],01:[01],02:[02],03:[03],mmc:(un)]s(0)Z?S?*/
	$E004  A9 4D:       lda #$4D			/* A(4D)<6004>X(00)<645F>Y(00)<6460>MAP[00:[00],01:[01],02:[02],03:[03],mmc:(un)]s(0)Z0S0*/
	$E006  20 02 E2:    jsr _func_6202			/* A(??)X(??)Y(??)MAP[00:(??),01:(??),02:(??),03:(??),mmc:(un)]s(0)Z?S?*/
	$E009  A9 74:       lda #$74			/* A(74)<6009>X(00)<645F>Y(00)<6460>MAP[00:[00],01:[01],02:[02],03:[03],mmc:(un)]s(0)Z0S0*/
	$E00B  20 18 E2:    jsr _func_6218			/* A(??)X(??)Y(??)MAP[00:(??),01:(??),02:(??),03:(??),mmc:(un)]s(0)Z?S?*/
	$E00E  60:          rts 			/* A(74)<6009>X(00)<645F>Y(00)<6460>MAP[00:[00],01:[01],02:[02],03:[03],mmc:(un)]s(0)Z?S?*/(barrier)
;------------------------------------------
_func_600F
	$E00F  48:          pha 			/* A(00)<645A>X(00)<645F>Y(00)<6460>MAP[00:[00],01:[01],02:[02],03:[03],mmc:(un)]s(1)Z?S?*/
	$E010  A9 02:        lda #$02			/* A(02)<6010>X(00)<645F>Y(00)<6460>MAP[00:[00],01:[01],02:[02],03:[03],mmc:(un)]s(1)Z0S0*/
	$E012  20 99 E3:     jsr _func_6399			/* A(??)X(??)Y(??)MAP[00:(??),01:(??),02:(??),03:(??),mmc:(un)]s(1)Z?S?*/
	$E015  A9 72:        lda #<_data_6672			/* A(72)<6015>X(00)<645F>Y(00)<6460>MAP[00:[00],01:[01],02:[02],03:[03],mmc:(un)]s(0)Z0S0*/
	$E017  85 17:        sta $17			/* A(72)<6015>X(00)<645F>Y(00)<6460>MAP[00:[00],01:[01],02:[02],03:[03],mmc:(un)]s(0)Z0S0*/
	$E019  A9 E6:        lda #>_data_6672			/* A(E6)<6019>X(00)<645F>Y(00)<6460>MAP[00:[00],01:[01],02:[02],03:[03],mmc:(un)]s(0)Z0S1*/
	$E01B  85 18:        sta $18			/* A(E6)<6019>X(00)<645F>Y(00)<6460>MAP[00:[00],01:[01],02:[02],03:[03],mmc:(un)]s(0)Z0S1*/
	$E01D  68:          pla 			/* A(??)X(00)<645F>Y(00)<6460>MAP[00:[00],01:[01],02:[02],03:[03],mmc:(un)]s(0)Z?S?*/
	$E01E  20 01 E0:    jsr _func_6001			/* A(??)X(??)Y(??)MAP[00:(??),01:(??),02:(??),03:(??),mmc:(un)]s(0)Z?S?*/
	$E021  AD FA 3F:    lda $3FFA			/* A(??)X(00)<645F>Y(00)<6460>MAP[00:[00],01:[01],02:[02],03:[03],mmc:(un)]s(0)Z?S?*/
	$E024  30 03:       bmi +		; $E029			/* A(??)X(00)<645F>Y(00)<6460>MAP[00:[00],01:[01],02:[02],03:[03],mmc:(un)]s(0)Z?S?*/
	$E026  4C 72 E3:    jmp ++++		; $E372			/* A(??)X(00)<645F>Y(00)<6460>MAP[00:[00],01:[01],02:[02],03:[03],mmc:(un)]s(0)Z?S?*/(barrier)

+	$E029  AD FA 3F:    lda $3FFA			/* A(??)X(00)<645F>Y(00)<6460>MAP[00:[00],01:[01],02:[02],03:[03],mmc:(un)]s(0)Z?S?*/
	$E02C  10 03:       bpl +		; $E031			/* A(??)X(00)<645F>Y(00)<6460>MAP[00:[00],01:[01],02:[02],03:[03],mmc:(un)]s(0)Z?S?*/
	$E02E  4C 72 E3:    jmp ++++		; $E372			/* A(??)X(00)<645F>Y(00)<6460>MAP[00:[00],01:[01],02:[02],03:[03],mmc:(un)]s(0)Z?S?*/(barrier)

+	$E031  48:          pha 			/* A(??)X(00)<645F>Y(00)<6460>MAP[00:[00],01:[01],02:[02],03:[03],mmc:(un)]s(0)Z?S?*/
	$E032  A9 03:        lda #$03			/* A(03)<6032>X(00)<645F>Y(00)<6460>MAP[00:[00],01:[01],02:[02],03:[03],mmc:(un)]s(1)Z0S0*/
	$E034  20 99 E3:     jsr _func_6399			/* A(??)X(??)Y(??)MAP[00:(??),01:(??),02:(??),03:(??),mmc:(un)]s(1)Z?S?*/
	$E037  A9 A0:        lda #<_data_66A0			/* A(A0)<6037>X(00)<645F>Y(00)<6460>MAP[00:[00],01:[01],02:[02],03:[03],mmc:(un)]s(0)Z0S1*/
	$E039  85 17:        sta $17			/* A(A0)<6037>X(00)<645F>Y(00)<6460>MAP[00:[00],01:[01],02:[02],03:[03],mmc:(un)]s(0)Z0S1*/
	$E03B  A9 E6:        lda #>_data_66A0			/* A(E6)<603B>X(00)<645F>Y(00)<6460>MAP[00:[00],01:[01],02:[02],03:[03],mmc:(un)]s(0)Z0S1*/
	$E03D  85 18:        sta $18			/* A(E6)<603B>X(00)<645F>Y(00)<6460>MAP[00:[00],01:[01],02:[02],03:[03],mmc:(un)]s(0)Z0S1*/
	$E03F  68:          pla 			/* A(??)X(00)<645F>Y(00)<6460>MAP[00:[00],01:[01],02:[02],03:[03],mmc:(un)]s(0)Z?S?*/
	$E040  20 01 E0:    jsr _func_6001			/* A(??)X(??)Y(??)MAP[00:(??),01:(??),02:(??),03:(??),mmc:(un)]s(0)Z?S?*/
	$E043  A2 22:       ldx #$22			/* A(??)X(22)<6043>Y(00)<6460>MAP[00:[00],01:[01],02:[02],03:[03],mmc:(un)]s(0)Z0S0*/
	$E045  BD 00 20:    lda $2000,x			/* A(??)X(22)<6043>Y(00)<6460>MAP[00:[00],01:[01],02:[02],03:[03],mmc:(un)]s(0)Z?S?*/
	$E048  30 03:       bmi +		; $E04D			/* A(??)X(22)<6043>Y(00)<6460>MAP[00:[00],01:[01],02:[02],03:[03],mmc:(un)]s(0)Z?S?*/
	$E04A  4C 72 E3:    jmp ++++		; $E372			/* A(??)X(22)<6043>Y(00)<6460>MAP[00:[00],01:[01],02:[02],03:[03],mmc:(un)]s(0)Z?S?*/(barrier)

+	$E04D  AD 02 20:    lda $2002			/* A(??)X(22)<6043>Y(00)<6460>MAP[00:[00],01:[01],02:[02],03:[03],mmc:(un)]s(0)Z?S?*/
	$E050  10 03:       bpl +		; $E055			/* A(??)X(22)<6043>Y(00)<6460>MAP[00:[00],01:[01],02:[02],03:[03],mmc:(un)]s(0)Z?S?*/
	$E052  4C 72 E3:    jmp ++++		; $E372			/* A(??)X(22)<6043>Y(00)<6460>MAP[00:[00],01:[01],02:[02],03:[03],mmc:(un)]s(0)Z?S?*/(barrier)

+	$E055  20 01 E0:    jsr _func_6001			/* A(??)X(22)<6043>Y(00)<6460>MAP[00:[00],01:[01],02:[02],03:[03],mmc:(un)]s(0)Z?S?*/
	$E058  A2 22:       ldx #$22			/* A(??)X(22)<6058>Y(00)<6460>MAP[00:[00],01:[01],02:[02],03:[03],mmc:(un)]s(0)Z0S0*/
	$E05A  BD E0 20:    lda $20E0,x			/* A(??)X(22)<6058>Y(00)<6460>MAP[00:[00],01:[01],02:[02],03:[03],mmc:(un)]s(0)Z?S?*/
	$E05D  10 03:       bpl +		; $E062			/* A(??)X(22)<6058>Y(00)<6460>MAP[00:[00],01:[01],02:[02],03:[03],mmc:(un)]s(0)Z?S?*/
	$E05F  4C 72 E3:    jmp ++++		; $E372			/* A(??)X(22)<6058>Y(00)<6460>MAP[00:[00],01:[01],02:[02],03:[03],mmc:(un)]s(0)Z?S?*/(barrier)

+	$E062  AD 02 20:    lda $2002			/* A(??)X(22)<6058>Y(00)<6460>MAP[00:[00],01:[01],02:[02],03:[03],mmc:(un)]s(0)Z?S?*/
	$E065  10 03:       bpl +		; $E06A			/* A(??)X(22)<6058>Y(00)<6460>MAP[00:[00],01:[01],02:[02],03:[03],mmc:(un)]s(0)Z?S?*/
	$E067  4C 72 E3:    jmp ++++		; $E372			/* A(??)X(22)<6058>Y(00)<6460>MAP[00:[00],01:[01],02:[02],03:[03],mmc:(un)]s(0)Z?S?*/(barrier)

+	$E06A  20 01 E0:    jsr _func_6001			/* A(??)X(22)<6058>Y(00)<6460>MAP[00:[00],01:[01],02:[02],03:[03],mmc:(un)]s(0)Z?S?*/
	$E06D  A2 22:       ldx #$22			/* A(??)X(22)<606D>Y(00)<6460>MAP[00:[00],01:[01],02:[02],03:[03],mmc:(un)]s(0)Z0S0*/
	$E06F  BD E2 20:    lda $20E2,x			/* A(??)X(22)<606D>Y(00)<6460>MAP[00:[00],01:[01],02:[02],03:[03],mmc:(un)]s(0)Z?S?*/
	$E072  AD 02 20:    lda $2002			/* A(??)X(22)<606D>Y(00)<6460>MAP[00:[00],01:[01],02:[02],03:[03],mmc:(un)]s(0)Z?S?*/
	$E075  30 03:       bmi +		; $E07A			/* A(??)X(22)<606D>Y(00)<6460>MAP[00:[00],01:[01],02:[02],03:[03],mmc:(un)]s(0)Z?S?*/
	$E077  4C 72 E3:    jmp ++++		; $E372			/* A(??)X(22)<606D>Y(00)<6460>MAP[00:[00],01:[01],02:[02],03:[03],mmc:(un)]s(0)Z?S?*/(barrier)

+	$E07A  20 01 E0:    jsr _func_6001			/* A(??)X(22)<606D>Y(00)<6460>MAP[00:[00],01:[01],02:[02],03:[03],mmc:(un)]s(0)Z?S?*/
	$E07D  A2 22:       ldx #$22			/* A(??)X(22)<607D>Y(00)<6460>MAP[00:[00],01:[01],02:[02],03:[03],mmc:(un)]s(0)Z0S0*/
	$E07F  BD E0 3F:    lda $3FE0,x			/* A(??)X(22)<607D>Y(00)<6460>MAP[00:[00],01:[01],02:[02],03:[03],mmc:(un)]s(0)Z?S?*/
	$E082  AD 02 20:    lda $2002			/* A(??)X(22)<607D>Y(00)<6460>MAP[00:[00],01:[01],02:[02],03:[03],mmc:(un)]s(0)Z?S?*/
	$E085  10 03:       bpl +		; $E08A			/* A(??)X(22)<607D>Y(00)<6460>MAP[00:[00],01:[01],02:[02],03:[03],mmc:(un)]s(0)Z?S?*/
	$E087  4C 72 E3:    jmp ++++		; $E372			/* A(??)X(22)<607D>Y(00)<6460>MAP[00:[00],01:[01],02:[02],03:[03],mmc:(un)]s(0)Z?S?*/(barrier)

+	$E08A  48:          pha 			/* A(??)X(22)<607D>Y(00)<6460>MAP[00:[00],01:[01],02:[02],03:[03],mmc:(un)]s(0)Z?S?*/
	$E08B  A9 04:        lda #$04			/* A(04)<608B>X(22)<607D>Y(00)<6460>MAP[00:[00],01:[01],02:[02],03:[03],mmc:(un)]s(1)Z0S0*/
	$E08D  20 99 E3:     jsr _func_6399			/* A(??)X(??)Y(??)MAP[00:(??),01:(??),02:(??),03:(??),mmc:(un)]s(1)Z?S?*/
	$E090  A9 AA:        lda #<_data_66AA			/* A(AA)<6090>X(22)<607D>Y(00)<6460>MAP[00:[00],01:[01],02:[02],03:[03],mmc:(un)]s(0)Z0S1*/
	$E092  85 17:        sta $17			/* A(AA)<6090>X(22)<607D>Y(00)<6460>MAP[00:[00],01:[01],02:[02],03:[03],mmc:(un)]s(0)Z0S1*/
	$E094  A9 E6:        lda #>_data_66AA			/* A(E6)<6094>X(22)<607D>Y(00)<6460>MAP[00:[00],01:[01],02:[02],03:[03],mmc:(un)]s(0)Z0S1*/
	$E096  85 18:        sta $18			/* A(E6)<6094>X(22)<607D>Y(00)<6460>MAP[00:[00],01:[01],02:[02],03:[03],mmc:(un)]s(0)Z0S1*/
	$E098  68:          pla 			/* A(??)X(22)<607D>Y(00)<6460>MAP[00:[00],01:[01],02:[02],03:[03],mmc:(un)]s(0)Z?S?*/
	$E099  20 01 E0:    jsr _func_6001			/* A(??)X(??)Y(??)MAP[00:(??),01:(??),02:(??),03:(??),mmc:(un)]s(0)Z?S?*/
	$E09C  8D 02 20:    sta $2002			/* A(??)X(22)<607D>Y(00)<6460>MAP[00:[00],01:[01],02:[02],03:[03],mmc:(un)]s(0)Z?S?*/
	$E09F  AD 02 20:    lda $2002			/* A(??)X(22)<607D>Y(00)<6460>MAP[00:[00],01:[01],02:[02],03:[03],mmc:(un)]s(0)Z?S?*/
	$E0A2  30 03:       bmi +		; $E0A7			/* A(??)X(22)<607D>Y(00)<6460>MAP[00:[00],01:[01],02:[02],03:[03],mmc:(un)]s(0)Z?S?*/
	$E0A4  4C 72 E3:    jmp ++++		; $E372			/* A(??)X(22)<607D>Y(00)<6460>MAP[00:[00],01:[01],02:[02],03:[03],mmc:(un)]s(0)Z?S?*/(barrier)

+	$E0A7  20 01 E0:    jsr _func_6001			/* A(??)X(22)<607D>Y(00)<6460>MAP[00:[00],01:[01],02:[02],03:[03],mmc:(un)]s(0)Z?S?*/
	$E0AA  A2 22:       ldx #$22			/* A(??)X(22)<60AA>Y(00)<6460>MAP[00:[00],01:[01],02:[02],03:[03],mmc:(un)]s(0)Z0S0*/
	$E0AC  9D E0 20:    sta $20E0,x			/* A(??)X(22)<60AA>Y(00)<6460>MAP[00:[00],01:[01],02:[02],03:[03],mmc:(un)]s(0)Z0S0*/
	$E0AF  10 03:       bpl +		; $E0B4			/* A(??)X(22)<60AA>Y(00)<6460>MAP[00:[00],01:[01],02:[02],03:[03],mmc:(un)]s(0)Z0S0*/(barrier)

	$E0B1               .byte $4C,$72,$E3
+	$E0B4  AD 02 20:    lda $2002			/* A(??)X(22)<60AA>Y(00)<6460>MAP[00:[00],01:[01],02:[02],03:[03],mmc:(un)]s(0)Z?S?*/
	$E0B7  10 03:       bpl +		; $E0BC			/* A(??)X(22)<60AA>Y(00)<6460>MAP[00:[00],01:[01],02:[02],03:[03],mmc:(un)]s(0)Z?S?*/
	$E0B9  4C 72 E3:    jmp ++++		; $E372			/* A(??)X(22)<60AA>Y(00)<6460>MAP[00:[00],01:[01],02:[02],03:[03],mmc:(un)]s(0)Z?S?*/(barrier)

+	$E0BC  20 01 E0:    jsr _func_6001			/* A(??)X(22)<60AA>Y(00)<6460>MAP[00:[00],01:[01],02:[02],03:[03],mmc:(un)]s(0)Z?S?*/
	$E0BF  A2 22:       ldx #$22			/* A(??)X(22)<60BF>Y(00)<6460>MAP[00:[00],01:[01],02:[02],03:[03],mmc:(un)]s(0)Z0S0*/
	$E0C1  9D E2 20:    sta $20E2,x			/* A(??)X(22)<60BF>Y(00)<6460>MAP[00:[00],01:[01],02:[02],03:[03],mmc:(un)]s(0)Z0S0*/
	$E0C4  AD 02 20:    lda $2002			/* A(??)X(22)<60BF>Y(00)<6460>MAP[00:[00],01:[01],02:[02],03:[03],mmc:(un)]s(0)Z?S?*/
	$E0C7  30 03:       bmi +		; $E0CC			/* A(??)X(22)<60BF>Y(00)<6460>MAP[00:[00],01:[01],02:[02],03:[03],mmc:(un)]s(0)Z?S?*/
	$E0C9  4C 72 E3:    jmp ++++		; $E372			/* A(??)X(22)<60BF>Y(00)<6460>MAP[00:[00],01:[01],02:[02],03:[03],mmc:(un)]s(0)Z?S?*/(barrier)

+	$E0CC  20 01 E0:    jsr _func_6001			/* A(??)X(22)<60BF>Y(00)<6460>MAP[00:[00],01:[01],02:[02],03:[03],mmc:(un)]s(0)Z?S?*/
	$E0CF  A2 22:       ldx #$22			/* A(??)X(22)<60CF>Y(00)<6460>MAP[00:[00],01:[01],02:[02],03:[03],mmc:(un)]s(0)Z0S0*/
	$E0D1  9D E0 3F:    sta $3FE0,x			/* A(??)X(22)<60CF>Y(00)<6460>MAP[00:[00],01:[01],02:[02],03:[03],mmc:(un)]s(0)Z0S0*/
	$E0D4  AD 02 20:    lda $2002			/* A(??)X(22)<60CF>Y(00)<6460>MAP[00:[00],01:[01],02:[02],03:[03],mmc:(un)]s(0)Z?S?*/
	$E0D7  10 03:       bpl +		; $E0DC			/* A(??)X(22)<60CF>Y(00)<6460>MAP[00:[00],01:[01],02:[02],03:[03],mmc:(un)]s(0)Z?S?*/
	$E0D9  4C 72 E3:    jmp ++++		; $E372			/* A(??)X(22)<60CF>Y(00)<6460>MAP[00:[00],01:[01],02:[02],03:[03],mmc:(un)]s(0)Z?S?*/(barrier)

+	$E0DC  48:          pha 			/* A(??)X(22)<60CF>Y(00)<6460>MAP[00:[00],01:[01],02:[02],03:[03],mmc:(un)]s(0)Z?S?*/
	$E0DD  A9 05:        lda #$05			/* A(05)<60DD>X(22)<60CF>Y(00)<6460>MAP[00:[00],01:[01],02:[02],03:[03],mmc:(un)]s(1)Z0S0*/
	$E0DF  20 99 E3:     jsr _func_6399			/* A(??)X(??)Y(??)MAP[00:(??),01:(??),02:(??),03:(??),mmc:(un)]s(1)Z?S?*/
	$E0E2  A9 B4:        lda #<_data_66B4			/* A(B4)<60E2>X(22)<60CF>Y(00)<6460>MAP[00:[00],01:[01],02:[02],03:[03],mmc:(un)]s(0)Z0S1*/
	$E0E4  85 17:        sta $17			/* A(B4)<60E2>X(22)<60CF>Y(00)<6460>MAP[00:[00],01:[01],02:[02],03:[03],mmc:(un)]s(0)Z0S1*/
	$E0E6  A9 E6:        lda #>_data_66B4			/* A(E6)<60E6>X(22)<60CF>Y(00)<6460>MAP[00:[00],01:[01],02:[02],03:[03],mmc:(un)]s(0)Z0S1*/
	$E0E8  85 18:        sta $18			/* A(E6)<60E6>X(22)<60CF>Y(00)<6460>MAP[00:[00],01:[01],02:[02],03:[03],mmc:(un)]s(0)Z0S1*/
	$E0EA  68:          pla 			/* A(??)X(22)<60CF>Y(00)<6460>MAP[00:[00],01:[01],02:[02],03:[03],mmc:(un)]s(0)Z?S?*/
	$E0EB  20 01 E0:    jsr _func_6001			/* A(??)X(??)Y(??)MAP[00:(??),01:(??),02:(??),03:(??),mmc:(un)]s(0)Z?S?*/
	$E0EE  A0 22:       ldy #$22			/* A(??)X(22)<60CF>Y(22)<60EE>MAP[00:[00],01:[01],02:[02],03:[03],mmc:(un)]s(0)Z0S0*/
	$E0F0  A9 00:       lda #$00			/* A(00)<60F0>X(22)<60CF>Y(22)<60EE>MAP[00:[00],01:[01],02:[02],03:[03],mmc:(un)]s(0)Z1S0*/
	$E0F2  85 0E:       sta $0E			/* A(00)<60F0>X(22)<60CF>Y(22)<60EE>MAP[00:[00],01:[01],02:[02],03:[03],mmc:(un)]s(0)Z1S0*/
	$E0F4  A9 20:       lda #$20			/* A(20)<60F4>X(22)<60CF>Y(22)<60EE>MAP[00:[00],01:[01],02:[02],03:[03],mmc:(un)]s(0)Z0S0*/
	$E0F6  85 0F:       sta $0F			/* A(20)<60F4>X(22)<60CF>Y(22)<60EE>MAP[00:[00],01:[01],02:[02],03:[03],mmc:(un)]s(0)Z0S0*/
	$E0F8  B1 0E:       lda ($0E),y			/* A(??)X(22)<60CF>Y(22)<60EE>MAP[00:[00],01:[01],02:[02],03:[03],mmc:(un)]s(0)Z?S?*/
	$E0FA  30 03:       bmi +		; $E0FF			/* A(??)X(22)<60CF>Y(22)<60EE>MAP[00:[00],01:[01],02:[02],03:[03],mmc:(un)]s(0)Z?S?*/
	$E0FC  4C 72 E3:    jmp ++++		; $E372			/* A(??)X(22)<60CF>Y(22)<60EE>MAP[00:[00],01:[01],02:[02],03:[03],mmc:(un)]s(0)Z?S?*/(barrier)

+	$E0FF  AD 02 20:    lda $2002			/* A(??)X(22)<60CF>Y(22)<60EE>MAP[00:[00],01:[01],02:[02],03:[03],mmc:(un)]s(0)Z?S?*/
	$E102  10 03:       bpl +		; $E107			/* A(??)X(22)<60CF>Y(22)<60EE>MAP[00:[00],01:[01],02:[02],03:[03],mmc:(un)]s(0)Z?S?*/
	$E104  4C 72 E3:    jmp ++++		; $E372			/* A(??)X(22)<60CF>Y(22)<60EE>MAP[00:[00],01:[01],02:[02],03:[03],mmc:(un)]s(0)Z?S?*/(barrier)

+	$E107  20 01 E0:    jsr _func_6001			/* A(??)X(22)<60CF>Y(22)<60EE>MAP[00:[00],01:[01],02:[02],03:[03],mmc:(un)]s(0)Z?S?*/
	$E10A  A0 22:       ldy #$22			/* A(??)X(22)<60CF>Y(22)<610A>MAP[00:[00],01:[01],02:[02],03:[03],mmc:(un)]s(0)Z0S0*/
	$E10C  A9 E0:       lda #$E0			/* A(E0)<610C>X(22)<60CF>Y(22)<610A>MAP[00:[00],01:[01],02:[02],03:[03],mmc:(un)]s(0)Z0S1*/
	$E10E  85 0E:       sta $0E			/* A(E0)<610C>X(22)<60CF>Y(22)<610A>MAP[00:[00],01:[01],02:[02],03:[03],mmc:(un)]s(0)Z0S1*/
	$E110  A9 20:       lda #$20			/* A(20)<6110>X(22)<60CF>Y(22)<610A>MAP[00:[00],01:[01],02:[02],03:[03],mmc:(un)]s(0)Z0S0*/
	$E112  85 0F:       sta $0F			/* A(20)<6110>X(22)<60CF>Y(22)<610A>MAP[00:[00],01:[01],02:[02],03:[03],mmc:(un)]s(0)Z0S0*/
	$E114  B1 0E:       lda ($0E),y			/* A(??)X(22)<60CF>Y(22)<610A>MAP[00:[00],01:[01],02:[02],03:[03],mmc:(un)]s(0)Z?S?*/
	$E116  10 03:       bpl +		; $E11B			/* A(??)X(22)<60CF>Y(22)<610A>MAP[00:[00],01:[01],02:[02],03:[03],mmc:(un)]s(0)Z?S?*/
	$E118  4C 72 E3:    jmp ++++		; $E372			/* A(??)X(22)<60CF>Y(22)<610A>MAP[00:[00],01:[01],02:[02],03:[03],mmc:(un)]s(0)Z?S?*/(barrier)

+	$E11B  AD 02 20:    lda $2002			/* A(??)X(22)<60CF>Y(22)<610A>MAP[00:[00],01:[01],02:[02],03:[03],mmc:(un)]s(0)Z?S?*/
	$E11E  10 03:       bpl +		; $E123			/* A(??)X(22)<60CF>Y(22)<610A>MAP[00:[00],01:[01],02:[02],03:[03],mmc:(un)]s(0)Z?S?*/
	$E120  4C 72 E3:    jmp ++++		; $E372			/* A(??)X(22)<60CF>Y(22)<610A>MAP[00:[00],01:[01],02:[02],03:[03],mmc:(un)]s(0)Z?S?*/(barrier)

+	$E123  20 01 E0:    jsr _func_6001			/* A(??)X(22)<60CF>Y(22)<610A>MAP[00:[00],01:[01],02:[02],03:[03],mmc:(un)]s(0)Z?S?*/
	$E126  A0 22:       ldy #$22			/* A(??)X(22)<60CF>Y(22)<6126>MAP[00:[00],01:[01],02:[02],03:[03],mmc:(un)]s(0)Z0S0*/
	$E128  A9 E2:       lda #$E2			/* A(E2)<6128>X(22)<60CF>Y(22)<6126>MAP[00:[00],01:[01],02:[02],03:[03],mmc:(un)]s(0)Z0S1*/
	$E12A  85 0E:       sta $0E			/* A(E2)<6128>X(22)<60CF>Y(22)<6126>MAP[00:[00],01:[01],02:[02],03:[03],mmc:(un)]s(0)Z0S1*/
	$E12C  A9 20:       lda #$20			/* A(20)<612C>X(22)<60CF>Y(22)<6126>MAP[00:[00],01:[01],02:[02],03:[03],mmc:(un)]s(0)Z0S0*/
	$E12E  85 0F:       sta $0F			/* A(20)<612C>X(22)<60CF>Y(22)<6126>MAP[00:[00],01:[01],02:[02],03:[03],mmc:(un)]s(0)Z0S0*/
	$E130  B1 0E:       lda ($0E),y			/* A(??)X(22)<60CF>Y(22)<6126>MAP[00:[00],01:[01],02:[02],03:[03],mmc:(un)]s(0)Z?S?*/
	$E132  AD 02 20:    lda $2002			/* A(??)X(22)<60CF>Y(22)<6126>MAP[00:[00],01:[01],02:[02],03:[03],mmc:(un)]s(0)Z?S?*/
	$E135  30 03:       bmi +		; $E13A			/* A(??)X(22)<60CF>Y(22)<6126>MAP[00:[00],01:[01],02:[02],03:[03],mmc:(un)]s(0)Z?S?*/
	$E137  4C 72 E3:    jmp ++++		; $E372			/* A(??)X(22)<60CF>Y(22)<6126>MAP[00:[00],01:[01],02:[02],03:[03],mmc:(un)]s(0)Z?S?*/(barrier)

+	$E13A  20 01 E0:    jsr _func_6001			/* A(??)X(22)<60CF>Y(22)<6126>MAP[00:[00],01:[01],02:[02],03:[03],mmc:(un)]s(0)Z?S?*/
	$E13D  A0 22:       ldy #$22			/* A(??)X(22)<60CF>Y(22)<613D>MAP[00:[00],01:[01],02:[02],03:[03],mmc:(un)]s(0)Z0S0*/
	$E13F  A9 E0:       lda #$E0			/* A(E0)<613F>X(22)<60CF>Y(22)<613D>MAP[00:[00],01:[01],02:[02],03:[03],mmc:(un)]s(0)Z0S1*/
	$E141  85 0E:       sta $0E			/* A(E0)<613F>X(22)<60CF>Y(22)<613D>MAP[00:[00],01:[01],02:[02],03:[03],mmc:(un)]s(0)Z0S1*/
	$E143  A9 3F:       lda #$3F			/* A(3F)<6143>X(22)<60CF>Y(22)<613D>MAP[00:[00],01:[01],02:[02],03:[03],mmc:(un)]s(0)Z0S0*/
	$E145  85 0F:       sta $0F			/* A(3F)<6143>X(22)<60CF>Y(22)<613D>MAP[00:[00],01:[01],02:[02],03:[03],mmc:(un)]s(0)Z0S0*/
	$E147  B1 0E:       lda ($0E),y			/* A(??)X(22)<60CF>Y(22)<613D>MAP[00:[00],01:[01],02:[02],03:[03],mmc:(un)]s(0)Z?S?*/
	$E149  AD 02 20:    lda $2002			/* A(??)X(22)<60CF>Y(22)<613D>MAP[00:[00],01:[01],02:[02],03:[03],mmc:(un)]s(0)Z?S?*/
	$E14C  10 03:       bpl +		; $E151			/* A(??)X(22)<60CF>Y(22)<613D>MAP[00:[00],01:[01],02:[02],03:[03],mmc:(un)]s(0)Z?S?*/
	$E14E  4C 72 E3:    jmp ++++		; $E372			/* A(??)X(22)<60CF>Y(22)<613D>MAP[00:[00],01:[01],02:[02],03:[03],mmc:(un)]s(0)Z?S?*/(barrier)

+	$E151  48:          pha 			/* A(??)X(22)<60CF>Y(22)<613D>MAP[00:[00],01:[01],02:[02],03:[03],mmc:(un)]s(0)Z?S?*/
	$E152  A9 06:        lda #$06			/* A(06)<6152>X(22)<60CF>Y(22)<613D>MAP[00:[00],01:[01],02:[02],03:[03],mmc:(un)]s(1)Z0S0*/
	$E154  20 99 E3:     jsr _func_6399			/* A(??)X(??)Y(??)MAP[00:(??),01:(??),02:(??),03:(??),mmc:(un)]s(1)Z?S?*/
	$E157  A9 BE:        lda #<_data_66BE			/* A(BE)<6157>X(22)<60CF>Y(22)<613D>MAP[00:[00],01:[01],02:[02],03:[03],mmc:(un)]s(0)Z0S1*/
	$E159  85 17:        sta $17			/* A(BE)<6157>X(22)<60CF>Y(22)<613D>MAP[00:[00],01:[01],02:[02],03:[03],mmc:(un)]s(0)Z0S1*/
	$E15B  A9 E6:        lda #>_data_66BE			/* A(E6)<615B>X(22)<60CF>Y(22)<613D>MAP[00:[00],01:[01],02:[02],03:[03],mmc:(un)]s(0)Z0S1*/
	$E15D  85 18:        sta $18			/* A(E6)<615B>X(22)<60CF>Y(22)<613D>MAP[00:[00],01:[01],02:[02],03:[03],mmc:(un)]s(0)Z0S1*/
	$E15F  68:          pla 			/* A(??)X(22)<60CF>Y(22)<613D>MAP[00:[00],01:[01],02:[02],03:[03],mmc:(un)]s(0)Z?S?*/
	$E160  20 01 E0:    jsr _func_6001			/* A(??)X(??)Y(??)MAP[00:(??),01:(??),02:(??),03:(??),mmc:(un)]s(0)Z?S?*/
	$E163  A9 E0:       lda #$E0			/* A(E0)<6163>X(22)<60CF>Y(22)<613D>MAP[00:[00],01:[01],02:[02],03:[03],mmc:(un)]s(0)Z0S1*/
	$E165  85 0E:       sta $0E			/* A(E0)<6163>X(22)<60CF>Y(22)<613D>MAP[00:[00],01:[01],02:[02],03:[03],mmc:(un)]s(0)Z0S1*/
	$E167  A9 20:       lda #$20			/* A(20)<6167>X(22)<60CF>Y(22)<613D>MAP[00:[00],01:[01],02:[02],03:[03],mmc:(un)]s(0)Z0S0*/
	$E169  85 0F:       sta $0F			/* A(20)<6167>X(22)<60CF>Y(22)<613D>MAP[00:[00],01:[01],02:[02],03:[03],mmc:(un)]s(0)Z0S0*/
	$E16B  A0 22:       ldy #$22			/* A(20)<6167>X(22)<60CF>Y(22)<616B>MAP[00:[00],01:[01],02:[02],03:[03],mmc:(un)]s(0)Z0S0*/
	$E16D  91 0E:       sta ($0E),y			/* A(20)<6167>X(22)<60CF>Y(22)<616B>MAP[00:[00],01:[01],02:[02],03:[03],mmc:(un)]s(0)Z0S0*/
	$E16F  10 03:       bpl +		; $E174			/* A(20)<6167>X(22)<60CF>Y(22)<616B>MAP[00:[00],01:[01],02:[02],03:[03],mmc:(un)]s(0)Z0S0*/(barrier)

	$E171               .byte $4C,$72,$E3
+	$E174  AD 02 20:    lda $2002			/* A(??)X(22)<60CF>Y(22)<616B>MAP[00:[00],01:[01],02:[02],03:[03],mmc:(un)]s(0)Z?S?*/
	$E177  10 03:       bpl +		; $E17C			/* A(??)X(22)<60CF>Y(22)<616B>MAP[00:[00],01:[01],02:[02],03:[03],mmc:(un)]s(0)Z?S?*/
	$E179  4C 72 E3:    jmp ++++		; $E372			/* A(??)X(22)<60CF>Y(22)<616B>MAP[00:[00],01:[01],02:[02],03:[03],mmc:(un)]s(0)Z?S?*/(barrier)

+	$E17C  20 01 E0:    jsr _func_6001			/* A(??)X(22)<60CF>Y(22)<616B>MAP[00:[00],01:[01],02:[02],03:[03],mmc:(un)]s(0)Z?S?*/
	$E17F  A9 E2:       lda #$E2			/* A(E2)<617F>X(22)<60CF>Y(22)<616B>MAP[00:[00],01:[01],02:[02],03:[03],mmc:(un)]s(0)Z0S1*/
	$E181  85 0E:       sta $0E			/* A(E2)<617F>X(22)<60CF>Y(22)<616B>MAP[00:[00],01:[01],02:[02],03:[03],mmc:(un)]s(0)Z0S1*/
	$E183  A9 20:       lda #$20			/* A(20)<6183>X(22)<60CF>Y(22)<616B>MAP[00:[00],01:[01],02:[02],03:[03],mmc:(un)]s(0)Z0S0*/
	$E185  85 0F:       sta $0F			/* A(20)<6183>X(22)<60CF>Y(22)<616B>MAP[00:[00],01:[01],02:[02],03:[03],mmc:(un)]s(0)Z0S0*/
	$E187  A0 22:       ldy #$22			/* A(20)<6183>X(22)<60CF>Y(22)<6187>MAP[00:[00],01:[01],02:[02],03:[03],mmc:(un)]s(0)Z0S0*/
	$E189  91 0E:       sta ($0E),y			/* A(20)<6183>X(22)<60CF>Y(22)<6187>MAP[00:[00],01:[01],02:[02],03:[03],mmc:(un)]s(0)Z0S0*/
	$E18B  AD 02 20:    lda $2002			/* A(??)X(22)<60CF>Y(22)<6187>MAP[00:[00],01:[01],02:[02],03:[03],mmc:(un)]s(0)Z?S?*/
	$E18E  30 03:       bmi +		; $E193			/* A(??)X(22)<60CF>Y(22)<6187>MAP[00:[00],01:[01],02:[02],03:[03],mmc:(un)]s(0)Z?S?*/
	$E190  4C 72 E3:    jmp ++++		; $E372			/* A(??)X(22)<60CF>Y(22)<6187>MAP[00:[00],01:[01],02:[02],03:[03],mmc:(un)]s(0)Z?S?*/(barrier)

+	$E193  20 01 E0:    jsr _func_6001			/* A(??)X(22)<60CF>Y(22)<6187>MAP[00:[00],01:[01],02:[02],03:[03],mmc:(un)]s(0)Z?S?*/
	$E196  A9 E0:       lda #$E0			/* A(E0)<6196>X(22)<60CF>Y(22)<6187>MAP[00:[00],01:[01],02:[02],03:[03],mmc:(un)]s(0)Z0S1*/
	$E198  85 0E:       sta $0E			/* A(E0)<6196>X(22)<60CF>Y(22)<6187>MAP[00:[00],01:[01],02:[02],03:[03],mmc:(un)]s(0)Z0S1*/
	$E19A  A9 3F:       lda #$3F			/* A(3F)<619A>X(22)<60CF>Y(22)<6187>MAP[00:[00],01:[01],02:[02],03:[03],mmc:(un)]s(0)Z0S0*/
	$E19C  85 0F:       sta $0F			/* A(3F)<619A>X(22)<60CF>Y(22)<6187>MAP[00:[00],01:[01],02:[02],03:[03],mmc:(un)]s(0)Z0S0*/
	$E19E  A0 22:       ldy #$22			/* A(3F)<619A>X(22)<60CF>Y(22)<619E>MAP[00:[00],01:[01],02:[02],03:[03],mmc:(un)]s(0)Z0S0*/
	$E1A0  91 0E:       sta ($0E),y			/* A(3F)<619A>X(22)<60CF>Y(22)<619E>MAP[00:[00],01:[01],02:[02],03:[03],mmc:(un)]s(0)Z0S0*/
	$E1A2  AD 02 20:    lda $2002			/* A(??)X(22)<60CF>Y(22)<619E>MAP[00:[00],01:[01],02:[02],03:[03],mmc:(un)]s(0)Z?S?*/
	$E1A5  10 03:       bpl +		; $E1AA			/* A(??)X(22)<60CF>Y(22)<619E>MAP[00:[00],01:[01],02:[02],03:[03],mmc:(un)]s(0)Z?S?*/
	$E1A7  4C 72 E3:    jmp ++++		; $E372			/* A(??)X(22)<60CF>Y(22)<619E>MAP[00:[00],01:[01],02:[02],03:[03],mmc:(un)]s(0)Z?S?*/(barrier)

+	$E1AA  48:          pha 			/* A(??)X(22)<60CF>Y(22)<619E>MAP[00:[00],01:[01],02:[02],03:[03],mmc:(un)]s(0)Z?S?*/
	$E1AB  A9 07:        lda #$07			/* A(07)<61AB>X(22)<60CF>Y(22)<619E>MAP[00:[00],01:[01],02:[02],03:[03],mmc:(un)]s(1)Z0S0*/
	$E1AD  20 99 E3:     jsr _func_6399			/* A(??)X(??)Y(??)MAP[00:(??),01:(??),02:(??),03:(??),mmc:(un)]s(1)Z?S?*/
	$E1B0  A9 C8:        lda #<_data_66C8			/* A(C8)<61B0>X(22)<60CF>Y(22)<619E>MAP[00:[00],01:[01],02:[02],03:[03],mmc:(un)]s(0)Z0S1*/
	$E1B2  85 17:        sta $17			/* A(C8)<61B0>X(22)<60CF>Y(22)<619E>MAP[00:[00],01:[01],02:[02],03:[03],mmc:(un)]s(0)Z0S1*/
	$E1B4  A9 E6:        lda #>_data_66C8			/* A(E6)<61B4>X(22)<60CF>Y(22)<619E>MAP[00:[00],01:[01],02:[02],03:[03],mmc:(un)]s(0)Z0S1*/
	$E1B6  85 18:        sta $18			/* A(E6)<61B4>X(22)<60CF>Y(22)<619E>MAP[00:[00],01:[01],02:[02],03:[03],mmc:(un)]s(0)Z0S1*/
	$E1B8  68:          pla 			/* A(??)X(22)<60CF>Y(22)<619E>MAP[00:[00],01:[01],02:[02],03:[03],mmc:(un)]s(0)Z?S?*/
	$E1B9  20 01 E0:    jsr _func_6001			/* A(??)X(??)Y(??)MAP[00:(??),01:(??),02:(??),03:(??),mmc:(un)]s(0)Z?S?*/
	$E1BC  A2 00:       ldx #$00			/* A(??)X(00)<61BC>Y(22)<619E>MAP[00:[00],01:[01],02:[02],03:[03],mmc:(un)]s(0)Z1S0*/
	$E1BE  A9 02:       lda #$02			/* A(02)<61BE>X(00)<61BC>Y(22)<619E>MAP[00:[00],01:[01],02:[02],03:[03],mmc:(un)]s(0)Z0S0*/
	$E1C0  85 0E:       sta $0E			/* A(02)<61BE>X(00)<61BC>Y(22)<619E>MAP[00:[00],01:[01],02:[02],03:[03],mmc:(un)]s(0)Z0S0*/
	$E1C2  A9 20:       lda #$20			/* A(20)<61C2>X(00)<61BC>Y(22)<619E>MAP[00:[00],01:[01],02:[02],03:[03],mmc:(un)]s(0)Z0S0*/
	$E1C4  85 0F:       sta $0F			/* A(20)<61C2>X(00)<61BC>Y(22)<619E>MAP[00:[00],01:[01],02:[02],03:[03],mmc:(un)]s(0)Z0S0*/
	$E1C6  A1 0E:       lda ($0E,x)			/* A(??)X(00)<61BC>Y(22)<619E>MAP[00:[00],01:[01],02:[02],03:[03],mmc:(un)]s(0)Z?S?*/
	$E1C8  30 03:       bmi +		; $E1CD			/* A(??)X(00)<61BC>Y(22)<619E>MAP[00:[00],01:[01],02:[02],03:[03],mmc:(un)]s(0)Z?S?*/
	$E1CA  4C 72 E3:    jmp ++++		; $E372			/* A(??)X(00)<61BC>Y(22)<619E>MAP[00:[00],01:[01],02:[02],03:[03],mmc:(un)]s(0)Z?S?*/(barrier)

+	$E1CD  48:          pha 			/* A(??)X(00)<61BC>Y(22)<619E>MAP[00:[00],01:[01],02:[02],03:[03],mmc:(un)]s(0)Z?S?*/
	$E1CE  A9 08:        lda #$08			/* A(08)<61CE>X(00)<61BC>Y(22)<619E>MAP[00:[00],01:[01],02:[02],03:[03],mmc:(un)]s(1)Z0S0*/
	$E1D0  20 99 E3:     jsr _func_6399			/* A(??)X(??)Y(??)MAP[00:(??),01:(??),02:(??),03:(??),mmc:(un)]s(1)Z?S?*/
	$E1D3  A9 D2:        lda #<_data_66D2			/* A(D2)<61D3>X(00)<61BC>Y(22)<619E>MAP[00:[00],01:[01],02:[02],03:[03],mmc:(un)]s(0)Z0S1*/
	$E1D5  85 17:        sta $17			/* A(D2)<61D3>X(00)<61BC>Y(22)<619E>MAP[00:[00],01:[01],02:[02],03:[03],mmc:(un)]s(0)Z0S1*/
	$E1D7  A9 E6:        lda #>_data_66D2			/* A(E6)<61D7>X(00)<61BC>Y(22)<619E>MAP[00:[00],01:[01],02:[02],03:[03],mmc:(un)]s(0)Z0S1*/
	$E1D9  85 18:        sta $18			/* A(E6)<61D7>X(00)<61BC>Y(22)<619E>MAP[00:[00],01:[01],02:[02],03:[03],mmc:(un)]s(0)Z0S1*/
	$E1DB  68:          pla 			/* A(??)X(00)<61BC>Y(22)<619E>MAP[00:[00],01:[01],02:[02],03:[03],mmc:(un)]s(0)Z?S?*/
	$E1DC  20 01 E0:    jsr _func_6001			/* A(??)X(??)Y(??)MAP[00:(??),01:(??),02:(??),03:(??),mmc:(un)]s(0)Z?S?*/
	$E1DF  A2 00:       ldx #$00			/* A(??)X(00)<61DF>Y(22)<619E>MAP[00:[00],01:[01],02:[02],03:[03],mmc:(un)]s(0)Z1S0*/
	$E1E1  A9 02:       lda #$02			/* A(02)<61E1>X(00)<61DF>Y(22)<619E>MAP[00:[00],01:[01],02:[02],03:[03],mmc:(un)]s(0)Z0S0*/
	$E1E3  85 0E:       sta $0E			/* A(02)<61E1>X(00)<61DF>Y(22)<619E>MAP[00:[00],01:[01],02:[02],03:[03],mmc:(un)]s(0)Z0S0*/
	$E1E5  A9 20:       lda #$20			/* A(20)<61E5>X(00)<61DF>Y(22)<619E>MAP[00:[00],01:[01],02:[02],03:[03],mmc:(un)]s(0)Z0S0*/
	$E1E7  85 0F:       sta $0F			/* A(20)<61E5>X(00)<61DF>Y(22)<619E>MAP[00:[00],01:[01],02:[02],03:[03],mmc:(un)]s(0)Z0S0*/
	$E1E9  81 0E:       sta ($0E,x)			/* A(20)<61E5>X(00)<61DF>Y(22)<619E>MAP[00:[00],01:[01],02:[02],03:[03],mmc:(un)]s(0)Z0S0*/
	$E1EB  AD 02 20:    lda $2002			/* A(??)X(00)<61DF>Y(22)<619E>MAP[00:[00],01:[01],02:[02],03:[03],mmc:(un)]s(0)Z?S?*/
	$E1EE  30 03:       bmi +		; $E1F3 -> $E35D			/* A(??)X(00)<61DF>Y(22)<619E>MAP[00:[00],01:[01],02:[02],03:[03],mmc:(un)]s(0)Z?S?*/
	$E1F0  4C 72 E3:    jmp ++++		; $E372			/* A(??)X(00)<61DF>Y(22)<619E>MAP[00:[00],01:[01],02:[02],03:[03],mmc:(un)]s(0)Z?S?*/(barrier)

+	$E1F3  4C 5D E3:    jmp +++		; $E35D			/* A(??)X(00)<61DF>Y(22)<619E>MAP[00:[00],01:[01],02:[02],03:[03],mmc:(un)]s(0)Z?S?*/(barrier)

	$E1F6               .byte $00,$00,$00,$00,$00,$00,$00,$00,$00,$00
-	$E200  E9 07:       sbc #$07			/* A(??)X(??)Y(??)MAP[00:[00],01:[01],02:[02],03:[03],mmc:(un)]s(0)Z?S?*/
_func_6202
	$E202  C9 07:       cmp #$07			/* A(??)X(FF)<6469>Y(22)<619E>MAP[00:[00],01:[01],02:[02],03:[03],mmc:(un)]s(0)Z?S?*/
	$E204  B0 FA:       bcs -		; $E200			/* A(3F)<644D>X(??)Y(??)MAP[00:[00],01:[01],02:[02],03:[03],mmc:(un)]s(0)Z?S?*/
	$E206  4A:          lsr a			/* A(1F)X(??)Y(??)MAP[00:[00],01:[01],02:[02],03:[03],mmc:(un)]s(0)Z?S?*/
	$E207  B0 00:       bcs +		; $E209			/* A(1F)X(??)Y(??)MAP[00:[00],01:[01],02:[02],03:[03],mmc:(un)]s(0)Z?S?*/
+	$E209  F0 05:       beq +		; $E210			/* A(1F)X(??)Y(??)MAP[00:[00],01:[01],02:[02],03:[03],mmc:(un)]s(0)Z?S?*/
	$E20B  4A:          lsr a			/* A(0F)X(??)Y(??)MAP[00:[00],01:[01],02:[02],03:[03],mmc:(un)]s(0)Z?S?*/
	$E20C  F0 04:       beq ++		; $E212 -> rts			/* A(0F)X(??)Y(??)MAP[00:[00],01:[01],02:[02],03:[03],mmc:(un)]s(0)Z?S?*/
	$E20E  90 02:       bcc ++		; $E212 -> rts			/* A(0F)X(??)Y(??)MAP[00:[00],01:[01],02:[02],03:[03],mmc:(un)]s(0)Z?S?*/
+	$E210  D0 00:       bne ++		; $E212 -> rts			/* A(??)X(??)Y(??)MAP[00:[00],01:[01],02:[02],03:[03],mmc:(un)]s(0)Z?S?*/
++	$E212  60:          rts 			/* A(0F)X(??)Y(??)MAP[00:[00],01:[01],02:[02],03:[03],mmc:(un)]s(0)Z?S?*/(barrier)

	$E213               .byte $C9,$00,$D0,$06,$60
_func_6218
	$E218  48:          pha 			/* A(FF)<623A>X(FF)<6469>Y(22)<619E>MAP[00:[00],01:[01],02:[02],03:[03],mmc:(un)]s(0)Z?S?*/
	$E219  A9 C7:        lda #$C7			/* A(C7)<6219>X(??)Y(??)MAP[00:[00],01:[01],02:[02],03:[03],mmc:(un)]s(1)Z0S1*/
	$E21B  D0 03:        bne +		; $E220			/* A(C7)<6219>X(??)Y(??)MAP[00:[00],01:[01],02:[02],03:[03],mmc:(un)]s(1)Z0S1*/(barrier)

-	$E21D  48:           pha 			/* A(C7)<6219>X(??)Y(??)MAP[00:[00],01:[01],02:[02],03:[03],mmc:(un)]s(1)Z?S?*/
	$E21E  A9 D7:         lda #$D7			/* A(D7)<621E>X(??)Y(??)MAP[00:[00],01:[01],02:[02],03:[03],mmc:(un)]s(1)Z0S1*/
+	$E220  20 02 E2:      jsr _func_6202			/* A(D7)<621E>X(??)Y(??)MAP[00:[00],01:[01],02:[02],03:[03],mmc:(un)]s(1)Z0S1*/
	$E223  68:           pla 			/* A(??)X(??)Y(??)MAP[00:[00],01:[01],02:[02],03:[03],mmc:(un)]s(0)Z?S?*/
	$E224  18:           clc 			/* A(??)X(??)Y(??)MAP[00:[00],01:[01],02:[02],03:[03],mmc:(un)]s(0)Z?S?*/
	$E225  69 FF:        adc #$FF			/* A(??)X(??)Y(??)MAP[00:[00],01:[01],02:[02],03:[03],mmc:(un)]s(0)Z?S?*/
	$E227  D0 F4:        bne -		; $E21D			/* A(??)X(??)Y(??)MAP[00:[00],01:[01],02:[02],03:[03],mmc:(un)]s(0)Z?S?*/
	$E229  60:           rts 			/* A(??)X(??)Y(??)MAP[00:[00],01:[01],02:[02],03:[03],mmc:(un)]s(0)Z?S?*/(barrier)

	$E22A               .byte $C9,$00,$D0,$06,$60
_func_622F
	$E22F  48:          pha 			/* A(03)<640B>X(FF)<6469>Y(22)<619E>MAP[00:[00],01:[01],02:[02],03:[03],mmc:(un)]s(1)Z?S?*/
	$E230  A9 C7:        lda #$C7			/* A(C7)<6230>X(FF)<6469>Y(22)<619E>MAP[00:[00],01:[01],02:[02],03:[03],mmc:(un)]s(1)Z0S1*/
	$E232  D0 03:        bne +		; $E237			/* A(C7)<6230>X(FF)<6469>Y(22)<619E>MAP[00:[00],01:[01],02:[02],03:[03],mmc:(un)]s(1)Z0S1*/(barrier)

-	$E234  48:           pha 			/* A(??)X(FF)<6469>Y(22)<619E>MAP[00:[00],01:[01],02:[02],03:[03],mmc:(un)]s(1)Z?S?*/
	$E235  A9 D7:         lda #$D7			/* A(D7)<6235>X(FF)<6469>Y(22)<619E>MAP[00:[00],01:[01],02:[02],03:[03],mmc:(un)]s(1)Z0S1*/
+	$E237  20 02 E2:      jsr _func_6202			/* A(D7)<6235>X(FF)<6469>Y(22)<619E>MAP[00:[00],01:[01],02:[02],03:[03],mmc:(un)]s(1)Z0S1*/
	$E23A  A9 FF:         lda #$FF			/* A(FF)<623A>X(FF)<6469>Y(22)<619E>MAP[00:[00],01:[01],02:[02],03:[03],mmc:(un)]s(0)Z0S1*/
	$E23C  20 18 E2:      jsr _func_6218			/* A(??)X(??)Y(??)MAP[00:(??),01:(??),02:(??),03:(??),mmc:(un)]s(0)Z?S?*/
	$E23F  68:           pla 			/* A(??)X(FF)<6469>Y(22)<619E>MAP[00:[00],01:[01],02:[02],03:[03],mmc:(un)]s(0)Z?S?*/
	$E240  18:           clc 			/* A(??)X(FF)<6469>Y(22)<619E>MAP[00:[00],01:[01],02:[02],03:[03],mmc:(un)]s(0)Z?S?*/
	$E241  69 FF:        adc #$FF			/* A(??)X(FF)<6469>Y(22)<619E>MAP[00:[00],01:[01],02:[02],03:[03],mmc:(un)]s(0)Z?S?*/
	$E243  D0 EF:        bne -		; $E234			/* A(??)X(FF)<6469>Y(22)<619E>MAP[00:[00],01:[01],02:[02],03:[03],mmc:(un)]s(0)Z?S?*/
	$E245  60:           rts 			/* A(??)X(FF)<6469>Y(22)<619E>MAP[00:[00],01:[01],02:[02],03:[03],mmc:(un)]s(0)Z?S?*/(barrier)

	$E246               .byte $EA,$EA,$EA,$EA,$EA,$EA,$EA,$60,$08,$48,$20,$7D,$E2,$A9,$20,$20
	$E256               .byte $79,$E5,$68,$28,$60,$08,$48,$8A,$4C,$50,$E2,$08,$48,$98,$4C,$50
	$E266               .byte $E2,$08,$48,$08,$68,$4C,$50,$E2,$08,$48,$8A,$BA,$E8,$E8,$E8,$E8
	$E276               .byte $20,$5B,$E2,$AA,$68,$28,$60,$48,$20,$18,$E3,$68,$48,$4A,$4A,$4A
	$E286               .byte $4A,$20,$8D,$E2,$68,$29,$0F,$C9,$0A,$90,$02,$69,$06,$69,$30,$4C
	$E296               .byte $79,$E5
_func_6298
	$E298  C9 0A:       cmp #$0A			/* A(??)X(??)Y(22)<619E>MAP[00:[00],01:[01],02:[02],03:[03],mmc:(un)]s(0)Z?S?*/
	$E29A  F0 05:       beq +		; $E2A1 -> _func_6579			/* A(00)<62B5>X(22)<606D>Y(00)<62B7>MAP[00:[00],01:[01],02:[02],03:[03],mmc:(un)]s(0)Z?S?*/
	$E29C  48:          pha 			/* A(00)<62B5>X(22)<606D>Y(00)<62B7>MAP[00:[00],01:[01],02:[02],03:[03],mmc:(un)]s(1)Z?S?*/
	$E29D  20 18 E3:     jsr _func_6318			/* A(??)X(??)Y(??)MAP[00:(??),01:(??),02:(??),03:(??),mmc:(un)]s(1)Z?S?*/
	$E2A0  68:          pla 			/* A(??)X(22)<606D>Y(00)<62B7>MAP[00:[00],01:[01],02:[02],03:[03],mmc:(un)]s(0)Z?S?*/
+	$E2A1  4C 79 E5:    jmp _func_6579			/* A(00)<62B5>X(22)<606D>Y(00)<62B7>MAP[00:[00],01:[01],02:[02],03:[03],mmc:(un)]s(0)Z?S?*/(barrier)

	$E2A4               .byte $48,$A9,$20,$20,$79,$E5,$68,$60
_func_62AC
	$E2AC  48:          pha 			/* A(E6)<662D>X(22)<606D>Y(00)<6460>MAP[00:[00],01:[01],02:[02],03:[03],mmc:(un)]s(0)Z?S?*/
	$E2AD  A9 0A:        lda #$0A			/* A(0A)<62AD>X(22)<606D>Y(00)<6460>MAP[00:[00],01:[01],02:[02],03:[03],mmc:(un)]s(1)Z0S0*/
	$E2AF  20 79 E5:     jsr _func_6579			/* A(??)X(??)Y(??)MAP[00:(??),01:(??),02:(??),03:(??),mmc:(un)]s(1)Z?S?*/
	$E2B2  68:          pla 			/* A(??)X(22)<606D>Y(00)<6460>MAP[00:[00],01:[01],02:[02],03:[03],mmc:(un)]s(0)Z?S?*/
	$E2B3  60:          rts 			/* A(??)X(22)<606D>Y(00)<6460>MAP[00:[00],01:[01],02:[02],03:[03],mmc:(un)]s(0)Z?S?*/(barrier)
;------------------------------------------
_func_62B4
	$E2B4  48:          pha 			/* A(??)X(FF)<6469>Y(22)<619E>MAP[00:[00],01:[01],02:[02],03:[03],mmc:(un)]s(0)Z?S?*/
	$E2B5  98:           tya 			/* A(00)<62B5>X(22)<606D>Y(00)<6460>MAP[00:[00],01:[01],02:[02],03:[03],mmc:(un)]s(1)Z1S0*/
	$E2B6  48:           pha 			/* A(00)<62B5>X(22)<606D>Y(00)<6460>MAP[00:[00],01:[01],02:[02],03:[03],mmc:(un)]s(2)Z1S0*/
	$E2B7  A0 00:         ldy #$00			/* A(00)<62B5>X(22)<606D>Y(00)<62B7>MAP[00:[00],01:[01],02:[02],03:[03],mmc:(un)]s(2)Z1S0*/
	$E2B9  F0 06:         beq +		; $E2C1			/* A(00)<62B5>X(22)<606D>Y(00)<62B7>MAP[00:[00],01:[01],02:[02],03:[03],mmc:(un)]s(2)Z1S0*/(barrier)

-	$E2BB  20 98 E2:      jsr _func_6298			/* A(??)X(??)Y(??)MAP[00:(??),01:(??),02:(??),03:(??),mmc:(un)]s(0)Z?S?*/
	$E2BE  20 C8 E2:      jsr _func_62C8			/* A(??)X(??)Y(??)MAP[00:(??),01:(??),02:(??),03:(??),mmc:(un)]s(0)Z?S?*/
+	$E2C1  B1 0E:         lda ($0E),y			/* A(00)<62B5>X(22)<606D>Y(00)<62B7>MAP[00:[00],01:[01],02:[02],03:[03],mmc:(un)]s(0)Z?S?*/
	$E2C3  D0 F6:         bne -		; $E2BB			/* A(??)X(22)<606D>Y(00)<62B7>MAP[00:[00],01:[01],02:[02],03:[03],mmc:(un)]s(0)Z?S?*/
	$E2C5  68:           pla 			/* A(??)X(22)<606D>Y(00)<62B7>MAP[00:[00],01:[01],02:[02],03:[03],mmc:(un)]s(0)Z?S?*/
	$E2C6  A8:           tay 			/* A(??)X(22)<606D>Y(??)MAP[00:[00],01:[01],02:[02],03:[03],mmc:(un)]s(0)Z?S?*/
	$E2C7  68:          pla 			/* A(??)X(22)<606D>Y(??)MAP[00:[00],01:[01],02:[02],03:[03],mmc:(un)]s(0)Z?S?*/
_func_62C8
	$E2C8  E6 0E:       inc $0E			/* A(00)<62B5>X(22)<606D>Y(00)<62B7>MAP[00:[00],01:[01],02:[02],03:[03],mmc:(un)]s(0)Z?S?*/
	$E2CA  F0 01:       beq +		; $E2CD			/* A(00)<62B5>X(22)<606D>Y(00)<62B7>MAP[00:[00],01:[01],02:[02],03:[03],mmc:(un)]s(0)Z?S?*/
	$E2CC  60:          rts 			/* A(00)<62B5>X(22)<606D>Y(00)<62B7>MAP[00:[00],01:[01],02:[02],03:[03],mmc:(un)]s(0)Z?S?*/(barrier)

+	$E2CD  E6 0F:       inc $0F			/* A(00)<62B5>X(22)<606D>Y(00)<62B7>MAP[00:[00],01:[01],02:[02],03:[03],mmc:(un)]s(0)Z?S?*/
	$E2CF  60:          rts 			/* A(00)<62B5>X(22)<606D>Y(00)<62B7>MAP[00:[00],01:[01],02:[02],03:[03],mmc:(un)]s(0)Z?S?*/(barrier)
;------------------------------------------
_func_62D0
	$E2D0  C9 64:       cmp #$64			/* A(??)X(FF)<6469>Y(22)<619E>MAP[00:[00],01:[01],02:[02],03:[03],mmc:(un)]s(0)Z?S?*/
	$E2D2  90 0C:       bcc +		; $E2E0			/* A(??)X(FF)<6469>Y(22)<619E>MAP[00:[00],01:[01],02:[02],03:[03],mmc:(un)]s(0)Z?S?*/
	$E2D4  A2 30:       ldx #$30			/* A(??)X(30)<62D4>Y(22)<619E>MAP[00:[00],01:[01],02:[02],03:[03],mmc:(un)]s(0)Z0S0*/
-	$E2D6  E9 64:       sbc #$64			/* A(??)X(30)<62D4>Y(22)<619E>MAP[00:[00],01:[01],02:[02],03:[03],mmc:(un)]s(0)Z?S?*/
	$E2D8  E8:          inx 			/* A(??)X(??)Y(22)<619E>MAP[00:[00],01:[01],02:[02],03:[03],mmc:(un)]s(0)Z?S?*/
	$E2D9  C9 64:       cmp #$64			/* A(??)X(??)Y(22)<619E>MAP[00:[00],01:[01],02:[02],03:[03],mmc:(un)]s(0)Z?S?*/
	$E2DB  B0 F9:       bcs -		; $E2D6			/* A(??)X(??)Y(22)<619E>MAP[00:[00],01:[01],02:[02],03:[03],mmc:(un)]s(0)Z?S?*/
	$E2DD  20 F5 E2:    jsr _func_62F5			/* A(??)X(??)Y(??)MAP[00:(??),01:(??),02:(??),03:(??),mmc:(un)]s(0)Z?S?*/
+	$E2E0  C9 0A:       cmp #$0A			/* A(??)X(??)Y(22)<619E>MAP[00:[00],01:[01],02:[02],03:[03],mmc:(un)]s(0)Z?S?*/
	$E2E2  90 0C:       bcc +		; $E2F0			/* A(??)X(FF)<6469>Y(22)<619E>MAP[00:[00],01:[01],02:[02],03:[03],mmc:(un)]s(0)Z?S?*/
	$E2E4  A2 30:       ldx #$30			/* A(??)X(30)<62E4>Y(22)<619E>MAP[00:[00],01:[01],02:[02],03:[03],mmc:(un)]s(0)Z0S0*/
-	$E2E6  E9 0A:       sbc #$0A			/* A(??)X(30)<62E4>Y(22)<619E>MAP[00:[00],01:[01],02:[02],03:[03],mmc:(un)]s(0)Z?S?*/
	$E2E8  E8:          inx 			/* A(??)X(??)Y(22)<619E>MAP[00:[00],01:[01],02:[02],03:[03],mmc:(un)]s(0)Z?S?*/
	$E2E9  C9 0A:       cmp #$0A			/* A(??)X(??)Y(22)<619E>MAP[00:[00],01:[01],02:[02],03:[03],mmc:(un)]s(0)Z?S?*/
	$E2EB  B0 F9:       bcs -		; $E2E6			/* A(??)X(??)Y(22)<619E>MAP[00:[00],01:[01],02:[02],03:[03],mmc:(un)]s(0)Z?S?*/
	$E2ED  20 F5 E2:    jsr _func_62F5			/* A(??)X(??)Y(??)MAP[00:(??),01:(??),02:(??),03:(??),mmc:(un)]s(0)Z?S?*/
+	$E2F0  09 30:       ora #$30			/* A(??)X(??)Y(22)<619E>MAP[00:[00],01:[01],02:[02],03:[03],mmc:(un)]s(0)Z?S?*/
	$E2F2  4C 98 E2:    jmp _func_6298			/* A(??)X(FF)<6469>Y(22)<619E>MAP[00:[00],01:[01],02:[02],03:[03],mmc:(un)]s(0)Z?S?*/(barrier)
;------------------------------------------
_func_62F5
	$E2F5  48:          pha 			/* A(??)X(??)Y(22)<619E>MAP[00:[00],01:[01],02:[02],03:[03],mmc:(un)]s(0)Z?S?*/
	$E2F6  8A:           txa 			/* A(??)X(??)Y(22)<619E>MAP[00:[00],01:[01],02:[02],03:[03],mmc:(un)]s(1)Z?S?*/
	$E2F7  20 98 E2:     jsr _func_6298			/* A(??)X(??)Y(??)MAP[00:(??),01:(??),02:(??),03:(??),mmc:(un)]s(1)Z?S?*/
	$E2FA  68:          pla 			/* A(??)X(??)Y(22)<619E>MAP[00:[00],01:[01],02:[02],03:[03],mmc:(un)]s(0)Z?S?*/
	$E2FB  60:          rts 			/* A(??)X(??)Y(22)<619E>MAP[00:[00],01:[01],02:[02],03:[03],mmc:(un)]s(0)Z?S?*/(barrier)

	$E2FC               .byte $C6,$15,$60,$E6,$15,$F0,$05,$30,$03,$4C,$75,$E4,$60
_func_6309
	$E309  A9 00:       lda #$00			/* A(02)<6010>X(00)<645F>Y(00)<6460>MAP[00:[00],01:[01],02:[02],03:[03],mmc:(un)]s(0)Z?S?*/
	$E30B  85 15:       sta $15			/* A(00)<6309>X(??)Y(??)MAP[00:[00],01:[01],02:[02],03:[03],mmc:(un)]s(0)Z1S0*/
	$E30D  A9 FF:       lda #$FF			/* A(FF)<630D>X(??)Y(??)MAP[00:[00],01:[01],02:[02],03:[03],mmc:(un)]s(0)Z0S1*/
	$E30F  85 10:       sta $10			/* A(FF)<630D>X(??)Y(??)MAP[00:[00],01:[01],02:[02],03:[03],mmc:(un)]s(0)Z0S1*/
	$E311  85 11:       sta $11			/* A(FF)<630D>X(??)Y(??)MAP[00:[00],01:[01],02:[02],03:[03],mmc:(un)]s(0)Z0S1*/
	$E313  85 12:       sta $12			/* A(FF)<630D>X(??)Y(??)MAP[00:[00],01:[01],02:[02],03:[03],mmc:(un)]s(0)Z0S1*/
	$E315  85 13:       sta $13			/* A(FF)<630D>X(??)Y(??)MAP[00:[00],01:[01],02:[02],03:[03],mmc:(un)]s(0)Z0S1*/
	$E317  60:          rts 			/* A(FF)<630D>X(??)Y(??)MAP[00:[00],01:[01],02:[02],03:[03],mmc:(un)]s(0)Z0S1*/(barrier)
;------------------------------------------
_func_6318
	$E318  24 15:       bit $15			/* A(??)X(22)<606D>Y(00)<62B7>MAP[00:[00],01:[01],02:[02],03:[03],mmc:(un)]s(1)Z?S?*/
	$E31A  30 2E:       bmi ++		; $E34A -> rts			/* A(??)X(22)<606D>Y(00)<62B7>MAP[00:[00],01:[01],02:[02],03:[03],mmc:(un)]s(1)Z?S?*/
	$E31C  86 14:       stx $14			/* A(??)X(22)<606D>Y(00)<62B7>MAP[00:[00],01:[01],02:[02],03:[03],mmc:(un)]s(1)Z?S?*/
	$E31E  45 10:       eor $10			/* A(??)X(22)<606D>Y(00)<62B7>MAP[00:[00],01:[01],02:[02],03:[03],mmc:(un)]s(1)Z?S?*/
	$E320  A2 08:       ldx #$08			/* A(??)X(08)<6320>Y(00)<62B7>MAP[00:[00],01:[01],02:[02],03:[03],mmc:(un)]s(1)Z0S0*/
-	$E322  46 13:       lsr $13			/* A(??)X(08)<6320>Y(00)<62B7>MAP[00:[00],01:[01],02:[02],03:[03],mmc:(un)]s(0)Z?S?*/
	$E324  66 12:       ror $12			/* A(??)X(08)<6320>Y(00)<62B7>MAP[00:[00],01:[01],02:[02],03:[03],mmc:(un)]s(1)Z?S?*/
	$E326  66 11:       ror $11			/* A(??)X(08)<6320>Y(00)<62B7>MAP[00:[00],01:[01],02:[02],03:[03],mmc:(un)]s(1)Z?S?*/
	$E328  6A:          ror a			/* A(??)X(08)<6320>Y(00)<62B7>MAP[00:[00],01:[01],02:[02],03:[03],mmc:(un)]s(1)Z?S?*/
	$E329  90 18:       bcc +		; $E343			/* A(??)X(08)<6320>Y(00)<62B7>MAP[00:[00],01:[01],02:[02],03:[03],mmc:(un)]s(1)Z?S?*/
	$E32B  85 10:       sta $10			/* A(??)X(08)<6320>Y(00)<62B7>MAP[00:[00],01:[01],02:[02],03:[03],mmc:(un)]s(1)Z?S?*/
	$E32D  A5 13:       lda $13			/* A(??)X(08)<6320>Y(00)<62B7>MAP[00:[00],01:[01],02:[02],03:[03],mmc:(un)]s(1)Z?S?*/
	$E32F  49 ED:       eor #$ED			/* A(??)X(08)<6320>Y(00)<62B7>MAP[00:[00],01:[01],02:[02],03:[03],mmc:(un)]s(1)Z?S?*/
	$E331  85 13:       sta $13			/* A(??)X(08)<6320>Y(00)<62B7>MAP[00:[00],01:[01],02:[02],03:[03],mmc:(un)]s(1)Z?S?*/
	$E333  A5 12:       lda $12			/* A(??)X(08)<6320>Y(00)<62B7>MAP[00:[00],01:[01],02:[02],03:[03],mmc:(un)]s(1)Z?S?*/
	$E335  49 B8:       eor #$B8			/* A(??)X(08)<6320>Y(00)<62B7>MAP[00:[00],01:[01],02:[02],03:[03],mmc:(un)]s(1)Z?S?*/
	$E337  85 12:       sta $12			/* A(??)X(08)<6320>Y(00)<62B7>MAP[00:[00],01:[01],02:[02],03:[03],mmc:(un)]s(1)Z?S?*/
	$E339  A5 11:       lda $11			/* A(??)X(08)<6320>Y(00)<62B7>MAP[00:[00],01:[01],02:[02],03:[03],mmc:(un)]s(1)Z?S?*/
	$E33B  49 83:       eor #$83			/* A(??)X(08)<6320>Y(00)<62B7>MAP[00:[00],01:[01],02:[02],03:[03],mmc:(un)]s(1)Z?S?*/
	$E33D  85 11:       sta $11			/* A(??)X(08)<6320>Y(00)<62B7>MAP[00:[00],01:[01],02:[02],03:[03],mmc:(un)]s(1)Z?S?*/
	$E33F  A5 10:       lda $10			/* A(??)X(08)<6320>Y(00)<62B7>MAP[00:[00],01:[01],02:[02],03:[03],mmc:(un)]s(1)Z?S?*/
	$E341  49 20:       eor #$20			/* A(??)X(08)<6320>Y(00)<62B7>MAP[00:[00],01:[01],02:[02],03:[03],mmc:(un)]s(1)Z?S?*/
+	$E343  CA:          dex 			/* A(??)X(08)<6320>Y(00)<62B7>MAP[00:[00],01:[01],02:[02],03:[03],mmc:(un)]s(1)Z?S?*/
	$E344  D0 DC:       bne -		; $E322			/* A(??)X(??)Y(00)<62B7>MAP[00:[00],01:[01],02:[02],03:[03],mmc:(un)]s(0)Z?S?*/
	$E346  85 10:       sta $10			/* A(??)X(??)Y(00)<62B7>MAP[00:[00],01:[01],02:[02],03:[03],mmc:(un)]s(0)Z?S?*/
	$E348  A6 14:       ldx $14			/* A(??)X(??)Y(00)<62B7>MAP[00:[00],01:[01],02:[02],03:[03],mmc:(un)]s(0)Z?S?*/
++	$E34A  60:          rts 			/* A(??)X(??)Y(00)<62B7>MAP[00:[00],01:[01],02:[02],03:[03],mmc:(un)]s(0)Z?S?*/(barrier)

	$E34B               .byte $20,$FC,$E2,$A2,$03,$B5,$10,$49,$FF,$20,$7D,$E2,$CA,$10,$F6,$4C
	$E35B               .byte $FF,$E2
+++	$E35D  20 26 E6:    jsr _func_6626			/* A(??)X(??)Y(??)MAP[00:(??),01:(??),02:(??),03:(??),mmc:(un)]s(0)Z?S?*/
	$E360  48:          pha 			/* A(??)X(00)<61DF>Y(22)<619E>MAP[00:[00],01:[01],02:[02],03:[03],mmc:(un)]s(1)Z?S?*/
	$E361  A9 38:        lda #<_data_6638			/* A(38)<6361>X(00)<61DF>Y(22)<619E>MAP[00:[00],01:[01],02:[02],03:[03],mmc:(un)]s(1)Z0S0*/
	$E363  85 0E:        sta $0E			/* A(38)<6361>X(00)<61DF>Y(22)<619E>MAP[00:[00],01:[01],02:[02],03:[03],mmc:(un)]s(1)Z0S0*/
	$E365  A9 E6:        lda #>_data_6638			/* A(E6)<6365>X(00)<61DF>Y(22)<619E>MAP[00:[00],01:[01],02:[02],03:[03],mmc:(un)]s(1)Z0S1*/
	$E367  85 0F:        sta $0F			/* A(E6)<6365>X(00)<61DF>Y(22)<619E>MAP[00:[00],01:[01],02:[02],03:[03],mmc:(un)]s(1)Z0S1*/
	$E369  68:          pla 			/* A(??)X(00)<61DF>Y(22)<619E>MAP[00:[00],01:[01],02:[02],03:[03],mmc:(un)]s(0)Z?S?*/
	$E36A  20 B4 E2:    jsr _func_62B4			/* A(??)X(??)Y(??)MAP[00:(??),01:(??),02:(??),03:(??),mmc:(un)]s(0)Z?S?*/
	$E36D  A9 00:       lda #$00			/* A(00)<636D>X(00)<61DF>Y(22)<619E>MAP[00:[00],01:[01],02:[02],03:[03],mmc:(un)]s(0)Z1S0*/
	$E36F  4C 69 E4:    jmp _loc_6469			/* A(00)<636D>X(00)<61DF>Y(22)<619E>MAP[00:[00],01:[01],02:[02],03:[03],mmc:(un)]s(0)Z1S0*/(barrier)

++++	$E372  A5 16:       lda $16			/* A(??)X(22)<6043>Y(00)<6460>MAP[00:[00],01:[01],02:[02],03:[03],mmc:(un)]s(0)Z?S?*/
	$E374  D0 04:       bne +		; $E37A			/* A(??)X(22)<606D>Y(00)<6460>MAP[00:[00],01:[01],02:[02],03:[03],mmc:(un)]s(0)Z?S?*/
	$E376  A9 01:       lda #$01			/* A(01)<6376>X(22)<606D>Y(00)<6460>MAP[00:[00],01:[01],02:[02],03:[03],mmc:(un)]s(0)Z0S0*/
	$E378  85 16:       sta $16			/* A(01)<6376>X(22)<606D>Y(00)<6460>MAP[00:[00],01:[01],02:[02],03:[03],mmc:(un)]s(0)Z0S0*/
+	$E37A  C9 02:       cmp #$02			/* A(01)<6376>X(22)<606D>Y(00)<6460>MAP[00:[00],01:[01],02:[02],03:[03],mmc:(un)]s(0)Z0S0*/
	$E37C  90 13:       bcc +		; $E391			/* A(??)X(22)<606D>Y(00)<6460>MAP[00:[00],01:[01],02:[02],03:[03],mmc:(un)]s(0)Z?S?*/
	$E37E  A5 18:       lda $18			/* A(??)X(22)<606D>Y(00)<6460>MAP[00:[00],01:[01],02:[02],03:[03],mmc:(un)]s(0)Z?S?*/
	$E380  F0 0F:       beq +		; $E391			/* A(??)X(22)<606D>Y(00)<6460>MAP[00:[00],01:[01],02:[02],03:[03],mmc:(un)]s(0)Z?S?*/
	$E382  20 AC E2:    jsr _func_62AC			/* A(??)X(??)Y(??)MAP[00:(??),01:(??),02:(??),03:(??),mmc:(un)]s(0)Z?S?*/
	$E385  85 0F:       sta $0F			/* A(??)X(22)<606D>Y(00)<6460>MAP[00:[00],01:[01],02:[02],03:[03],mmc:(un)]s(0)Z?S?*/
	$E387  A5 17:       lda $17			/* A(??)X(22)<606D>Y(00)<6460>MAP[00:[00],01:[01],02:[02],03:[03],mmc:(un)]s(0)Z?S?*/
	$E389  85 0E:       sta $0E			/* A(??)X(22)<606D>Y(00)<6460>MAP[00:[00],01:[01],02:[02],03:[03],mmc:(un)]s(0)Z?S?*/
	$E38B  20 B4 E2:    jsr _func_62B4			/* A(??)X(??)Y(??)MAP[00:(??),01:(??),02:(??),03:(??),mmc:(un)]s(0)Z?S?*/
	$E38E  20 AC E2:    jsr _func_62AC			/* A(??)X(??)Y(??)MAP[00:(??),01:(??),02:(??),03:(??),mmc:(un)]s(0)Z?S?*/
+	$E391  20 26 E6:    jsr _func_6626			/* A(??)X(22)<606D>Y(00)<6460>MAP[00:[00],01:[01],02:[02],03:[03],mmc:(un)]s(0)Z?S?*/
	$E394  A5 16:       lda $16			/* A(??)X(22)<606D>Y(00)<6460>MAP[00:[00],01:[01],02:[02],03:[03],mmc:(un)]s(0)Z?S?*/
	$E396  4C 69 E4:    jmp _loc_6469			/* A(??)X(22)<606D>Y(00)<6460>MAP[00:[00],01:[01],02:[02],03:[03],mmc:(un)]s(0)Z?S?*/(barrier)
;------------------------------------------
_func_6399
	$E399  85 16:       sta $16			/* A(??)X(22)<606D>Y(??)MAP[00:[00],01:[01],02:[02],03:[03],mmc:(un)]s(0)Z?S?*/
	$E39B  4C 09 E3:    jmp _func_6309			/* A(02)<6010>X(00)<645F>Y(00)<6460>MAP[00:[00],01:[01],02:[02],03:[03],mmc:(un)]s(1)Z?S?*/(barrier)

	$E39E               .byte $48,$98,$48,$A0,$03,$B1,$0E,$38,$79,$10,$00,$D0,$07,$88,$10,$F5
	$E3AE               .byte $68,$A8,$68,$60,$20,$AC,$E2,$20,$4B,$E3,$20,$AC,$E2,$4C,$72,$E3
_func_63BE
	$E3BE  48:          pha 			/* A(??)X(FF)<6469>Y(22)<619E>MAP[00:[00],01:[01],02:[02],03:[03],mmc:(un)]s(1)Z?S?*/
	$E3BF  18:           clc 			/* A(??)X(FF)<6469>Y(22)<619E>MAP[00:[00],01:[01],02:[02],03:[03],mmc:(un)]s(1)Z?S?*/
	$E3C0  20 D3 E3:     jsr _func_63D3			/* A(??)X(??)Y(??)MAP[00:(??),01:(??),02:(??),03:(??),mmc:(un)]s(1)Z?S?*/
	$E3C3  38:           sec 			/* A(??)X(FF)<6469>Y(22)<619E>MAP[00:[00],01:[01],02:[02],03:[03],mmc:(un)]s(0)Z?S?*/
-	$E3C4  2A:           rol a			/* A(??)X(FF)<6469>Y(22)<619E>MAP[00:[00],01:[01],02:[02],03:[03],mmc:(un)]s(0)Z?S?*/
	$E3C5  F0 0A:        beq +		; $E3D1			/* A(??)X(FF)<6469>Y(22)<619E>MAP[00:[00],01:[01],02:[02],03:[03],mmc:(un)]s(0)Z?S?*/
	$E3C7  90 FB:        bcc -		; $E3C4			/* A(??)X(FF)<6469>Y(22)<619E>MAP[00:[00],01:[01],02:[02],03:[03],mmc:(un)]s(0)Z?S?*/
-	$E3C9  08:           php 			/* A(??)X(FF)<6469>Y(22)<619E>MAP[00:[00],01:[01],02:[02],03:[03],mmc:(un)]s(0)Z?S?*/
	$E3CA  20 D3 E3:      jsr _func_63D3			/* A(??)X(??)Y(??)MAP[00:(??),01:(??),02:(??),03:(??),mmc:(un)]s(1)Z?S?*/
	$E3CD  28:           plp 			/* A(??)X(FF)<6469>Y(22)<619E>MAP[00:[00],01:[01],02:[02],03:[03],mmc:(un)]s(0)Z?S?*/
	$E3CE  0A:           asl a			/* A(??)X(FF)<6469>Y(22)<619E>MAP[00:[00],01:[01],02:[02],03:[03],mmc:(un)]s(0)Z?S?*/
	$E3CF  D0 F8:        bne -		; $E3C9			/* A(??)X(FF)<6469>Y(22)<619E>MAP[00:[00],01:[01],02:[02],03:[03],mmc:(un)]s(0)Z?S?*/
+	$E3D1  68:          pla 			/* A(??)X(FF)<6469>Y(22)<619E>MAP[00:[00],01:[01],02:[02],03:[03],mmc:(un)]s(0)Z?S?*/
	$E3D2  60:          rts 			/* A(??)X(FF)<6469>Y(22)<619E>MAP[00:[00],01:[01],02:[02],03:[03],mmc:(un)]s(0)Z?S?*/(barrier)
;------------------------------------------
_func_63D3
	$E3D3  48:          pha 			/* A(??)X(FF)<6469>Y(22)<619E>MAP[00:[00],01:[01],02:[02],03:[03],mmc:(un)]s(1)Z?S?*/
	$E3D4  A9 00:        lda #$00			/* A(00)<63D4>X(FF)<6469>Y(22)<619E>MAP[00:[00],01:[01],02:[02],03:[03],mmc:(un)]s(2)Z1S0*/
	$E3D6  69 FF:        adc #$FF			/* A(??)X(FF)<6469>Y(22)<619E>MAP[00:[00],01:[01],02:[02],03:[03],mmc:(un)]s(2)Z?S?*/
	$E3D8  8D 02 40:     sta $4002			/* A(??)X(FF)<6469>Y(22)<619E>MAP[00:[00],01:[01],02:[02],03:[03],mmc:(un)]s(2)Z?S?*/
	$E3DB  A9 01:        lda #$01			/* A(01)<63DB>X(FF)<6469>Y(22)<619E>MAP[00:[00],01:[01],02:[02],03:[03],mmc:(un)]s(2)Z0S0*/
	$E3DD  8D 15 40:     sta $4015			/* A(01)<63DB>X(FF)<6469>Y(22)<619E>MAP[00:[00],01:[01],02:[02],03:[03],mmc:(un)]s(2)Z0S0*/
	$E3E0  8D 03 40:     sta $4003			/* A(01)<63DB>X(FF)<6469>Y(22)<619E>MAP[00:[00],01:[01],02:[02],03:[03],mmc:(un)]s(2)Z0S0*/
	$E3E3  8D 01 40:     sta $4001			/* A(01)<63DB>X(FF)<6469>Y(22)<619E>MAP[00:[00],01:[01],02:[02],03:[03],mmc:(un)]s(2)Z0S0*/
	$E3E6  A9 0F:        lda #$0F			/* A(0F)<63E6>X(FF)<6469>Y(22)<619E>MAP[00:[00],01:[01],02:[02],03:[03],mmc:(un)]s(2)Z0S0*/
-	$E3E8  48:           pha 			/* A(??)X(FF)<6469>Y(22)<619E>MAP[00:[00],01:[01],02:[02],03:[03],mmc:(un)]s(0)Z?S?*/
	$E3E9  49 30:         eor #$30			/* A(??)X(FF)<6469>Y(22)<619E>MAP[00:[00],01:[01],02:[02],03:[03],mmc:(un)]s(3)Z?S?*/
	$E3EB  8D 00 40:      sta $4000			/* A(??)X(FF)<6469>Y(22)<619E>MAP[00:[00],01:[01],02:[02],03:[03],mmc:(un)]s(3)Z?S?*/
	$E3EE  A9 D3:         lda #$D3			/* A(D3)<63EE>X(FF)<6469>Y(22)<619E>MAP[00:[00],01:[01],02:[02],03:[03],mmc:(un)]s(3)Z0S1*/
	$E3F0  20 02 E2:      jsr _func_6202			/* A(??)X(??)Y(??)MAP[00:(??),01:(??),02:(??),03:(??),mmc:(un)]s(3)Z?S?*/
	$E3F3  A9 37:         lda #$37			/* A(37)<63F3>X(FF)<6469>Y(22)<619E>MAP[00:[00],01:[01],02:[02],03:[03],mmc:(un)]s(0)Z0S0*/
	$E3F5  20 18 E2:      jsr _func_6218			/* A(??)X(??)Y(??)MAP[00:(??),01:(??),02:(??),03:(??),mmc:(un)]s(0)Z?S?*/
	$E3F8  68:           pla 			/* A(??)X(FF)<6469>Y(22)<619E>MAP[00:[00],01:[01],02:[02],03:[03],mmc:(un)]s(0)Z?S?*/
	$E3F9  18:           clc 			/* A(??)X(FF)<6469>Y(22)<619E>MAP[00:[00],01:[01],02:[02],03:[03],mmc:(un)]s(0)Z?S?*/
	$E3FA  69 FF:        adc #$FF			/* A(??)X(FF)<6469>Y(22)<619E>MAP[00:[00],01:[01],02:[02],03:[03],mmc:(un)]s(0)Z?S?*/
	$E3FC  D0 EA:        bne -		; $E3E8			/* A(??)X(FF)<6469>Y(22)<619E>MAP[00:[00],01:[01],02:[02],03:[03],mmc:(un)]s(0)Z?S?*/
	$E3FE  8D 15 40:     sta $4015			/* A(??)X(FF)<6469>Y(22)<619E>MAP[00:[00],01:[01],02:[02],03:[03],mmc:(un)]s(0)Z?S?*/
	$E401  A9 DA:        lda #$DA			/* A(DA)<6401>X(FF)<6469>Y(22)<619E>MAP[00:[00],01:[01],02:[02],03:[03],mmc:(un)]s(0)Z0S1*/
	$E403  20 02 E2:     jsr _func_6202			/* A(??)X(??)Y(??)MAP[00:(??),01:(??),02:(??),03:(??),mmc:(un)]s(0)Z?S?*/
	$E406  A9 46:        lda #$46			/* A(46)<6406>X(FF)<6469>Y(22)<619E>MAP[00:[00],01:[01],02:[02],03:[03],mmc:(un)]s(0)Z0S0*/
	$E408  20 18 E2:     jsr _func_6218			/* A(??)X(??)Y(??)MAP[00:(??),01:(??),02:(??),03:(??),mmc:(un)]s(0)Z?S?*/
	$E40B  A9 03:        lda #$03			/* A(03)<640B>X(FF)<6469>Y(22)<619E>MAP[00:[00],01:[01],02:[02],03:[03],mmc:(un)]s(0)Z0S0*/
	$E40D  20 2F E2:     jsr _func_622F			/* A(??)X(??)Y(??)MAP[00:(??),01:(??),02:(??),03:(??),mmc:(un)]s(0)Z?S?*/
	$E410  68:          pla 			/* A(??)X(FF)<6469>Y(22)<619E>MAP[00:[00],01:[01],02:[02],03:[03],mmc:(un)]s(0)Z?S?*/
	$E411  60:          rts 			/* A(??)X(FF)<6469>Y(22)<619E>MAP[00:[00],01:[01],02:[02],03:[03],mmc:(un)]s(0)Z?S?*/(barrier)
;------------------------------------------
_func_6412
	$E412  38:          sec 			/* A(??)X(??)Y(??)MAP[00:[00],01:[01],02:[02],03:[03],mmc:(un)]s(0)Z?S?*/
	$E413  A9 FF:       lda #$FF			/* A(FF)<6413>X(??)Y(??)MAP[00:[00],01:[01],02:[02],03:[03],mmc:(un)]s(0)Z0S1*/
	$E415  D0 01:       bne +		; $E418			/* A(FF)<6413>X(??)Y(??)MAP[00:[00],01:[01],02:[02],03:[03],mmc:(un)]s(0)Z0S1*/(barrier)

----	$E417  18:          clc 			/* A(0A)<62AD>X(22)<606D>Y(00)<6460>MAP[00:[00],01:[01],02:[02],03:[03],mmc:(un)]s(0)Z?S?*/
+	$E418  20 37 E4:    jsr _func_6437			/* A(0A)<62AD>X(22)<606D>Y(00)<6460>MAP[00:[00],01:[01],02:[02],03:[03],mmc:(un)]s(0)Z?S?*/
                            ; Delay loop begin: 2 cycles (2.0 cycles per byte); ends at $641C
	$E41B  EA:          nop 			/* A(FF)<6413>X(??)Y(??)MAP[00:[00],01:[01],02:[02],03:[03],mmc:(un)]s(0)Z?S?*/
                            ; End of delay loop (1 bytes)
	$E41C  20 35 E4:    jsr _func_6435			/* A(??)X(??)Y(??)MAP[00:(??),01:(??),02:(??),03:(??),mmc:(un)]s(0)Z?S?*/
	$E41F  20 37 E4:    jsr _func_6437			/* A(??)X(??)Y(??)MAP[00:(??),01:(??),02:(??),03:(??),mmc:(un)]s(0)Z?S?*/
	$E422  20 37 E4:    jsr _func_6437			/* A(??)X(??)Y(??)MAP[00:(??),01:(??),02:(??),03:(??),mmc:(un)]s(0)Z?S?*/
	$E425  20 37 E4:    jsr _func_6437			/* A(??)X(??)Y(??)MAP[00:(??),01:(??),02:(??),03:(??),mmc:(un)]s(0)Z?S?*/
	$E428  20 37 E4:    jsr _func_6437			/* A(??)X(??)Y(??)MAP[00:(??),01:(??),02:(??),03:(??),mmc:(un)]s(0)Z?S?*/
	$E42B  20 37 E4:    jsr _func_6437			/* A(??)X(??)Y(??)MAP[00:(??),01:(??),02:(??),03:(??),mmc:(un)]s(0)Z?S?*/
	$E42E  20 37 E4:    jsr _func_6437			/* A(??)X(??)Y(??)MAP[00:(??),01:(??),02:(??),03:(??),mmc:(un)]s(0)Z?S?*/
	$E431  20 37 E4:    jsr _func_6437			/* A(??)X(??)Y(??)MAP[00:(??),01:(??),02:(??),03:(??),mmc:(un)]s(0)Z?S?*/
	$E434  38:          sec 			/* A(FF)<6413>X(??)Y(??)MAP[00:[00],01:[01],02:[02],03:[03],mmc:(un)]s(0)Z?S?*/
_func_6435
                            ; Delay loop begin: 4 cycles (2.0 cycles per byte); ends at $6437
	$E435  EA:          nop 			/* A(FF)<6413>X(??)Y(??)MAP[00:[00],01:[01],02:[02],03:[03],mmc:(un)]s(0)Z?S?*/
	$E436  EA:          nop 			/* A(FF)<6413>X(??)Y(??)MAP[00:[00],01:[01],02:[02],03:[03],mmc:(un)]s(0)Z?S?*/
_func_6437
                            ; End of delay loop (2 bytes)
	$E437  48:          pha 			/* A(FF)<6413>X(??)Y(??)MAP[00:[00],01:[01],02:[02],03:[03],mmc:(un)]s(0)Z?S?*/
	$E438  2A:           rol a			/* A(??)X(??)Y(??)MAP[00:[00],01:[01],02:[02],03:[03],mmc:(un)]s(1)Z?S?*/
	$E439  29 01:        and #$01			/* A(??)X(??)Y(??)MAP[00:[00],01:[01],02:[02],03:[03],mmc:(un)]s(1)Z?S?*/
	$E43B  8D 16 40:     sta $4016			/* A(??)X(??)Y(??)MAP[00:[00],01:[01],02:[02],03:[03],mmc:(un)]s(1)Z?S?*/
	$E43E  68:          pla 			/* A(FF)X(??)Y(??)MAP[00:[00],01:[01],02:[02],03:[03],mmc:(un)]s(0)Z0S1*/
	$E43F  6A:          ror a			/* A(??)X(??)Y(??)MAP[00:[00],01:[01],02:[02],03:[03],mmc:(un)]s(0)Z?S?*/
                            ; Delay loop begin: 2 cycles (2.0 cycles per byte); ends at $6441
	$E440  EA:          nop 			/* A(??)X(??)Y(??)MAP[00:[00],01:[01],02:[02],03:[03],mmc:(un)]s(0)Z?S?*/
                            ; End of delay loop (1 bytes)
	$E441  60:          rts 			/* A(??)X(??)Y(??)MAP[00:[00],01:[01],02:[02],03:[03],mmc:(un)]s(0)Z?S?*/(barrier)

---	$E442  20 09 E3:    jsr _func_6309			/* A(??)X(??)Y(??)MAP[00:(??),01:(??),02:(??),03:(??),mmc:(un)]s(0)Z?S?*/
	$E445  20 00 E6:    jsr _func_6600			/* A(??)X(??)Y(??)MAP[00:(??),01:(??),02:(??),03:(??),mmc:(un)]s(0)Z?S?*/
	$E448  A9 0A:       lda #$0A			/* A(0A)<6448>X(??)Y(??)MAP[00:[00],01:[01],02:[02],03:[03],mmc:(un)]s(0)Z0S0*/
	$E44A  8D 01 20:    sta $2001			/* A(0A)<6448>X(??)Y(??)MAP[00:[00],01:[01],02:[02],03:[03],mmc:(un)]s(0)Z0S0*/
	$E44D  A9 3F:       lda #$3F			/* A(3F)<644D>X(??)Y(??)MAP[00:[00],01:[01],02:[02],03:[03],mmc:(un)]s(0)Z0S0*/
	$E44F  20 02 E2:    jsr _func_6202			/* A(??)X(??)Y(??)MAP[00:(??),01:(??),02:(??),03:(??),mmc:(un)]s(0)Z?S?*/
	$E452  A9 09:       lda #$09			/* A(09)<6452>X(??)Y(??)MAP[00:[00],01:[01],02:[02],03:[03],mmc:(un)]s(0)Z0S0*/
	$E454  20 18 E2:    jsr _func_6218			/* A(??)X(??)Y(??)MAP[00:(??),01:(??),02:(??),03:(??),mmc:(un)]s(0)Z?S?*/
	$E457  A9 34:       lda #$34			/* A(34)<6457>X(??)Y(??)MAP[00:[00],01:[01],02:[02],03:[03],mmc:(un)]s(0)Z0S0*/
	$E459  48:          pha 			/* A(34)<6457>X(??)Y(??)MAP[00:[00],01:[01],02:[02],03:[03],mmc:(un)]s(1)Z0S0*/
	$E45A  A9 00:        lda #$00			/* A(00)<645A>X(??)Y(??)MAP[00:[00],01:[01],02:[02],03:[03],mmc:(un)]s(1)Z1S0*/
	$E45C  8D 17 40:     sta $4017			/* A(00)<645A>X(??)Y(??)MAP[00:[00],01:[01],02:[02],03:[03],mmc:(un)]s(1)Z1S0*/
	$E45F  AA:           tax 			/* A(00)<645A>X(00)<645F>Y(??)MAP[00:[00],01:[01],02:[02],03:[03],mmc:(un)]s(1)Z1S0*/
	$E460  A8:           tay 			/* A(00)<645A>X(00)<645F>Y(00)<6460>MAP[00:[00],01:[01],02:[02],03:[03],mmc:(un)]s(1)Z1S0*/
	$E461  18:           clc 			/* A(00)<645A>X(00)<645F>Y(00)<6460>MAP[00:[00],01:[01],02:[02],03:[03],mmc:(un)]s(1)Z1S0*/
	$E462  B8:           clv 			/* A(00)<645A>X(00)<645F>Y(00)<6460>MAP[00:[00],01:[01],02:[02],03:[03],mmc:(un)]s(1)Z1S0*/
	$E463  28:          plp 			/* A(00)<645A>X(00)<645F>Y(00)<6460>MAP[00:[00],01:[01],02:[02],03:[03],mmc:(un)]s(0)Z?S?*/
	$E464  20 0F E0:    jsr _func_600F			/* A(??)X(??)Y(??)MAP[00:(??),01:(??),02:(??),03:(??),mmc:(un)]s(0)Z?S?*/
	$E467  A9 00:       lda #$00			/* A(00)<6467>X(00)<645F>Y(00)<6460>MAP[00:[00],01:[01],02:[02],03:[03],mmc:(un)]s(0)Z1S0*/
_loc_6469
	$E469  A2 FF:       ldx #$FF			/* A(00)<6467>X(??)Y(00)<6460>MAP[00:[00],01:[01],02:[02],03:[03],mmc:(un)]s(0)Z1S0*/
	$E46B  9A:          txs 			/* A(00)<636D>X(FF)<6469>Y(22)<619E>MAP[00:[00],01:[01],02:[02],03:[03],mmc:(un)]s(0)Z?S?*/
	$E46C  78:          sei 			/* A(00)<636D>X(FF)<6469>Y(22)<619E>MAP[00:[00],01:[01],02:[02],03:[03],mmc:(un)]s(0)Z?S?*/
	$E46D  48:          pha 			/* A(00)<636D>X(FF)<6469>Y(22)<619E>MAP[00:[00],01:[01],02:[02],03:[03],mmc:(un)]s(1)Z?S?*/
	$E46E  20 09 E6:     jsr _func_6609			/* A(??)X(??)Y(??)MAP[00:(??),01:(??),02:(??),03:(??),mmc:(un)]s(1)Z?S?*/
	$E471  68:          pla 			/* A(??)X(FF)<6469>Y(22)<619E>MAP[00:[00],01:[01],02:[02],03:[03],mmc:(un)]s(0)Z?S?*/
	$E472  4C B1 E5:    jmp +++		; $E5B1			/* A(??)X(FF)<6469>Y(22)<619E>MAP[00:[00],01:[01],02:[02],03:[03],mmc:(un)]s(0)Z?S?*/(barrier)

	$E475               .byte $48,$A9,$3F,$85,$0E,$A9,$E6,$85,$0F,$68,$20,$B4,$E2,$A9,$01,$4C
	$E485               .byte $69,$E4
_func_6487
	$E487  2C 02 20:    bit $2002			/* A(??)X(22)<606D>Y(00)<6460>MAP[00:[00],01:[01],02:[02],03:[03],mmc:(un)]s(0)Z?S?*/
-	$E48A  2C 02 20:    bit $2002			/* A(??)X(??)Y(??)MAP[00:[00],01:[01],02:[02],03:[03],mmc:(un)]s(0)Z?S?*/
	$E48D  10 FB:       bpl -		; $E48A			/* A(??)X(??)Y(??)MAP[00:[00],01:[01],02:[02],03:[03],mmc:(un)]s(0)Z?S?*/
	$E48F  60:          rts 			/* A(??)X(??)Y(??)MAP[00:[00],01:[01],02:[02],03:[03],mmc:(un)]s(0)Z?S?*/(barrier)
;------------------------------------------
_func_6490
	$E490  20 ED E4:    jsr _func_64ED			/* A(??)X(??)Y(??)MAP[00:(??),01:(??),02:(??),03:(??),mmc:(un)]s(0)Z?S?*/
	$E493  A9 00:       lda #$00			/* A(00)<6493>X(??)Y(??)MAP[00:[00],01:[01],02:[02],03:[03],mmc:(un)]s(0)Z1S0*/
	$E495  8D 00 20:    sta $2000			/* A(00)<6493>X(??)Y(??)MAP[00:[00],01:[01],02:[02],03:[03],mmc:(un)]s(0)Z1S0*/
	$E498  A9 3F:       lda #$3F			/* A(3F)<6498>X(??)Y(??)MAP[00:[00],01:[01],02:[02],03:[03],mmc:(un)]s(0)Z0S0*/
	$E49A  8D 06 20:    sta $2006			/* A(3F)<6498>X(??)Y(??)MAP[00:[00],01:[01],02:[02],03:[03],mmc:(un)]s(0)Z0S0*/
	$E49D  A9 00:       lda #$00			/* A(00)<649D>X(??)Y(??)MAP[00:[00],01:[01],02:[02],03:[03],mmc:(un)]s(0)Z1S0*/
	$E49F  8D 06 20:    sta $2006			/* A(00)<649D>X(??)Y(??)MAP[00:[00],01:[01],02:[02],03:[03],mmc:(un)]s(0)Z1S0*/
	$E4A2  A9 0F:       lda #$0F			/* A(0F)<64A2>X(??)Y(??)MAP[00:[00],01:[01],02:[02],03:[03],mmc:(un)]s(0)Z0S0*/
	$E4A4  8D 07 20:    sta $2007			/* A(0F)<64A2>X(??)Y(??)MAP[00:[00],01:[01],02:[02],03:[03],mmc:(un)]s(0)Z0S0*/
	$E4A7  A9 30:       lda #$30			/* A(30)<64A7>X(??)Y(??)MAP[00:[00],01:[01],02:[02],03:[03],mmc:(un)]s(0)Z0S0*/
	$E4A9  8D 07 20:    sta $2007			/* A(30)<64A7>X(??)Y(??)MAP[00:[00],01:[01],02:[02],03:[03],mmc:(un)]s(0)Z0S0*/
	$E4AC  8D 07 20:    sta $2007			/* A(30)<64A7>X(??)Y(??)MAP[00:[00],01:[01],02:[02],03:[03],mmc:(un)]s(0)Z0S0*/
	$E4AF  8D 07 20:    sta $2007			/* A(30)<64A7>X(??)Y(??)MAP[00:[00],01:[01],02:[02],03:[03],mmc:(un)]s(0)Z0S0*/
	$E4B2  A9 20:       lda #$20			/* A(20)<64B2>X(??)Y(??)MAP[00:[00],01:[01],02:[02],03:[03],mmc:(un)]s(0)Z0S0*/
	$E4B4  8D 06 20:    sta $2006			/* A(20)<64B2>X(??)Y(??)MAP[00:[00],01:[01],02:[02],03:[03],mmc:(un)]s(0)Z0S0*/
	$E4B7  A2 00:       ldx #$00			/* A(20)<64B2>X(00)<64B7>Y(??)MAP[00:[00],01:[01],02:[02],03:[03],mmc:(un)]s(0)Z1S0*/
	$E4B9  8E 06 20:    stx $2006			/* A(20)<64B2>X(00)<64B7>Y(??)MAP[00:[00],01:[01],02:[02],03:[03],mmc:(un)]s(0)Z1S0*/
	$E4BC  A2 F0:       ldx #$F0			/* A(20)<64B2>X(F0)<64BC>Y(??)MAP[00:[00],01:[01],02:[02],03:[03],mmc:(un)]s(0)Z0S1*/
-	$E4BE  8D 07 20:    sta $2007			/* A(20)<64B2>X(F0)<64BC>Y(??)MAP[00:[00],01:[01],02:[02],03:[03],mmc:(un)]s(0)Z?S?*/
	$E4C1  8D 07 20:    sta $2007			/* A(20)<64B2>X(F0)<64BC>Y(??)MAP[00:[00],01:[01],02:[02],03:[03],mmc:(un)]s(0)Z0S1*/
	$E4C4  8D 07 20:    sta $2007			/* A(20)<64B2>X(F0)<64BC>Y(??)MAP[00:[00],01:[01],02:[02],03:[03],mmc:(un)]s(0)Z0S1*/
	$E4C7  8D 07 20:    sta $2007			/* A(20)<64B2>X(F0)<64BC>Y(??)MAP[00:[00],01:[01],02:[02],03:[03],mmc:(un)]s(0)Z0S1*/
	$E4CA  CA:          dex 			/* A(20)<64B2>X(??)Y(??)MAP[00:[00],01:[01],02:[02],03:[03],mmc:(un)]s(0)Z?S?*/
	$E4CB  D0 F1:       bne -		; $E4BE			/* A(20)<64B2>X(??)Y(??)MAP[00:[00],01:[01],02:[02],03:[03],mmc:(un)]s(0)Z?S?*/
	$E4CD  A9 00:       lda #$00			/* A(00)<64CD>X(??)Y(??)MAP[00:[00],01:[01],02:[02],03:[03],mmc:(un)]s(0)Z1S0*/
	$E4CF  A2 40:       ldx #$40			/* A(00)<64CD>X(40)<64CF>Y(??)MAP[00:[00],01:[01],02:[02],03:[03],mmc:(un)]s(0)Z0S0*/
-	$E4D1  8D 07 20:    sta $2007			/* A(00)<64CD>X(40)<64CF>Y(??)MAP[00:[00],01:[01],02:[02],03:[03],mmc:(un)]s(0)Z?S?*/
	$E4D4  CA:          dex 			/* A(00)<64CD>X(??)Y(??)MAP[00:[00],01:[01],02:[02],03:[03],mmc:(un)]s(0)Z?S?*/
	$E4D5  D0 FA:       bne -		; $E4D1			/* A(00)<64CD>X(??)Y(??)MAP[00:[00],01:[01],02:[02],03:[03],mmc:(un)]s(0)Z?S?*/
	$E4D7  A9 08:       lda #$08			/* A(08)<64D7>X(??)Y(??)MAP[00:[00],01:[01],02:[02],03:[03],mmc:(un)]s(0)Z0S0*/
	$E4D9  85 1A:       sta $1A			/* A(08)<64D7>X(??)Y(??)MAP[00:[00],01:[01],02:[02],03:[03],mmc:(un)]s(0)Z0S0*/
	$E4DB  20 23 E5:    jsr _func_6523			/* A(??)X(??)Y(??)MAP[00:(??),01:(??),02:(??),03:(??),mmc:(un)]s(0)Z?S?*/
	$E4DE  4C E1 E4:    jmp _func_64E1			/* A(08)<64D7>X(??)Y(??)MAP[00:[00],01:[01],02:[02],03:[03],mmc:(un)]s(0)Z?S?*/(barrier)
;------------------------------------------
_func_64E1
	$E4E1  48:          pha 			/* A(??)X(FF)<6469>Y(22)<619E>MAP[00:[00],01:[01],02:[02],03:[03],mmc:(un)]s(0)Z?S?*/
	$E4E2  20 87 E4:     jsr _func_6487			/* A(??)X(??)Y(??)MAP[00:(??),01:(??),02:(??),03:(??),mmc:(un)]s(1)Z?S?*/
	$E4E5  A9 0A:        lda #$0A			/* A(0A)<64E5>X(??)Y(??)MAP[00:[00],01:[01],02:[02],03:[03],mmc:(un)]s(0)Z0S0*/
	$E4E7  8D 01 20:     sta $2001			/* A(0A)<64E5>X(??)Y(??)MAP[00:[00],01:[01],02:[02],03:[03],mmc:(un)]s(0)Z0S0*/
	$E4EA  4C 42 E5:     jmp ++		; $E542			/* A(0A)<64E5>X(??)Y(??)MAP[00:[00],01:[01],02:[02],03:[03],mmc:(un)]s(0)Z0S0*/(barrier)
;------------------------------------------
_func_64ED
	$E4ED  20 87 E4:    jsr _func_6487			/* A(0A)<64E5>X(??)Y(??)MAP[00:[00],01:[01],02:[02],03:[03],mmc:(un)]s(0)Z0S0*/
	$E4F0  A9 00:       lda #$00			/* A(00)<64F0>X(??)Y(??)MAP[00:[00],01:[01],02:[02],03:[03],mmc:(un)]s(0)Z1S0*/
	$E4F2  8D 01 20:    sta $2001			/* A(00)<64F0>X(??)Y(??)MAP[00:[00],01:[01],02:[02],03:[03],mmc:(un)]s(0)Z1S0*/
	$E4F5  60:          rts 			/* A(00)<64F0>X(??)Y(??)MAP[00:[00],01:[01],02:[02],03:[03],mmc:(un)]s(0)Z1S0*/(barrier)
;------------------------------------------
_func_64F6
	$E4F6  C9 0A:       cmp #$0A			/* A(0A)<62AD>X(22)<606D>Y(00)<6460>MAP[00:[00],01:[01],02:[02],03:[03],mmc:(un)]s(1)Z?S?*/
	$E4F8  F0 0E:       beq +		; $E508			/* A(0A)<62AD>X(22)<606D>Y(00)<6460>MAP[00:[00],01:[01],02:[02],03:[03],mmc:(un)]s(1)Z?S?*/
	$E4FA  86 1B:       stx $1B			/* A(0A)<62AD>X(22)<606D>Y(00)<6460>MAP[00:[00],01:[01],02:[02],03:[03],mmc:(un)]s(1)Z?S?*/
	$E4FC  A6 19:       ldx $19			/* A(0A)<62AD>X(??)Y(00)<6460>MAP[00:[00],01:[01],02:[02],03:[03],mmc:(un)]s(1)Z?S?*/
	$E4FE  9D 01 02:    sta $0201,x			/* A(0A)<62AD>X(??)Y(00)<6460>MAP[00:[00],01:[01],02:[02],03:[03],mmc:(un)]s(1)Z?S?*/
	$E501  A6 1B:       ldx $1B			/* A(0A)<62AD>X(??)Y(00)<6460>MAP[00:[00],01:[01],02:[02],03:[03],mmc:(un)]s(1)Z?S?*/
	$E503  C6 19:       dec $19			/* A(??)X(??)Y(00)<6460>MAP[00:[00],01:[01],02:[02],03:[03],mmc:(un)]s(1)Z?S?*/
	$E505  30 01:       bmi +		; $E508			/* A(??)X(??)Y(00)<6460>MAP[00:[00],01:[01],02:[02],03:[03],mmc:(un)]s(1)Z?S?*/
	$E507  60:          rts 			/* A(??)X(??)Y(00)<6460>MAP[00:[00],01:[01],02:[02],03:[03],mmc:(un)]s(1)Z?S?*/(barrier)

+	$E508  48:          pha 			/* A(0A)<62AD>X(22)<606D>Y(00)<6460>MAP[00:[00],01:[01],02:[02],03:[03],mmc:(un)]s(0)Z?S?*/
	$E509  20 87 E4:     jsr _func_6487			/* A(??)X(??)Y(??)MAP[00:(??),01:(??),02:(??),03:(??),mmc:(un)]s(1)Z?S?*/
	$E50C  20 55 E5:     jsr _func_6555			/* A(??)X(??)Y(??)MAP[00:(??),01:(??),02:(??),03:(??),mmc:(un)]s(0)Z?S?*/
	$E50F  20 23 E5:     jsr _func_6523			/* A(??)X(??)Y(??)MAP[00:(??),01:(??),02:(??),03:(??),mmc:(un)]s(0)Z?S?*/
	$E512  20 55 E5:     jsr _func_6555			/* A(??)X(??)Y(??)MAP[00:(??),01:(??),02:(??),03:(??),mmc:(un)]s(0)Z?S?*/
	$E515  4C 42 E5:     jmp ++		; $E542			/* A(0A)<62AD>X(22)<606D>Y(00)<6460>MAP[00:[00],01:[01],02:[02],03:[03],mmc:(un)]s(0)Z?S?*/(barrier)
;------------------------------------------
_func_6518
	$E518  A5 1A:       lda $1A			/* A(??)X(22)<606D>Y(00)<6460>MAP[00:[00],01:[01],02:[02],03:[03],mmc:(un)]s(0)Z?S?*/
	$E51A  C9 E8:       cmp #$E8			/* A(??)X(??)Y(??)MAP[00:[00],01:[01],02:[02],03:[03],mmc:(un)]s(0)Z?S?*/
	$E51C  90 02:       bcc +		; $E520			/* A(??)X(??)Y(??)MAP[00:[00],01:[01],02:[02],03:[03],mmc:(un)]s(0)Z?S?*/
	$E51E  69 0F:       adc #$0F			/* A(??)X(??)Y(??)MAP[00:[00],01:[01],02:[02],03:[03],mmc:(un)]s(0)Z?S?*/
+	$E520  69 08:       adc #$08			/* A(??)X(??)Y(??)MAP[00:[00],01:[01],02:[02],03:[03],mmc:(un)]s(0)Z?S?*/
	$E522  60:          rts 			/* A(??)X(??)Y(??)MAP[00:[00],01:[01],02:[02],03:[03],mmc:(un)]s(0)Z?S?*/(barrier)
;------------------------------------------
_func_6523
	$E523  20 18 E5:    jsr _func_6518			/* A(0A)<62AD>X(22)<606D>Y(00)<6460>MAP[00:[00],01:[01],02:[02],03:[03],mmc:(un)]s(0)Z?S?*/
	$E526  85 1A:       sta $1A			/* A(08)<64D7>X(??)Y(??)MAP[00:[00],01:[01],02:[02],03:[03],mmc:(un)]s(0)Z?S?*/
	$E528  86 1B:       stx $1B			/* A(08)<64D7>X(??)Y(??)MAP[00:[00],01:[01],02:[02],03:[03],mmc:(un)]s(0)Z?S?*/
	$E52A  A9 20:       lda #$20			/* A(20)<652A>X(??)Y(??)MAP[00:[00],01:[01],02:[02],03:[03],mmc:(un)]s(0)Z0S0*/
	$E52C  A2 1F:       ldx #$1F			/* A(20)<652A>X(1F)<652C>Y(??)MAP[00:[00],01:[01],02:[02],03:[03],mmc:(un)]s(0)Z0S0*/
-	$E52E  9D 00 02:    sta $0200,x			/* A(20)<652A>X(1F)<652C>Y(??)MAP[00:[00],01:[01],02:[02],03:[03],mmc:(un)]s(0)Z?S?*/
	$E531  CA:          dex 			/* A(20)<652A>X(??)Y(??)MAP[00:[00],01:[01],02:[02],03:[03],mmc:(un)]s(0)Z?S?*/
	$E532  10 FA:       bpl -		; $E52E			/* A(20)<652A>X(??)Y(??)MAP[00:[00],01:[01],02:[02],03:[03],mmc:(un)]s(0)Z?S?*/
	$E534  A2 1D:       ldx #$1D			/* A(20)<652A>X(1D)<6534>Y(??)MAP[00:[00],01:[01],02:[02],03:[03],mmc:(un)]s(0)Z0S0*/
	$E536  86 19:       stx $19			/* A(20)<652A>X(1D)<6534>Y(??)MAP[00:[00],01:[01],02:[02],03:[03],mmc:(un)]s(0)Z0S0*/
	$E538  A6 1B:       ldx $1B			/* A(20)<652A>X(??)Y(??)MAP[00:[00],01:[01],02:[02],03:[03],mmc:(un)]s(0)Z?S?*/
	$E53A  60:          rts 			/* A(20)<652A>X(??)Y(??)MAP[00:[00],01:[01],02:[02],03:[03],mmc:(un)]s(0)Z?S?*/(barrier)

	$E53B               .byte $48,$20,$87,$E4,$20,$55,$E5
++	$E542  A9 00:       lda #$00			/* A(0A)<62AD>X(22)<606D>Y(00)<6460>MAP[00:[00],01:[01],02:[02],03:[03],mmc:(un)]s(0)Z?S?*/
	$E544  8D 06 20:    sta $2006			/* A(00)<6542>X(??)Y(??)MAP[00:[00],01:[01],02:[02],03:[03],mmc:(un)]s(0)Z1S0*/
	$E547  8D 06 20:    sta $2006			/* A(00)<6542>X(??)Y(??)MAP[00:[00],01:[01],02:[02],03:[03],mmc:(un)]s(0)Z1S0*/
	$E54A  8D 05 20:    sta $2005			/* A(00)<6542>X(??)Y(??)MAP[00:[00],01:[01],02:[02],03:[03],mmc:(un)]s(0)Z1S0*/
	$E54D  20 18 E5:    jsr _func_6518			/* A(??)X(??)Y(??)MAP[00:(??),01:(??),02:(??),03:(??),mmc:(un)]s(0)Z?S?*/
	$E550  8D 05 20:    sta $2005			/* A(00)<6542>X(??)Y(??)MAP[00:[00],01:[01],02:[02],03:[03],mmc:(un)]s(0)Z?S?*/
	$E553  68:          pla 			/* A(??)X(??)Y(??)MAP[00:[00],01:[01],02:[02],03:[03],mmc:(un)]s(0)Z?S?*/
	$E554  60:          rts 			/* A(??)X(??)Y(??)MAP[00:[00],01:[01],02:[02],03:[03],mmc:(un)]s(0)Z?S?*/(barrier)
;------------------------------------------
_func_6555
	$E555  A5 1A:       lda $1A			/* A(0A)<62AD>X(22)<606D>Y(00)<6460>MAP[00:[00],01:[01],02:[02],03:[03],mmc:(un)]s(0)Z?S?*/
	$E557  85 1B:       sta $1B			/* A(??)X(22)<606D>Y(00)<6460>MAP[00:[00],01:[01],02:[02],03:[03],mmc:(un)]s(0)Z?S?*/
	$E559  A9 08:       lda #$08			/* A(08)<6559>X(22)<606D>Y(00)<6460>MAP[00:[00],01:[01],02:[02],03:[03],mmc:(un)]s(0)Z0S0*/
	$E55B  06 1B:       asl $1B			/* A(??)X(22)<606D>Y(00)<6460>MAP[00:[00],01:[01],02:[02],03:[03],mmc:(un)]s(0)Z?S?*/
	$E55D  2A:          rol a			/* A(??)X(22)<606D>Y(00)<6460>MAP[00:[00],01:[01],02:[02],03:[03],mmc:(un)]s(0)Z?S?*/
	$E55E  06 1B:       asl $1B			/* A(??)X(22)<606D>Y(00)<6460>MAP[00:[00],01:[01],02:[02],03:[03],mmc:(un)]s(0)Z?S?*/
	$E560  2A:          rol a			/* A(??)X(22)<606D>Y(00)<6460>MAP[00:[00],01:[01],02:[02],03:[03],mmc:(un)]s(0)Z?S?*/
	$E561  8D 06 20:    sta $2006			/* A(??)X(22)<606D>Y(00)<6460>MAP[00:[00],01:[01],02:[02],03:[03],mmc:(un)]s(0)Z?S?*/
	$E564  A5 1B:       lda $1B			/* A(??)X(22)<606D>Y(00)<6460>MAP[00:[00],01:[01],02:[02],03:[03],mmc:(un)]s(0)Z?S?*/
	$E566  8D 06 20:    sta $2006			/* A(??)X(22)<606D>Y(00)<6460>MAP[00:[00],01:[01],02:[02],03:[03],mmc:(un)]s(0)Z?S?*/
	$E569  86 1B:       stx $1B			/* A(??)X(22)<606D>Y(00)<6460>MAP[00:[00],01:[01],02:[02],03:[03],mmc:(un)]s(0)Z?S?*/
	$E56B  A2 1F:       ldx #$1F			/* A(??)X(1F)<656B>Y(00)<6460>MAP[00:[00],01:[01],02:[02],03:[03],mmc:(un)]s(0)Z0S0*/
-	$E56D  BD 00 02:    lda $0200,x			/* A(??)X(1F)<656B>Y(00)<6460>MAP[00:[00],01:[01],02:[02],03:[03],mmc:(un)]s(0)Z?S?*/
	$E570  8D 07 20:    sta $2007			/* A(??)X(1F)<656B>Y(00)<6460>MAP[00:[00],01:[01],02:[02],03:[03],mmc:(un)]s(0)Z?S?*/
	$E573  CA:          dex 			/* A(??)X(??)Y(00)<6460>MAP[00:[00],01:[01],02:[02],03:[03],mmc:(un)]s(0)Z?S?*/
	$E574  10 F7:       bpl -		; $E56D			/* A(??)X(??)Y(00)<6460>MAP[00:[00],01:[01],02:[02],03:[03],mmc:(un)]s(0)Z?S?*/
	$E576  A6 1B:       ldx $1B			/* A(??)X(??)Y(00)<6460>MAP[00:[00],01:[01],02:[02],03:[03],mmc:(un)]s(0)Z?S?*/
	$E578  60:          rts 			/* A(??)X(??)Y(00)<6460>MAP[00:[00],01:[01],02:[02],03:[03],mmc:(un)]s(0)Z?S?*/(barrier)
;------------------------------------------
_func_6579
	$E579  20 F6 E4:    jsr _func_64F6			/* A(00)<62B5>X(22)<606D>Y(00)<62B7>MAP[00:[00],01:[01],02:[02],03:[03],mmc:(un)]s(0)Z?S?*/
	$E57C  4C 17 E4:    jmp ----		; $E417			/* A(0A)<62AD>X(22)<606D>Y(00)<6460>MAP[00:[00],01:[01],02:[02],03:[03],mmc:(un)]s(0)Z?S?*/(barrier)
;------------------------------------------
_Reset	$E57F  78:          sei 			/* A(0A)<62AD>X(22)<606D>Y(00)<6460>MAP[00:[00],01:[01],02:[02],03:[03],mmc:(un)]s(0)Z?S?*/
	$E580  D8:          cld 			/* A(un)X(un)Y(un)MAP[00:[00],01:[01],02:[02],03:[03],mmc:(un)]s(0)Z*S**/
	$E581  A2 FF:       ldx #$FF			/* A(un)X(FF)<6581>Y(un)MAP[00:[00],01:[01],02:[02],03:[03],mmc:(un)]s(0)Z0S1*/
	$E583  9A:          txs 			/* A(un)X(FF)<6581>Y(un)MAP[00:[00],01:[01],02:[02],03:[03],mmc:(un)]s(0)Z?S?*/
	$E584  A9 00:       lda #$00			/* A(00)<6584>X(FF)<6581>Y(un)MAP[00:[00],01:[01],02:[02],03:[03],mmc:(un)]s(0)Z1S0*/
	$E586  8D 00 20:    sta $2000			/* A(00)<6584>X(FF)<6581>Y(un)MAP[00:[00],01:[01],02:[02],03:[03],mmc:(un)]s(0)Z1S0*/
	$E589  8D 01 20:    sta $2001			/* A(00)<6584>X(FF)<6581>Y(un)MAP[00:[00],01:[01],02:[02],03:[03],mmc:(un)]s(0)Z1S0*/
	$E58C  A9 00:       lda #$00			/* A(00)<658C>X(FF)<6581>Y(un)MAP[00:[00],01:[01],02:[02],03:[03],mmc:(un)]s(0)Z1S0*/
	$E58E  A2 07:       ldx #$07			/* A(00)<658C>X(07)<658E>Y(un)MAP[00:[00],01:[01],02:[02],03:[03],mmc:(un)]s(0)Z0S0*/
	$E590  A0 F0:       ldy #$F0			/* A(00)<658C>X(07)<658E>Y(F0)<6590>MAP[00:[00],01:[01],02:[02],03:[03],mmc:(un)]s(0)Z0S1*/
	$E592  85 00:       sta $00			/* A(00)<658C>X(07)<658E>Y(F0)<6590>MAP[00:[00],01:[01],02:[02],03:[03],mmc:(un)]s(0)Z0S1*/
--	$E594  86 01:       stx $01			/* A(00)<658C>X(07)<658E>Y(F0)<6590>MAP[00:[00],01:[01],02:[02],03:[03],mmc:(un)]s(0)Z?S?*/
-	$E596  88:          dey 			/* A(??)X(07)<658E>Y(??)MAP[00:[00],01:[01],02:[02],03:[03],mmc:(un)]s(0)Z?S?*/
	$E597  91 00:       sta ($00),y			/* A(??)X(07)<658E>Y(??)MAP[00:[00],01:[01],02:[02],03:[03],mmc:(un)]s(0)Z?S?*/
	$E599  D0 FB:       bne -		; $E596			/* A(??)X(07)<658E>Y(??)MAP[00:[00],01:[01],02:[02],03:[03],mmc:(un)]s(0)Z?S?*/
	$E59B  CA:          dex 			/* A(??)X(??)Y(??)MAP[00:[00],01:[01],02:[02],03:[03],mmc:(un)]s(0)Z?S?*/
	$E59C  10 F6:       bpl --		; $E594			/* A(??)X(??)Y(??)MAP[00:[00],01:[01],02:[02],03:[03],mmc:(un)]s(0)Z?S?*/
-	$E59E  2C 02 20:    bit $2002			/* A(??)X(??)Y(??)MAP[00:[00],01:[01],02:[02],03:[03],mmc:(un)]s(0)Z?S?*/
	$E5A1  10 FB:       bpl -		; $E59E			/* A(??)X(??)Y(??)MAP[00:[00],01:[01],02:[02],03:[03],mmc:(un)]s(0)Z?S?*/
-	$E5A3  2C 02 20:    bit $2002			/* A(??)X(??)Y(??)MAP[00:[00],01:[01],02:[02],03:[03],mmc:(un)]s(0)Z?S?*/
	$E5A6  10 FB:       bpl -		; $E5A3			/* A(??)X(??)Y(??)MAP[00:[00],01:[01],02:[02],03:[03],mmc:(un)]s(0)Z?S?*/
	$E5A8  20 90 E4:    jsr _func_6490			/* A(??)X(??)Y(??)MAP[00:(??),01:(??),02:(??),03:(??),mmc:(un)]s(0)Z?S?*/
	$E5AB  20 12 E4:    jsr _func_6412			/* A(??)X(??)Y(??)MAP[00:(??),01:(??),02:(??),03:(??),mmc:(un)]s(0)Z?S?*/
	$E5AE  4C 42 E4:    jmp ---		; $E442			/* A(??)X(??)Y(??)MAP[00:[00],01:[01],02:[02],03:[03],mmc:(un)]s(0)Z?S?*/(barrier)

+++	$E5B1  C9 01:       cmp #$01			/* A(??)X(FF)<6469>Y(22)<619E>MAP[00:[00],01:[01],02:[02],03:[03],mmc:(un)]s(0)Z?S?*/
	$E5B3  B0 03:       bcs +		; $E5B8			/* A(??)X(FF)<6469>Y(22)<619E>MAP[00:[00],01:[01],02:[02],03:[03],mmc:(un)]s(0)Z?S?*/
	$E5B5  4C DC E5:    jmp ++		; $E5DC			/* A(??)X(FF)<6469>Y(22)<619E>MAP[00:[00],01:[01],02:[02],03:[03],mmc:(un)]s(0)Z?S?*/(barrier)

+	$E5B8  D0 10:       bne +		; $E5CA			/* A(??)X(FF)<6469>Y(22)<619E>MAP[00:[00],01:[01],02:[02],03:[03],mmc:(un)]s(0)Z?S?*/
	$E5BA  48:          pha 			/* A(??)X(FF)<6469>Y(22)<619E>MAP[00:[00],01:[01],02:[02],03:[03],mmc:(un)]s(1)Z?S?*/
	$E5BB  A9 4E:        lda #<_data_664E			/* A(4E)<65BB>X(FF)<6469>Y(22)<619E>MAP[00:[00],01:[01],02:[02],03:[03],mmc:(un)]s(1)Z0S0*/
	$E5BD  85 0E:        sta $0E			/* A(4E)<65BB>X(FF)<6469>Y(22)<619E>MAP[00:[00],01:[01],02:[02],03:[03],mmc:(un)]s(1)Z0S0*/
	$E5BF  A9 E6:        lda #>_data_664E			/* A(E6)<65BF>X(FF)<6469>Y(22)<619E>MAP[00:[00],01:[01],02:[02],03:[03],mmc:(un)]s(1)Z0S1*/
	$E5C1  85 0F:        sta $0F			/* A(E6)<65BF>X(FF)<6469>Y(22)<619E>MAP[00:[00],01:[01],02:[02],03:[03],mmc:(un)]s(1)Z0S1*/
	$E5C3  68:          pla 			/* A(??)X(FF)<6469>Y(22)<619E>MAP[00:[00],01:[01],02:[02],03:[03],mmc:(un)]s(0)Z?S?*/
	$E5C4  20 B4 E2:    jsr _func_62B4			/* A(??)X(??)Y(??)MAP[00:(??),01:(??),02:(??),03:(??),mmc:(un)]s(0)Z?S?*/
	$E5C7  4C DC E5:    jmp ++		; $E5DC			/* A(??)X(FF)<6469>Y(22)<619E>MAP[00:[00],01:[01],02:[02],03:[03],mmc:(un)]s(0)Z?S?*/(barrier)

+	$E5CA  48:          pha 			/* A(??)X(FF)<6469>Y(22)<619E>MAP[00:[00],01:[01],02:[02],03:[03],mmc:(un)]s(0)Z?S?*/
	$E5CB  48:           pha 			/* A(??)X(FF)<6469>Y(22)<619E>MAP[00:[00],01:[01],02:[02],03:[03],mmc:(un)]s(2)Z?S?*/
	$E5CC  A9 56:         lda #<_data_6656			/* A(56)<65CC>X(FF)<6469>Y(22)<619E>MAP[00:[00],01:[01],02:[02],03:[03],mmc:(un)]s(2)Z0S0*/
	$E5CE  85 0E:         sta $0E			/* A(56)<65CC>X(FF)<6469>Y(22)<619E>MAP[00:[00],01:[01],02:[02],03:[03],mmc:(un)]s(2)Z0S0*/
	$E5D0  A9 E6:         lda #>_data_6656			/* A(E6)<65D0>X(FF)<6469>Y(22)<619E>MAP[00:[00],01:[01],02:[02],03:[03],mmc:(un)]s(2)Z0S1*/
	$E5D2  85 0F:         sta $0F			/* A(E6)<65D0>X(FF)<6469>Y(22)<619E>MAP[00:[00],01:[01],02:[02],03:[03],mmc:(un)]s(2)Z0S1*/
	$E5D4  68:           pla 			/* A(??)X(FF)<6469>Y(22)<619E>MAP[00:[00],01:[01],02:[02],03:[03],mmc:(un)]s(1)Z?S?*/
	$E5D5  20 B4 E2:     jsr _func_62B4			/* A(??)X(??)Y(??)MAP[00:(??),01:(??),02:(??),03:(??),mmc:(un)]s(1)Z?S?*/
	$E5D8  20 D0 E2:     jsr _func_62D0			/* A(??)X(??)Y(??)MAP[00:(??),01:(??),02:(??),03:(??),mmc:(un)]s(0)Z?S?*/
	$E5DB  68:          pla 			/* A(??)X(FF)<6469>Y(22)<619E>MAP[00:[00],01:[01],02:[02],03:[03],mmc:(un)]s(0)Z?S?*/
++	$E5DC  48:          pha 			/* A(??)X(FF)<6469>Y(22)<619E>MAP[00:[00],01:[01],02:[02],03:[03],mmc:(un)]s(0)Z?S?*/
	$E5DD  48:           pha 			/* A(??)X(FF)<6469>Y(22)<619E>MAP[00:[00],01:[01],02:[02],03:[03],mmc:(un)]s(2)Z?S?*/
	$E5DE  A9 5E:         lda #<_data_665E			/* A(5E)<65DE>X(FF)<6469>Y(22)<619E>MAP[00:[00],01:[01],02:[02],03:[03],mmc:(un)]s(2)Z0S0*/
	$E5E0  85 0E:         sta $0E			/* A(5E)<65DE>X(FF)<6469>Y(22)<619E>MAP[00:[00],01:[01],02:[02],03:[03],mmc:(un)]s(2)Z0S0*/
	$E5E2  A9 E6:         lda #>_data_665E			/* A(E6)<65E2>X(FF)<6469>Y(22)<619E>MAP[00:[00],01:[01],02:[02],03:[03],mmc:(un)]s(2)Z0S1*/
	$E5E4  85 0F:         sta $0F			/* A(E6)<65E2>X(FF)<6469>Y(22)<619E>MAP[00:[00],01:[01],02:[02],03:[03],mmc:(un)]s(2)Z0S1*/
	$E5E6  68:           pla 			/* A(??)X(FF)<6469>Y(22)<619E>MAP[00:[00],01:[01],02:[02],03:[03],mmc:(un)]s(1)Z?S?*/
	$E5E7  20 B4 E2:     jsr _func_62B4			/* A(??)X(??)Y(??)MAP[00:(??),01:(??),02:(??),03:(??),mmc:(un)]s(1)Z?S?*/
	$E5EA  20 E1 E4:     jsr _func_64E1			/* A(??)X(??)Y(??)MAP[00:(??),01:(??),02:(??),03:(??),mmc:(un)]s(0)Z?S?*/
	$E5ED  68:          pla 			/* A(??)X(FF)<6469>Y(22)<619E>MAP[00:[00],01:[01],02:[02],03:[03],mmc:(un)]s(0)Z?S?*/
	$E5EE  20 BE E3:    jsr _func_63BE			/* A(??)X(??)Y(??)MAP[00:(??),01:(??),02:(??),03:(??),mmc:(un)]s(0)Z?S?*/
	$E5F1  A9 00:       lda #$00			/* A(00)<65F1>X(FF)<6469>Y(22)<619E>MAP[00:[00],01:[01],02:[02],03:[03],mmc:(un)]s(0)Z1S0*/
	$E5F3  A2 F0:       ldx #$F0			/* A(00)<65F1>X(F0)<65F3>Y(22)<619E>MAP[00:[00],01:[01],02:[02],03:[03],mmc:(un)]s(0)Z0S1*/
-	$E5F5  9D 00 07:    sta $0700,x			/* A(00)<65F1>X(F0)<65F3>Y(22)<619E>MAP[00:[00],01:[01],02:[02],03:[03],mmc:(un)]s(0)Z?S?*/
	$E5F8  E8:          inx 			/* A(00)<65F1>X(??)Y(22)<619E>MAP[00:[00],01:[01],02:[02],03:[03],mmc:(un)]s(0)Z?S?*/
	$E5F9  D0 FA:       bne -		; $E5F5			/* A(00)<65F1>X(??)Y(22)<619E>MAP[00:[00],01:[01],02:[02],03:[03],mmc:(un)]s(0)Z?S?*/
	$E5FB  4C 0F E6:    jmp +		; $E60F			/* A(00)<65F1>X(??)Y(22)<619E>MAP[00:[00],01:[01],02:[02],03:[03],mmc:(un)]s(0)Z?S?*/(barrier)

	$E5FE               .byte $00,$00
_func_6600
	$E600  2C 02 20:    bit $2002			/* A(??)X(00)<645F>Y(00)<6460>MAP[00:[00],01:[01],02:[02],03:[03],mmc:(un)]s(0)Z?S?*/
-	$E603  2C 02 20:    bit $2002			/* A(??)X(??)Y(??)MAP[00:[00],01:[01],02:[02],03:[03],mmc:(un)]s(0)Z?S?*/
	$E606  10 FB:       bpl -		; $E603			/* A(??)X(??)Y(??)MAP[00:[00],01:[01],02:[02],03:[03],mmc:(un)]s(0)Z?S?*/
	$E608  60:          rts 			/* A(??)X(??)Y(??)MAP[00:[00],01:[01],02:[02],03:[03],mmc:(un)]s(0)Z?S?*/(barrier)
;------------------------------------------
_func_6609
	$E609  A9 00:       lda #$00			/* A(00)<6609>X(FF)<6469>Y(22)<619E>MAP[00:[00],01:[01],02:[02],03:[03],mmc:(un)]s(1)Z1S0*/
	$E60B  8D 00 20:    sta $2000			/* A(00)<6609>X(FF)<6469>Y(22)<619E>MAP[00:[00],01:[01],02:[02],03:[03],mmc:(un)]s(1)Z1S0*/
	$E60E  60:          rts 			/* A(00)<6609>X(FF)<6469>Y(22)<619E>MAP[00:[00],01:[01],02:[02],03:[03],mmc:(un)]s(1)Z1S0*/(barrier)

+ -	$E60F  78:          sei 			/* A(00)<65F1>X(??)Y(22)<619E>MAP[00:[00],01:[01],02:[02],03:[03],mmc:(un)]s(0)Z1S0*/
	$E610  A9 00:       lda #$00			/* A(00)<6610>X(??)Y(22)<619E>MAP[00:[00],01:[01],02:[02],03:[03],mmc:(un)]s(0)Z1S0*/
	$E612  8D 00 20:    sta $2000			/* A(00)<6610>X(??)Y(22)<619E>MAP[00:[00],01:[01],02:[02],03:[03],mmc:(un)]s(0)Z1S0*/
	$E615  4C 0F E6:    jmp -		; $E60F			/* A(00)<6610>X(??)Y(22)<619E>MAP[00:[00],01:[01],02:[02],03:[03],mmc:(un)]s(0)Z1S0*/(barrier)
;------------------------------------------
_NMI	$E618  E6 1C:       inc $1C			/* A(00)<6610>X(??)Y(22)<619E>MAP[00:[00],01:[01],02:[02],03:[03],mmc:(un)]s(0)Z1S0*/
	$E61A  40:          rti 			/* A(un)X(un)Y(un)MAP[00:[00],01:[01],02:[02],03:[03],mmc:(un)]s(0)Z?S?*/(barrier)

	$E61B               .byte $A5,$1C,$C5,$1C,$F0,$FC,$60
_IRQ	$E622  2C 15 40:    bit $4015			/* A(??)X(un)Y(un)MAP[00:[00],01:[01],02:[02],03:[03],mmc:(un)]s(0)Z?S?*/
	$E625  40:          rti 			/* A(??)X(un)Y(un)MAP[00:[00],01:[01],02:[02],03:[03],mmc:(un)]s(0)Z?S?*/(barrier)
;------------------------------------------
_func_6626
	$E626  20 AC E2:    jsr _func_62AC			/* A(??)X(00)<61DF>Y(22)<619E>MAP[00:[00],01:[01],02:[02],03:[03],mmc:(un)]s(0)Z?S?*/
	$E629  A9 62:       lda #<_data_6662			/* A(62)<6629>X(22)<606D>Y(00)<6460>MAP[00:[00],01:[01],02:[02],03:[03],mmc:(un)]s(0)Z0S0*/
	$E62B  85 0E:       sta $0E			/* A(62)<6629>X(22)<606D>Y(00)<6460>MAP[00:[00],01:[01],02:[02],03:[03],mmc:(un)]s(0)Z0S0*/
	$E62D  A9 E6:       lda #>_data_6662			/* A(E6)<662D>X(22)<606D>Y(00)<6460>MAP[00:[00],01:[01],02:[02],03:[03],mmc:(un)]s(0)Z0S1*/
	$E62F  85 0F:       sta $0F			/* A(E6)<662D>X(22)<606D>Y(00)<6460>MAP[00:[00],01:[01],02:[02],03:[03],mmc:(un)]s(0)Z0S1*/
	$E631  20 B4 E2:    jsr _func_62B4			/* A(??)X(??)Y(??)MAP[00:(??),01:(??),02:(??),03:(??),mmc:(un)]s(0)Z?S?*/
	$E634  20 AC E2:    jsr _func_62AC			/* A(??)X(??)Y(??)MAP[00:(??),01:(??),02:(??),03:(??),mmc:(un)]s(0)Z?S?*/
	$E637  60:          rts 			/* A(E6)<662D>X(22)<606D>Y(00)<6460>MAP[00:[00],01:[01],02:[02],03:[03],mmc:(un)]s(0)Z?S?*/(barrier)
;------------------------------------------
_data_6638
	$E638               .byte $50,$61,$73,$73,$65,$64,$00,$49,$6E,$74,$65,$72,$6E,$61,$6C,$20
	$E648               .byte $65,$72,$72,$6F,$72,$00
_data_664E
	$E64E               .byte $0A,$46,$61,$69,$6C,$65,$64,$00
_data_6656
	$E656               .byte $0A,$45,$72,$72,$6F,$72,$20,$00
_data_665E
	$E65E               .byte $0A,$0A,$0A,$00
_data_6662
	$E662               .byte $63,$70,$75,$5F,$64,$75,$6D,$6D,$79,$5F,$72,$65,$61,$64,$73,$00
_data_6672
	$E672               .byte $24,$32,$30,$30,$32,$20,$6D,$75,$73,$74,$20,$62,$65,$20,$6D,$69
	$E682               .byte $72,$72,$6F,$72,$65,$64,$20,$65,$76,$65,$72,$79,$20,$38,$20,$62
	$E692               .byte $79,$74,$65,$73,$20,$74,$6F,$20,$24,$33,$46,$46,$41,$00
_data_66A0
	$E6A0               .byte $4C,$44,$41,$20,$61,$62,$73,$2C,$78,$00
_data_66AA
	$E6AA               .byte $53,$54,$41,$20,$61,$62,$73,$2C,$78,$00
_data_66B4
	$E6B4               .byte $4C,$44,$41,$20,$28,$7A,$29,$2C,$79,$00
_data_66BE
	$E6BE               .byte $53,$54,$41,$20,$28,$7A,$29,$2C,$79,$00
_data_66C8
	$E6C8               .byte $4C,$44,$41,$20,$28,$7A,$2C,$78,$29,$00
_data_66D2
	$E6D2               .byte $53,$54,$41,$20,$28,$7A,$2C,$78,$29,$00,$00,$00,$00,$00,$00,$00
	$E6E2               .byte $00,$00,$00,$00,$00,$00,$00,$00,$00,$00,$00,$00,$00,$00,$00,$00
	$E6F2               .byte $00,$00,$00,$00,$00,$00,$00,$00,$00,$00,$00,$00,$00,$00,$00,$00
	$E702               .byte $00,$00,$00,$00,$00,$00,$00,$00,$00,$00,$00,$00,$00,$00,$00,$00
	$E712               .byte $00,$00,$00,$00,$00,$00,$00,$00,$00,$00,$00,$00,$00,$00,$00,$00
	$E722               .byte $00,$00,$00,$00,$00,$00,$00,$00,$00,$00,$00,$00,$00,$00,$00,$00
	$E732               .byte $00,$00,$00,$00,$00,$00,$00,$00,$00,$00,$00,$00,$00,$00,$00,$00
	$E742               .byte $00,$00,$00,$00,$00,$00,$00,$00,$00,$00,$00,$00,$00,$00,$00,$00
	$E752               .byte $00,$00,$00,$00,$00,$00,$00,$00,$00,$00,$00,$00,$00,$00,$00,$00
	$E762               .byte $00,$00,$00,$00,$00,$00,$00,$00,$00,$00,$00,$00,$00,$00,$00,$00
	$E772               .byte $00,$00,$00,$00,$00,$00,$00,$00,$00,$00,$00,$00,$00,$00,$00,$00
	$E782               .byte $00,$00,$00,$00,$00,$00,$00,$00,$00,$00,$00,$00,$00,$00,$00,$00
	$E792               .byte $00,$00,$00,$00,$00,$00,$00,$00,$00,$00,$00,$00,$00,$00,$00,$00
	$E7A2               .byte $00,$00,$00,$00,$00,$00,$00,$00,$00,$00,$00,$00,$00,$00,$00,$00
	$E7B2               .byte $00,$00,$00,$00,$00,$00,$00,$00,$00,$00,$00,$00,$00,$00,$00,$00
	$E7C2               .byte $00,$00,$00,$00,$00,$00,$00,$00,$00,$00,$00,$00,$00,$00,$00,$00
	$E7D2               .byte $00,$00,$00,$00,$00,$00,$00,$00,$00,$00,$00,$00,$00,$00,$00,$00
	$E7E2               .byte $00,$00,$00,$00,$00,$00,$00,$00,$00,$00,$00,$00,$00,$00,$00,$00
	$E7F2               .byte $00,$00,$00,$00,$00,$00,$00,$00,$00,$00,$00,$00,$00,$00,$00,$00
	$E802               .byte $00,$00,$00,$00,$00,$00,$00,$00,$00,$00,$00,$00,$00,$00,$00,$00
	$E812               .byte $00,$00,$00,$00,$00,$00,$00,$00,$00,$00,$00,$00,$00,$00,$00,$00
	$E822               .byte $00,$00,$00,$00,$00,$00,$00,$00,$00,$00,$00,$00,$00,$00,$00,$00
	$E832               .byte $00,$00,$00,$00,$00,$00,$00,$00,$00,$00,$00,$00,$00,$00,$00,$00
	$E842               .byte $00,$00,$00,$00,$00,$00,$00,$00,$00,$00,$00,$00,$00,$00,$00,$00
	$E852               .byte $00,$00,$00,$00,$00,$00,$00,$00,$00,$00,$00,$00,$00,$00,$00,$00
	$E862               .byte $00,$00,$00,$00,$00,$00,$00,$00,$00,$00,$00,$00,$00,$00,$00,$00
	$E872               .byte $00,$00,$00,$00,$00,$00,$00,$00,$00,$00,$00,$00,$00,$00,$00,$00
	$E882               .byte $00,$00,$00,$00,$00,$00,$00,$00,$00,$00,$00,$00,$00,$00,$00,$00
	$E892               .byte $00,$00,$00,$00,$00,$00,$00,$00,$00,$00,$00,$00,$00,$00,$00,$00
	$E8A2               .byte $00,$00,$00,$00,$00,$00,$00,$00,$00,$00,$00,$00,$00,$00,$00,$00
	$E8B2               .byte $00,$00,$00,$00,$00,$00,$00,$00,$00,$00,$00,$00,$00,$00,$00,$00
	$E8C2               .byte $00,$00,$00,$00,$00,$00,$00,$00,$00,$00,$00,$00,$00,$00,$00,$00
	$E8D2               .byte $00,$00,$00,$00,$00,$00,$00,$00,$00,$00,$00,$00,$00,$00,$00,$00
	$E8E2               .byte $00,$00,$00,$00,$00,$00,$00,$00,$00,$00,$00,$00,$00,$00,$00,$00
	$E8F2               .byte $00,$00,$00,$00,$00,$00,$00,$00,$00,$00,$00,$00,$00,$00,$00,$00
	$E902               .byte $00,$00,$00,$00,$00,$00,$00,$00,$00,$00,$00,$00,$00,$00,$00,$00
	$E912               .byte $00,$00,$00,$00,$00,$00,$00,$00,$00,$00,$00,$00,$00,$00,$00,$00
	$E922               .byte $00,$00,$00,$00,$00,$00,$00,$00,$00,$00,$00,$00,$00,$00,$00,$00
	$E932               .byte $00,$00,$00,$00,$00,$00,$00,$00,$00,$00,$00,$00,$00,$00,$00,$00
	$E942               .byte $00,$00,$00,$00,$00,$00,$00,$00,$00,$00,$00,$00,$00,$00,$00,$00
	$E952               .byte $00,$00,$00,$00,$00,$00,$00,$00,$00,$00,$00,$00,$00,$00,$00,$00
	$E962               .byte $00,$00,$00,$00,$00,$00,$00,$00,$00,$00,$00,$00,$00,$00,$00,$00
	$E972               .byte $00,$00,$00,$00,$00,$00,$00,$00,$00,$00,$00,$00,$00,$00,$00,$00
	$E982               .byte $00,$00,$00,$00,$00,$00,$00,$00,$00,$00,$00,$00,$00,$00,$00,$00
	$E992               .byte $00,$00,$00,$00,$00,$00,$00,$00,$00,$00,$00,$00,$00,$00,$00,$00
	$E9A2               .byte $00,$00,$00,$00,$00,$00,$00,$00,$00,$00,$00,$00,$00,$00,$00,$00
	$E9B2               .byte $00,$00,$00,$00,$00,$00,$00,$00,$00,$00,$00,$00,$00,$00,$00,$00
	$E9C2               .byte $00,$00,$00,$00,$00,$00,$00,$00,$00,$00,$00,$00,$00,$00,$00,$00
	$E9D2               .byte $00,$00,$00,$00,$00,$00,$00,$00,$00,$00,$00,$00,$00,$00,$00,$00
	$E9E2               .byte $00,$00,$00,$00,$00,$00,$00,$00,$00,$00,$00,$00,$00,$00,$00,$00
	$E9F2               .byte $00,$00,$00,$00,$00,$00,$00,$00,$00,$00,$00,$00,$00,$00,$00,$00
	$EA02               .byte $00,$00,$00,$00,$00,$00,$00,$00,$00,$00,$00,$00,$00,$00,$00,$00
	$EA12               .byte $00,$00,$00,$00,$00,$00,$00,$00,$00,$00,$00,$00,$00,$00,$00,$00
	$EA22               .byte $00,$00,$00,$00,$00,$00,$00,$00,$00,$00,$00,$00,$00,$00,$00,$00
	$EA32               .byte $00,$00,$00,$00,$00,$00,$00,$00,$00,$00,$00,$00,$00,$00,$00,$00
	$EA42               .byte $00,$00,$00,$00,$00,$00,$00,$00,$00,$00,$00,$00,$00,$00,$00,$00
	$EA52               .byte $00,$00,$00,$00,$00,$00,$00,$00,$00,$00,$00,$00,$00,$00,$00,$00
	$EA62               .byte $00,$00,$00,$00,$00,$00,$00,$00,$00,$00,$00,$00,$00,$00,$00,$00
	$EA72               .byte $00,$00,$00,$00,$00,$00,$00,$00,$00,$00,$00,$00,$00,$00,$00,$00
	$EA82               .byte $00,$00,$00,$00,$00,$00,$00,$00,$00,$00,$00,$00,$00,$00,$00,$00
	$EA92               .byte $00,$00,$00,$00,$00,$00,$00,$00,$00,$00,$00,$00,$00,$00,$00,$00
	$EAA2               .byte $00,$00,$00,$00,$00,$00,$00,$00,$00,$00,$00,$00,$00,$00,$00,$00
	$EAB2               .byte $00,$00,$00,$00,$00,$00,$00,$00,$00,$00,$00,$00,$00,$00,$00,$00
	$EAC2               .byte $00,$00,$00,$00,$00,$00,$00,$00,$00,$00,$00,$00,$00,$00,$00,$00
	$EAD2               .byte $00,$00,$00,$00,$00,$00,$00,$00,$00,$00,$00,$00,$00,$00,$00,$00
	$EAE2               .byte $00,$00,$00,$00,$00,$00,$00,$00,$00,$00,$00,$00,$00,$00,$00,$00
	$EAF2               .byte $00,$00,$00,$00,$00,$00,$00,$00,$00,$00,$00,$00,$00,$00,$00,$00
	$EB02               .byte $00,$00,$00,$00,$00,$00,$00,$00,$00,$00,$00,$00,$00,$00,$00,$00
	$EB12               .byte $00,$00,$00,$00,$00,$00,$00,$00,$00,$00,$00,$00,$00,$00,$00,$00
	$EB22               .byte $00,$00,$00,$00,$00,$00,$00,$00,$00,$00,$00,$00,$00,$00,$00,$00
	$EB32               .byte $00,$00,$00,$00,$00,$00,$00,$00,$00,$00,$00,$00,$00,$00,$00,$00
	$EB42               .byte $00,$00,$00,$00,$00,$00,$00,$00,$00,$00,$00,$00,$00,$00,$00,$00
	$EB52               .byte $00,$00,$00,$00,$00,$00,$00,$00,$00,$00,$00,$00,$00,$00,$00,$00
	$EB62               .byte $00,$00,$00,$00,$00,$00,$00,$00,$00,$00,$00,$00,$00,$00,$00,$00
	$EB72               .byte $00,$00,$00,$00,$00,$00,$00,$00,$00,$00,$00,$00,$00,$00,$00,$00
	$EB82               .byte $00,$00,$00,$00,$00,$00,$00,$00,$00,$00,$00,$00,$00,$00,$00,$00
	$EB92               .byte $00,$00,$00,$00,$00,$00,$00,$00,$00,$00,$00,$00,$00,$00,$00,$00
	$EBA2               .byte $00,$00,$00,$00,$00,$00,$00,$00,$00,$00,$00,$00,$00,$00,$00,$00
	$EBB2               .byte $00,$00,$00,$00,$00,$00,$00,$00,$00,$00,$00,$00,$00,$00,$00,$00
	$EBC2               .byte $00,$00,$00,$00,$00,$00,$00,$00,$00,$00,$00,$00,$00,$00,$00,$00
	$EBD2               .byte $00,$00,$00,$00,$00,$00,$00,$00,$00,$00,$00,$00,$00,$00,$00,$00
	$EBE2               .byte $00,$00,$00,$00,$00,$00,$00,$00,$00,$00,$00,$00,$00,$00,$00,$00
	$EBF2               .byte $00,$00,$00,$00,$00,$00,$00,$00,$00,$00,$00,$00,$00,$00,$00,$00
	$EC02               .byte $00,$00,$00,$00,$00,$00,$00,$00,$00,$00,$00,$00,$00,$00,$00,$00
	$EC12               .byte $00,$00,$00,$00,$00,$00,$00,$00,$00,$00,$00,$00,$00,$00,$00,$00
	$EC22               .byte $00,$00,$00,$00,$00,$00,$00,$00,$00,$00,$00,$00,$00,$00,$00,$00
	$EC32               .byte $00,$00,$00,$00,$00,$00,$00,$00,$00,$00,$00,$00,$00,$00,$00,$00
	$EC42               .byte $00,$00,$00,$00,$00,$00,$00,$00,$00,$00,$00,$00,$00,$00,$00,$00
	$EC52               .byte $00,$00,$00,$00,$00,$00,$00,$00,$00,$00,$00,$00,$00,$00,$00,$00
	$EC62               .byte $00,$00,$00,$00,$00,$00,$00,$00,$00,$00,$00,$00,$00,$00,$00,$00
	$EC72               .byte $00,$00,$00,$00,$00,$00,$00,$00,$00,$00,$00,$00,$00,$00,$00,$00
	$EC82               .byte $00,$00,$00,$00,$00,$00,$00,$00,$00,$00,$00,$00,$00,$00,$00,$00
	$EC92               .byte $00,$00,$00,$00,$00,$00,$00,$00,$00,$00,$00,$00,$00,$00,$00,$00
	$ECA2               .byte $00,$00,$00,$00,$00,$00,$00,$00,$00,$00,$00,$00,$00,$00,$00,$00
	$ECB2               .byte $00,$00,$00,$00,$00,$00,$00,$00,$00,$00,$00,$00,$00,$00,$00,$00
	$ECC2               .byte $00,$00,$00,$00,$00,$00,$00,$00,$00,$00,$00,$00,$00,$00,$00,$00
	$ECD2               .byte $00,$00,$00,$00,$00,$00,$00,$00,$00,$00,$00,$00,$00,$00,$00,$00
	$ECE2               .byte $00,$00,$00,$00,$00,$00,$00,$00,$00,$00,$00,$00,$00,$00,$00,$00
	$ECF2               .byte $00,$00,$00,$00,$00,$00,$00,$00,$00,$00,$00,$00,$00,$00,$00,$00
	$ED02               .byte $00,$00,$00,$00,$00,$00,$00,$00,$00,$00,$00,$00,$00,$00,$00,$00
	$ED12               .byte $00,$00,$00,$00,$00,$00,$00,$00,$00,$00,$00,$00,$00,$00,$00,$00
	$ED22               .byte $00,$00,$00,$00,$00,$00,$00,$00,$00,$00,$00,$00,$00,$00,$00,$00
	$ED32               .byte $00,$00,$00,$00,$00,$00,$00,$00,$00,$00,$00,$00,$00,$00,$00,$00
	$ED42               .byte $00,$00,$00,$00,$00,$00,$00,$00,$00,$00,$00,$00,$00,$00,$00,$00
	$ED52               .byte $00,$00,$00,$00,$00,$00,$00,$00,$00,$00,$00,$00,$00,$00,$00,$00
	$ED62               .byte $00,$00,$00,$00,$00,$00,$00,$00,$00,$00,$00,$00,$00,$00,$00,$00
	$ED72               .byte $00,$00,$00,$00,$00,$00,$00,$00,$00,$00,$00,$00,$00,$00,$00,$00
	$ED82               .byte $00,$00,$00,$00,$00,$00,$00,$00,$00,$00,$00,$00,$00,$00,$00,$00
	$ED92               .byte $00,$00,$00,$00,$00,$00,$00,$00,$00,$00,$00,$00,$00,$00,$00,$00
	$EDA2               .byte $00,$00,$00,$00,$00,$00,$00,$00,$00,$00,$00,$00,$00,$00,$00,$00
	$EDB2               .byte $00,$00,$00,$00,$00,$00,$00,$00,$00,$00,$00,$00,$00,$00,$00,$00
	$EDC2               .byte $00,$00,$00,$00,$00,$00,$00,$00,$00,$00,$00,$00,$00,$00,$00,$00
	$EDD2               .byte $00,$00,$00,$00,$00,$00,$00,$00,$00,$00,$00,$00,$00,$00,$00,$00
	$EDE2               .byte $00,$00,$00,$00,$00,$00,$00,$00,$00,$00,$00,$00,$00,$00,$00,$00
	$EDF2               .byte $00,$00,$00,$00,$00,$00,$00,$00,$00,$00,$00,$00,$00,$00,$00,$00
	$EE02               .byte $00,$00,$00,$00,$00,$00,$00,$00,$00,$00,$00,$00,$00,$00,$00,$00
	$EE12               .byte $00,$00,$00,$00,$00,$00,$00,$00,$00,$00,$00,$00,$00,$00,$00,$00
	$EE22               .byte $00,$00,$00,$00,$00,$00,$00,$00,$00,$00,$00,$00,$00,$00,$00,$00
	$EE32               .byte $00,$00,$00,$00,$00,$00,$00,$00,$00,$00,$00,$00,$00,$00,$00,$00
	$EE42               .byte $00,$00,$00,$00,$00,$00,$00,$00,$00,$00,$00,$00,$00,$00,$00,$00
	$EE52               .byte $00,$00,$00,$00,$00,$00,$00,$00,$00,$00,$00,$00,$00,$00,$00,$00
	$EE62               .byte $00,$00,$00,$00,$00,$00,$00,$00,$00,$00,$00,$00,$00,$00,$00,$00
	$EE72               .byte $00,$00,$00,$00,$00,$00,$00,$00,$00,$00,$00,$00,$00,$00,$00,$00
	$EE82               .byte $00,$00,$00,$00,$00,$00,$00,$00,$00,$00,$00,$00,$00,$00,$00,$00
	$EE92               .byte $00,$00,$00,$00,$00,$00,$00,$00,$00,$00,$00,$00,$00,$00,$00,$00
	$EEA2               .byte $00,$00,$00,$00,$00,$00,$00,$00,$00,$00,$00,$00,$00,$00,$00,$00
	$EEB2               .byte $00,$00,$00,$00,$00,$00,$00,$00,$00,$00,$00,$00,$00,$00,$00,$00
	$EEC2               .byte $00,$00,$00,$00,$00,$00,$00,$00,$00,$00,$00,$00,$00,$00,$00,$00
	$EED2               .byte $00,$00,$00,$00,$00,$00,$00,$00,$00,$00,$00,$00,$00,$00,$00,$00
	$EEE2               .byte $00,$00,$00,$00,$00,$00,$00,$00,$00,$00,$00,$00,$00,$00,$00,$00
	$EEF2               .byte $00,$00,$00,$00,$00,$00,$00,$00,$00,$00,$00,$00,$00,$00,$00,$00
	$EF02               .byte $00,$00,$00,$00,$00,$00,$00,$00,$00,$00,$00,$00,$00,$00,$00,$00
	$EF12               .byte $00,$00,$00,$00,$00,$00,$00,$00,$00,$00,$00,$00,$00,$00,$00,$00
	$EF22               .byte $00,$00,$00,$00,$00,$00,$00,$00,$00,$00,$00,$00,$00,$00,$00,$00
	$EF32               .byte $00,$00,$00,$00,$00,$00,$00,$00,$00,$00,$00,$00,$00,$00,$00,$00
	$EF42               .byte $00,$00,$00,$00,$00,$00,$00,$00,$00,$00,$00,$00,$00,$00,$00,$00
	$EF52               .byte $00,$00,$00,$00,$00,$00,$00,$00,$00,$00,$00,$00,$00,$00,$00,$00
	$EF62               .byte $00,$00,$00,$00,$00,$00,$00,$00,$00,$00,$00,$00,$00,$00,$00,$00
	$EF72               .byte $00,$00,$00,$00,$00,$00,$00,$00,$00,$00,$00,$00,$00,$00,$00,$00
	$EF82               .byte $00,$00,$00,$00,$00,$00,$00,$00,$00,$00,$00,$00,$00,$00,$00,$00
	$EF92               .byte $00,$00,$00,$00,$00,$00,$00,$00,$00,$00,$00,$00,$00,$00,$00,$00
	$EFA2               .byte $00,$00,$00,$00,$00,$00,$00,$00,$00,$00,$00,$00,$00,$00,$00,$00
	$EFB2               .byte $00,$00,$00,$00,$00,$00,$00,$00,$00,$00,$00,$00,$00,$00,$00,$00
	$EFC2               .byte $00,$00,$00,$00,$00,$00,$00,$00,$00,$00,$00,$00,$00,$00,$00,$00
	$EFD2               .byte $00,$00,$00,$00,$00,$00,$00,$00,$00,$00,$00,$00,$00,$00,$00,$00
	$EFE2               .byte $00,$00,$00,$00,$00,$00,$00,$00,$00,$00,$00,$00,$00,$00,$00,$00
	$EFF2               .byte $00,$00,$00,$00,$00,$00,$00,$00,$00,$00,$00,$00,$00,$00,$00,$00
	$F002               .byte $00,$00,$00,$00,$00,$00,$00,$00,$00,$00,$00,$00,$00,$00,$00,$00
	$F012               .byte $00,$00,$00,$00,$00,$00,$00,$00,$00,$00,$00,$00,$00,$00,$00,$00
	$F022               .byte $00,$00,$00,$00,$00,$00,$00,$00,$00,$00,$00,$00,$00,$00,$00,$00
	$F032               .byte $00,$00,$00,$00,$00,$00,$00,$00,$00,$00,$00,$00,$00,$00,$00,$00
	$F042               .byte $00,$00,$00,$00,$00,$00,$00,$00,$00,$00,$00,$00,$00,$00,$00,$00
	$F052               .byte $00,$00,$00,$00,$00,$00,$00,$00,$00,$00,$00,$00,$00,$00,$00,$00
	$F062               .byte $00,$00,$00,$00,$00,$00,$00,$00,$00,$00,$00,$00,$00,$00,$00,$00
	$F072               .byte $00,$00,$00,$00,$00,$00,$00,$00,$00,$00,$00,$00,$00,$00,$00,$00
	$F082               .byte $00,$00,$00,$00,$00,$00,$00,$00,$00,$00,$00,$00,$00,$00,$00,$00
	$F092               .byte $00,$00,$00,$00,$00,$00,$00,$00,$00,$00,$00,$00,$00,$00,$00,$00
	$F0A2               .byte $00,$00,$00,$00,$00,$00,$00,$00,$00,$00,$00,$00,$00,$00,$00,$00
	$F0B2               .byte $00,$00,$00,$00,$00,$00,$00,$00,$00,$00,$00,$00,$00,$00,$00,$00
	$F0C2               .byte $00,$00,$00,$00,$00,$00,$00,$00,$00,$00,$00,$00,$00,$00,$00,$00
	$F0D2               .byte $00,$00,$00,$00,$00,$00,$00,$00,$00,$00,$00,$00,$00,$00,$00,$00
	$F0E2               .byte $00,$00,$00,$00,$00,$00,$00,$00,$00,$00,$00,$00,$00,$00,$00,$00
	$F0F2               .byte $00,$00,$00,$00,$00,$00,$00,$00,$00,$00,$00,$00,$00,$00,$00,$00
	$F102               .byte $00,$00,$00,$00,$00,$00,$00,$00,$00,$00,$00,$00,$00,$00,$00,$00
	$F112               .byte $00,$00,$00,$00,$00,$00,$00,$00,$00,$00,$00,$00,$00,$00,$00,$00
	$F122               .byte $00,$00,$00,$00,$00,$00,$00,$00,$00,$00,$00,$00,$00,$00,$00,$00
	$F132               .byte $00,$00,$00,$00,$00,$00,$00,$00,$00,$00,$00,$00,$00,$00,$00,$00
	$F142               .byte $00,$00,$00,$00,$00,$00,$00,$00,$00,$00,$00,$00,$00,$00,$00,$00
	$F152               .byte $00,$00,$00,$00,$00,$00,$00,$00,$00,$00,$00,$00,$00,$00,$00,$00
	$F162               .byte $00,$00,$00,$00,$00,$00,$00,$00,$00,$00,$00,$00,$00,$00,$00,$00
	$F172               .byte $00,$00,$00,$00,$00,$00,$00,$00,$00,$00,$00,$00,$00,$00,$00,$00
	$F182               .byte $00,$00,$00,$00,$00,$00,$00,$00,$00,$00,$00,$00,$00,$00,$00,$00
	$F192               .byte $00,$00,$00,$00,$00,$00,$00,$00,$00,$00,$00,$00,$00,$00,$00,$00
	$F1A2               .byte $00,$00,$00,$00,$00,$00,$00,$00,$00,$00,$00,$00,$00,$00,$00,$00
	$F1B2               .byte $00,$00,$00,$00,$00,$00,$00,$00,$00,$00,$00,$00,$00,$00,$00,$00
	$F1C2               .byte $00,$00,$00,$00,$00,$00,$00,$00,$00,$00,$00,$00,$00,$00,$00,$00
	$F1D2               .byte $00,$00,$00,$00,$00,$00,$00,$00,$00,$00,$00,$00,$00,$00,$00,$00
	$F1E2               .byte $00,$00,$00,$00,$00,$00,$00,$00,$00,$00,$00,$00,$00,$00,$00,$00
	$F1F2               .byte $00,$00,$00,$00,$00,$00,$00,$00,$00,$00,$00,$00,$00,$00,$00,$00
	$F202               .byte $00,$00,$00,$00,$00,$00,$00,$00,$00,$00,$00,$00,$00,$00,$00,$00
	$F212               .byte $00,$00,$00,$00,$00,$00,$00,$00,$00,$00,$00,$00,$00,$00,$00,$00
	$F222               .byte $00,$00,$00,$00,$00,$00,$00,$00,$00,$00,$00,$00,$00,$00,$00,$00
	$F232               .byte $00,$00,$00,$00,$00,$00,$00,$00,$00,$00,$00,$00,$00,$00,$00,$00
	$F242               .byte $00,$00,$00,$00,$00,$00,$00,$00,$00,$00,$00,$00,$00,$00,$00,$00
	$F252               .byte $00,$00,$00,$00,$00,$00,$00,$00,$00,$00,$00,$00,$00,$00,$00,$00
	$F262               .byte $00,$00,$00,$00,$00,$00,$00,$00,$00,$00,$00,$00,$00,$00,$00,$00
	$F272               .byte $00,$00,$00,$00,$00,$00,$00,$00,$00,$00,$00,$00,$00,$00,$00,$00
	$F282               .byte $00,$00,$00,$00,$00,$00,$00,$00,$00,$00,$00,$00,$00,$00,$00,$00
	$F292               .byte $00,$00,$00,$00,$00,$00,$00,$00,$00,$00,$00,$00,$00,$00,$00,$00
	$F2A2               .byte $00,$00,$00,$00,$00,$00,$00,$00,$00,$00,$00,$00,$00,$00,$00,$00
	$F2B2               .byte $00,$00,$00,$00,$00,$00,$00,$00,$00,$00,$00,$00,$00,$00,$00,$00
	$F2C2               .byte $00,$00,$00,$00,$00,$00,$00,$00,$00,$00,$00,$00,$00,$00,$00,$00
	$F2D2               .byte $00,$00,$00,$00,$00,$00,$00,$00,$00,$00,$00,$00,$00,$00,$00,$00
	$F2E2               .byte $00,$00,$00,$00,$00,$00,$00,$00,$00,$00,$00,$00,$00,$00,$00,$00
	$F2F2               .byte $00,$00,$00,$00,$00,$00,$00,$00,$00,$00,$00,$00,$00,$00,$00,$00
	$F302               .byte $00,$00,$00,$00,$00,$00,$00,$00,$00,$00,$00,$00,$00,$00,$00,$00
	$F312               .byte $00,$00,$00,$00,$00,$00,$00,$00,$00,$00,$00,$00,$00,$00,$00,$00
	$F322               .byte $00,$00,$00,$00,$00,$00,$00,$00,$00,$00,$00,$00,$00,$00,$00,$00
	$F332               .byte $00,$00,$00,$00,$00,$00,$00,$00,$00,$00,$00,$00,$00,$00,$00,$00
	$F342               .byte $00,$00,$00,$00,$00,$00,$00,$00,$00,$00,$00,$00,$00,$00,$00,$00
	$F352               .byte $00,$00,$00,$00,$00,$00,$00,$00,$00,$00,$00,$00,$00,$00,$00,$00
	$F362               .byte $00,$00,$00,$00,$00,$00,$00,$00,$00,$00,$00,$00,$00,$00,$00,$00
	$F372               .byte $00,$00,$00,$00,$00,$00,$00,$00,$00,$00,$00,$00,$00,$00,$00,$00
	$F382               .byte $00,$00,$00,$00,$00,$00,$00,$00,$00,$00,$00,$00,$00,$00,$00,$00
	$F392               .byte $00,$00,$00,$00,$00,$00,$00,$00,$00,$00,$00,$00,$00,$00,$00,$00
	$F3A2               .byte $00,$00,$00,$00,$00,$00,$00,$00,$00,$00,$00,$00,$00,$00,$00,$00
	$F3B2               .byte $00,$00,$00,$00,$00,$00,$00,$00,$00,$00,$00,$00,$00,$00,$00,$00
	$F3C2               .byte $00,$00,$00,$00,$00,$00,$00,$00,$00,$00,$00,$00,$00,$00,$00,$00
	$F3D2               .byte $00,$00,$00,$00,$00,$00,$00,$00,$00,$00,$00,$00,$00,$00,$00,$00
	$F3E2               .byte $00,$00,$00,$00,$00,$00,$00,$00,$00,$00,$00,$00,$00,$00,$00,$00
	$F3F2               .byte $00,$00,$00,$00,$00,$00,$00,$00,$00,$00,$00,$00,$00,$00,$00,$00
	$F402               .byte $00,$00,$00,$00,$00,$00,$00,$00,$00,$00,$00,$00,$00,$00,$00,$00
	$F412               .byte $00,$00,$00,$00,$00,$00,$00,$00,$00,$00,$00,$00,$00,$00,$00,$00
	$F422               .byte $00,$00,$00,$00,$00,$00,$00,$00,$00,$00,$00,$00,$00,$00,$00,$00
	$F432               .byte $00,$00,$00,$00,$00,$00,$00,$00,$00,$00,$00,$00,$00,$00,$00,$00
	$F442               .byte $00,$00,$00,$00,$00,$00,$00,$00,$00,$00,$00,$00,$00,$00,$00,$00
	$F452               .byte $00,$00,$00,$00,$00,$00,$00,$00,$00,$00,$00,$00,$00,$00,$00,$00
	$F462               .byte $00,$00,$00,$00,$00,$00,$00,$00,$00,$00,$00,$00,$00,$00,$00,$00
	$F472               .byte $00,$00,$00,$00,$00,$00,$00,$00,$00,$00,$00,$00,$00,$00,$00,$00
	$F482               .byte $00,$00,$00,$00,$00,$00,$00,$00,$00,$00,$00,$00,$00,$00,$00,$00
	$F492               .byte $00,$00,$00,$00,$00,$00,$00,$00,$00,$00,$00,$00,$00,$00,$00,$00
	$F4A2               .byte $00,$00,$00,$00,$00,$00,$00,$00,$00,$00,$00,$00,$00,$00,$00,$00
	$F4B2               .byte $00,$00,$00,$00,$00,$00,$00,$00,$00,$00,$00,$00,$00,$00,$00,$00
	$F4C2               .byte $00,$00,$00,$00,$00,$00,$00,$00,$00,$00,$00,$00,$00,$00,$00,$00
	$F4D2               .byte $00,$00,$00,$00,$00,$00,$00,$00,$00,$00,$00,$00,$00,$00,$00,$00
	$F4E2               .byte $00,$00,$00,$00,$00,$00,$00,$00,$00,$00,$00,$00,$00,$00,$00,$00
	$F4F2               .byte $00,$00,$00,$00,$00,$00,$00,$00,$00,$00,$00,$00,$00,$00,$00,$00
	$F502               .byte $00,$00,$00,$00,$00,$00,$00,$00,$00,$00,$00,$00,$00,$00,$00,$00
	$F512               .byte $00,$00,$00,$00,$00,$00,$00,$00,$00,$00,$00,$00,$00,$00,$00,$00
	$F522               .byte $00,$00,$00,$00,$00,$00,$00,$00,$00,$00,$00,$00,$00,$00,$00,$00
	$F532               .byte $00,$00,$00,$00,$00,$00,$00,$00,$00,$00,$00,$00,$00,$00,$00,$00
	$F542               .byte $00,$00,$00,$00,$00,$00,$00,$00,$00,$00,$00,$00,$00,$00,$00,$00
	$F552               .byte $00,$00,$00,$00,$00,$00,$00,$00,$00,$00,$00,$00,$00,$00,$00,$00
	$F562               .byte $00,$00,$00,$00,$00,$00,$00,$00,$00,$00,$00,$00,$00,$00,$00,$00
	$F572               .byte $00,$00,$00,$00,$00,$00,$00,$00,$00,$00,$00,$00,$00,$00,$00,$00
	$F582               .byte $00,$00,$00,$00,$00,$00,$00,$00,$00,$00,$00,$00,$00,$00,$00,$00
	$F592               .byte $00,$00,$00,$00,$00,$00,$00,$00,$00,$00,$00,$00,$00,$00,$00,$00
	$F5A2               .byte $00,$00,$00,$00,$00,$00,$00,$00,$00,$00,$00,$00,$00,$00,$00,$00
	$F5B2               .byte $00,$00,$00,$00,$00,$00,$00,$00,$00,$00,$00,$00,$00,$00,$00,$00
	$F5C2               .byte $00,$00,$00,$00,$00,$00,$00,$00,$00,$00,$00,$00,$00,$00,$00,$00
	$F5D2               .byte $00,$00,$00,$00,$00,$00,$00,$00,$00,$00,$00,$00,$00,$00,$00,$00
	$F5E2               .byte $00,$00,$00,$00,$00,$00,$00,$00,$00,$00,$00,$00,$00,$00,$00,$00
	$F5F2               .byte $00,$00,$00,$00,$00,$00,$00,$00,$00,$00,$00,$00,$00,$00,$00,$00
	$F602               .byte $00,$00,$00,$00,$00,$00,$00,$00,$00,$00,$00,$00,$00,$00,$00,$00
	$F612               .byte $00,$00,$00,$00,$00,$00,$00,$00,$00,$00,$00,$00,$00,$00,$00,$00
	$F622               .byte $00,$00,$00,$00,$00,$00,$00,$00,$00,$00,$00,$00,$00,$00,$00,$00
	$F632               .byte $00,$00,$00,$00,$00,$00,$00,$00,$00,$00,$00,$00,$00,$00,$00,$00
	$F642               .byte $00,$00,$00,$00,$00,$00,$00,$00,$00,$00,$00,$00,$00,$00,$00,$00
	$F652               .byte $00,$00,$00,$00,$00,$00,$00,$00,$00,$00,$00,$00,$00,$00,$00,$00
	$F662               .byte $00,$00,$00,$00,$00,$00,$00,$00,$00,$00,$00,$00,$00,$00,$00,$00
	$F672               .byte $00,$00,$00,$00,$00,$00,$00,$00,$00,$00,$00,$00,$00,$00,$00,$00
	$F682               .byte $00,$00,$00,$00,$00,$00,$00,$00,$00,$00,$00,$00,$00,$00,$00,$00
	$F692               .byte $00,$00,$00,$00,$00,$00,$00,$00,$00,$00,$00,$00,$00,$00,$00,$00
	$F6A2               .byte $00,$00,$00,$00,$00,$00,$00,$00,$00,$00,$00,$00,$00,$00,$00,$00
	$F6B2               .byte $00,$00,$00,$00,$00,$00,$00,$00,$00,$00,$00,$00,$00,$00,$00,$00
	$F6C2               .byte $00,$00,$00,$00,$00,$00,$00,$00,$00,$00,$00,$00,$00,$00,$00,$00
	$F6D2               .byte $00,$00,$00,$00,$00,$00,$00,$00,$00,$00,$00,$00,$00,$00,$00,$00
	$F6E2               .byte $00,$00,$00,$00,$00,$00,$00,$00,$00,$00,$00,$00,$00,$00,$00,$00
	$F6F2               .byte $00,$00,$00,$00,$00,$00,$00,$00,$00,$00,$00,$00,$00,$00,$00,$00
	$F702               .byte $00,$00,$00,$00,$00,$00,$00,$00,$00,$00,$00,$00,$00,$00,$00,$00
	$F712               .byte $00,$00,$00,$00,$00,$00,$00,$00,$00,$00,$00,$00,$00,$00,$00,$00
	$F722               .byte $00,$00,$00,$00,$00,$00,$00,$00,$00,$00,$00,$00,$00,$00,$00,$00
	$F732               .byte $00,$00,$00,$00,$00,$00,$00,$00,$00,$00,$00,$00,$00,$00,$00,$00
	$F742               .byte $00,$00,$00,$00,$00,$00,$00,$00,$00,$00,$00,$00,$00,$00,$00,$00
	$F752               .byte $00,$00,$00,$00,$00,$00,$00,$00,$00,$00,$00,$00,$00,$00,$00,$00
	$F762               .byte $00,$00,$00,$00,$00,$00,$00,$00,$00,$00,$00,$00,$00,$00,$00,$00
	$F772               .byte $00,$00,$00,$00,$00,$00,$00,$00,$00,$00,$00,$00,$00,$00,$00,$00
	$F782               .byte $00,$00,$00,$00,$00,$00,$00,$00,$00,$00,$00,$00,$00,$00,$00,$00
	$F792               .byte $00,$00,$00,$00,$00,$00,$00,$00,$00,$00,$00,$00,$00,$00,$00,$00
	$F7A2               .byte $00,$00,$00,$00,$00,$00,$00,$00,$00,$00,$00,$00,$00,$00,$00,$00
	$F7B2               .byte $00,$00,$00,$00,$00,$00,$00,$00,$00,$00,$00,$00,$00,$00,$00,$00
	$F7C2               .byte $00,$00,$00,$00,$00,$00,$00,$00,$00,$00,$00,$00,$00,$00,$00,$00
	$F7D2               .byte $00,$00,$00,$00,$00,$00,$00,$00,$00,$00,$00,$00,$00,$00,$00,$00
	$F7E2               .byte $00,$00,$00,$00,$00,$00,$00,$00,$00,$00,$00,$00,$00,$00,$00,$00
	$F7F2               .byte $00,$00,$00,$00,$00,$00,$00,$00,$00,$00,$00,$00,$00,$00,$00,$00
	$F802               .byte $00,$00,$00,$00,$00,$00,$00,$00,$00,$00,$00,$00,$00,$00,$00,$00
	$F812               .byte $00,$00,$00,$00,$00,$00,$00,$00,$00,$00,$00,$00,$00,$00,$00,$00
	$F822               .byte $00,$00,$00,$00,$00,$00,$00,$00,$00,$00,$00,$00,$00,$00,$00,$00
	$F832               .byte $00,$00,$00,$00,$00,$00,$00,$00,$00,$00,$00,$00,$00,$00,$00,$00
	$F842               .byte $00,$00,$00,$00,$00,$00,$00,$00,$00,$00,$00,$00,$00,$00,$00,$00
	$F852               .byte $00,$00,$00,$00,$00,$00,$00,$00,$00,$00,$00,$00,$00,$00,$00,$00
	$F862               .byte $00,$00,$00,$00,$00,$00,$00,$00,$00,$00,$00,$00,$00,$00,$00,$00
	$F872               .byte $00,$00,$00,$00,$00,$00,$00,$00,$00,$00,$00,$00,$00,$00,$00,$00
	$F882               .byte $00,$00,$00,$00,$00,$00,$00,$00,$00,$00,$00,$00,$00,$00,$00,$00
	$F892               .byte $00,$00,$00,$00,$00,$00,$00,$00,$00,$00,$00,$00,$00,$00,$00,$00
	$F8A2               .byte $00,$00,$00,$00,$00,$00,$00,$00,$00,$00,$00,$00,$00,$00,$00,$00
	$F8B2               .byte $00,$00,$00,$00,$00,$00,$00,$00,$00,$00,$00,$00,$00,$00,$00,$00
	$F8C2               .byte $00,$00,$00,$00,$00,$00,$00,$00,$00,$00,$00,$00,$00,$00,$00,$00
	$F8D2               .byte $00,$00,$00,$00,$00,$00,$00,$00,$00,$00,$00,$00,$00,$00,$00,$00
	$F8E2               .byte $00,$00,$00,$00,$00,$00,$00,$00,$00,$00,$00,$00,$00,$00,$00,$00
	$F8F2               .byte $00,$00,$00,$00,$00,$00,$00,$00,$00,$00,$00,$00,$00,$00,$00,$00
	$F902               .byte $00,$00,$00,$00,$00,$00,$00,$00,$00,$00,$00,$00,$00,$00,$00,$00
	$F912               .byte $00,$00,$00,$00,$00,$00,$00,$00,$00,$00,$00,$00,$00,$00,$00,$00
	$F922               .byte $00,$00,$00,$00,$00,$00,$00,$00,$00,$00,$00,$00,$00,$00,$00,$00
	$F932               .byte $00,$00,$00,$00,$00,$00,$00,$00,$00,$00,$00,$00,$00,$00,$00,$00
	$F942               .byte $00,$00,$00,$00,$00,$00,$00,$00,$00,$00,$00,$00,$00,$00,$00,$00
	$F952               .byte $00,$00,$00,$00,$00,$00,$00,$00,$00,$00,$00,$00,$00,$00,$00,$00
	$F962               .byte $00,$00,$00,$00,$00,$00,$00,$00,$00,$00,$00,$00,$00,$00,$00,$00
	$F972               .byte $00,$00,$00,$00,$00,$00,$00,$00,$00,$00,$00,$00,$00,$00,$00,$00
	$F982               .byte $00,$00,$00,$00,$00,$00,$00,$00,$00,$00,$00,$00,$00,$00,$00,$00
	$F992               .byte $00,$00,$00,$00,$00,$00,$00,$00,$00,$00,$00,$00,$00,$00,$00,$00
	$F9A2               .byte $00,$00,$00,$00,$00,$00,$00,$00,$00,$00,$00,$00,$00,$00,$00,$00
	$F9B2               .byte $00,$00,$00,$00,$00,$00,$00,$00,$00,$00,$00,$00,$00,$00,$00,$00
	$F9C2               .byte $00,$00,$00,$00,$00,$00,$00,$00,$00,$00,$00,$00,$00,$00,$00,$00
	$F9D2               .byte $00,$00,$00,$00,$00,$00,$00,$00,$00,$00,$00,$00,$00,$00,$00,$00
	$F9E2               .byte $00,$00,$00,$00,$00,$00,$00,$00,$00,$00,$00,$00,$00,$00,$00,$00
	$F9F2               .byte $00,$00,$00,$00,$00,$00,$00,$00,$00,$00,$00,$00,$00,$00,$00,$00
	$FA02               .byte $00,$00,$00,$00,$00,$00,$00,$00,$00,$00,$00,$00,$00,$00,$00,$00
	$FA12               .byte $00,$00,$00,$00,$00,$00,$00,$00,$00,$00,$00,$00,$00,$00,$00,$00
	$FA22               .byte $00,$00,$00,$00,$00,$00,$00,$00,$00,$00,$00,$00,$00,$00,$00,$00
	$FA32               .byte $00,$00,$00,$00,$00,$00,$00,$00,$00,$00,$00,$00,$00,$00,$00,$00
	$FA42               .byte $00,$00,$00,$00,$00,$00,$00,$00,$00,$00,$00,$00,$00,$00,$00,$00
	$FA52               .byte $00,$00,$00,$00,$00,$00,$00,$00,$00,$00,$00,$00,$00,$00,$00,$00
	$FA62               .byte $00,$00,$00,$00,$00,$00,$00,$00,$00,$00,$00,$00,$00,$00,$00,$00
	$FA72               .byte $00,$00,$00,$00,$00,$00,$00,$00,$00,$00,$00,$00,$00,$00,$00,$00
	$FA82               .byte $00,$00,$00,$00,$00,$00,$00,$00,$00,$00,$00,$00,$00,$00,$00,$00
	$FA92               .byte $00,$00,$00,$00,$00,$00,$00,$00,$00,$00,$00,$00,$00,$00,$00,$00
	$FAA2               .byte $00,$00,$00,$00,$00,$00,$00,$00,$00,$00,$00,$00,$00,$00,$00,$00
	$FAB2               .byte $00,$00,$00,$00,$00,$00,$00,$00,$00,$00,$00,$00,$00,$00,$00,$00
	$FAC2               .byte $00,$00,$00,$00,$00,$00,$00,$00,$00,$00,$00,$00,$00,$00,$00,$00
	$FAD2               .byte $00,$00,$00,$00,$00,$00,$00,$00,$00,$00,$00,$00,$00,$00,$00,$00
	$FAE2               .byte $00,$00,$00,$00,$00,$00,$00,$00,$00,$00,$00,$00,$00,$00,$00,$00
	$FAF2               .byte $00,$00,$00,$00,$00,$00,$00,$00,$00,$00,$00,$00,$00,$00,$00,$00
	$FB02               .byte $00,$00,$00,$00,$00,$00,$00,$00,$00,$00,$00,$00,$00,$00,$00,$00
	$FB12               .byte $00,$00,$00,$00,$00,$00,$00,$00,$00,$00,$00,$00,$00,$00,$00,$00
	$FB22               .byte $00,$00,$00,$00,$00,$00,$00,$00,$00,$00,$00,$00,$00,$00,$00,$00
	$FB32               .byte $00,$00,$00,$00,$00,$00,$00,$00,$00,$00,$00,$00,$00,$00,$00,$00
	$FB42               .byte $00,$00,$00,$00,$00,$00,$00,$00,$00,$00,$00,$00,$00,$00,$00,$00
	$FB52               .byte $00,$00,$00,$00,$00,$00,$00,$00,$00,$00,$00,$00,$00,$00,$00,$00
	$FB62               .byte $00,$00,$00,$00,$00,$00,$00,$00,$00,$00,$00,$00,$00,$00,$00,$00
	$FB72               .byte $00,$00,$00,$00,$00,$00,$00,$00,$00,$00,$00,$00,$00,$00,$00,$00
	$FB82               .byte $00,$00,$00,$00,$00,$00,$00,$00,$00,$00,$00,$00,$00,$00,$00,$00
	$FB92               .byte $00,$00,$00,$00,$00,$00,$00,$00,$00,$00,$00,$00,$00,$00,$00,$00
	$FBA2               .byte $00,$00,$00,$00,$00,$00,$00,$00,$00,$00,$00,$00,$00,$00,$00,$00
	$FBB2               .byte $00,$00,$00,$00,$00,$00,$00,$00,$00,$00,$00,$00,$00,$00,$00,$00
	$FBC2               .byte $00,$00,$00,$00,$00,$00,$00,$00,$00,$00,$00,$00,$00,$00,$00,$00
	$FBD2               .byte $00,$00,$00,$00,$00,$00,$00,$00,$00,$00,$00,$00,$00,$00,$00,$00
	$FBE2               .byte $00,$00,$00,$00,$00,$00,$00,$00,$00,$00,$00,$00,$00,$00,$00,$00
	$FBF2               .byte $00,$00,$00,$00,$00,$00,$00,$00,$00,$00,$00,$00,$00,$00,$00,$00
	$FC02               .byte $00,$00,$00,$00,$00,$00,$00,$00,$00,$00,$00,$00,$00,$00,$00,$00
	$FC12               .byte $00,$00,$00,$00,$00,$00,$00,$00,$00,$00,$00,$00,$00,$00,$00,$00
	$FC22               .byte $00,$00,$00,$00,$00,$00,$00,$00,$00,$00,$00,$00,$00,$00,$00,$00
	$FC32               .byte $00,$00,$00,$00,$00,$00,$00,$00,$00,$00,$00,$00,$00,$00,$00,$00
	$FC42               .byte $00,$00,$00,$00,$00,$00,$00,$00,$00,$00,$00,$00,$00,$00,$00,$00
	$FC52               .byte $00,$00,$00,$00,$00,$00,$00,$00,$00,$00,$00,$00,$00,$00,$00,$00
	$FC62               .byte $00,$00,$00,$00,$00,$00,$00,$00,$00,$00,$00,$00,$00,$00,$00,$00
	$FC72               .byte $00,$00,$00,$00,$00,$00,$00,$00,$00,$00,$00,$00,$00,$00,$00,$00
	$FC82               .byte $00,$00,$00,$00,$00,$00,$00,$00,$00,$00,$00,$00,$00,$00,$00,$00
	$FC92               .byte $00,$00,$00,$00,$00,$00,$00,$00,$00,$00,$00,$00,$00,$00,$00,$00
	$FCA2               .byte $00,$00,$00,$00,$00,$00,$00,$00,$00,$00,$00,$00,$00,$00,$00,$00
	$FCB2               .byte $00,$00,$00,$00,$00,$00,$00,$00,$00,$00,$00,$00,$00,$00,$00,$00
	$FCC2               .byte $00,$00,$00,$00,$00,$00,$00,$00,$00,$00,$00,$00,$00,$00,$00,$00
	$FCD2               .byte $00,$00,$00,$00,$00,$00,$00,$00,$00,$00,$00,$00,$00,$00,$00,$00
	$FCE2               .byte $00,$00,$00,$00,$00,$00,$00,$00,$00,$00,$00,$00,$00,$00,$00,$00
	$FCF2               .byte $00,$00,$00,$00,$00,$00,$00,$00,$00,$00,$00,$00,$00,$00,$00,$00
	$FD02               .byte $00,$00,$00,$00,$00,$00,$00,$00,$00,$00,$00,$00,$00,$00,$00,$00
	$FD12               .byte $00,$00,$00,$00,$00,$00,$00,$00,$00,$00,$00,$00,$00,$00,$00,$00
	$FD22               .byte $00,$00,$00,$00,$00,$00,$00,$00,$00,$00,$00,$00,$00,$00,$00,$00
	$FD32               .byte $00,$00,$00,$00,$00,$00,$00,$00,$00,$00,$00,$00,$00,$00,$00,$00
	$FD42               .byte $00,$00,$00,$00,$00,$00,$00,$00,$00,$00,$00,$00,$00,$00,$00,$00
	$FD52               .byte $00,$00,$00,$00,$00,$00,$00,$00,$00,$00,$00,$00,$00,$00,$00,$00
	$FD62               .byte $00,$00,$00,$00,$00,$00,$00,$00,$00,$00,$00,$00,$00,$00,$00,$00
	$FD72               .byte $00,$00,$00,$00,$00,$00,$00,$00,$00,$00,$00,$00,$00,$00,$00,$00
	$FD82               .byte $00,$00,$00,$00,$00,$00,$00,$00,$00,$00,$00,$00,$00,$00,$00,$00
	$FD92               .byte $00,$00,$00,$00,$00,$00,$00,$00,$00,$00,$00,$00,$00,$00,$00,$00
	$FDA2               .byte $00,$00,$00,$00,$00,$00,$00,$00,$00,$00,$00,$00,$00,$00,$00,$00
	$FDB2               .byte $00,$00,$00,$00,$00,$00,$00,$00,$00,$00,$00,$00,$00,$00,$00,$00
	$FDC2               .byte $00,$00,$00,$00,$00,$00,$00,$00,$00,$00,$00,$00,$00,$00,$00,$00
	$FDD2               .byte $00,$00,$00,$00,$00,$00,$00,$00,$00,$00,$00,$00,$00,$00,$00,$00
	$FDE2               .byte $00,$00,$00,$00,$00,$00,$00,$00,$00,$00,$00,$00,$00,$00,$00,$00
	$FDF2               .byte $00,$00,$00,$00,$00,$00,$00,$00,$00,$00,$00,$00,$00,$00,$00,$00
	$FE02               .byte $00,$00,$00,$00,$00,$00,$00,$00,$00,$00,$00,$00,$00,$00,$00,$00
	$FE12               .byte $00,$00,$00,$00,$00,$00,$00,$00,$00,$00,$00,$00,$00,$00,$00,$00
	$FE22               .byte $00,$00,$00,$00,$00,$00,$00,$00,$00,$00,$00,$00,$00,$00,$00,$00
	$FE32               .byte $00,$00,$00,$00,$00,$00,$00,$00,$00,$00,$00,$00,$00,$00,$00,$00
	$FE42               .byte $00,$00,$00,$00,$00,$00,$00,$00,$00,$00,$00,$00,$00,$00,$00,$00
	$FE52               .byte $00,$00,$00,$00,$00,$00,$00,$00,$00,$00,$00,$00,$00,$00,$00,$00
	$FE62               .byte $00,$00,$00,$00,$00,$00,$00,$00,$00,$00,$00,$00,$00,$00,$00,$00
	$FE72               .byte $00,$00,$00,$00,$00,$00,$00,$00,$00,$00,$00,$00,$00,$00,$00,$00
	$FE82               .byte $00,$00,$00,$00,$00,$00,$00,$00,$00,$00,$00,$00,$00,$00,$00,$00
	$FE92               .byte $00,$00,$00,$00,$00,$00,$00,$00,$00,$00,$00,$00,$00,$00,$00,$00
	$FEA2               .byte $00,$00,$00,$00,$00,$00,$00,$00,$00,$00,$00,$00,$00,$00,$00,$00
	$FEB2               .byte $00,$00,$00,$00,$00,$00,$00,$00,$00,$00,$00,$00,$00,$00,$00,$00
	$FEC2               .byte $00,$00,$00,$00,$00,$00,$00,$00,$00,$00,$00,$00,$00,$00,$00,$00
	$FED2               .byte $00,$00,$00,$00,$00,$00,$00,$00,$00,$00,$00,$00,$00,$00,$00,$00
	$FEE2               .byte $00,$00,$00,$00,$00,$00,$00,$00,$00,$00,$00,$00,$00,$00,$00,$00
	$FEF2               .byte $00,$00,$00,$00,$00,$00,$00,$00,$00,$00,$00,$00,$00,$00,$00,$00
	$FF02               .byte $00,$00,$00,$00,$00,$00,$00,$00,$00,$00,$00,$00,$00,$00,$00,$00
	$FF12               .byte $00,$00,$00,$00,$00,$00,$00,$00,$00,$00,$00,$00,$00,$00,$00,$00
	$FF22               .byte $00,$00,$00,$00,$00,$00,$00,$00,$00,$00,$00,$00,$00,$00,$00,$00
	$FF32               .byte $00,$00,$00,$00,$00,$00,$00,$00,$00,$00,$00,$00,$00,$00,$00,$00
	$FF42               .byte $00,$00,$00,$00,$00,$00,$00,$00,$00,$00,$00,$00,$00,$00,$00,$00
	$FF52               .byte $00,$00,$00,$00,$00,$00,$00,$00,$00,$00,$00,$00,$00,$00,$00,$00
	$FF62               .byte $00,$00,$00,$00,$00,$00,$00,$00,$00,$00,$00,$00,$00,$00,$00,$00
	$FF72               .byte $00,$00,$00,$00,$00,$00,$00,$00,$00,$00,$00,$00,$00,$00,$00,$00
	$FF82               .byte $00,$00,$00,$00,$00,$00,$00,$00,$00,$00,$00,$00,$00,$00,$00,$00
	$FF92               .byte $00,$00,$00,$00,$00,$00,$00,$00,$00,$00,$00,$00,$00,$00,$00,$00
	$FFA2               .byte $00,$00,$00,$00,$00,$00,$00,$00,$00,$00,$00,$00,$00,$00,$00,$00
	$FFB2               .byte $00,$00,$00,$00,$00,$00,$00,$00,$00,$00,$00,$00,$00,$00,$00,$00
	$FFC2               .byte $00,$00,$00,$00,$00,$00,$00,$00,$00,$00,$00,$00,$00,$00,$00,$00
	$FFD2               .byte $00,$00,$00,$00,$00,$00,$00,$00,$00,$00,$00,$00,$00,$00,$00,$00
	$FFE2               .byte $00,$00,$00,$00,$00,$00,$00,$00,$00,$00,$00,$00,$00,$00,$00,$00
	$FFF2               .byte $00,$00,$00,$00,$00,$00,$00,$00,$18,$E6,$7F,$E5,$22,$E6
