ROM is 16384 bytes, 2 8k-pages, mapper 0
;Mappings:
; Page 4: 0
; Page 5: 2000
; Page 6: 0
; Page 7: 2000
;Vectors:
; NMI:   C5AF
; Reset: C004
; IRQ:   C5F4
; Indirect jump at romptr=$107, JumpPointer=$0200
; UNRESOLVED indirect jump at $107!
; Indirect jump at romptr=$1BB, JumpPointer=$0200
; UNRESOLVED indirect jump at $1BB!
	$C000               .byte $4C,$F5,$C5,$60
_Reset	$C004  78:          sei 			/* A(un)X(un)Y(un)MAP[00:[00],01:[01],00:[00],01:[01],mmc:(un)]s(0)Z*S**/
	$C005  D8:          cld 			/* A(un)X(un)Y(un)MAP[00:[00],01:[01],00:[00],01:[01],mmc:(un)]s(0)Z*S**/
	$C006  A2 FF:       ldx #$FF			/* A(un)X(FF)<6>Y(un)MAP[00:[00],01:[01],00:[00],01:[01],mmc:(un)]s(0)Z0S1*/
	$C008  9A:          txs 			/* A(un)X(FF)<6>Y(un)MAP[00:[00],01:[01],00:[00],01:[01],mmc:(un)]s(0)Z?S?*/
-	$C009  AD 02 20:    lda $2002			/* A(??)X(FF)<6>Y(un)MAP[00:[00],01:[01],00:[00],01:[01],mmc:(un)]s(0)Z?S?*/
	$C00C  10 FB:       bpl -		; $C009			/* A(??)X(FF)<6>Y(un)MAP[00:[00],01:[01],00:[00],01:[01],mmc:(un)]s(0)Z?S?*/
-	$C00E  AD 02 20:    lda $2002			/* A(??)X(FF)<6>Y(un)MAP[00:[00],01:[01],00:[00],01:[01],mmc:(un)]s(0)Z?S?*/
	$C011  10 FB:       bpl -		; $C00E			/* A(??)X(FF)<6>Y(un)MAP[00:[00],01:[01],00:[00],01:[01],mmc:(un)]s(0)Z?S?*/
	$C013  A9 00:       lda #$00			/* A(00)<13>X(FF)<6>Y(un)MAP[00:[00],01:[01],00:[00],01:[01],mmc:(un)]s(0)Z1S0*/
	$C015  8D 00 20:    sta $2000			/* A(00)<13>X(FF)<6>Y(un)MAP[00:[00],01:[01],00:[00],01:[01],mmc:(un)]s(0)Z1S0*/
	$C018  8D 01 20:    sta $2001			/* A(00)<13>X(FF)<6>Y(un)MAP[00:[00],01:[01],00:[00],01:[01],mmc:(un)]s(0)Z1S0*/
	$C01B  8D 05 20:    sta $2005			/* A(00)<13>X(FF)<6>Y(un)MAP[00:[00],01:[01],00:[00],01:[01],mmc:(un)]s(0)Z1S0*/
	$C01E  8D 05 20:    sta $2005			/* A(00)<13>X(FF)<6>Y(un)MAP[00:[00],01:[01],00:[00],01:[01],mmc:(un)]s(0)Z1S0*/
	$C021  AD 02 20:    lda $2002			/* A(??)X(FF)<6>Y(un)MAP[00:[00],01:[01],00:[00],01:[01],mmc:(un)]s(0)Z?S?*/
	$C024  A2 20:       ldx #$20			/* A(??)X(20)<24>Y(un)MAP[00:[00],01:[01],00:[00],01:[01],mmc:(un)]s(0)Z0S0*/
	$C026  8E 06 20:    stx $2006			/* A(??)X(20)<24>Y(un)MAP[00:[00],01:[01],00:[00],01:[01],mmc:(un)]s(0)Z0S0*/
	$C029  A2 00:       ldx #$00			/* A(??)X(00)<29>Y(un)MAP[00:[00],01:[01],00:[00],01:[01],mmc:(un)]s(0)Z1S0*/
	$C02B  8E 06 20:    stx $2006			/* A(??)X(00)<29>Y(un)MAP[00:[00],01:[01],00:[00],01:[01],mmc:(un)]s(0)Z1S0*/
	$C02E  A2 00:       ldx #$00			/* A(??)X(00)<2E>Y(un)MAP[00:[00],01:[01],00:[00],01:[01],mmc:(un)]s(0)Z1S0*/
	$C030  A0 0F:       ldy #$0F			/* A(??)X(00)<2E>Y(0F)<30>MAP[00:[00],01:[01],00:[00],01:[01],mmc:(un)]s(0)Z0S0*/
	$C032  A9 00:       lda #$00			/* A(00)<32>X(00)<2E>Y(0F)<30>MAP[00:[00],01:[01],00:[00],01:[01],mmc:(un)]s(0)Z1S0*/
-	$C034  8D 07 20:    sta $2007			/* A(00)<32>X(00)<2E>Y(0F)<30>MAP[00:[00],01:[01],00:[00],01:[01],mmc:(un)]s(0)Z?S?*/
	$C037  CA:          dex 			/* A(00)<32>X(??)Y(0F)<30>MAP[00:[00],01:[01],00:[00],01:[01],mmc:(un)]s(0)Z?S?*/
	$C038  D0 FA:       bne -		; $C034			/* A(00)<32>X(??)Y(0F)<30>MAP[00:[00],01:[01],00:[00],01:[01],mmc:(un)]s(0)Z?S?*/
	$C03A  88:          dey 			/* A(??)X(??)Y(??)MAP[00:[00],01:[01],00:[00],01:[01],mmc:(un)]s(0)Z?S?*/
	$C03B  D0 F7:       bne -		; $C034			/* A(??)X(??)Y(??)MAP[00:[00],01:[01],00:[00],01:[01],mmc:(un)]s(0)Z?S?*/
	$C03D  A9 3F:       lda #$3F			/* A(3F)<3D>X(??)Y(??)MAP[00:[00],01:[01],00:[00],01:[01],mmc:(un)]s(0)Z0S0*/
	$C03F  8D 06 20:    sta $2006			/* A(3F)<3D>X(??)Y(??)MAP[00:[00],01:[01],00:[00],01:[01],mmc:(un)]s(0)Z0S0*/
	$C042  A9 00:       lda #$00			/* A(00)<42>X(??)Y(??)MAP[00:[00],01:[01],00:[00],01:[01],mmc:(un)]s(0)Z1S0*/
	$C044  8D 06 20:    sta $2006			/* A(00)<42>X(??)Y(??)MAP[00:[00],01:[01],00:[00],01:[01],mmc:(un)]s(0)Z1S0*/
	$C047  A2 00:       ldx #$00			/* A(00)<42>X(00)<47>Y(??)MAP[00:[00],01:[01],00:[00],01:[01],mmc:(un)]s(0)Z1S0*/
-	$C049  BD 78 FF:    lda _data_3F78_indexed,x			/* A$3F78,x<49>X(00)<47>Y(??)MAP[00:[00],01:[01],00:[00],01:[01],mmc:(un)]s(0)Z?S?*/
	$C04C  8D 07 20:    sta $2007			/* A$3F78,x<49>X(00)<47>Y(??)MAP[00:[00],01:[01],00:[00],01:[01],mmc:(un)]s(0)Z?S?*/
	$C04F  E8:          inx 			/* A$3F78,x<49>X(??)Y(??)MAP[00:[00],01:[01],00:[00],01:[01],mmc:(un)]s(0)Z?S?*/
	$C050  E0 20:       cpx #$20			/* A$3F78,x<49>X(??)Y(??)MAP[00:[00],01:[01],00:[00],01:[01],mmc:(un)]s(0)Z?S?*/
	$C052  D0 F5:       bne -		; $C049			/* A$3F78,x<49>X(??)Y(??)MAP[00:[00],01:[01],00:[00],01:[01],mmc:(un)]s(0)Z?S?*/
	$C054  A9 C0:       lda #$C0			/* A(C0)<54>X(??)Y(??)MAP[00:[00],01:[01],00:[00],01:[01],mmc:(un)]s(0)Z0S1*/
	$C056  8D 17 40:    sta $4017			/* A(C0)<54>X(??)Y(??)MAP[00:[00],01:[01],00:[00],01:[01],mmc:(un)]s(0)Z0S1*/
	$C059  A9 00:       lda #$00			/* A(00)<59>X(??)Y(??)MAP[00:[00],01:[01],00:[00],01:[01],mmc:(un)]s(0)Z1S0*/
	$C05B  8D 15 40:    sta $4015			/* A(00)<59>X(??)Y(??)MAP[00:[00],01:[01],00:[00],01:[01],mmc:(un)]s(0)Z1S0*/
	$C05E  A9 78:       lda #<_data_3B78			/* A(78)<5E>X(??)Y(??)MAP[00:[00],01:[01],00:[00],01:[01],mmc:(un)]s(0)Z0S0*/
	$C060  85 D0:       sta $D0			/* A(78)<5E>X(??)Y(??)MAP[00:[00],01:[01],00:[00],01:[01],mmc:(un)]s(0)Z0S0*/
	$C062  A9 FB:       lda #>_data_3B78			/* A(FB)<62>X(??)Y(??)MAP[00:[00],01:[01],00:[00],01:[01],mmc:(un)]s(0)Z0S1*/
	$C064  85 D1:       sta $D1			/* A(FB)<62>X(??)Y(??)MAP[00:[00],01:[01],00:[00],01:[01],mmc:(un)]s(0)Z0S1*/
	$C066  A9 7F:       lda #$7F			/* A(7F)<66>X(??)Y(??)MAP[00:[00],01:[01],00:[00],01:[01],mmc:(un)]s(0)Z0S0*/
	$C068  85 D3:       sta $D3			/* A(7F)<66>X(??)Y(??)MAP[00:[00],01:[01],00:[00],01:[01],mmc:(un)]s(0)Z0S0*/
	$C06A  A0 00:       ldy #$00			/* A(7F)<66>X(??)Y(00)<6A>MAP[00:[00],01:[01],00:[00],01:[01],mmc:(un)]s(0)Z1S0*/
	$C06C  8C 06 20:    sty $2006			/* A(7F)<66>X(??)Y(00)<6A>MAP[00:[00],01:[01],00:[00],01:[01],mmc:(un)]s(0)Z1S0*/
	$C06F  8C 06 20:    sty $2006			/* A(7F)<66>X(??)Y(00)<6A>MAP[00:[00],01:[01],00:[00],01:[01],mmc:(un)]s(0)Z1S0*/
---	$C072  A9 00:       lda #$00			/* A(??)X(0F)<138>Y(00)<6A>MAP[00:[00],01:[01],00:[00],01:[01],mmc:(un)]s(0)Z?S?*/
	$C074  85 D7:       sta $D7			/* A(00)<72>X(??)Y(00)<6A>MAP[00:[00],01:[01],00:[00],01:[01],mmc:(un)]s(0)Z1S0*/
	$C076  A9 07:       lda #<_data_0307			/* A(07)<76>X(??)Y(00)<6A>MAP[00:[00],01:[01],00:[00],01:[01],mmc:(un)]s(0)Z0S0*/
	$C078  85 D0:       sta $D0			/* A(07)<76>X(??)Y(00)<6A>MAP[00:[00],01:[01],00:[00],01:[01],mmc:(un)]s(0)Z0S0*/
	$C07A  A9 C3:       lda #>_data_0307			/* A(C3)<7A>X(??)Y(00)<6A>MAP[00:[00],01:[01],00:[00],01:[01],mmc:(un)]s(0)Z0S1*/
	$C07C  85 D1:       sta $D1			/* A(C3)<7A>X(??)Y(00)<6A>MAP[00:[00],01:[01],00:[00],01:[01],mmc:(un)]s(0)Z0S1*/
	$C07E  20 A7 C2:    jsr _func_02A7			/* A(??)X(??)Y(??)MAP[00:(??),01:(??),00:(??),01:(??),mmc:(un)]s(0)Z?S?*/
--	$C081  20 8D C2:    jsr _func_028D			/* A(??)X(12)<84>Y(00)<6A>MAP[00:[00],01:[01],00:[00],01:[01],mmc:(un)]s(0)Z?S?*/
	$C084  A2 12:       ldx #$12			/* A(C3)<7A>X(12)<84>Y(00)<6A>MAP[00:[00],01:[01],00:[00],01:[01],mmc:(un)]s(0)Z0S0*/
	$C086  20 61 C2:    jsr _func_0261			/* A(??)X(??)Y(??)MAP[00:(??),01:(??),00:(??),01:(??),mmc:(un)]s(0)Z?S?*/
	$C089  A5 D5:       lda $D5			/* A(??)X(12)<84>Y(00)<6A>MAP[00:[00],01:[01],00:[00],01:[01],mmc:(un)]s(0)Z?S?*/
	$C08B  4A:          lsr a			/* A(??)X(12)<84>Y(00)<6A>MAP[00:[00],01:[01],00:[00],01:[01],mmc:(un)]s(0)Z?S?*/
	$C08C  4A:          lsr a			/* A(??)X(12)<84>Y(00)<6A>MAP[00:[00],01:[01],00:[00],01:[01],mmc:(un)]s(0)Z?S?*/
	$C08D  4A:          lsr a			/* A(??)X(12)<84>Y(00)<6A>MAP[00:[00],01:[01],00:[00],01:[01],mmc:(un)]s(0)Z?S?*/
	$C08E  B0 1C:       bcs +++		; $C0AC			/* A(??)X(12)<84>Y(00)<6A>MAP[00:[00],01:[01],00:[00],01:[01],mmc:(un)]s(0)Z?S?*/
	$C090  4A:          lsr a			/* A(??)X(12)<84>Y(00)<6A>MAP[00:[00],01:[01],00:[00],01:[01],mmc:(un)]s(0)Z?S?*/
	$C091  B0 0C:       bcs ++		; $C09F			/* A(??)X(12)<84>Y(00)<6A>MAP[00:[00],01:[01],00:[00],01:[01],mmc:(un)]s(0)Z?S?*/
	$C093  4A:          lsr a			/* A(??)X(12)<84>Y(00)<6A>MAP[00:[00],01:[01],00:[00],01:[01],mmc:(un)]s(0)Z?S?*/
	$C094  B0 27:       bcs ++++		; $C0BD			/* A(??)X(12)<84>Y(00)<6A>MAP[00:[00],01:[01],00:[00],01:[01],mmc:(un)]s(0)Z?S?*/
	$C096  4A:          lsr a			/* A(??)X(12)<84>Y(00)<6A>MAP[00:[00],01:[01],00:[00],01:[01],mmc:(un)]s(0)Z?S?*/
	$C097  B0 03:       bcs +		; $C09C -> _loc_0126			/* A(??)X(12)<84>Y(00)<6A>MAP[00:[00],01:[01],00:[00],01:[01],mmc:(un)]s(0)Z?S?*/
	$C099  4C 81 C0:    jmp --		; $C081			/* A(??)X(12)<84>Y(00)<6A>MAP[00:[00],01:[01],00:[00],01:[01],mmc:(un)]s(0)Z?S?*/(barrier)

+	$C09C  4C 26 C1:    jmp _loc_0126			/* A(??)X(12)<84>Y(00)<6A>MAP[00:[00],01:[01],00:[00],01:[01],mmc:(un)]s(0)Z?S?*/(barrier)

++	$C09F  20 6F C6:    jsr _func_066F			/* A(??)X(12)<84>Y(00)<6A>MAP[00:[00],01:[01],00:[00],01:[01],mmc:(un)]s(0)Z?S?*/
	$C0A2  C6 D7:       dec $D7			/* A(??)X(12)<84>Y(00)<6A>MAP[00:[00],01:[01],00:[00],01:[01],mmc:(un)]s(0)Z?S?*/
	$C0A4  10 DB:       bpl --		; $C081			/* A(??)X(12)<84>Y(00)<6A>MAP[00:[00],01:[01],00:[00],01:[01],mmc:(un)]s(0)Z?S?*/
	$C0A6  A9 0D:       lda #$0D			/* A(0D)<A6>X(12)<84>Y(00)<6A>MAP[00:[00],01:[01],00:[00],01:[01],mmc:(un)]s(0)Z0S0*/
	$C0A8  85 D7:       sta $D7			/* A(0D)<A6>X(12)<84>Y(00)<6A>MAP[00:[00],01:[01],00:[00],01:[01],mmc:(un)]s(0)Z0S0*/
	$C0AA  D0 D5:       bne --		; $C081			/* A(0D)<A6>X(12)<84>Y(00)<6A>MAP[00:[00],01:[01],00:[00],01:[01],mmc:(un)]s(0)Z0S0*/(barrier)

+++	$C0AC  20 6F C6:    jsr _func_066F			/* A(0D)<A6>X(12)<84>Y(00)<6A>MAP[00:[00],01:[01],00:[00],01:[01],mmc:(un)]s(0)Z0S0*/
	$C0AF  E6 D7:       inc $D7			/* A(??)X(12)<84>Y(00)<6A>MAP[00:[00],01:[01],00:[00],01:[01],mmc:(un)]s(0)Z?S?*/
	$C0B1  A5 D7:       lda $D7			/* A(??)X(12)<84>Y(00)<6A>MAP[00:[00],01:[01],00:[00],01:[01],mmc:(un)]s(0)Z?S?*/
	$C0B3  C9 0E:       cmp #$0E			/* A(??)X(12)<84>Y(00)<6A>MAP[00:[00],01:[01],00:[00],01:[01],mmc:(un)]s(0)Z?S?*/
	$C0B5  90 CA:       bcc --		; $C081			/* A(??)X(12)<84>Y(00)<6A>MAP[00:[00],01:[01],00:[00],01:[01],mmc:(un)]s(0)Z?S?*/
	$C0B7  A9 00:       lda #$00			/* A(00)<B7>X(12)<84>Y(00)<6A>MAP[00:[00],01:[01],00:[00],01:[01],mmc:(un)]s(0)Z1S0*/
	$C0B9  85 D7:       sta $D7			/* A(00)<B7>X(12)<84>Y(00)<6A>MAP[00:[00],01:[01],00:[00],01:[01],mmc:(un)]s(0)Z1S0*/
	$C0BB  F0 C4:       beq --		; $C081			/* A(00)<B7>X(12)<84>Y(00)<6A>MAP[00:[00],01:[01],00:[00],01:[01],mmc:(un)]s(0)Z1S0*/(barrier)

++++	$C0BD  20 89 C6:    jsr _func_0689			/* A(??)X(??)Y(??)MAP[00:(??),01:(??),00:(??),01:(??),mmc:(un)]s(0)Z?S?*/
	$C0C0  A5 D7:       lda $D7			/* A(??)X(12)<84>Y(00)<6A>MAP[00:[00],01:[01],00:[00],01:[01],mmc:(un)]s(0)Z?S?*/
	$C0C2  F0 06:       beq +		; $C0CA			/* A(??)X(12)<84>Y(00)<6A>MAP[00:[00],01:[01],00:[00],01:[01],mmc:(un)]s(0)Z?S?*/
	$C0C4  20 ED C0:    jsr _func_00ED			/* A(??)X(??)Y(??)MAP[00:(??),01:(??),00:(??),01:(??),mmc:(un)]s(0)Z?S?*/
	$C0C7  4C 81 C0:    jmp --		; $C081			/* A(??)X(12)<84>Y(00)<6A>MAP[00:[00],01:[01],00:[00],01:[01],mmc:(un)]s(0)Z?S?*/(barrier)

+	$C0CA  A9 00:       lda #$00			/* A(??)X(12)<84>Y(00)<6A>MAP[00:[00],01:[01],00:[00],01:[01],mmc:(un)]s(0)Z?S?*/
	$C0CC  85 D8:       sta $D8			/* A(00)<CA>X(12)<84>Y(00)<6A>MAP[00:[00],01:[01],00:[00],01:[01],mmc:(un)]s(0)Z1S0*/
	$C0CE  E6 D7:       inc $D7			/* A(00)<CA>X(12)<84>Y(00)<6A>MAP[00:[00],01:[01],00:[00],01:[01],mmc:(un)]s(0)Z?S?*/
-	$C0D0  20 ED C0:    jsr _func_00ED			/* A(??)X(12)<84>Y(00)<6A>MAP[00:[00],01:[01],00:[00],01:[01],mmc:(un)]s(0)Z?S?*/
	$C0D3  E6 D7:       inc $D7			/* A(00)<CA>X(12)<84>Y(00)<6A>MAP[00:[00],01:[01],00:[00],01:[01],mmc:(un)]s(0)Z?S?*/
	$C0D5  A5 D7:       lda $D7			/* A(??)X(12)<84>Y(00)<6A>MAP[00:[00],01:[01],00:[00],01:[01],mmc:(un)]s(0)Z?S?*/
	$C0D7  C9 0E:       cmp #$0E			/* A(??)X(12)<84>Y(00)<6A>MAP[00:[00],01:[01],00:[00],01:[01],mmc:(un)]s(0)Z?S?*/
	$C0D9  D0 F5:       bne -		; $C0D0			/* A(??)X(12)<84>Y(00)<6A>MAP[00:[00],01:[01],00:[00],01:[01],mmc:(un)]s(0)Z?S?*/
	$C0DB  A9 00:       lda #$00			/* A(00)<DB>X(12)<84>Y(00)<6A>MAP[00:[00],01:[01],00:[00],01:[01],mmc:(un)]s(0)Z1S0*/
	$C0DD  85 D7:       sta $D7			/* A(00)<DB>X(12)<84>Y(00)<6A>MAP[00:[00],01:[01],00:[00],01:[01],mmc:(un)]s(0)Z1S0*/
	$C0DF  A5 D8:       lda $D8			/* A(??)X(12)<84>Y(00)<6A>MAP[00:[00],01:[01],00:[00],01:[01],mmc:(un)]s(0)Z?S?*/
	$C0E1  F0 02:       beq +		; $C0E5			/* A(??)X(12)<84>Y(00)<6A>MAP[00:[00],01:[01],00:[00],01:[01],mmc:(un)]s(0)Z?S?*/
	$C0E3  A9 FF:       lda #$FF			/* A(FF)<E3>X(12)<84>Y(00)<6A>MAP[00:[00],01:[01],00:[00],01:[01],mmc:(un)]s(0)Z0S1*/
+	$C0E5  85 00:       sta $00			/* A(FF)<E3>X(12)<84>Y(00)<6A>MAP[00:[00],01:[01],00:[00],01:[01],mmc:(un)]s(0)Z0S1*/
	$C0E7  20 ED C1:    jsr _func_01ED			/* A(??)X(??)Y(??)MAP[00:(??),01:(??),00:(??),01:(??),mmc:(un)]s(0)Z?S?*/
	$C0EA  4C 81 C0:    jmp --		; $C081			/* A(??)X(12)<84>Y(00)<6A>MAP[00:[00],01:[01],00:[00],01:[01],mmc:(un)]s(0)Z?S?*/(barrier)
;------------------------------------------
_func_00ED
	$C0ED  A5 D7:       lda $D7			/* A(??)X(12)<84>Y(00)<6A>MAP[00:[00],01:[01],00:[00],01:[01],mmc:(un)]s(0)Z?S?*/
	$C0EF  0A:          asl a			/* A(??)X(12)<84>Y(00)<6A>MAP[00:[00],01:[01],00:[00],01:[01],mmc:(un)]s(0)Z?S?*/
	$C0F0  AA:          tax 			/* A(??)X(??)Y(00)<6A>MAP[00:[00],01:[01],00:[00],01:[01],mmc:(un)]s(0)Z?S?*/
	$C0F1  BD 0A C1:    lda _data_010A_indexed,x			/* A$010A,x<F1>X(??)Y(00)<6A>MAP[00:[00],01:[01],00:[00],01:[01],mmc:(un)]s(0)Z?S?*/
	$C0F4  8D 00 02:    sta $0200			/* A$010A,x<F1>X(??)Y(00)<6A>MAP[00:[00],01:[01],00:[00],01:[01],mmc:(un)]s(0)Z?S?*/
	$C0F7  BD 0B C1:    lda _data_010B_indexed,x			/* A$010B,x<F7>X(??)Y(00)<6A>MAP[00:[00],01:[01],00:[00],01:[01],mmc:(un)]s(0)Z?S?*/
	$C0FA  8D 01 02:    sta $0201			/* A$010B,x<F7>X(??)Y(00)<6A>MAP[00:[00],01:[01],00:[00],01:[01],mmc:(un)]s(0)Z?S?*/
	$C0FD  A9 C1:       lda #>_data_01DE			/* A(C1)<FD>X(??)Y(00)<6A>MAP[00:[00],01:[01],00:[00],01:[01],mmc:(un)]s(0)Z0S1*/
	$C0FF  48:          pha 			/* A(C1)<FD>X(??)Y(00)<6A>MAP[00:[00],01:[01],00:[00],01:[01],mmc:(un)]s(1)Z0S1*/
	$C100  A9 DE:        lda #<_data_01DE			/* A(DE)<100>X(??)Y(00)<6A>MAP[00:[00],01:[01],00:[00],01:[01],mmc:(un)]s(1)Z0S1*/
	$C102  48:           pha 			/* A(DE)<100>X(??)Y(00)<6A>MAP[00:[00],01:[01],00:[00],01:[01],mmc:(un)]s(2)Z0S1*/
	$C103  A9 00:         lda #$00			/* A(00)<103>X(??)Y(00)<6A>MAP[00:[00],01:[01],00:[00],01:[01],mmc:(un)]s(2)Z1S0*/
	$C105  85 00:         sta $00			/* A(00)<103>X(??)Y(00)<6A>MAP[00:[00],01:[01],00:[00],01:[01],mmc:(un)]s(2)Z1S0*/
	$C107  6C 00 02:      jmp ($0200)			/* A(00)<103>X(??)Y(00)<6A>MAP[00:[00],01:[01],00:[00],01:[01],mmc:(un)]s(2)Z1S0*/
_data_010A_indexed
	$C10A               .byte $2D
_data_010B_indexed
	$C10B               .byte $C7,$2D,$C7,$DB,$C7,$85,$C8,$DE,$CB,$F8,$CD,$EE,$CE,$A2,$CF,$74
	$C11B               .byte $D1,$FB,$D4,$D4,$C1,$4A,$DF,$B8,$DB,$AA,$E1
_loc_0126
	$C126  A9 00:       lda #$00			/* A(00)<126>X(12)<84>Y(00)<6A>MAP[00:[00],01:[01],00:[00],01:[01],mmc:(un)]s(0)Z1S0*/
	$C128  85 D7:       sta $D7			/* A(00)<126>X(12)<84>Y(00)<6A>MAP[00:[00],01:[01],00:[00],01:[01],mmc:(un)]s(0)Z1S0*/
	$C12A  A9 92:       lda #<_data_0492			/* A(92)<12A>X(12)<84>Y(00)<6A>MAP[00:[00],01:[01],00:[00],01:[01],mmc:(un)]s(0)Z0S1*/
	$C12C  85 D0:       sta $D0			/* A(92)<12A>X(12)<84>Y(00)<6A>MAP[00:[00],01:[01],00:[00],01:[01],mmc:(un)]s(0)Z0S1*/
	$C12E  A9 C4:       lda #>_data_0492			/* A(C4)<12E>X(12)<84>Y(00)<6A>MAP[00:[00],01:[01],00:[00],01:[01],mmc:(un)]s(0)Z0S1*/
	$C130  85 D1:       sta $D1			/* A(C4)<12E>X(12)<84>Y(00)<6A>MAP[00:[00],01:[01],00:[00],01:[01],mmc:(un)]s(0)Z0S1*/
	$C132  20 A7 C2:    jsr _func_02A7			/* A(??)X(??)Y(??)MAP[00:(??),01:(??),00:(??),01:(??),mmc:(un)]s(0)Z?S?*/
--	$C135  20 8D C2:    jsr _func_028D			/* A(??)X(0F)<138>Y(00)<6A>MAP[00:[00],01:[01],00:[00],01:[01],mmc:(un)]s(0)Z?S?*/
	$C138  A2 0F:       ldx #$0F			/* A(C4)<12E>X(0F)<138>Y(00)<6A>MAP[00:[00],01:[01],00:[00],01:[01],mmc:(un)]s(0)Z0S0*/
	$C13A  20 61 C2:    jsr _func_0261			/* A(??)X(??)Y(??)MAP[00:(??),01:(??),00:(??),01:(??),mmc:(un)]s(0)Z?S?*/
	$C13D  A5 D5:       lda $D5			/* A(??)X(0F)<138>Y(00)<6A>MAP[00:[00],01:[01],00:[00],01:[01],mmc:(un)]s(0)Z?S?*/
	$C13F  4A:          lsr a			/* A(??)X(0F)<138>Y(00)<6A>MAP[00:[00],01:[01],00:[00],01:[01],mmc:(un)]s(0)Z?S?*/
	$C140  4A:          lsr a			/* A(??)X(0F)<138>Y(00)<6A>MAP[00:[00],01:[01],00:[00],01:[01],mmc:(un)]s(0)Z?S?*/
	$C141  4A:          lsr a			/* A(??)X(0F)<138>Y(00)<6A>MAP[00:[00],01:[01],00:[00],01:[01],mmc:(un)]s(0)Z?S?*/
	$C142  B0 1C:       bcs +++		; $C160			/* A(??)X(0F)<138>Y(00)<6A>MAP[00:[00],01:[01],00:[00],01:[01],mmc:(un)]s(0)Z?S?*/
	$C144  4A:          lsr a			/* A(??)X(0F)<138>Y(00)<6A>MAP[00:[00],01:[01],00:[00],01:[01],mmc:(un)]s(0)Z?S?*/
	$C145  B0 0C:       bcs ++		; $C153			/* A(??)X(0F)<138>Y(00)<6A>MAP[00:[00],01:[01],00:[00],01:[01],mmc:(un)]s(0)Z?S?*/
	$C147  4A:          lsr a			/* A(??)X(0F)<138>Y(00)<6A>MAP[00:[00],01:[01],00:[00],01:[01],mmc:(un)]s(0)Z?S?*/
	$C148  B0 27:       bcs ++++		; $C171			/* A(??)X(0F)<138>Y(00)<6A>MAP[00:[00],01:[01],00:[00],01:[01],mmc:(un)]s(0)Z?S?*/
	$C14A  4A:          lsr a			/* A(??)X(0F)<138>Y(00)<6A>MAP[00:[00],01:[01],00:[00],01:[01],mmc:(un)]s(0)Z?S?*/
	$C14B  B0 03:       bcs +		; $C150 -> $C072			/* A(??)X(0F)<138>Y(00)<6A>MAP[00:[00],01:[01],00:[00],01:[01],mmc:(un)]s(0)Z?S?*/
	$C14D  4C 35 C1:    jmp --		; $C135			/* A(??)X(0F)<138>Y(00)<6A>MAP[00:[00],01:[01],00:[00],01:[01],mmc:(un)]s(0)Z?S?*/(barrier)

+	$C150  4C 72 C0:    jmp ---		; $C072			/* A(??)X(0F)<138>Y(00)<6A>MAP[00:[00],01:[01],00:[00],01:[01],mmc:(un)]s(0)Z?S?*/(barrier)

++	$C153  20 6F C6:    jsr _func_066F			/* A(??)X(0F)<138>Y(00)<6A>MAP[00:[00],01:[01],00:[00],01:[01],mmc:(un)]s(0)Z?S?*/
	$C156  C6 D7:       dec $D7			/* A(??)X(0F)<138>Y(00)<6A>MAP[00:[00],01:[01],00:[00],01:[01],mmc:(un)]s(0)Z?S?*/
	$C158  10 DB:       bpl --		; $C135			/* A(??)X(0F)<138>Y(00)<6A>MAP[00:[00],01:[01],00:[00],01:[01],mmc:(un)]s(0)Z?S?*/
	$C15A  A9 0A:       lda #$0A			/* A(0A)<15A>X(0F)<138>Y(00)<6A>MAP[00:[00],01:[01],00:[00],01:[01],mmc:(un)]s(0)Z0S0*/
	$C15C  85 D7:       sta $D7			/* A(0A)<15A>X(0F)<138>Y(00)<6A>MAP[00:[00],01:[01],00:[00],01:[01],mmc:(un)]s(0)Z0S0*/
	$C15E  D0 D5:       bne --		; $C135			/* A(0A)<15A>X(0F)<138>Y(00)<6A>MAP[00:[00],01:[01],00:[00],01:[01],mmc:(un)]s(0)Z0S0*/(barrier)

+++	$C160  20 6F C6:    jsr _func_066F			/* A(0A)<15A>X(0F)<138>Y(00)<6A>MAP[00:[00],01:[01],00:[00],01:[01],mmc:(un)]s(0)Z0S0*/
	$C163  E6 D7:       inc $D7			/* A(??)X(0F)<138>Y(00)<6A>MAP[00:[00],01:[01],00:[00],01:[01],mmc:(un)]s(0)Z?S?*/
	$C165  A5 D7:       lda $D7			/* A(??)X(0F)<138>Y(00)<6A>MAP[00:[00],01:[01],00:[00],01:[01],mmc:(un)]s(0)Z?S?*/
	$C167  C9 0B:       cmp #$0B			/* A(??)X(0F)<138>Y(00)<6A>MAP[00:[00],01:[01],00:[00],01:[01],mmc:(un)]s(0)Z?S?*/
	$C169  90 CA:       bcc --		; $C135			/* A(??)X(0F)<138>Y(00)<6A>MAP[00:[00],01:[01],00:[00],01:[01],mmc:(un)]s(0)Z?S?*/
	$C16B  A9 00:       lda #$00			/* A(00)<16B>X(0F)<138>Y(00)<6A>MAP[00:[00],01:[01],00:[00],01:[01],mmc:(un)]s(0)Z1S0*/
	$C16D  85 D7:       sta $D7			/* A(00)<16B>X(0F)<138>Y(00)<6A>MAP[00:[00],01:[01],00:[00],01:[01],mmc:(un)]s(0)Z1S0*/
	$C16F  F0 C4:       beq --		; $C135			/* A(00)<16B>X(0F)<138>Y(00)<6A>MAP[00:[00],01:[01],00:[00],01:[01],mmc:(un)]s(0)Z1S0*/(barrier)

++++	$C171  20 89 C6:    jsr _func_0689			/* A(??)X(??)Y(??)MAP[00:(??),01:(??),00:(??),01:(??),mmc:(un)]s(0)Z?S?*/
	$C174  A5 D7:       lda $D7			/* A(??)X(0F)<138>Y(00)<6A>MAP[00:[00],01:[01],00:[00],01:[01],mmc:(un)]s(0)Z?S?*/
	$C176  F0 06:       beq +		; $C17E			/* A(??)X(0F)<138>Y(00)<6A>MAP[00:[00],01:[01],00:[00],01:[01],mmc:(un)]s(0)Z?S?*/
	$C178  20 A1 C1:    jsr _func_01A1			/* A(??)X(??)Y(??)MAP[00:(??),01:(??),00:(??),01:(??),mmc:(un)]s(0)Z?S?*/
	$C17B  4C 35 C1:    jmp --		; $C135			/* A(??)X(0F)<138>Y(00)<6A>MAP[00:[00],01:[01],00:[00],01:[01],mmc:(un)]s(0)Z?S?*/(barrier)

+	$C17E  A9 00:       lda #$00			/* A(??)X(0F)<138>Y(00)<6A>MAP[00:[00],01:[01],00:[00],01:[01],mmc:(un)]s(0)Z?S?*/
	$C180  85 D8:       sta $D8			/* A(00)<17E>X(0F)<138>Y(00)<6A>MAP[00:[00],01:[01],00:[00],01:[01],mmc:(un)]s(0)Z1S0*/
	$C182  E6 D7:       inc $D7			/* A(00)<17E>X(0F)<138>Y(00)<6A>MAP[00:[00],01:[01],00:[00],01:[01],mmc:(un)]s(0)Z?S?*/
-	$C184  20 A1 C1:    jsr _func_01A1			/* A(??)X(0F)<138>Y(00)<6A>MAP[00:[00],01:[01],00:[00],01:[01],mmc:(un)]s(0)Z?S?*/
	$C187  E6 D7:       inc $D7			/* A(00)<17E>X(0F)<138>Y(00)<6A>MAP[00:[00],01:[01],00:[00],01:[01],mmc:(un)]s(0)Z?S?*/
	$C189  A5 D7:       lda $D7			/* A(??)X(0F)<138>Y(00)<6A>MAP[00:[00],01:[01],00:[00],01:[01],mmc:(un)]s(0)Z?S?*/
	$C18B  C9 0B:       cmp #$0B			/* A(??)X(0F)<138>Y(00)<6A>MAP[00:[00],01:[01],00:[00],01:[01],mmc:(un)]s(0)Z?S?*/
	$C18D  D0 F5:       bne -		; $C184			/* A(??)X(0F)<138>Y(00)<6A>MAP[00:[00],01:[01],00:[00],01:[01],mmc:(un)]s(0)Z?S?*/
	$C18F  A9 00:       lda #$00			/* A(00)<18F>X(0F)<138>Y(00)<6A>MAP[00:[00],01:[01],00:[00],01:[01],mmc:(un)]s(0)Z1S0*/
	$C191  85 D7:       sta $D7			/* A(00)<18F>X(0F)<138>Y(00)<6A>MAP[00:[00],01:[01],00:[00],01:[01],mmc:(un)]s(0)Z1S0*/
	$C193  A5 D8:       lda $D8			/* A(??)X(0F)<138>Y(00)<6A>MAP[00:[00],01:[01],00:[00],01:[01],mmc:(un)]s(0)Z?S?*/
	$C195  F0 02:       beq +		; $C199			/* A(??)X(0F)<138>Y(00)<6A>MAP[00:[00],01:[01],00:[00],01:[01],mmc:(un)]s(0)Z?S?*/
	$C197  A9 FF:       lda #$FF			/* A(FF)<197>X(0F)<138>Y(00)<6A>MAP[00:[00],01:[01],00:[00],01:[01],mmc:(un)]s(0)Z0S1*/
+	$C199  85 00:       sta $00			/* A(FF)<197>X(0F)<138>Y(00)<6A>MAP[00:[00],01:[01],00:[00],01:[01],mmc:(un)]s(0)Z0S1*/
	$C19B  20 ED C1:    jsr _func_01ED			/* A(??)X(??)Y(??)MAP[00:(??),01:(??),00:(??),01:(??),mmc:(un)]s(0)Z?S?*/
	$C19E  4C 35 C1:    jmp --		; $C135			/* A(??)X(0F)<138>Y(00)<6A>MAP[00:[00],01:[01],00:[00],01:[01],mmc:(un)]s(0)Z?S?*/(barrier)
;------------------------------------------
_func_01A1
	$C1A1  A5 D7:       lda $D7			/* A(??)X(0F)<138>Y(00)<6A>MAP[00:[00],01:[01],00:[00],01:[01],mmc:(un)]s(0)Z?S?*/
	$C1A3  0A:          asl a			/* A(??)X(0F)<138>Y(00)<6A>MAP[00:[00],01:[01],00:[00],01:[01],mmc:(un)]s(0)Z?S?*/
	$C1A4  AA:          tax 			/* A(??)X(??)Y(00)<6A>MAP[00:[00],01:[01],00:[00],01:[01],mmc:(un)]s(0)Z?S?*/
	$C1A5  BD BE C1:    lda _data_01BE_indexed,x			/* A$01BE,x<1A5>X(??)Y(00)<6A>MAP[00:[00],01:[01],00:[00],01:[01],mmc:(un)]s(0)Z?S?*/
	$C1A8  8D 00 02:    sta $0200			/* A$01BE,x<1A5>X(??)Y(00)<6A>MAP[00:[00],01:[01],00:[00],01:[01],mmc:(un)]s(0)Z?S?*/
	$C1AB  BD BF C1:    lda _data_01BF_indexed,x			/* A$01BF,x<1AB>X(??)Y(00)<6A>MAP[00:[00],01:[01],00:[00],01:[01],mmc:(un)]s(0)Z?S?*/
	$C1AE  8D 01 02:    sta $0201			/* A$01BF,x<1AB>X(??)Y(00)<6A>MAP[00:[00],01:[01],00:[00],01:[01],mmc:(un)]s(0)Z?S?*/
	$C1B1  A9 C1:       lda #>_data_01DE			/* A(C1)<1B1>X(??)Y(00)<6A>MAP[00:[00],01:[01],00:[00],01:[01],mmc:(un)]s(0)Z0S1*/
	$C1B3  48:          pha 			/* A(C1)<1B1>X(??)Y(00)<6A>MAP[00:[00],01:[01],00:[00],01:[01],mmc:(un)]s(1)Z0S1*/
	$C1B4  A9 DE:        lda #<_data_01DE			/* A(DE)<1B4>X(??)Y(00)<6A>MAP[00:[00],01:[01],00:[00],01:[01],mmc:(un)]s(1)Z0S1*/
	$C1B6  48:           pha 			/* A(DE)<1B4>X(??)Y(00)<6A>MAP[00:[00],01:[01],00:[00],01:[01],mmc:(un)]s(2)Z0S1*/
	$C1B7  A9 00:         lda #$00			/* A(00)<1B7>X(??)Y(00)<6A>MAP[00:[00],01:[01],00:[00],01:[01],mmc:(un)]s(2)Z1S0*/
	$C1B9  85 00:         sta $00			/* A(00)<1B7>X(??)Y(00)<6A>MAP[00:[00],01:[01],00:[00],01:[01],mmc:(un)]s(2)Z1S0*/
	$C1BB  6C 00 02:      jmp ($0200)			/* A(00)<1B7>X(??)Y(00)<6A>MAP[00:[00],01:[01],00:[00],01:[01],mmc:(un)]s(2)Z1S0*/
_data_01BE_indexed
	$C1BE               .byte $A3
_data_01BF_indexed
	$C1BF               .byte $C6,$A3,$C6,$1E,$E5,$3D,$E7,$D3,$E8,$16,$E9,$86,$EB,$F6,$ED,$66
	$C1CF               .byte $F0,$D6,$F2,$46,$F5,$A9,$00,$85,$00,$20,$00,$D9,$20,$E0,$DA
_data_01DE
	$C1DE               .byte $EA,$EA,$EA,$A5,$00,$F0,$02,$85,$D8,$4C,$ED,$C1,$4C,$81,$C0
_func_01ED
	$C1ED  20 8D C2:    jsr _func_028D			/* A(??)X(0F)<138>Y(00)<6A>MAP[00:[00],01:[01],00:[00],01:[01],mmc:(un)]s(0)Z?S?*/
	$C1F0  A9 00:       lda #$00			/* A(00)<1F0>X(12)<84>Y(00)<6A>MAP[00:[00],01:[01],00:[00],01:[01],mmc:(un)]s(0)Z1S0*/
	$C1F2  85 D3:       sta $D3			/* A(00)<1F0>X(12)<84>Y(00)<6A>MAP[00:[00],01:[01],00:[00],01:[01],mmc:(un)]s(0)Z1S0*/
	$C1F4  A5 D7:       lda $D7			/* A(??)X(12)<84>Y(00)<6A>MAP[00:[00],01:[01],00:[00],01:[01],mmc:(un)]s(0)Z?S?*/
	$C1F6  18:          clc 			/* A(??)X(12)<84>Y(00)<6A>MAP[00:[00],01:[01],00:[00],01:[01],mmc:(un)]s(0)Z?S?*/
	$C1F7  69 04:       adc #$04			/* A(??)X(12)<84>Y(00)<6A>MAP[00:[00],01:[01],00:[00],01:[01],mmc:(un)]s(0)Z?S?*/
	$C1F9  0A:          asl a			/* A(??)X(12)<84>Y(00)<6A>MAP[00:[00],01:[01],00:[00],01:[01],mmc:(un)]s(0)Z?S?*/
	$C1FA  26 D3:       rol $D3			/* A(??)X(12)<84>Y(00)<6A>MAP[00:[00],01:[01],00:[00],01:[01],mmc:(un)]s(0)Z?S?*/
	$C1FC  0A:          asl a			/* A(??)X(12)<84>Y(00)<6A>MAP[00:[00],01:[01],00:[00],01:[01],mmc:(un)]s(0)Z?S?*/
	$C1FD  26 D3:       rol $D3			/* A(??)X(12)<84>Y(00)<6A>MAP[00:[00],01:[01],00:[00],01:[01],mmc:(un)]s(0)Z?S?*/
	$C1FF  0A:          asl a			/* A(??)X(12)<84>Y(00)<6A>MAP[00:[00],01:[01],00:[00],01:[01],mmc:(un)]s(0)Z?S?*/
	$C200  26 D3:       rol $D3			/* A(??)X(12)<84>Y(00)<6A>MAP[00:[00],01:[01],00:[00],01:[01],mmc:(un)]s(0)Z?S?*/
	$C202  0A:          asl a			/* A(??)X(12)<84>Y(00)<6A>MAP[00:[00],01:[01],00:[00],01:[01],mmc:(un)]s(0)Z?S?*/
	$C203  26 D3:       rol $D3			/* A(??)X(12)<84>Y(00)<6A>MAP[00:[00],01:[01],00:[00],01:[01],mmc:(un)]s(0)Z?S?*/
	$C205  0A:          asl a			/* A(??)X(12)<84>Y(00)<6A>MAP[00:[00],01:[01],00:[00],01:[01],mmc:(un)]s(0)Z?S?*/
	$C206  26 D3:       rol $D3			/* A(??)X(12)<84>Y(00)<6A>MAP[00:[00],01:[01],00:[00],01:[01],mmc:(un)]s(0)Z?S?*/
	$C208  48:          pha 			/* A(??)X(12)<84>Y(00)<6A>MAP[00:[00],01:[01],00:[00],01:[01],mmc:(un)]s(1)Z?S?*/
	$C209  A5 D3:        lda $D3			/* A(??)X(12)<84>Y(00)<6A>MAP[00:[00],01:[01],00:[00],01:[01],mmc:(un)]s(1)Z?S?*/
	$C20B  09 20:        ora #$20			/* A(??)X(12)<84>Y(00)<6A>MAP[00:[00],01:[01],00:[00],01:[01],mmc:(un)]s(1)Z?S?*/
	$C20D  8D 06 20:     sta $2006			/* A(??)X(12)<84>Y(00)<6A>MAP[00:[00],01:[01],00:[00],01:[01],mmc:(un)]s(1)Z?S?*/
	$C210  68:          pla 			/* A(??)X(12)<84>Y(00)<6A>MAP[00:[00],01:[01],00:[00],01:[01],mmc:(un)]s(0)Z?S?*/
	$C211  09 04:       ora #$04			/* A(??)X(12)<84>Y(00)<6A>MAP[00:[00],01:[01],00:[00],01:[01],mmc:(un)]s(0)Z?S?*/
	$C213  8D 06 20:    sta $2006			/* A(??)X(12)<84>Y(00)<6A>MAP[00:[00],01:[01],00:[00],01:[01],mmc:(un)]s(0)Z?S?*/
	$C216  A5 00:       lda $00			/* A(??)X(12)<84>Y(00)<6A>MAP[00:[00],01:[01],00:[00],01:[01],mmc:(un)]s(0)Z?S?*/
	$C218  F0 1D:       beq +		; $C237			/* A(??)X(12)<84>Y(00)<6A>MAP[00:[00],01:[01],00:[00],01:[01],mmc:(un)]s(0)Z?S?*/
	$C21A  C9 FF:       cmp #$FF			/* A(??)X(12)<84>Y(00)<6A>MAP[00:[00],01:[01],00:[00],01:[01],mmc:(un)]s(0)Z?S?*/
	$C21C  F0 26:       beq ++		; $C244			/* A(??)X(12)<84>Y(00)<6A>MAP[00:[00],01:[01],00:[00],01:[01],mmc:(un)]s(0)Z?S?*/
	$C21E  4A:          lsr a			/* A(??)X(12)<84>Y(00)<6A>MAP[00:[00],01:[01],00:[00],01:[01],mmc:(un)]s(0)Z?S?*/
	$C21F  4A:          lsr a			/* A(??)X(12)<84>Y(00)<6A>MAP[00:[00],01:[01],00:[00],01:[01],mmc:(un)]s(0)Z?S?*/
	$C220  4A:          lsr a			/* A(??)X(12)<84>Y(00)<6A>MAP[00:[00],01:[01],00:[00],01:[01],mmc:(un)]s(0)Z?S?*/
	$C221  4A:          lsr a			/* A(??)X(12)<84>Y(00)<6A>MAP[00:[00],01:[01],00:[00],01:[01],mmc:(un)]s(0)Z?S?*/
	$C222  AA:          tax 			/* A(??)X(??)Y(00)<6A>MAP[00:[00],01:[01],00:[00],01:[01],mmc:(un)]s(0)Z?S?*/
	$C223  BD 51 C2:    lda _data_0251_indexed,x			/* A$0251,x<223>X(??)Y(00)<6A>MAP[00:[00],01:[01],00:[00],01:[01],mmc:(un)]s(0)Z?S?*/
	$C226  8D 07 20:    sta $2007			/* A$0251,x<223>X(??)Y(00)<6A>MAP[00:[00],01:[01],00:[00],01:[01],mmc:(un)]s(0)Z?S?*/
	$C229  A5 00:       lda $00			/* A(??)X(??)Y(00)<6A>MAP[00:[00],01:[01],00:[00],01:[01],mmc:(un)]s(0)Z?S?*/
	$C22B  29 0F:       and #$0F			/* A(??)X(??)Y(00)<6A>MAP[00:[00],01:[01],00:[00],01:[01],mmc:(un)]s(0)Z?S?*/
	$C22D  AA:          tax 			/* A(??)X(??)Y(00)<6A>MAP[00:[00],01:[01],00:[00],01:[01],mmc:(un)]s(0)Z?S?*/
	$C22E  BD 51 C2:    lda _data_0251_indexed,x			/* A$0251,x<22E>X(??)Y(00)<6A>MAP[00:[00],01:[01],00:[00],01:[01],mmc:(un)]s(0)Z?S?*/
	$C231  8D 07 20:    sta $2007			/* A$0251,x<22E>X(??)Y(00)<6A>MAP[00:[00],01:[01],00:[00],01:[01],mmc:(un)]s(0)Z?S?*/
	$C234  4C 94 C2:    jmp +++		; $C294			/* A$0251,x<22E>X(??)Y(00)<6A>MAP[00:[00],01:[01],00:[00],01:[01],mmc:(un)]s(0)Z?S?*/(barrier)

+	$C237  A9 4F:       lda #$4F			/* A(??)X(??)Y(00)<6A>MAP[00:[00],01:[01],00:[00],01:[01],mmc:(un)]s(0)Z?S?*/
	$C239  8D 07 20:    sta $2007			/* A(4F)<237>X(12)<84>Y(00)<6A>MAP[00:[00],01:[01],00:[00],01:[01],mmc:(un)]s(0)Z0S0*/
	$C23C  A9 4B:       lda #$4B			/* A(4B)<23C>X(12)<84>Y(00)<6A>MAP[00:[00],01:[01],00:[00],01:[01],mmc:(un)]s(0)Z0S0*/
	$C23E  8D 07 20:    sta $2007			/* A(4B)<23C>X(12)<84>Y(00)<6A>MAP[00:[00],01:[01],00:[00],01:[01],mmc:(un)]s(0)Z0S0*/
	$C241  4C 94 C2:    jmp +++		; $C294			/* A(4B)<23C>X(12)<84>Y(00)<6A>MAP[00:[00],01:[01],00:[00],01:[01],mmc:(un)]s(0)Z0S0*/(barrier)

++	$C244  A9 45:       lda #$45			/* A(45)<244>X(12)<84>Y(00)<6A>MAP[00:[00],01:[01],00:[00],01:[01],mmc:(un)]s(0)Z0S0*/
	$C246  8D 07 20:    sta $2007			/* A(45)<244>X(12)<84>Y(00)<6A>MAP[00:[00],01:[01],00:[00],01:[01],mmc:(un)]s(0)Z0S0*/
	$C249  A9 72:       lda #$72			/* A(72)<249>X(12)<84>Y(00)<6A>MAP[00:[00],01:[01],00:[00],01:[01],mmc:(un)]s(0)Z0S0*/
	$C24B  8D 07 20:    sta $2007			/* A(72)<249>X(12)<84>Y(00)<6A>MAP[00:[00],01:[01],00:[00],01:[01],mmc:(un)]s(0)Z0S0*/
	$C24E  4C 94 C2:    jmp +++		; $C294			/* A(72)<249>X(12)<84>Y(00)<6A>MAP[00:[00],01:[01],00:[00],01:[01],mmc:(un)]s(0)Z0S0*/(barrier)
;------------------------------------------
_data_0251_indexed
	$C251               .byte $30,$31,$32,$33,$34,$35,$36,$37,$38,$39,$41,$42,$43,$44,$45,$46
_func_0261
	$C261  A5 D7:       lda $D7			/* A(C4)<12E>X(??)Y(00)<6A>MAP[00:[00],01:[01],00:[00],01:[01],mmc:(un)]s(0)Z?S?*/
	$C263  18:          clc 			/* A(??)X(12)<84>Y(00)<6A>MAP[00:[00],01:[01],00:[00],01:[01],mmc:(un)]s(0)Z?S?*/
	$C264  69 04:       adc #$04			/* A(??)X(12)<84>Y(00)<6A>MAP[00:[00],01:[01],00:[00],01:[01],mmc:(un)]s(0)Z?S?*/
	$C266  A8:          tay 			/* A(??)X(12)<84>Y(??)MAP[00:[00],01:[01],00:[00],01:[01],mmc:(un)]s(0)Z?S?*/
	$C267  A9 84:       lda #$84			/* A(84)<267>X(12)<84>Y(??)MAP[00:[00],01:[01],00:[00],01:[01],mmc:(un)]s(0)Z0S1*/
	$C269  8D 00 20:    sta $2000			/* A(84)<267>X(12)<84>Y(??)MAP[00:[00],01:[01],00:[00],01:[01],mmc:(un)]s(0)Z0S1*/
	$C26C  A9 20:       lda #$20			/* A(20)<26C>X(12)<84>Y(??)MAP[00:[00],01:[01],00:[00],01:[01],mmc:(un)]s(0)Z0S0*/
	$C26E  8D 06 20:    sta $2006			/* A(20)<26C>X(12)<84>Y(??)MAP[00:[00],01:[01],00:[00],01:[01],mmc:(un)]s(0)Z0S0*/
	$C271  A9 02:       lda #$02			/* A(02)<271>X(12)<84>Y(??)MAP[00:[00],01:[01],00:[00],01:[01],mmc:(un)]s(0)Z0S0*/
	$C273  8D 06 20:    sta $2006			/* A(02)<271>X(12)<84>Y(??)MAP[00:[00],01:[01],00:[00],01:[01],mmc:(un)]s(0)Z0S0*/
-	$C276  A9 20:       lda #$20			/* A(20)<276>X(12)<84>Y(??)MAP[00:[00],01:[01],00:[00],01:[01],mmc:(un)]s(0)Z?S?*/
	$C278  88:          dey 			/* A(??)X(12)<84>Y(??)MAP[00:[00],01:[01],00:[00],01:[01],mmc:(un)]s(0)Z?S?*/
	$C279  C8:          iny 			/* A(??)X(12)<84>Y(??)MAP[00:[00],01:[01],00:[00],01:[01],mmc:(un)]s(0)Z?S?*/
	$C27A  D0 02:       bne +		; $C27E			/* A(??)X(12)<84>Y(??)MAP[00:[00],01:[01],00:[00],01:[01],mmc:(un)]s(0)Z?S?*/
	$C27C  A9 2A:       lda #$2A			/* A(2A)<27C>X(12)<84>Y(??)MAP[00:[00],01:[01],00:[00],01:[01],mmc:(un)]s(0)Z0S0*/
+	$C27E  8D 07 20:    sta $2007			/* A(2A)<27C>X(12)<84>Y(??)MAP[00:[00],01:[01],00:[00],01:[01],mmc:(un)]s(0)Z0S0*/
	$C281  88:          dey 			/* A(??)X(12)<84>Y(??)MAP[00:[00],01:[01],00:[00],01:[01],mmc:(un)]s(0)Z?S?*/
	$C282  CA:          dex 			/* A(??)X(??)Y(??)MAP[00:[00],01:[01],00:[00],01:[01],mmc:(un)]s(0)Z?S?*/
	$C283  D0 F1:       bne -		; $C276			/* A(??)X(??)Y(??)MAP[00:[00],01:[01],00:[00],01:[01],mmc:(un)]s(0)Z?S?*/
	$C285  A9 80:       lda #$80			/* A(80)<285>X(??)Y(??)MAP[00:[00],01:[01],00:[00],01:[01],mmc:(un)]s(0)Z0S1*/
	$C287  8D 00 20:    sta $2000			/* A(80)<285>X(??)Y(??)MAP[00:[00],01:[01],00:[00],01:[01],mmc:(un)]s(0)Z0S1*/
	$C28A  4C 94 C2:    jmp +++		; $C294			/* A(80)<285>X(??)Y(??)MAP[00:[00],01:[01],00:[00],01:[01],mmc:(un)]s(0)Z0S1*/(barrier)
;------------------------------------------
_func_028D
	$C28D  A5 D2:       lda $D2			/* A(C4)<12E>X(12)<84>Y(00)<6A>MAP[00:[00],01:[01],00:[00],01:[01],mmc:(un)]s(0)Z?S?*/
-	$C28F  C5 D2:       cmp $D2			/* A(??)X(??)Y(00)<6A>MAP[00:[00],01:[01],00:[00],01:[01],mmc:(un)]s(0)Z?S?*/
	$C291  F0 FC:       beq -		; $C28F			/* A(??)X(??)Y(00)<6A>MAP[00:[00],01:[01],00:[00],01:[01],mmc:(un)]s(0)Z?S?*/
	$C293  60:          rts 			/* A(??)X(??)Y(00)<6A>MAP[00:[00],01:[01],00:[00],01:[01],mmc:(un)]s(0)Z?S?*/(barrier)

+++	$C294  A9 00:       lda #$00			/* A$0251,x<22E>X(??)Y(00)<6A>MAP[00:[00],01:[01],00:[00],01:[01],mmc:(un)]s(0)Z?S?*/
	$C296  8D 05 20:    sta $2005			/* A(00)<294>X(??)Y(??)MAP[00:[00],01:[01],00:[00],01:[01],mmc:(un)]s(0)Z1S0*/
	$C299  8D 05 20:    sta $2005			/* A(00)<294>X(??)Y(??)MAP[00:[00],01:[01],00:[00],01:[01],mmc:(un)]s(0)Z1S0*/
	$C29C  A9 00:       lda #$00			/* A(00)<29C>X(??)Y(??)MAP[00:[00],01:[01],00:[00],01:[01],mmc:(un)]s(0)Z1S0*/
	$C29E  8D 06 20:    sta $2006			/* A(00)<29C>X(??)Y(??)MAP[00:[00],01:[01],00:[00],01:[01],mmc:(un)]s(0)Z1S0*/
	$C2A1  A9 00:       lda #$00			/* A(00)<2A1>X(??)Y(??)MAP[00:[00],01:[01],00:[00],01:[01],mmc:(un)]s(0)Z1S0*/
	$C2A3  8D 06 20:    sta $2006			/* A(00)<2A1>X(??)Y(??)MAP[00:[00],01:[01],00:[00],01:[01],mmc:(un)]s(0)Z1S0*/
	$C2A6  60:          rts 			/* A(00)<2A1>X(??)Y(??)MAP[00:[00],01:[01],00:[00],01:[01],mmc:(un)]s(0)Z1S0*/(barrier)
;------------------------------------------
_func_02A7
	$C2A7  A9 00:       lda #$00			/* A(??)X(12)<84>Y(00)<6A>MAP[00:[00],01:[01],00:[00],01:[01],mmc:(un)]s(0)Z?S?*/
	$C2A9  8D 00 20:    sta $2000			/* A(00)<2A7>X(??)Y(00)<6A>MAP[00:[00],01:[01],00:[00],01:[01],mmc:(un)]s(0)Z1S0*/
	$C2AC  8D 01 20:    sta $2001			/* A(00)<2A7>X(??)Y(00)<6A>MAP[00:[00],01:[01],00:[00],01:[01],mmc:(un)]s(0)Z1S0*/
	$C2AF  20 ED C2:    jsr _func_02ED			/* A(??)X(??)Y(??)MAP[00:(??),01:(??),00:(??),01:(??),mmc:(un)]s(0)Z?S?*/
	$C2B2  A9 20:       lda #$20			/* A(20)<2B2>X(??)Y(00)<6A>MAP[00:[00],01:[01],00:[00],01:[01],mmc:(un)]s(0)Z0S0*/
	$C2B4  8D 06 20:    sta $2006			/* A(20)<2B2>X(??)Y(00)<6A>MAP[00:[00],01:[01],00:[00],01:[01],mmc:(un)]s(0)Z0S0*/
	$C2B7  A0 00:       ldy #$00			/* A(20)<2B2>X(??)Y(00)<2B7>MAP[00:[00],01:[01],00:[00],01:[01],mmc:(un)]s(0)Z1S0*/
	$C2B9  8C 06 20:    sty $2006			/* A(20)<2B2>X(??)Y(00)<2B7>MAP[00:[00],01:[01],00:[00],01:[01],mmc:(un)]s(0)Z1S0*/
--	$C2BC  A2 20:       ldx #$20			/* A(20)<2B2>X(20)<2BC>Y(00)<2B7>MAP[00:[00],01:[01],00:[00],01:[01],mmc:(un)]s(0)Z?S?*/
-	$C2BE  B1 D0:       lda ($D0),y			/* A(??)X(20)<2BC>Y(00)<2B7>MAP[00:[00],01:[01],00:[00],01:[01],mmc:(un)]s(0)Z?S?*/
	$C2C0  F0 20:       beq +++		; $C2E2			/* A(??)X(20)<2BC>Y(00)<2B7>MAP[00:[00],01:[01],00:[00],01:[01],mmc:(un)]s(0)Z?S?*/
	$C2C2  C9 FF:       cmp #$FF			/* A(??)X(20)<2BC>Y(00)<2B7>MAP[00:[00],01:[01],00:[00],01:[01],mmc:(un)]s(0)Z?S?*/
	$C2C4  F0 0D:       beq ++		; $C2D3			/* A(??)X(20)<2BC>Y(00)<2B7>MAP[00:[00],01:[01],00:[00],01:[01],mmc:(un)]s(0)Z?S?*/
	$C2C6  8D 07 20:    sta $2007			/* A(??)X(20)<2BC>Y(00)<2B7>MAP[00:[00],01:[01],00:[00],01:[01],mmc:(un)]s(0)Z?S?*/
	$C2C9  C8:          iny 			/* A(??)X(20)<2BC>Y(??)MAP[00:[00],01:[01],00:[00],01:[01],mmc:(un)]s(0)Z?S?*/
	$C2CA  D0 02:       bne +		; $C2CE			/* A(??)X(20)<2BC>Y(??)MAP[00:[00],01:[01],00:[00],01:[01],mmc:(un)]s(0)Z?S?*/
	$C2CC  E6 D1:       inc $D1			/* A(??)X(20)<2BC>Y(??)MAP[00:[00],01:[01],00:[00],01:[01],mmc:(un)]s(0)Z?S?*/
+	$C2CE  CA:          dex 			/* A(??)X(20)<2BC>Y(??)MAP[00:[00],01:[01],00:[00],01:[01],mmc:(un)]s(0)Z?S?*/
	$C2CF  D0 ED:       bne -		; $C2BE			/* A(??)X(??)Y(??)MAP[00:[00],01:[01],00:[00],01:[01],mmc:(un)]s(0)Z?S?*/
	$C2D1  F0 E9:       beq --		; $C2BC			/* A(??)X(??)Y(??)MAP[00:[00],01:[01],00:[00],01:[01],mmc:(un)]s(0)Z?S?*/
++	$C2D3  C8:          iny 			/* A(??)X(20)<2BC>Y(??)MAP[00:[00],01:[01],00:[00],01:[01],mmc:(un)]s(0)Z?S?*/
	$C2D4  D0 02:       bne +		; $C2D8			/* A(??)X(20)<2BC>Y(??)MAP[00:[00],01:[01],00:[00],01:[01],mmc:(un)]s(0)Z?S?*/
	$C2D6  E6 D1:       inc $D1			/* A(??)X(20)<2BC>Y(??)MAP[00:[00],01:[01],00:[00],01:[01],mmc:(un)]s(0)Z?S?*/
+ -	$C2D8  A9 20:       lda #$20			/* A(20)<2D8>X(20)<2BC>Y(??)MAP[00:[00],01:[01],00:[00],01:[01],mmc:(un)]s(0)Z?S?*/
	$C2DA  8D 07 20:    sta $2007			/* A(20)<2D8>X(20)<2BC>Y(??)MAP[00:[00],01:[01],00:[00],01:[01],mmc:(un)]s(0)Z0S0*/
	$C2DD  CA:          dex 			/* A(20)<2D8>X(??)Y(??)MAP[00:[00],01:[01],00:[00],01:[01],mmc:(un)]s(0)Z?S?*/
	$C2DE  D0 F8:       bne -		; $C2D8			/* A(20)<2D8>X(??)Y(??)MAP[00:[00],01:[01],00:[00],01:[01],mmc:(un)]s(0)Z?S?*/
	$C2E0  F0 DA:       beq --		; $C2BC			/* A(20)<2D8>X(??)Y(??)MAP[00:[00],01:[01],00:[00],01:[01],mmc:(un)]s(0)Z?S?*/
+++	$C2E2  A9 80:       lda #$80			/* A(??)X(20)<2BC>Y(00)<2B7>MAP[00:[00],01:[01],00:[00],01:[01],mmc:(un)]s(0)Z?S?*/
	$C2E4  8D 00 20:    sta $2000			/* A(80)<2E2>X(20)<2BC>Y(00)<2B7>MAP[00:[00],01:[01],00:[00],01:[01],mmc:(un)]s(0)Z0S1*/
	$C2E7  A9 0E:       lda #$0E			/* A(0E)<2E7>X(20)<2BC>Y(00)<2B7>MAP[00:[00],01:[01],00:[00],01:[01],mmc:(un)]s(0)Z0S0*/
	$C2E9  8D 01 20:    sta $2001			/* A(0E)<2E7>X(20)<2BC>Y(00)<2B7>MAP[00:[00],01:[01],00:[00],01:[01],mmc:(un)]s(0)Z0S0*/
	$C2EC  60:          rts 			/* A(0E)<2E7>X(20)<2BC>Y(00)<2B7>MAP[00:[00],01:[01],00:[00],01:[01],mmc:(un)]s(0)Z0S0*/(barrier)
;------------------------------------------
_func_02ED
	$C2ED  A9 20:       lda #$20			/* A(20)<2ED>X(??)Y(00)<6A>MAP[00:[00],01:[01],00:[00],01:[01],mmc:(un)]s(0)Z0S0*/
	$C2EF  8D 06 20:    sta $2006			/* A(20)<2ED>X(??)Y(00)<6A>MAP[00:[00],01:[01],00:[00],01:[01],mmc:(un)]s(0)Z0S0*/
	$C2F2  A9 00:       lda #$00			/* A(00)<2F2>X(??)Y(00)<6A>MAP[00:[00],01:[01],00:[00],01:[01],mmc:(un)]s(0)Z1S0*/
	$C2F4  8D 06 20:    sta $2006			/* A(00)<2F2>X(??)Y(00)<6A>MAP[00:[00],01:[01],00:[00],01:[01],mmc:(un)]s(0)Z1S0*/
	$C2F7  A2 1E:       ldx #$1E			/* A(00)<2F2>X(1E)<2F7>Y(00)<6A>MAP[00:[00],01:[01],00:[00],01:[01],mmc:(un)]s(0)Z0S0*/
	$C2F9  A9 20:       lda #$20			/* A(20)<2F9>X(1E)<2F7>Y(00)<6A>MAP[00:[00],01:[01],00:[00],01:[01],mmc:(un)]s(0)Z0S0*/
--	$C2FB  A0 20:       ldy #$20			/* A(20)<2F9>X(1E)<2F7>Y(20)<2FB>MAP[00:[00],01:[01],00:[00],01:[01],mmc:(un)]s(0)Z?S?*/
-	$C2FD  8D 07 20:    sta $2007			/* A(20)<2F9>X(1E)<2F7>Y(20)<2FB>MAP[00:[00],01:[01],00:[00],01:[01],mmc:(un)]s(0)Z?S?*/
	$C300  88:          dey 			/* A(??)X(1E)<2F7>Y(??)MAP[00:[00],01:[01],00:[00],01:[01],mmc:(un)]s(0)Z?S?*/
	$C301  D0 FA:       bne -		; $C2FD			/* A(??)X(1E)<2F7>Y(??)MAP[00:[00],01:[01],00:[00],01:[01],mmc:(un)]s(0)Z?S?*/
	$C303  CA:          dex 			/* A(??)X(??)Y(??)MAP[00:[00],01:[01],00:[00],01:[01],mmc:(un)]s(0)Z?S?*/
	$C304  D0 F5:       bne --		; $C2FB			/* A(??)X(??)Y(??)MAP[00:[00],01:[01],00:[00],01:[01],mmc:(un)]s(0)Z?S?*/
	$C306  60:          rts 			/* A(??)X(??)Y(??)MAP[00:[00],01:[01],00:[00],01:[01],mmc:(un)]s(0)Z?S?*/(barrier)
;------------------------------------------
_data_0307
	$C307               .byte $FF,$FF,$FF,$FF,$20,$20,$20,$20,$2D,$2D,$20,$52,$75,$6E,$20,$61
	$C317               .byte $6C,$6C,$20,$74,$65,$73,$74,$73,$FF,$20,$20,$20,$20,$2D,$2D,$20
	$C327               .byte $42,$72,$61,$6E,$63,$68,$20,$74,$65,$73,$74,$73,$FF,$20,$20,$20
	$C337               .byte $20,$2D,$2D,$20,$46,$6C,$61,$67,$20,$74,$65,$73,$74,$73,$FF,$20
	$C347               .byte $20,$20,$20,$2D,$2D,$20,$49,$6D,$6D,$65,$64,$69,$61,$74,$65,$20
	$C357               .byte $74,$65,$73,$74,$73,$FF,$20,$20,$20,$20,$2D,$2D,$20,$49,$6D,$70
	$C367               .byte $6C,$69,$65,$64,$20,$74,$65,$73,$74,$73,$FF,$20,$20,$20,$20,$2D
	$C377               .byte $2D,$20,$53,$74,$61,$63,$6B,$20,$74,$65,$73,$74,$73,$FF,$20,$20
	$C387               .byte $20,$20,$2D,$2D,$20,$41,$63,$63,$75,$6D,$75,$6C,$61,$74,$6F,$72
	$C397               .byte $20,$74,$65,$73,$74,$73,$FF,$20,$20,$20,$20,$2D,$2D,$20,$28,$49
	$C3A7               .byte $6E,$64,$69,$72,$65,$63,$74,$2C,$58,$29,$20,$74,$65,$73,$74,$73
	$C3B7               .byte $FF,$20,$20,$20,$20,$2D,$2D,$20,$5A,$65,$72,$6F,$70,$61,$67,$65
	$C3C7               .byte $20,$74,$65,$73,$74,$73,$FF,$20,$20,$20,$20,$2D,$2D,$20,$41,$62
	$C3D7               .byte $73,$6F,$6C,$75,$74,$65,$20,$74,$65,$73,$74,$73,$FF,$20,$20,$20
	$C3E7               .byte $20,$2D,$2D,$20,$28,$49,$6E,$64,$69,$72,$65,$63,$74,$29,$2C,$59
	$C3F7               .byte $20,$74,$65,$73,$74,$73,$FF,$20,$20,$20,$20,$2D,$2D,$20,$41,$62
	$C407               .byte $73,$6F,$6C,$75,$74,$65,$2C,$59,$20,$74,$65,$73,$74,$73,$FF,$20
	$C417               .byte $20,$20,$20,$2D,$2D,$20,$5A,$65,$72,$6F,$70,$61,$67,$65,$2C,$58
	$C427               .byte $20,$74,$65,$73,$74,$73,$FF,$20,$20,$20,$20,$2D,$2D,$20,$41,$62
	$C437               .byte $73,$6F,$6C,$75,$74,$65,$2C,$58,$20,$74,$65,$73,$74,$73,$FF,$FF
	$C447               .byte $FF,$20,$20,$20,$20,$55,$70,$2F,$44,$6F,$77,$6E,$3A,$20,$73,$65
	$C457               .byte $6C,$65,$63,$74,$20,$74,$65,$73,$74,$FF,$20,$20,$20,$20,$20,$20
	$C467               .byte $53,$74,$61,$72,$74,$3A,$20,$72,$75,$6E,$20,$74,$65,$73,$74,$FF
	$C477               .byte $20,$20,$20,$20,$20,$53,$65,$6C,$65,$63,$74,$3A,$20,$49,$6E,$76
	$C487               .byte $61,$6C,$69,$64,$20,$6F,$70,$73,$21,$FF,$00
_data_0492
	$C492               .byte $FF,$FF,$FF,$FF,$20,$20,$20,$20,$2D,$2D,$20,$52,$75,$6E,$20,$61
	$C4A2               .byte $6C,$6C,$20,$74,$65,$73,$74,$73,$FF,$20,$20,$20,$20,$2D,$2D,$20
	$C4B2               .byte $4E,$4F,$50,$20,$74,$65,$73,$74,$73,$FF,$20,$20,$20,$20,$2D,$2D
	$C4C2               .byte $20,$4C,$41,$58,$20,$74,$65,$73,$74,$73,$FF,$20,$20,$20,$20,$2D
	$C4D2               .byte $2D,$20,$53,$41,$58,$20,$74,$65,$73,$74,$73,$FF,$20,$20,$20,$20
	$C4E2               .byte $2D,$2D,$20,$53,$42,$43,$20,$74,$65,$73,$74,$20,$28,$6F,$70,$63
	$C4F2               .byte $6F,$64,$65,$20,$30,$45,$42,$68,$29,$FF,$20,$20,$20,$20,$2D,$2D
	$C502               .byte $20,$44,$43,$50,$20,$74,$65,$73,$74,$73,$FF,$20,$20,$20,$20,$2D
	$C512               .byte $2D,$20,$49,$53,$42,$20,$74,$65,$73,$74,$73,$FF,$20,$20,$20,$20
	$C522               .byte $2D,$2D,$20,$53,$4C,$4F,$20,$74,$65,$73,$74,$73,$FF,$20,$20,$20
	$C532               .byte $20,$2D,$2D,$20,$52,$4C,$41,$20,$74,$65,$73,$74,$73,$FF,$20,$20
	$C542               .byte $20,$20,$2D,$2D,$20,$53,$52,$45,$20,$74,$65,$73,$74,$73,$FF,$20
	$C552               .byte $20,$20,$20,$2D,$2D,$20,$52,$52,$41,$20,$74,$65,$73,$74,$73,$FF
	$C562               .byte $FF,$FF,$FF,$FF,$FF,$20,$20,$20,$20,$55,$70,$2F,$44,$6F,$77,$6E
	$C572               .byte $3A,$20,$73,$65,$6C,$65,$63,$74,$20,$74,$65,$73,$74,$FF,$20,$20
	$C582               .byte $20,$20,$20,$20,$53,$74,$61,$72,$74,$3A,$20,$72,$75,$6E,$20,$74
	$C592               .byte $65,$73,$74,$FF,$20,$20,$20,$20,$20,$53,$65,$6C,$65,$63,$74,$3A
	$C5A2               .byte $20,$4E,$6F,$72,$6D,$61,$6C,$20,$6F,$70,$73,$FF,$00
_NMI	$C5AF  48:          pha 			/* A(un)X(un)Y(un)MAP[00:[00],01:[01],00:[00],01:[01],mmc:(un)]s(1)Z*S**/
	$C5B0  8A:           txa 			/* A(un)X(un)Y(un)MAP[00:[00],01:[01],00:[00],01:[01],mmc:(un)]s(1)Z*S**/
	$C5B1  48:           pha 			/* A(un)X(un)Y(un)MAP[00:[00],01:[01],00:[00],01:[01],mmc:(un)]s(2)Z*S**/
	$C5B2  AD 02 20:      lda $2002			/* A(??)X(un)Y(un)MAP[00:[00],01:[01],00:[00],01:[01],mmc:(un)]s(2)Z?S?*/
	$C5B5  A9 20:         lda #$20			/* A(20)<5B5>X(un)Y(un)MAP[00:[00],01:[01],00:[00],01:[01],mmc:(un)]s(2)Z0S0*/
	$C5B7  8D 06 20:      sta $2006			/* A(20)<5B5>X(un)Y(un)MAP[00:[00],01:[01],00:[00],01:[01],mmc:(un)]s(2)Z0S0*/
	$C5BA  A9 40:         lda #$40			/* A(40)<5BA>X(un)Y(un)MAP[00:[00],01:[01],00:[00],01:[01],mmc:(un)]s(2)Z0S0*/
	$C5BC  8D 06 20:      sta $2006			/* A(40)<5BA>X(un)Y(un)MAP[00:[00],01:[01],00:[00],01:[01],mmc:(un)]s(2)Z0S0*/
	$C5BF  E6 D2:         inc $D2			/* A(40)<5BA>X(un)Y(un)MAP[00:[00],01:[01],00:[00],01:[01],mmc:(un)]s(2)Z?S?*/
	$C5C1  A9 00:         lda #$00			/* A(00)<5C1>X(un)Y(un)MAP[00:[00],01:[01],00:[00],01:[01],mmc:(un)]s(2)Z1S0*/
	$C5C3  8D 05 20:      sta $2005			/* A(00)<5C1>X(un)Y(un)MAP[00:[00],01:[01],00:[00],01:[01],mmc:(un)]s(2)Z1S0*/
	$C5C6  8D 05 20:      sta $2005			/* A(00)<5C1>X(un)Y(un)MAP[00:[00],01:[01],00:[00],01:[01],mmc:(un)]s(2)Z1S0*/
	$C5C9  A9 00:         lda #$00			/* A(00)<5C9>X(un)Y(un)MAP[00:[00],01:[01],00:[00],01:[01],mmc:(un)]s(2)Z1S0*/
	$C5CB  8D 06 20:      sta $2006			/* A(00)<5C9>X(un)Y(un)MAP[00:[00],01:[01],00:[00],01:[01],mmc:(un)]s(2)Z1S0*/
	$C5CE  A9 00:         lda #$00			/* A(00)<5CE>X(un)Y(un)MAP[00:[00],01:[01],00:[00],01:[01],mmc:(un)]s(2)Z1S0*/
	$C5D0  8D 06 20:      sta $2006			/* A(00)<5CE>X(un)Y(un)MAP[00:[00],01:[01],00:[00],01:[01],mmc:(un)]s(2)Z1S0*/
	$C5D3  A2 09:         ldx #$09			/* A(00)<5CE>X(09)<5D3>Y(un)MAP[00:[00],01:[01],00:[00],01:[01],mmc:(un)]s(2)Z0S0*/
	$C5D5  8E 16 40:      stx $4016			/* A(00)<5CE>X(09)<5D3>Y(un)MAP[00:[00],01:[01],00:[00],01:[01],mmc:(un)]s(2)Z0S0*/
	$C5D8  CA:            dex 			/* A(00)<5CE>X(??)Y(un)MAP[00:[00],01:[01],00:[00],01:[01],mmc:(un)]s(2)Z?S?*/
	$C5D9  8E 16 40:      stx $4016			/* A(00)<5CE>X(??)Y(un)MAP[00:[00],01:[01],00:[00],01:[01],mmc:(un)]s(2)Z?S?*/
-	$C5DC  AD 16 40:      lda $4016			/* A(??)X(??)Y(un)MAP[00:[00],01:[01],00:[00],01:[01],mmc:(un)]s(0)Z?S?*/
	$C5DF  4A:            lsr a			/* A(??)X(??)Y(un)MAP[00:[00],01:[01],00:[00],01:[01],mmc:(un)]s(2)Z?S?*/
	$C5E0  26 D4:         rol $D4			/* A(??)X(??)Y(un)MAP[00:[00],01:[01],00:[00],01:[01],mmc:(un)]s(2)Z?S?*/
	$C5E2  CA:            dex 			/* A(??)X(??)Y(un)MAP[00:[00],01:[01],00:[00],01:[01],mmc:(un)]s(2)Z?S?*/
	$C5E3  D0 F7:         bne -		; $C5DC			/* A(??)X(??)Y(un)MAP[00:[00],01:[01],00:[00],01:[01],mmc:(un)]s(2)Z?S?*/
	$C5E5  A5 D4:         lda $D4			/* A(??)X(??)Y(un)MAP[00:[00],01:[01],00:[00],01:[01],mmc:(un)]s(2)Z?S?*/
	$C5E7  AA:            tax 			/* A(??)X(??)Y(un)MAP[00:[00],01:[01],00:[00],01:[01],mmc:(un)]s(2)Z?S?*/
	$C5E8  45 D6:         eor $D6			/* A(??)X(??)Y(un)MAP[00:[00],01:[01],00:[00],01:[01],mmc:(un)]s(2)Z?S?*/
	$C5EA  25 D4:         and $D4			/* A(??)X(??)Y(un)MAP[00:[00],01:[01],00:[00],01:[01],mmc:(un)]s(2)Z?S?*/
	$C5EC  85 D5:         sta $D5			/* A(??)X(??)Y(un)MAP[00:[00],01:[01],00:[00],01:[01],mmc:(un)]s(2)Z?S?*/
	$C5EE  86 D6:         stx $D6			/* A(??)X(??)Y(un)MAP[00:[00],01:[01],00:[00],01:[01],mmc:(un)]s(2)Z?S?*/
	$C5F0  68:           pla 			/* A(un)X(??)Y(un)MAP[00:[00],01:[01],00:[00],01:[01],mmc:(un)]s(1)Z?S?*/
	$C5F1  AA:           tax 			/* A(un)X(un)Y(un)MAP[00:[00],01:[01],00:[00],01:[01],mmc:(un)]s(1)Z?S?*/
	$C5F2  68:          pla 			/* A(un)X(un)Y(un)MAP[00:[00],01:[01],00:[00],01:[01],mmc:(un)]s(0)Z?S?*/
	$C5F3  40:          rti 			/* A(un)X(un)Y(un)MAP[00:[00],01:[01],00:[00],01:[01],mmc:(un)]s(0)Z?S?*/(barrier)
;------------------------------------------
_IRQ	$C5F4  40:          rti 			/* A(un)X(un)Y(un)MAP[00:[00],01:[01],00:[00],01:[01],mmc:(un)]s(0)Z*S**/(barrier)

	$C5F5               .byte $A2,$00,$86,$00,$86,$10,$86,$11,$20,$2D,$C7,$20,$DB,$C7,$20,$85
	$C605               .byte $C8,$20,$DE,$CB,$20,$F8,$CD,$20,$EE,$CE,$20,$A2,$CF,$20,$74,$D1
	$C615               .byte $20,$FB,$D4,$20,$00,$D9,$A5,$00,$85,$10,$A9,$00,$85,$00,$20,$E0
	$C625               .byte $DA,$20,$4A,$DF,$20,$B8,$DB,$20,$AA,$E1,$20,$A3,$C6,$20,$1E,$E5
	$C635               .byte $20,$3D,$E7,$20,$D3,$E8,$20,$16,$E9,$20,$86,$EB,$20,$F6,$ED,$20
	$C645               .byte $66,$F0,$20,$D6,$F2,$A5,$00,$85,$11,$A9,$00,$85,$00,$20,$46,$F5
	$C655               .byte $A5,$00,$05,$10,$05,$11,$F0,$0E,$20,$6F,$C6,$A6,$00,$86,$02,$A6
	$C665               .byte $10,$86,$03,$4C,$6E,$C6,$20,$89,$C6,$60
_func_066F
	$C66F  A9 03:       lda #$03			/* A(??)X(0F)<138>Y(00)<6A>MAP[00:[00],01:[01],00:[00],01:[01],mmc:(un)]s(0)Z?S?*/
	$C671  8D 15 40:    sta $4015			/* A(03)<66F>X(12)<84>Y(00)<6A>MAP[00:[00],01:[01],00:[00],01:[01],mmc:(un)]s(0)Z0S0*/
	$C674  A9 87:       lda #<_data_0987			/* A(87)<674>X(12)<84>Y(00)<6A>MAP[00:[00],01:[01],00:[00],01:[01],mmc:(un)]s(0)Z0S1*/
	$C676  8D 00 40:    sta $4000			/* A(87)<674>X(12)<84>Y(00)<6A>MAP[00:[00],01:[01],00:[00],01:[01],mmc:(un)]s(0)Z0S1*/
	$C679  A9 89:       lda #>_data_0987			/* A(89)<679>X(12)<84>Y(00)<6A>MAP[00:[00],01:[01],00:[00],01:[01],mmc:(un)]s(0)Z0S1*/
	$C67B  8D 01 40:    sta $4001			/* A(89)<679>X(12)<84>Y(00)<6A>MAP[00:[00],01:[01],00:[00],01:[01],mmc:(un)]s(0)Z0S1*/
	$C67E  A9 F0:       lda #$F0			/* A(F0)<67E>X(12)<84>Y(00)<6A>MAP[00:[00],01:[01],00:[00],01:[01],mmc:(un)]s(0)Z0S1*/
	$C680  8D 02 40:    sta $4002			/* A(F0)<67E>X(12)<84>Y(00)<6A>MAP[00:[00],01:[01],00:[00],01:[01],mmc:(un)]s(0)Z0S1*/
	$C683  A9 00:       lda #$00			/* A(00)<683>X(12)<84>Y(00)<6A>MAP[00:[00],01:[01],00:[00],01:[01],mmc:(un)]s(0)Z1S0*/
	$C685  8D 03 40:    sta $4003			/* A(00)<683>X(12)<84>Y(00)<6A>MAP[00:[00],01:[01],00:[00],01:[01],mmc:(un)]s(0)Z1S0*/
	$C688  60:          rts 			/* A(00)<683>X(12)<84>Y(00)<6A>MAP[00:[00],01:[01],00:[00],01:[01],mmc:(un)]s(0)Z1S0*/(barrier)
;------------------------------------------
_func_0689
	$C689  A9 02:       lda #$02			/* A(??)X(??)Y(00)<6A>MAP[00:[00],01:[01],00:[00],01:[01],mmc:(un)]s(0)Z?S?*/
	$C68B  8D 15 40:    sta $4015			/* A(02)<689>X(12)<84>Y(00)<6A>MAP[00:[00],01:[01],00:[00],01:[01],mmc:(un)]s(0)Z0S0*/
	$C68E  A9 3F:       lda #<_data_1A3F			/* A(3F)<68E>X(12)<84>Y(00)<6A>MAP[00:[00],01:[01],00:[00],01:[01],mmc:(un)]s(0)Z0S0*/
	$C690  8D 04 40:    sta $4004			/* A(3F)<68E>X(12)<84>Y(00)<6A>MAP[00:[00],01:[01],00:[00],01:[01],mmc:(un)]s(0)Z0S0*/
	$C693  A9 9A:       lda #>_data_1A3F			/* A(9A)<693>X(12)<84>Y(00)<6A>MAP[00:[00],01:[01],00:[00],01:[01],mmc:(un)]s(0)Z0S1*/
	$C695  8D 05 40:    sta $4005			/* A(9A)<693>X(12)<84>Y(00)<6A>MAP[00:[00],01:[01],00:[00],01:[01],mmc:(un)]s(0)Z0S1*/
	$C698  A9 FF:       lda #$FF			/* A(FF)<698>X(12)<84>Y(00)<6A>MAP[00:[00],01:[01],00:[00],01:[01],mmc:(un)]s(0)Z0S1*/
	$C69A  8D 06 40:    sta $4006			/* A(FF)<698>X(12)<84>Y(00)<6A>MAP[00:[00],01:[01],00:[00],01:[01],mmc:(un)]s(0)Z0S1*/
	$C69D  A9 00:       lda #$00			/* A(00)<69D>X(12)<84>Y(00)<6A>MAP[00:[00],01:[01],00:[00],01:[01],mmc:(un)]s(0)Z1S0*/
	$C69F  8D 07 40:    sta $4007			/* A(00)<69D>X(12)<84>Y(00)<6A>MAP[00:[00],01:[01],00:[00],01:[01],mmc:(un)]s(0)Z1S0*/
	$C6A2  60:          rts 			/* A(00)<69D>X(12)<84>Y(00)<6A>MAP[00:[00],01:[01],00:[00],01:[01],mmc:(un)]s(0)Z1S0*/(barrier)

	$C6A3               .byte $A0,$4E,$A9,$FF,$85,$01,$20,$B0,$C6,$20,$B7,$C6,$60,$A9,$FF,$48
	$C6B3               .byte $A9,$AA,$D0,$05,$A9,$34,$48,$A9,$55,$28,$04,$A9,$44,$A9,$64,$A9
	$C6C3               .byte $EA,$EA,$EA,$EA,$08,$48,$0C,$A9,$A9,$EA,$EA,$EA,$EA,$08,$48,$14
	$C6D3               .byte $A9,$34,$A9,$54,$A9,$74,$A9,$D4,$A9,$F4,$A9,$EA,$EA,$EA,$EA,$08
	$C6E3               .byte $48,$1A,$3A,$5A,$7A,$DA,$FA,$80,$89,$EA,$EA,$EA,$EA,$08,$48,$1C
	$C6F3               .byte $A9,$A9,$3C,$A9,$A9,$5C,$A9,$A9,$7C,$A9,$A9,$DC,$A9,$A9,$FC,$A9
	$C703               .byte $A9,$EA,$EA,$EA,$EA,$08,$48,$A2,$05,$68,$C9,$55,$F0,$0A,$C9,$AA
	$C713               .byte $F0,$06,$68,$84,$00,$4C,$28,$C7,$68,$29,$CB,$C9,$00,$F0,$06,$C9
	$C723               .byte $CB,$F0,$02,$84,$00,$C8,$CA,$D0,$E0,$60,$EA,$38,$B0,$04,$A2,$01
	$C733               .byte $86,$00,$EA,$18,$B0,$03,$4C,$40,$C7,$A2,$02,$86,$00,$EA,$38,$90
	$C743               .byte $03,$4C,$4B,$C7,$A2,$03,$86,$00,$EA,$18,$90,$04,$A2,$04,$86,$00
	$C753               .byte $EA,$A9,$00,$F0,$04,$A2,$05,$86,$00,$EA,$A9,$40,$F0,$03,$4C,$68
	$C763               .byte $C7,$A2,$06,$86,$00,$EA,$A9,$40,$D0,$04,$A2,$07,$86,$00,$EA,$A9
	$C773               .byte $00,$D0,$03,$4C,$7D,$C7,$A2,$08,$86,$00,$EA,$A9,$FF,$85,$01,$24
	$C783               .byte $01,$70,$04,$A2,$09,$86,$00,$EA,$24,$01,$50,$03,$4C,$96,$C7,$A2
	$C793               .byte $0A,$86,$00,$EA,$A9,$00,$85,$01,$24,$01,$50,$04,$A2,$0B,$86,$00
	$C7A3               .byte $EA,$24,$01,$70,$03,$4C,$AF,$C7,$A2,$0C,$86,$00,$EA,$A9,$00,$10
	$C7B3               .byte $04,$A2,$0D,$86,$00,$EA,$A9,$80,$10,$03,$4C,$D9,$C7,$A2,$0E,$86
	$C7C3               .byte $00,$EA,$A9,$80,$30,$04,$A2,$0F,$86,$00,$EA,$A9,$00,$30,$03,$4C
	$C7D3               .byte $D9,$C7,$A2,$10,$86,$00,$EA,$60,$EA,$A9,$FF,$85,$01,$24,$01,$A9
	$C7E3               .byte $00,$38,$78,$F8,$08,$68,$29,$EF,$C9,$6F,$F0,$04,$A2,$11,$86,$00
	$C7F3               .byte $EA,$A9,$40,$85,$01,$24,$01,$D8,$A9,$10,$18,$08,$68,$29,$EF,$C9
	$C803               .byte $64,$F0,$04,$A2,$12,$86,$00,$EA,$A9,$80,$85,$01,$24,$01,$F8,$A9
	$C813               .byte $00,$38,$08,$68,$29,$EF,$C9,$2F,$F0,$04,$A2,$13,$86,$00,$EA,$A9
	$C823               .byte $FF,$48,$28,$D0,$09,$10,$07,$50,$05,$90,$03,$4C,$35,$C8,$A2,$14
	$C833               .byte $86,$00,$EA,$A9,$04,$48,$28,$F0,$09,$30,$07,$70,$05,$B0,$03,$4C
	$C843               .byte $49,$C8,$A2,$15,$86,$00,$EA,$F8,$A9,$FF,$85,$01,$24,$01,$18,$A9
	$C853               .byte $00,$48,$A9,$FF,$68,$D0,$09,$30,$07,$50,$05,$B0,$03,$4C,$67,$C8
	$C863               .byte $A2,$16,$86,$00,$EA,$A9,$00,$85,$01,$24,$01,$38,$A9,$FF,$48,$A9
	$C873               .byte $00,$68,$F0,$09,$10,$07,$70,$05,$90,$03,$4C,$84,$C8,$A2,$17,$86
	$C883               .byte $00,$60,$EA,$18,$A9,$FF,$85,$01,$24,$01,$A9,$55,$09,$AA,$B0,$0B
	$C893               .byte $10,$09,$C9,$FF,$D0,$05,$50,$03,$4C,$A2,$C8,$A2,$18,$86,$00,$EA
	$C8A3               .byte $38,$B8,$A9,$00,$09,$00,$D0,$09,$70,$07,$90,$05,$30,$03,$4C,$B8
	$C8B3               .byte $C8,$A2,$19,$86,$00,$EA,$18,$24,$01,$A9,$55,$29,$AA,$D0,$09,$50
	$C8C3               .byte $07,$B0,$05,$30,$03,$4C,$CF,$C8,$A2,$1A,$86,$00,$EA,$38,$B8,$A9
	$C8D3               .byte $F8,$29,$EF,$90,$0B,$10,$09,$C9,$E8,$D0,$05,$70,$03,$4C,$E7,$C8
	$C8E3               .byte $A2,$1B,$86,$00,$EA,$18,$24,$01,$A9,$5F,$49,$AA,$B0,$0B,$10,$09
	$C8F3               .byte $C9,$F5,$D0,$05,$50,$03,$4C,$00,$C9,$A2,$1C,$86,$00,$EA,$38,$B8
	$C903               .byte $A9,$70,$49,$70,$D0,$09,$70,$07,$90,$05,$30,$03,$4C,$16,$C9,$A2
	$C913               .byte $1D,$86,$00,$EA,$18,$24,$01,$A9,$00,$69,$69,$30,$0B,$B0,$09,$C9
	$C923               .byte $69,$D0,$05,$70,$03,$4C,$2F,$C9,$A2,$1E,$86,$00,$EA,$38,$F8,$24
	$C933               .byte $01,$A9,$01,$69,$69,$30,$0B,$B0,$09,$C9,$6B,$D0,$05,$70,$03,$4C
	$C943               .byte $49,$C9,$A2,$1F,$86,$00,$EA,$D8,$38,$B8,$A9,$7F,$69,$7F,$10,$0B
	$C953               .byte $B0,$09,$C9,$FF,$D0,$05,$50,$03,$4C,$62,$C9,$A2,$20,$86,$00,$EA
	$C963               .byte $18,$24,$01,$A9,$7F,$69,$80,$10,$0B,$B0,$09,$C9,$FF,$D0,$05,$70
	$C973               .byte $03,$4C,$7B,$C9,$A2,$21,$86,$00,$EA,$38,$B8,$A9,$7F,$69,$80,$D0
	$C983               .byte $09,$30,$07,$70
_data_0987
	$C987               .byte $05,$90,$03,$4C,$91,$C9,$A2,$22,$86,$00,$EA,$38,$B8,$A9,$9F,$F0
	$C997               .byte $09,$10,$07,$70,$05,$90,$03,$4C,$A5,$C9,$A2,$23,$86,$00,$EA,$18
	$C9A7               .byte $24,$01,$A9,$00,$D0,$09,$30,$07,$50,$05,$B0,$03,$4C,$BA,$C9,$A2
	$C9B7               .byte $23,$86,$00,$EA,$24,$01,$A9,$40,$C9,$40,$30,$09,$90,$07,$D0,$05
	$C9C7               .byte $50,$03,$4C,$D0,$C9,$A2,$24,$86,$00,$EA,$B8,$C9,$3F,$F0,$09,$30
	$C9D7               .byte $07,$90,$05,$70,$03,$4C,$E3,$C9,$A2,$25,$86,$00,$EA,$C9,$41,$F0
	$C9E7               .byte $07,$10,$05,$10,$03,$4C,$F3,$C9,$A2,$26,$86,$00,$EA,$A9,$80,$C9
	$C9F7               .byte $00,$F0,$07,$10,$05,$90,$03,$4C,$05,$CA,$A2,$27,$86,$00,$EA,$C9
	$CA07               .byte $80,$D0,$07,$30,$05,$90,$03,$4C,$15,$CA,$A2,$28,$86,$00,$EA,$C9
	$CA17               .byte $81,$B0,$07,$F0,$05,$10,$03,$4C,$25,$CA,$A2,$29,$86,$00,$EA,$C9
	$CA27               .byte $7F,$90,$07,$F0,$05,$30,$03,$4C,$35,$CA,$A2,$2A,$86,$00,$EA,$24
	$CA37               .byte $01,$A0,$40,$C0,$40,$D0,$09,$30,$07,$90,$05,$50,$03,$4C,$4B,$CA
	$CA47               .byte $A2,$2B,$86,$00,$EA,$B8,$C0,$3F,$F0,$09,$30,$07,$90,$05,$70,$03
	$CA57               .byte $4C,$5E,$CA,$A2,$2C,$86,$00,$EA,$C0,$41,$F0,$07,$10,$05,$10,$03
	$CA67               .byte $4C,$6E,$CA,$A2,$2D,$86,$00,$EA,$A0,$80,$C0,$00,$F0,$07,$10,$05
	$CA77               .byte $90,$03,$4C,$80,$CA,$A2,$2E,$86,$00,$EA,$C0,$80,$D0,$07,$30,$05
	$CA87               .byte $90,$03,$4C,$90,$CA,$A2,$2F,$86,$00,$EA,$C0,$81,$B0,$07,$F0,$05
	$CA97               .byte $10,$03,$4C,$A0,$CA,$A2,$30,$86,$00,$EA,$C0,$7F,$90,$07,$F0,$05
	$CAA7               .byte $30,$03,$4C,$B0,$CA,$A2,$31,$86,$00,$EA,$24,$01,$A2,$40,$E0,$40
	$CAB7               .byte $D0,$09,$30,$07,$90,$05,$50,$03,$4C,$C6,$CA,$A9,$32,$85,$00,$EA
	$CAC7               .byte $B8,$E0,$3F,$F0,$09,$30,$07,$90,$05,$70,$03,$4C,$D9,$CA,$A9,$33
	$CAD7               .byte $85,$00,$EA,$E0,$41,$F0,$07,$10,$05,$10,$03,$4C,$E9,$CA,$A9,$34
	$CAE7               .byte $85,$00,$EA,$A2,$80,$E0,$00,$F0,$07,$10,$05,$90,$03,$4C,$FB,$CA
	$CAF7               .byte $A9,$35,$85,$00,$EA,$E0,$80,$D0,$07,$30,$05,$90,$03,$4C,$0B,$CB
	$CB07               .byte $A9,$36,$85,$00,$EA,$E0,$81,$B0,$07,$F0,$05,$10,$03,$4C,$1B,$CB
	$CB17               .byte $A9,$37,$85,$00,$EA,$E0,$7F,$90,$07,$F0,$05,$30,$03,$4C,$2B,$CB
	$CB27               .byte $A9,$38,$85,$00,$EA,$38,$B8,$A2,$9F,$F0,$09,$10,$07,$70,$05,$90
	$CB37               .byte $03,$4C,$3F,$CB,$A2,$39,$86,$00,$EA,$18,$24,$01,$A2,$00,$D0,$09
	$CB47               .byte $30,$07,$50,$05,$B0,$03,$4C,$54,$CB,$A2,$3A,$86,$00,$EA,$38,$B8
	$CB57               .byte $A0,$9F,$F0,$09,$10,$07,$70,$05,$90,$03,$4C,$68,$CB,$A2,$3B,$86
	$CB67               .byte $00,$EA,$18,$24,$01,$A0,$00,$D0,$09,$30,$07,$50,$05,$B0,$03,$4C
	$CB77               .byte $7D,$CB,$A2,$3C,$86,$00,$EA,$A9,$55,$A2,$AA,$A0,$33,$C9,$55,$D0
	$CB87               .byte $23,$E0,$AA,$D0,$1F,$C0,$33,$D0,$1B,$C9,$55,$D0,$17,$E0,$AA,$D0
	$CB97               .byte $13,$C0,$33,$D0,$0F,$C9,$56,$F0,$0B,$E0,$AB,$F0,$07,$C0,$34,$F0
	$CBA7               .byte $03,$4C,$AF,$CB,$A2,$3D,$86,$00,$A0,$71,$20,$31,$F9,$E9,$40,$20
	$CBB7               .byte $37,$F9,$C8,$20,$47,$F9,$E9,$3F,$20,$4C,$F9,$C8,$20,$5C,$F9,$E9
	$CBC7               .byte $41,$20,$62,$F9,$C8,$20,$72,$F9,$E9,$00,$20,$76,$F9,$C8,$20,$80
	$CBD7               .byte $F9,$E9,$7F,$20,$84,$F9,$60,$EA,$A9,$FF,$85,$01,$A9,$44,$A2,$55
	$CBE7               .byte $A0,$66,$E8,$88,$E0,$56,$D0,$21,$C0,$65,$D0,$1D,$E8,$E8,$88,$88
	$CBF7               .byte $E0,$58,$D0,$15,$C0,$63,$D0,$11,$CA,$C8,$E0,$57,$D0,$0B,$C0,$64
	$CC07               .byte $D0,$07,$C9,$44,$D0,$03,$4C,$14,$CC,$A2,$3E,$86,$00,$EA,$38,$A2
	$CC17               .byte $69,$A9,$96,$24,$01,$A0,$FF,$C8,$D0,$3D,$30,$3B,$90,$39,$50,$37
	$CC27               .byte $C0,$00,$D0,$33,$C8,$F0,$30,$30,$2E,$90,$2C,$50,$2A,$18,$B8,$A0
	$CC37               .byte $00,$88,$F0,$23,$10,$21,$B0,$1F,$70,$1D,$C0,$FF,$D0,$19,$18,$88
	$CC47               .byte $F0,$15,$10,$13,$B0,$11,$70,$0F,$C0,$FE,$D0,$0B,$C9,$96,$D0,$07
	$CC57               .byte $E0,$69,$D0,$03,$4C,$62,$CC,$A2,$3F,$86,$00,$EA,$38,$A0,$69,$A9
	$CC67               .byte $96,$24,$01,$A2,$FF,$E8,$D0,$3D,$30,$3B,$90,$39,$50,$37,$E0,$00
	$CC77               .byte $D0,$33,$E8,$F0,$30,$30,$2E,$90,$2C,$50,$2A,$18,$B8,$A2,$00,$CA
	$CC87               .byte $F0,$23,$10,$21,$B0,$1F,$70,$1D,$E0,$FF,$D0,$19,$18,$CA,$F0,$15
	$CC97               .byte $10,$13,$B0,$11,$70,$0F,$E0,$FE,$D0,$0B,$C9,$96,$D0,$07,$C0,$69
	$CCA7               .byte $D0,$03,$4C,$B0,$CC,$A2,$40,$86,$00,$EA,$A9,$85,$A2,$34,$A0,$99
	$CCB7               .byte $18,$24,$01,$A8,$F0,$2E,$B0,$2C,$50,$2A,$10,$28,$C9,$85,$D0,$24
	$CCC7               .byte $E0,$34,$D0,$20,$C0,$85,$D0,$1C,$A9,$00,$38,$B8,$A8,$D0,$15,$90
	$CCD7               .byte $13,$70,$11,$30,$0F,$C9,$00,$D0,$0B,$E0,$34,$D0,$07,$C0,$00,$D0
	$CCE7               .byte $03,$4C,$EF,$CC,$A2,$41,$86,$00,$EA,$A9,$85,$A2,$34,$A0,$99,$18
	$CCF7               .byte $24,$01,$AA,$F0,$2E,$B0,$2C,$50,$2A,$10,$28,$C9,$85,$D0,$24,$E0
	$CD07               .byte $85,$D0,$20,$C0,$99,$D0,$1C,$A9,$00,$38,$B8,$AA,$D0,$15,$90,$13
	$CD17               .byte $70,$11,$30,$0F,$C9,$00,$D0,$0B,$E0,$00,$D0,$07,$C0,$99,$D0,$03
	$CD27               .byte $4C,$2E,$CD,$A2,$42,$86,$00,$EA,$A9,$85,$A2,$34,$A0,$99,$18,$24
	$CD37               .byte $01,$98,$F0,$2E,$B0,$2C,$50,$2A,$10,$28,$C9,$99,$D0,$24,$E0,$34
	$CD47               .byte $D0,$20,$C0,$99,$D0,$1C,$A0,$00,$38,$B8,$98,$D0,$15,$90,$13,$70
	$CD57               .byte $11,$30,$0F,$C9,$00,$D0,$0B,$E0,$34,$D0,$07,$C0,$00,$D0,$03,$4C
	$CD67               .byte $6D,$CD,$A2,$43,$86,$00,$EA,$A9,$85,$A2,$34,$A0,$99,$18,$24,$01
	$CD77               .byte $8A,$F0,$2E,$B0,$2C,$50,$2A,$30,$28,$C9,$34,$D0,$24,$E0,$34,$D0
	$CD87               .byte $20,$C0,$99,$D0,$1C,$A2,$00,$38,$B8,$8A,$D0,$15,$90,$13,$70,$11
	$CD97               .byte $30,$0F,$C9,$00,$D0,$0B,$E0,$00,$D0,$07,$C0,$99,$D0,$03,$4C,$AC
	$CDA7               .byte $CD,$A2,$44,$86,$00,$EA,$BA,$8E,$FF,$07,$A0,$33,$A2,$69,$A9,$84
	$CDB7               .byte $18,$24,$01,$9A,$F0,$32,$10,$30,$B0,$2E,$50,$2C,$C9,$84,$D0,$28
	$CDC7               .byte $E0,$69,$D0,$24,$C0,$33,$D0,$20,$A0,$01,$A9,$04,$38,$B8,$A2,$00
	$CDD7               .byte $BA,$F0,$15,$30,$13,$90,$11,$70,$0F,$E0,$69,$D0,$0B,$C9,$04,$D0
	$CDE7               .byte $07,$C0,$01,$D0,$03,$4C,$F3,$CD,$A2,$45,$86,$00,$AE,$FF,$07,$9A
	$CDF7               .byte $60,$A9,$FF,$85,$01,$BA,$8E,$FF,$07,$EA,$A2,$80,$9A,$A9,$33,$48
	$CE07               .byte $A9,$69,$48,$BA,$E0,$7E,$D0,$20,$68,$C9,$69,$D0,$1B,$68,$C9,$33
	$CE17               .byte $D0,$16,$BA,$E0,$80,$D0,$11,$AD,$80,$01,$C9,$33,$D0,$0A,$AD,$7F
	$CE27               .byte $01,$C9,$69,$D0,$03,$4C,$33,$CE,$A2,$46,$86,$00,$EA,$A2,$80,$9A
	$CE37               .byte $20,$3D,$CE,$4C,$5B,$CE,$BA,$E0,$7E,$D0,$19,$68,$68,$BA,$E0,$80
	$CE47               .byte $D0,$12,$A9,$00,$20,$4E,$CE,$68,$C9,$4D,$D0,$08,$68,$C9,$CE,$D0
	$CE57               .byte $03,$4C,$5F,$CE,$A2,$47,$86,$00,$EA,$A9,$CE,$48,$A9,$66,$48,$60
	$CE67               .byte $A2,$77,$A0,$69,$18,$24,$01,$A9,$83,$20,$66,$CE,$F0,$24,$10,$22
	$CE77               .byte $B0,$20,$50,$1E,$C9,$83,$D0,$1A,$C0,$69,$D0,$16,$E0,$77,$D0,$12
	$CE87               .byte $38,$B8,$A9,$00,$20,$66,$CE,$D0,$09,$30,$07,$90,$05,$70,$03,$4C
	$CE97               .byte $9D,$CE,$A2,$48,$86,$00,$EA,$A9,$CE,$48,$A9,$AE,$48,$A9,$65,$48
	$CEA7               .byte $A9,$55,$A0,$88,$A2,$99,$40,$30,$35,$50,$33,$F0,$31,$90,$2F,$C9
	$CEB7               .byte $55,$D0,$2B,$C0,$88,$D0,$27,$E0,$99,$D0,$23,$A9,$CE,$48,$A9,$CE
	$CEC7               .byte $48,$A9,$87,$48,$A9,$55,$40,$10,$15,$70,$13,$D0,$11,$90,$0F,$C9
	$CED7               .byte $55,$D0,$0B,$C0,$88,$D0,$07,$E0,$99,$D0,$03,$4C,$E9,$CE,$A2,$49
	$CEE7               .byte $86,$00,$AE,$FF,$07,$9A,$60,$A2,$55,$A0,$69,$A9,$FF,$85,$01,$EA
	$CEF7               .byte $24,$01,$38,$A9,$01,$4A,$90,$1D,$D0,$1B,$30,$19,$50,$17,$C9,$00
	$CF07               .byte $D0,$13,$B8,$A9,$AA,$4A,$B0,$0D,$F0,$0B,$30,$09,$70,$07,$C9,$55
	$CF17               .byte $D0,$03,$4C,$20,$CF,$A2,$4A,$86,$00,$EA,$24,$01,$38,$A9,$80,$0A
	$CF27               .byte $90,$1E,$D0,$1C,$30,$1A,$50,$18,$C9,$00,$D0,$14,$B8,$38,$A9,$55
	$CF37               .byte $0A,$B0,$0D,$F0,$0B,$10,$09,$70,$07,$C9,$AA,$D0,$03,$4C,$4B,$CF
	$CF47               .byte $A2,$4B,$86,$00,$EA,$24,$01,$38,$A9,$01,$6A,$90,$1E,$F0,$1C,$10
	$CF57               .byte $1A,$50,$18,$C9,$80,$D0,$14,$B8,$18,$A9,$55,$6A,$90,$0D,$F0,$0B
	$CF67               .byte $30,$09,$70,$07,$C9,$2A,$D0,$03,$4C,$76,$CF,$A2,$4C,$86,$00,$EA
	$CF77               .byte $24,$01,$38,$A9,$80,$2A,$90,$1E,$F0,$1C,$30,$1A,$50,$18,$C9,$01
	$CF87               .byte $D0,$14,$B8,$18,$A9,$55,$2A,$B0,$0D,$F0,$0B,$10,$09,$70,$07,$C9
	$CF97               .byte $AA,$D0,$03,$4C,$A1,$CF,$A2,$4D,$86,$00,$60,$A5,$00,$8D,$FF,$07
	$CFA7               .byte $A9,$00,$85,$80,$A9,$02,$85,$81,$A9,$FF,$85,$01,$A9,$00,$85,$82
	$CFB7               .byte $A9,$03,$85,$83,$85,$84,$A9,$00,$85,$FF,$A9,$04,$85,$00,$A9,$5A
	$CFC7               .byte $8D,$00,$02,$A9,$5B,$8D,$00,$03,$A9,$5C,$8D,$03,$03,$A9,$5D,$8D
	$CFD7               .byte $00,$04,$A2,$00,$A1,$80,$C9,$5A,$D0,$1F,$E8,$E8,$A1,$80,$C9,$5B
	$CFE7               .byte $D0,$17,$E8,$A1,$80,$C9,$5C,$D0,$10,$A2,$00,$A1,$FF,$C9,$5D,$D0
	$CFF7               .byte $08,$A2,$81,$A1,$FF,$C9,$5A,$F0,$05,$A9,$58,$8D,$FF,$07,$A9,$AA
	$D007               .byte $A2,$00,$81,$80,$E8,$E8,$A9,$AB,$81,$80,$E8,$A9,$AC,$81,$80,$A2
	$D017               .byte $00,$A9,$AD,$81,$FF,$AD,$00,$02,$C9,$AA,$D0,$15,$AD,$00,$03,$C9
	$D027               .byte $AB,$D0,$0E,$AD,$03,$03,$C9,$AC,$D0,$07,$AD,$00,$04,$C9,$AD,$F0
	$D037               .byte $05,$A9,$59,$8D,$FF,$07,$AD,$FF,$07,$85,$00,$A9,$00,$8D,$00,$03
	$D047               .byte $A9,$AA,$8D,$00,$02,$A2,$00,$A0,$5A,$20,$B6,$F7,$01,$80,$20,$C0
	$D057               .byte $F7,$C8,$20,$CE,$F7,$01,$82,$20,$D3,$F7,$C8,$20,$DF,$F7,$21,$80
	$D067               .byte $20,$E5,$F7,$C8,$A9,$EF,$8D,$00,$03,$20,$F1,$F7,$21,$82,$20,$F6
	$D077               .byte $F7,$C8,$20,$04,$F8,$41,$80,$20,$0A,$F8,$C8,$A9,$70,$8D,$00,$03
	$D087               .byte $20,$18,$F8,$41,$82,$20,$1D,$F8,$C8,$A9,$69,$8D,$00,$02,$20,$29
	$D097               .byte $F8,$61,$80,$20,$2F,$F8,$C8,$20,$3D,$F8,$61,$80,$20,$43,$F8,$C8
	$D0A7               .byte $A9,$7F,$8D,$00,$02,$20,$51,$F8,$61,$80,$20,$56,$F8,$C8,$A9,$80
	$D0B7               .byte $8D,$00,$02,$20,$64,$F8,$61,$80,$20,$6A,$F8,$C8,$20,$78,$F8,$61
	$D0C7               .byte $80,$20,$7D,$F8,$C8,$A9,$40,$8D,$00,$02,$20,$89,$F8,$C1,$80,$20
	$D0D7               .byte $8E,$F8,$C8,$48,$A9,$3F,$8D,$00,$02,$68,$20,$9A,$F8,$C1,$80,$20
	$D0E7               .byte $9C,$F8,$C8,$48,$A9,$41,$8D,$00,$02,$68,$C1,$80,$20,$A8,$F8,$C8
	$D0F7               .byte $48,$A9,$00,$8D,$00,$02,$68,$20,$B2,$F8,$C1,$80,$20,$B5,$F8,$C8
	$D107               .byte $48,$A9,$80,$8D,$00,$02,$68,$C1,$80,$20,$BF,$F8,$C8,$48,$A9,$81
	$D117               .byte $8D,$00,$02,$68,$C1,$80,$20,$C9,$F8,$C8,$48,$A9,$7F,$8D,$00,$02
	$D127               .byte $68,$C1,$80,$20,$D3,$F8,$C8,$A9,$40,$8D,$00,$02,$20,$31,$F9,$E1
	$D137               .byte $80,$20,$37,$F9,$C8,$A9,$3F,$8D,$00,$02,$20,$47,$F9,$E1,$80,$20
	$D147               .byte $4C,$F9,$C8,$A9,$41,$8D,$00,$02,$20,$5C,$F9,$E1,$80,$20,$62,$F9
	$D157               .byte $C8,$A9,$00,$8D,$00,$02,$20,$72,$F9,$E1,$80,$20,$76,$F9,$C8,$A9
	$D167               .byte $7F,$8D,$00,$02,$20,$80,$F9,$E1,$80,$20,$84,$F9,$60,$A9,$55,$85
	$D177               .byte $78,$A9,$FF,$85,$01,$24,$01,$A0,$11,$A2,$23,$A9,$00,$A5,$78,$F0
	$D187               .byte $10,$30,$0E,$C9,$55,$D0,$0A,$C0,$11,$D0,$06,$E0,$23,$50,$02,$F0
	$D197               .byte $04,$A9,$76,$85,$00,$A9,$46,$24,$01,$85,$78,$F0,$0A,$10,$08,$50
	$D1A7               .byte $06,$A5,$78,$C9,$46,$F0,$04,$A9,$77,$85,$00,$A9,$55,$85,$78,$24
	$D1B7               .byte $01,$A9,$11,$A2,$23,$A0,$00,$A4,$78,$F0,$10,$30,$0E,$C0,$55,$D0
	$D1C7               .byte $0A,$C9,$11,$D0,$06,$E0,$23,$50,$02,$F0,$04,$A9,$78,$85,$00,$A0
	$D1D7               .byte $46,$24,$01,$84,$78,$F0,$0A,$10,$08,$50,$06,$A4,$78,$C0,$46,$F0
	$D1E7               .byte $04,$A9,$79,$85,$00,$24,$01,$A9,$55,$85,$78,$A0,$11,$A9,$23,$A2
	$D1F7               .byte $00,$A6,$78,$F0,$10,$30,$0E,$E0,$55,$D0,$0A,$C0,$11,$D0,$06,$C9
	$D207               .byte $23,$50,$02,$F0,$04,$A9,$7A,$85,$00,$A2,$46,$24,$01,$86,$78,$F0
	$D217               .byte $0A,$10,$08,$50,$06,$A6,$78,$E0,$46,$F0,$04,$A9,$7B,$85,$00,$A9
	$D227               .byte $C0,$85,$78,$A2,$33,$A0,$88,$A9,$05,$24,$78,$10,$10,$50,$0E,$D0
	$D237               .byte $0C,$C9,$05,$D0,$08,$E0,$33,$D0,$04,$C0,$88,$F0,$04,$A9,$7C,$85
	$D247               .byte $00,$A9,$03,$85,$78,$A9,$01,$24,$78,$30,$08,$70,$06,$F0,$04,$C9
	$D257               .byte $01,$F0,$04,$A9,$7D,$85,$00,$A0,$7E,$A9,$AA,$85,$78,$20,$B6,$F7
	$D267               .byte $05,$78,$20,$C0,$F7,$C8,$A9,$00,$85,$78,$20,$CE,$F7,$05,$78,$20
	$D277               .byte $D3,$F7,$C8,$A9,$AA,$85,$78,$20,$DF,$F7,$25,$78,$20,$E5,$F7,$C8
	$D287               .byte $A9,$EF,$85,$78,$20,$F1,$F7,$25,$78,$20,$F6,$F7,$C8,$A9,$AA,$85
	$D297               .byte $78,$20,$04,$F8,$45,$78,$20,$0A,$F8,$C8,$A9,$70,$85,$78,$20,$18
	$D2A7               .byte $F8,$45,$78,$20,$1D,$F8,$C8,$A9,$69,$85,$78,$20,$29,$F8,$65,$78
	$D2B7               .byte $20,$2F,$F8,$C8,$20,$3D,$F8,$65,$78,$20,$43,$F8,$C8,$A9,$7F,$85
	$D2C7               .byte $78,$20,$51,$F8,$65,$78,$20,$56,$F8,$C8,$A9,$80,$85,$78,$20,$64
	$D2D7               .byte $F8,$65,$78,$20,$6A,$F8,$C8,$20,$78,$F8,$65,$78,$20,$7D,$F8,$C8
	$D2E7               .byte $A9,$40,$85,$78,$20,$89,$F8,$C5,$78,$20,$8E,$F8,$C8,$48,$A9,$3F
	$D2F7               .byte $85,$78,$68,$20,$9A,$F8,$C5,$78,$20,$9C,$F8,$C8,$48,$A9,$41,$85
	$D307               .byte $78,$68,$C5,$78,$20,$A8,$F8,$C8,$48,$A9,$00,$85,$78,$68,$20,$B2
	$D317               .byte $F8,$C5,$78,$20,$B5,$F8,$C8,$48,$A9,$80,$85,$78,$68,$C5,$78,$20
	$D327               .byte $BF,$F8,$C8,$48,$A9,$81,$85,$78,$68,$C5,$78,$20,$C9,$F8,$C8,$48
	$D337               .byte $A9,$7F,$85,$78,$68,$C5,$78,$20,$D3,$F8,$C8,$A9,$40,$85,$78,$20
	$D347               .byte $31,$F9,$E5,$78,$20,$37,$F9,$C8,$A9,$3F,$85,$78,$20,$47,$F9,$E5
	$D357               .byte $78,$20,$4C,$F9,$C8,$A9,$41,$85,$78,$20,$5C,$F9,$E5,$78,$20,$62
	$D367               .byte $F9,$C8,$A9,$00,$85,$78,$20,$72,$F9,$E5,$78,$20,$76,$F9,$C8,$A9
	$D377               .byte $7F,$85,$78,$20,$80,$F9,$E5,$78,$20,$84,$F9,$C8,$A9,$40,$85,$78
	$D387               .byte $20,$89,$F8,$AA,$E4,$78,$20,$8E,$F8,$C8,$A9,$3F,$85,$78,$20,$9A
	$D397               .byte $F8,$E4,$78,$20,$9C,$F8,$C8,$A9,$41,$85,$78,$E4,$78,$20,$A8,$F8
	$D3A7               .byte $C8,$A9,$00,$85,$78,$20,$B2,$F8,$AA,$E4,$78,$20,$B5,$F8,$C8,$A9
	$D3B7               .byte $80,$85,$78,$E4,$78,$20,$BF,$F8,$C8,$A9,$81,$85,$78,$E4,$78,$20
	$D3C7               .byte $C9,$F8,$C8,$A9,$7F,$85,$78,$E4,$78,$20,$D3,$F8,$C8,$98,$AA,$A9
	$D3D7               .byte $40,$85,$78,$20,$DD,$F8,$C4,$78,$20,$E2,$F8,$E8,$A9,$3F,$85,$78
	$D3E7               .byte $20,$EE,$F8,$C4,$78,$20,$F0,$F8,$E8,$A9,$41,$85,$78,$C4,$78,$20
	$D3F7               .byte $FC,$F8,$E8,$A9,$00,$85,$78,$20,$06,$F9,$C4,$78,$20,$09,$F9,$E8
	$D407               .byte $A9,$80,$85,$78,$C4,$78,$20,$13,$F9,$E8,$A9,$81,$85,$78,$C4,$78
	$D417               .byte $20,$1D,$F9,$E8,$A9,$7F,$85,$78,$C4,$78,$20,$27,$F9,$E8,$8A,$A8
	$D427               .byte $20,$90,$F9,$85,$78,$46,$78,$A5,$78,$20,$9D,$F9,$C8,$85,$78,$46
	$D437               .byte $78,$A5,$78,$20,$AD,$F9,$C8,$20,$BD,$F9,$85,$78,$06,$78,$A5,$78
	$D447               .byte $20,$C3,$F9,$C8,$85,$78,$06,$78,$A5,$78,$20,$D4,$F9,$C8,$20,$E4
	$D457               .byte $F9,$85,$78,$66,$78,$A5,$78,$20,$EA,$F9,$C8,$85,$78,$66,$78,$A5
	$D467               .byte $78,$20,$FB,$F9,$C8,$20,$0A,$FA,$85,$78,$26,$78,$A5,$78,$20,$10
	$D477               .byte $FA,$C8,$85,$78,$26,$78,$A5,$78,$20,$21,$FA,$A9,$FF,$85,$78,$85
	$D487               .byte $01,$24,$01,$38,$E6,$78,$D0,$0C,$30,$0A,$50,$08,$90,$06,$A5,$78
	$D497               .byte $C9,$00,$F0,$04,$A9,$AB,$85,$00,$A9,$7F,$85,$78,$B8,$18,$E6,$78
	$D4A7               .byte $F0,$0C,$10,$0A,$70,$08,$B0,$06,$A5,$78,$C9,$80,$F0,$04,$A9,$AC
	$D4B7               .byte $85,$00,$A9,$00,$85,$78,$24,$01,$38,$C6,$78,$F0,$0C,$10,$0A,$50
	$D4C7               .byte $08,$90,$06,$A5,$78,$C9,$FF,$F0,$04,$A9,$AD,$85,$00,$A9,$80,$85
	$D4D7               .byte $78,$B8,$18,$C6,$78,$F0,$0C,$30,$0A,$70,$08,$B0,$06,$A5,$78,$C9
	$D4E7               .byte $7F,$F0,$04,$A9,$AE,$85,$00,$A9,$01,$85,$78,$C6,$78,$F0,$04,$A9
	$D4F7               .byte $AF,$85,$00,$60,$A9,$55,$8D,$78,$06,$A9,$FF,$85,$01,$24,$01,$A0
	$D507               .byte $11,$A2,$23,$A9,$00,$AD,$78,$06,$F0,$10,$30,$0E,$C9,$55,$D0,$0A
	$D517               .byte $C0,$11,$D0,$06,$E0,$23,$50,$02,$F0,$04,$A9,$B0,$85,$00,$A9,$46
	$D527               .byte $24,$01,$8D,$78,$06,$F0,$0B,$10,$09,$50,$07,$AD,$78,$06,$C9,$46
	$D537               .byte $F0,$04,$A9,$B1,$85,$00,$A9,$55,$8D,$78,$06,$24,$01,$A9,$11,$A2
	$D547               .byte $23,$A0,$00,$AC,$78,$06,$F0,$10,$30,$0E,$C0,$55,$D0,$0A,$C9,$11
	$D557               .byte $D0,$06,$E0,$23,$50,$02,$F0,$04,$A9,$B2,$85,$00,$A0,$46,$24,$01
	$D567               .byte $8C,$78,$06,$F0,$0B,$10,$09,$50,$07,$AC,$78,$06,$C0,$46,$F0,$04
	$D577               .byte $A9,$B3,$85,$00,$24,$01,$A9,$55,$8D,$78,$06,$A0,$11,$A9,$23,$A2
	$D587               .byte $00,$AE,$78,$06,$F0,$10,$30,$0E,$E0,$55,$D0,$0A,$C0,$11,$D0,$06
	$D597               .byte $C9,$23,$50,$02,$F0,$04,$A9,$B4,$85,$00,$A2,$46,$24,$01,$8E,$78
	$D5A7               .byte $06,$F0,$0B,$10,$09,$50,$07,$AE,$78,$06,$E0,$46,$F0,$04,$A9,$B5
	$D5B7               .byte $85,$00,$A9,$C0,$8D,$78,$06,$A2,$33,$A0,$88,$A9,$05,$2C,$78,$06
	$D5C7               .byte $10,$10,$50,$0E,$D0,$0C,$C9,$05,$D0,$08,$E0,$33,$D0,$04,$C0,$88
	$D5D7               .byte $F0,$04,$A9,$B6,$85,$00,$A9,$03,$8D,$78,$06,$A9,$01,$2C,$78,$06
	$D5E7               .byte $30,$08,$70,$06,$F0,$04,$C9,$01,$F0,$04,$A9,$B7,$85,$00,$A0,$B8
	$D5F7               .byte $A9,$AA,$8D,$78,$06,$20,$B6,$F7,$0D,$78,$06,$20,$C0,$F7,$C8,$A9
	$D607               .byte $00,$8D,$78,$06,$20,$CE,$F7,$0D,$78,$06,$20,$D3,$F7,$C8,$A9,$AA
	$D617               .byte $8D,$78,$06,$20,$DF,$F7,$2D,$78,$06,$20,$E5,$F7,$C8,$A9,$EF,$8D
	$D627               .byte $78,$06,$20,$F1,$F7,$2D,$78,$06,$20,$F6,$F7,$C8,$A9,$AA,$8D,$78
	$D637               .byte $06,$20,$04,$F8,$4D,$78,$06,$20,$0A,$F8,$C8,$A9,$70,$8D,$78,$06
	$D647               .byte $20,$18,$F8,$4D,$78,$06,$20,$1D,$F8,$C8,$A9,$69,$8D,$78,$06,$20
	$D657               .byte $29,$F8,$6D,$78,$06,$20,$2F,$F8,$C8,$20,$3D,$F8,$6D,$78,$06,$20
	$D667               .byte $43,$F8,$C8,$A9,$7F,$8D,$78,$06,$20,$51,$F8,$6D,$78,$06,$20,$56
	$D677               .byte $F8,$C8,$A9,$80,$8D,$78,$06,$20,$64,$F8,$6D,$78,$06,$20,$6A,$F8
	$D687               .byte $C8,$20,$78,$F8,$6D,$78,$06,$20,$7D,$F8,$C8,$A9,$40,$8D,$78,$06
	$D697               .byte $20,$89,$F8,$CD,$78,$06,$20,$8E,$F8,$C8,$48,$A9,$3F,$8D,$78,$06
	$D6A7               .byte $68,$20,$9A,$F8,$CD,$78,$06,$20,$9C,$F8,$C8,$48,$A9,$41,$8D,$78
	$D6B7               .byte $06,$68,$CD,$78,$06,$20,$A8,$F8,$C8,$48,$A9,$00,$8D,$78,$06,$68
	$D6C7               .byte $20,$B2,$F8,$CD,$78,$06,$20,$B5,$F8,$C8,$48,$A9,$80,$8D,$78,$06
	$D6D7               .byte $68,$CD,$78,$06,$20,$BF,$F8,$C8,$48,$A9,$81,$8D,$78,$06,$68,$CD
	$D6E7               .byte $78,$06,$20,$C9,$F8,$C8,$48,$A9,$7F,$8D,$78,$06,$68,$CD,$78,$06
	$D6F7               .byte $20,$D3,$F8,$C8,$A9,$40,$8D,$78,$06,$20,$31,$F9,$ED,$78,$06,$20
	$D707               .byte $37,$F9,$C8,$A9,$3F,$8D,$78,$06,$20,$47,$F9,$ED,$78,$06,$20,$4C
	$D717               .byte $F9,$C8,$A9,$41,$8D,$78,$06,$20,$5C,$F9,$ED,$78,$06,$20,$62,$F9
	$D727               .byte $C8,$A9,$00,$8D,$78,$06,$20,$72,$F9,$ED,$78,$06,$20,$76,$F9,$C8
	$D737               .byte $A9,$7F,$8D,$78,$06,$20,$80,$F9,$ED,$78,$06,$20,$84,$F9,$C8,$A9
	$D747               .byte $40,$8D,$78,$06,$20,$89,$F8,$AA,$EC,$78,$06,$20,$8E,$F8,$C8,$A9
	$D757               .byte $3F,$8D,$78,$06,$20,$9A,$F8,$EC,$78,$06,$20,$9C,$F8,$C8,$A9,$41
	$D767               .byte $8D,$78,$06,$EC,$78,$06,$20,$A8,$F8,$C8,$A9,$00,$8D,$78,$06,$20
	$D777               .byte $B2,$F8,$AA,$EC,$78,$06,$20,$B5,$F8,$C8,$A9,$80,$8D,$78,$06,$EC
	$D787               .byte $78,$06,$20,$BF,$F8,$C8,$A9,$81,$8D,$78,$06,$EC,$78,$06,$20,$C9
	$D797               .byte $F8,$C8,$A9,$7F,$8D,$78,$06,$EC,$78,$06,$20,$D3,$F8,$C8,$98,$AA
	$D7A7               .byte $A9,$40,$8D,$78,$06,$20,$DD,$F8,$CC,$78,$06,$20,$E2,$F8,$E8,$A9
	$D7B7               .byte $3F,$8D,$78,$06,$20,$EE,$F8,$CC,$78,$06,$20,$F0,$F8,$E8,$A9,$41
	$D7C7               .byte $8D,$78,$06,$CC,$78,$06,$20,$FC,$F8,$E8,$A9,$00,$8D,$78,$06,$20
	$D7D7               .byte $06,$F9,$CC,$78,$06,$20,$09,$F9,$E8,$A9,$80,$8D,$78,$06,$CC,$78
	$D7E7               .byte $06,$20,$13,$F9,$E8,$A9,$81,$8D,$78,$06,$CC,$78,$06,$20,$1D,$F9
	$D7F7               .byte $E8,$A9,$7F,$8D,$78,$06,$CC,$78,$06,$20,$27,$F9,$E8,$8A,$A8,$20
	$D807               .byte $90,$F9,$8D,$78,$06,$4E,$78,$06,$AD,$78,$06,$20,$9D,$F9,$C8,$8D
	$D817               .byte $78,$06,$4E,$78,$06,$AD,$78,$06,$20,$AD,$F9,$C8,$20,$BD,$F9,$8D
	$D827               .byte $78,$06,$0E,$78,$06,$AD,$78,$06,$20,$C3,$F9,$C8,$8D,$78,$06,$0E
	$D837               .byte $78,$06,$AD,$78,$06,$20,$D4,$F9,$C8,$20,$E4,$F9,$8D,$78,$06,$6E
	$D847               .byte $78,$06,$AD,$78,$06,$20,$EA,$F9,$C8,$8D,$78,$06,$6E,$78,$06,$AD
	$D857               .byte $78,$06,$20,$FB,$F9,$C8,$20,$0A,$FA,$8D,$78,$06,$2E,$78,$06,$AD
	$D867               .byte $78,$06,$20,$10,$FA,$C8,$8D,$78,$06,$2E,$78,$06,$AD,$78,$06,$20
	$D877               .byte $21,$FA,$A9,$FF,$8D,$78,$06,$85,$01,$24,$01,$38,$EE,$78,$06,$D0
	$D887               .byte $0D,$30,$0B,$50,$09,$90,$07,$AD,$78,$06,$C9,$00,$F0,$04,$A9,$E5
	$D897               .byte $85,$00,$A9,$7F,$8D,$78,$06,$B8,$18,$EE,$78,$06,$F0,$0D,$10,$0B
	$D8A7               .byte $70,$09,$B0,$07,$AD,$78,$06,$C9,$80,$F0,$04,$A9,$E6,$85,$00,$A9
	$D8B7               .byte $00,$8D,$78,$06,$24,$01,$38,$CE,$78,$06,$F0,$0D,$10,$0B,$50,$09
	$D8C7               .byte $90,$07,$AD,$78,$06,$C9,$FF,$F0,$04,$A9,$E7,$85,$00,$A9,$80,$8D
	$D8D7               .byte $78,$06,$B8,$18,$CE,$78,$06,$F0,$0D,$30,$0B,$70,$09,$B0,$07,$AD
	$D8E7               .byte $78,$06,$C9,$7F,$F0,$04,$A9,$E8,$85,$00,$A9,$01,$8D,$78,$06,$CE
	$D8F7               .byte $78,$06,$F0,$04,$A9,$E9,$85,$00,$60,$A9,$A3,$85,$33,$A9,$89,$8D
	$D907               .byte $00,$03,$A9,$12,$8D,$45,$02,$A9,$FF,$85,$01,$A2,$65,$A9,$00,$85
	$D917               .byte $89,$A9,$03,$85,$8A,$A0,$00,$38,$A9,$00,$B8,$B1,$89,$F0,$0C,$90
	$D927               .byte $0A,$70,$08,$C9,$89,$D0,$04,$E0,$65,$F0,$04,$A9,$EA,$85,$00,$A9
	$D937               .byte $FF,$85,$97,$85,$98,$24,$98,$A0,$34,$B1,$97,$C9,$A3,$D0,$02,$B0
	$D947               .byte $04,$A9,$EB,$85,$00,$A5,$00,$48,$A9,$46,$85,$FF,$A9,$01,$85,$00
	$D957               .byte $A0,$FF,$B1,$FF,$C9,$12,$F0,$04,$68,$A9,$EC,$48,$68,$85,$00,$A2
	$D967               .byte $ED,$A9,$00,$85,$33,$A9,$04,$85,$34,$A0,$00,$18,$A9,$FF,$85,$01
	$D977               .byte $24,$01,$A9,$AA,$8D,$00,$04,$A9,$55,$11,$33,$B0,$08,$10,$06,$C9
	$D987               .byte $FF,$D0,$02,$70,$02,$86,$00,$E8,$38,$B8,$A9,$00,$11,$33,$F0,$06
	$D997               .byte $70,$04,$90,$02,$30,$02,$86,$00,$E8,$18,$24,$01,$A9,$55,$31,$33
	$D9A7               .byte $D0,$06,$50,$04,$B0,$02,$10,$02,$86,$00,$E8,$38,$B8,$A9,$EF,$8D
	$D9B7               .byte $00,$04,$A9,$F8,$31,$33,$90,$08,$10,$06,$C9,$E8,$D0,$02,$50,$02
	$D9C7               .byte $86,$00,$E8,$18,$24,$01,$A9,$AA,$8D,$00,$04,$A9,$5F,$51,$33,$B0
	$D9D7               .byte $08,$10,$06,$C9,$F5,$D0,$02,$70,$02,$86,$00,$E8,$38,$B8,$A9,$70
	$D9E7               .byte $8D,$00,$04,$51,$33,$D0,$06,$70,$04,$90,$02,$10,$02,$86,$00,$E8
	$D9F7               .byte $18,$24,$01,$A9,$69,$8D,$00,$04,$A9,$00,$71,$33,$30,$08,$B0,$06
	$DA07               .byte $C9,$69,$D0,$02,$50,$02,$86,$00,$E8,$38,$24,$01,$A9,$00,$71,$33
	$DA17               .byte $30,$08,$B0,$06,$C9,$6A,$D0,$02,$50,$02,$86,$00,$E8,$38,$B8,$A9
	$DA27               .byte $7F,$8D,$00,$04,$71,$33,$10,$08,$B0,$06,$C9,$FF,$D0,$02,$70,$02
	$DA37               .byte $86,$00,$E8,$18,$24,$01,$A9,$80
_data_1A3F
	$DA3F               .byte $8D,$00,$04,$A9,$7F,$71,$33,$10,$08,$B0,$06,$C9,$FF,$D0,$02,$50
	$DA4F               .byte $02,$86,$00,$E8,$38,$B8,$A9,$80,$8D,$00,$04,$A9,$7F,$71,$33,$D0
	$DA5F               .byte $06,$30,$04,$70,$02,$B0,$02,$86,$00,$E8,$24,$01,$A9,$40,$8D,$00
	$DA6F               .byte $04,$D1,$33,$30,$06,$90,$04,$D0,$02,$70,$02,$86,$00,$E8,$B8,$CE
	$DA7F               .byte $00,$04,$D1,$33,$F0,$06,$30,$04,$90,$02,$50,$02,$86,$00,$E8,$EE
	$DA8F               .byte $00,$04,$EE,$00,$04,$D1,$33,$F0,$02,$30,$02,$86,$00,$E8,$A9,$00
	$DA9F               .byte $8D,$00,$04,$A9,$80,$D1,$33,$F0,$04,$10,$02,$B0,$02,$86,$00,$E8
	$DAAF               .byte $A0,$80,$8C,$00,$04,$A0,$00,$D1,$33,$D0,$04,$30,$02,$B0,$02,$86
	$DABF               .byte $00,$E8,$EE,$00,$04,$D1,$33,$B0,$04,$F0,$02,$30,$02,$86,$00,$E8
	$DACF               .byte $CE,$00,$04,$CE,$00,$04,$D1,$33,$90,$04,$F0,$02,$10,$02,$86,$00
	$DADF               .byte $60,$A9,$00,$85,$33,$A9,$04,$85,$34,$A0,$00,$A2,$01,$24,$01,$A9
	$DAEF               .byte $40,$8D,$00,$04,$38,$F1,$33,$30,$0A,$90,$08,$D0,$06,$70,$04,$C9
	$DAFF               .byte $00,$F0,$02,$86,$00,$E8,$B8,$38,$A9,$40,$CE,$00,$04,$F1,$33,$F0
	$DB0F               .byte $0A,$30,$08,$90,$06,$70,$04,$C9,$01,$F0,$02,$86,$00,$E8,$A9,$40
	$DB1F               .byte $38,$24,$01,$EE,$00,$04,$EE,$00,$04,$F1,$33,$B0,$0A,$F0,$08,$10
	$DB2F               .byte $06,$70,$04,$C9,$FF,$F0,$02,$86,$00,$E8,$18,$A9,$00,$8D,$00,$04
	$DB3F               .byte $A9,$80,$F1,$33,$90,$04,$C9,$7F,$F0,$02,$86,$00,$E8,$38,$A9,$7F
	$DB4F               .byte $8D,$00,$04,$A9,$81,$F1,$33,$50,$06,$90,$04,$C9,$02,$F0,$02,$86
	$DB5F               .byte $00,$E8,$A9,$00,$A9,$87,$91,$33,$AD,$00,$04,$C9,$87,$F0,$02,$86
	$DB6F               .byte $00,$E8,$A9,$7E,$8D,$00,$02,$A9,$DB,$8D,$01,$02,$6C,$00,$02,$A9
	$DB7F               .byte $00,$8D,$FF,$02,$A9,$01,$8D,$00,$03,$A9,$03,$8D,$00,$02,$A9,$A9
	$DB8F               .byte $8D,$00,$01,$A9,$55,$8D,$01,$01,$A9,$60,$8D,$02,$01,$A9,$A9,$8D
	$DB9F               .byte $00,$03,$A9,$AA,$8D,$01,$03,$A9,$60,$8D,$02,$03,$20,$B5,$DB,$C9
	$DBAF               .byte $AA,$F0,$02,$86,$00,$60,$6C,$FF,$02,$A9,$FF,$85,$01,$A9,$AA,$85
	$DBBF               .byte $33,$A9,$BB,$85,$89,$A2,$00,$A9,$66,$24,$01,$38,$A0,$00,$B4,$33
	$DBCF               .byte $10,$12,$F0,$10,$50,$0E,$90,$0C,$C9,$66,$D0,$08,$E0,$00,$D0,$04
	$DBDF               .byte $C0,$AA,$F0,$04,$A9,$08,$85,$00,$A2,$8A,$A9,$66,$B8,$18,$A0,$00
	$DBEF               .byte $B4,$FF,$10,$12,$F0,$10,$70,$0E,$B0,$0C,$C0,$BB,$D0,$08,$C9,$66
	$DBFF               .byte $D0,$04,$E0,$8A,$F0,$04,$A9,$09,$85,$00,$24,$01,$38,$A0,$44,$A2
	$DC0F               .byte $00,$94,$33,$A5,$33,$90,$18,$C9,$44,$D0,$14,$50,$12,$18,$B8,$A0
	$DC1F               .byte $99,$A2,$80,$94,$85,$A5,$05,$B0,$06,$C9,$99,$D0,$02,$50,$04,$A9
	$DC2F               .byte $0A,$85,$00,$A0,$0B,$A9,$AA,$A2,$78,$85,$78,$20,$B6,$F7,$15,$00
	$DC3F               .byte $20,$C0,$F7,$C8,$A9,$00,$85,$78,$20,$CE,$F7,$15,$00,$20,$D3,$F7
	$DC4F               .byte $C8,$A9,$AA,$85,$78,$20,$DF,$F7,$35,$00,$20,$E5,$F7,$C8,$A9,$EF
	$DC5F               .byte $85,$78,$20,$F1,$F7,$35,$00,$20,$F6,$F7,$C8,$A9,$AA,$85,$78,$20
	$DC6F               .byte $04,$F8,$55,$00,$20,$0A,$F8,$C8,$A9,$70,$85,$78,$20,$18,$F8,$55
	$DC7F               .byte $00,$20,$1D,$F8,$C8,$A9,$69,$85,$78,$20,$29,$F8,$75,$00,$20,$2F
	$DC8F               .byte $F8,$C8,$20,$3D,$F8,$75,$00,$20,$43,$F8,$C8,$A9,$7F,$85,$78,$20
	$DC9F               .byte $51,$F8,$75,$00,$20,$56,$F8,$C8,$A9,$80,$85,$78,$20,$64,$F8,$75
	$DCAF               .byte $00,$20,$6A,$F8,$C8,$20,$78,$F8,$75,$00,$20,$7D,$F8,$C8,$A9,$40
	$DCBF               .byte $85,$78,$20,$89,$F8,$D5,$00,$20,$8E,$F8,$C8,$48,$A9,$3F,$85,$78
	$DCCF               .byte $68,$20,$9A,$F8,$D5,$00,$20,$9C,$F8,$C8,$48,$A9,$41,$85,$78,$68
	$DCDF               .byte $D5,$00,$20,$A8,$F8,$C8,$48,$A9,$00,$85,$78,$68,$20,$B2,$F8,$D5
	$DCEF               .byte $00,$20,$B5,$F8,$C8,$48,$A9,$80,$85,$78,$68,$D5,$00,$20,$BF,$F8
	$DCFF               .byte $C8,$48,$A9,$81,$85,$78,$68,$D5,$00,$20,$C9,$F8,$C8,$48,$A9,$7F
	$DD0F               .byte $85,$78,$68,$D5,$00,$20,$D3,$F8,$C8,$A9,$40,$85,$78,$20,$31,$F9
	$DD1F               .byte $F5,$00,$20,$37,$F9,$C8,$A9,$3F,$85,$78,$20,$47,$F9,$F5,$00,$20
	$DD2F               .byte $4C,$F9,$C8,$A9,$41,$85,$78,$20,$5C,$F9,$F5,$00,$20,$62,$F9,$C8
	$DD3F               .byte $A9,$00,$85,$78,$20,$72,$F9,$F5,$00,$20,$76,$F9,$C8,$A9,$7F,$85
	$DD4F               .byte $78,$20,$80,$F9,$F5,$00,$20,$84,$F9,$A9,$AA,$85,$33,$A9,$BB,$85
	$DD5F               .byte $89,$A2,$00,$A0,$66,$24,$01,$38,$A9,$00,$B5,$33,$10,$12,$F0,$10
	$DD6F               .byte $50,$0E,$90,$0C,$C0,$66,$D0,$08,$E0,$00,$D0,$04,$C9,$AA,$F0,$04
	$DD7F               .byte $A9,$22,$85,$00,$A2,$8A,$A0,$66,$B8,$18,$A9,$00,$B5,$FF,$10,$12
	$DD8F               .byte $F0,$10,$70,$0E,$B0,$0C,$C9,$BB,$D0,$08,$C0,$66,$D0,$04,$E0,$8A
	$DD9F               .byte $F0,$04,$A9,$23,$85,$00,$24,$01,$38,$A9,$44,$A2,$00,$95,$33,$A5
	$DDAF               .byte $33,$90,$18,$C9,$44,$D0,$14,$50,$12,$18,$B8,$A9,$99,$A2,$80,$95
	$DDBF               .byte $85,$A5,$05,$B0,$06,$C9,$99,$D0,$02,$50,$04,$A9,$24,$85,$00,$A0
	$DDCF               .byte $25,$A2,$78,$20,$90,$F9,$95,$00,$56,$00,$B5,$00,$20,$9D,$F9,$C8
	$DDDF               .byte $95,$00,$56,$00,$B5,$00,$20,$AD,$F9,$C8,$20,$BD,$F9,$95,$00,$16
	$DDEF               .byte $00,$B5,$00,$20,$C3,$F9,$C8,$95,$00,$16,$00,$B5,$00,$20,$D4,$F9
	$DDFF               .byte $C8,$20,$E4,$F9,$95,$00,$76,$00,$B5,$00,$20,$EA,$F9,$C8,$95,$00
	$DE0F               .byte $76,$00,$B5,$00,$20,$FB,$F9,$C8,$20,$0A,$FA,$95,$00,$36,$00,$B5
	$DE1F               .byte $00,$20,$10,$FA,$C8,$95,$00,$36,$00,$B5,$00,$20,$21,$FA,$A9,$FF
	$DE2F               .byte $95,$00,$85,$01,$24,$01,$38,$F6,$00,$D0,$0C,$30,$0A,$50,$08,$90
	$DE3F               .byte $06,$B5,$00,$C9,$00,$F0,$04,$A9,$2D,$85,$00,$A9,$7F,$95,$00,$B8
	$DE4F               .byte $18,$F6,$00,$F0,$0C,$10,$0A,$70,$08,$B0,$06,$B5,$00,$C9,$80,$F0
	$DE5F               .byte $04,$A9,$2E,$85,$00,$A9,$00,$95,$00,$24,$01,$38,$D6,$00,$F0,$0C
	$DE6F               .byte $10,$0A,$50,$08,$90,$06,$B5,$00,$C9,$FF,$F0,$04,$A9,$2F,$85,$00
	$DE7F               .byte $A9,$80,$95,$00,$B8,$18,$D6,$00,$F0,$0C,$30,$0A,$70,$08,$B0,$06
	$DE8F               .byte $B5,$00,$C9,$7F,$F0,$04,$A9,$30,$85,$00,$A9,$01,$95,$00,$D6,$00
	$DE9F               .byte $F0,$04,$A9,$31,$85,$00,$A9,$33,$85,$78,$A9,$44,$A0,$78,$A2,$00
	$DEAF               .byte $38,$24,$01,$B6,$00,$90,$12,$50,$10,$30,$0E,$F0,$0C,$E0,$33,$D0
	$DEBF               .byte $08,$C0,$78,$D0,$04,$C9,$44,$F0,$04,$A9,$32,$85,$00,$A9,$97,$85
	$DECF               .byte $7F,$A9,$47,$A0,$FF,$A2,$00,$18,$B8,$B6,$80,$B0,$12,$70,$10,$10
	$DEDF               .byte $0E,$F0,$0C,$E0,$97,$D0,$08,$C0,$FF,$D0,$04,$C9,$47,$F0,$04,$A9
	$DEEF               .byte $33,$85,$00,$A9,$00,$85,$7F,$A9,$47,$A0,$FF,$A2,$69,$18,$B8,$96
	$DEFF               .byte $80,$B0,$18,$70,$16,$30,$14,$F0,$12,$E0,$69,$D0,$0E,$C0,$FF,$D0
	$DF0F               .byte $0A,$C9,$47,$D0,$06,$A5,$7F,$C9,$69,$F0,$04,$A9,$34,$85,$00,$A9
	$DF1F               .byte $F5,$85,$4F,$A9,$47,$A0,$4F,$24,$01,$A2,$00,$38,$96,$00,$90,$16
	$DF2F               .byte $50,$14,$30,$12,$D0,$10,$E0,$00,$D0,$0C,$C0,$4F,$D0,$08,$C9,$47
	$DF3F               .byte $D0,$04,$A5,$4F,$F0,$04,$A9,$35,$85,$00,$60,$A9,$89,$8D,$00,$03
	$DF4F               .byte $A9,$A3,$85,$33,$A9,$12,$8D,$45,$02,$A2,$65,$A0,$00,$38,$A9,$00
	$DF5F               .byte $B8,$B9,$00,$03,$F0,$0C,$90,$0A,$70,$08,$C9,$89,$D0,$04,$E0,$65
	$DF6F               .byte $F0,$04,$A9,$36,$85,$00,$A9,$FF,$85,$01,$24,$01,$A0,$34,$B9,$FF
	$DF7F               .byte $FF,$C9,$A3,$D0,$02,$B0,$04,$A9,$37,$85,$00,$A9,$46,$85,$FF,$A0
	$DF8F               .byte $FF,$B9,$46,$01,$C9,$12,$F0,$04,$A9,$38,$85,$00,$A2,$39,$18,$A9
	$DF9F               .byte $FF,$85,$01,$24,$01,$A9,$AA,$8D,$00,$04,$A9,$55,$A0,$00,$19,$00
	$DFAF               .byte $04,$B0,$08,$10,$06,$C9,$FF,$D0,$02,$70,$02,$86,$00,$E8,$38,$B8
	$DFBF               .byte $A9,$00,$19,$00,$04,$F0,$06,$70,$04,$90,$02,$30,$02,$86,$00,$E8
	$DFCF               .byte $18,$24,$01,$A9,$55,$39,$00,$04,$D0,$06,$50,$04,$B0,$02,$10,$02
	$DFDF               .byte $86,$00,$E8,$38,$B8,$A9,$EF,$8D,$00,$04,$A9,$F8,$39,$00,$04,$90
	$DFEF               .byte $08,$10,$06,$C9,$E8,$D0,$02,$50,$02,$86,$00,$E8,$18,$24,$01,$A9
	$DFFF               .byte $AA,$8D,$00,$04,$A9,$5F,$59,$00,$04,$B0,$08,$10,$06,$C9,$F5,$D0
	$E00F               .byte $02,$70,$02,$86,$00,$E8,$38,$B8,$A9,$70,$8D,$00,$04,$59,$00,$04
	$E01F               .byte $D0,$06,$70,$04,$90,$02,$10,$02,$86,$00,$E8,$18,$24,$01,$A9,$69
	$E02F               .byte $8D,$00,$04,$A9,$00,$79,$00,$04,$30,$08,$B0,$06,$C9,$69,$D0,$02
	$E03F               .byte $50,$02,$86,$00,$E8,$38,$24,$01,$A9,$00,$79,$00,$04,$30,$08,$B0
	$E04F               .byte $06,$C9,$6A,$D0,$02,$50,$02,$86,$00,$E8,$38,$B8,$A9,$7F,$8D,$00
	$E05F               .byte $04,$79,$00,$04,$10,$08,$B0,$06,$C9,$FF,$D0,$02,$70,$02,$86,$00
	$E06F               .byte $E8,$18,$24,$01,$A9,$80,$8D,$00,$04,$A9,$7F,$79,$00,$04,$10,$08
	$E07F               .byte $B0,$06,$C9,$FF,$D0,$02,$50,$02,$86,$00,$E8,$38,$B8,$A9,$80,$8D
	$E08F               .byte $00,$04,$A9,$7F,$79,$00,$04,$D0,$06,$30,$04,$70,$02,$B0,$02,$86
	$E09F               .byte $00,$E8,$24,$01,$A9,$40,$8D,$00,$04,$D9,$00,$04,$30,$06,$90,$04
	$E0AF               .byte $D0,$02,$70,$02,$86,$00,$E8,$B8,$CE,$00,$04,$D9,$00,$04,$F0,$06
	$E0BF               .byte $30,$04,$90,$02,$50,$02,$86,$00,$E8,$EE,$00,$04,$EE,$00,$04,$D9
	$E0CF               .byte $00,$04,$F0,$02,$30,$02,$86,$00,$E8,$A9,$00,$8D,$00,$04,$A9,$80
	$E0DF               .byte $D9,$00,$04,$F0,$04,$10,$02,$B0,$02,$86,$00,$E8,$A0,$80,$8C,$00
	$E0EF               .byte $04,$A0,$00,$D9,$00,$04,$D0,$04,$30,$02,$B0,$02,$86,$00,$E8,$EE
	$E0FF               .byte $00,$04,$D9,$00,$04,$B0,$04,$F0,$02,$30,$02,$86,$00,$E8,$CE,$00
	$E10F               .byte $04,$CE,$00,$04,$D9,$00,$04,$90,$04,$F0,$02,$10,$02,$86,$00,$E8
	$E11F               .byte $24,$01,$A9,$40,$8D,$00,$04,$38,$F9,$00,$04,$30,$0A,$90,$08,$D0
	$E12F               .byte $06,$70,$04,$C9,$00,$F0,$02,$86,$00,$E8,$B8,$38,$A9,$40,$CE,$00
	$E13F               .byte $04,$F9,$00,$04,$F0,$0A,$30,$08,$90,$06,$70,$04,$C9,$01,$F0,$02
	$E14F               .byte $86,$00,$E8,$A9,$40,$38,$24,$01,$EE,$00,$04,$EE,$00,$04,$F9,$00
	$E15F               .byte $04,$B0,$0A,$F0,$08,$10,$06,$70,$04,$C9,$FF,$F0,$02,$86,$00,$E8
	$E16F               .byte $18,$A9,$00,$8D,$00,$04,$A9,$80,$F9,$00,$04,$90,$04,$C9,$7F,$F0
	$E17F               .byte $02,$86,$00,$E8,$38,$A9,$7F,$8D,$00,$04,$A9,$81,$F9,$00,$04,$50
	$E18F               .byte $06,$90,$04,$C9,$02,$F0,$02,$86,$00,$E8,$A9,$00,$A9,$87,$99,$00
	$E19F               .byte $04,$AD,$00,$04,$C9,$87,$F0,$02,$86,$00,$60,$A9,$FF,$85,$01,$A9
	$E1AF               .byte $AA,$8D,$33,$06,$A9,$BB,$8D,$89,$06,$A2,$00,$A9,$66,$24,$01,$38
	$E1BF               .byte $A0,$00,$BC,$33,$06,$10,$12,$F0,$10,$50,$0E,$90,$0C,$C9,$66,$D0
	$E1CF               .byte $08,$E0,$00,$D0,$04,$C0,$AA,$F0,$04,$A9,$51,$85,$00,$A2,$8A,$A9
	$E1DF               .byte $66,$B8,$18,$A0,$00,$BC,$FF,$05,$10,$12,$F0,$10,$70,$0E,$B0,$0C
	$E1EF               .byte $C0,$BB,$D0,$08,$C9,$66,$D0,$04,$E0,$8A,$F0,$04,$A9,$52,$85,$00
	$E1FF               .byte $A0,$53,$A9,$AA,$A2,$78,$8D,$78,$06,$20,$B6,$F7,$1D,$00,$06,$20
	$E20F               .byte $C0,$F7,$C8,$A9,$00,$8D,$78,$06,$20,$CE,$F7,$1D,$00,$06,$20,$D3
	$E21F               .byte $F7,$C8,$A9,$AA,$8D,$78,$06,$20,$DF,$F7,$3D,$00,$06,$20,$E5,$F7
	$E22F               .byte $C8,$A9,$EF,$8D,$78,$06,$20,$F1,$F7,$3D,$00,$06,$20,$F6,$F7,$C8
	$E23F               .byte $A9,$AA,$8D,$78,$06,$20,$04,$F8,$5D,$00,$06,$20,$0A,$F8,$C8,$A9
	$E24F               .byte $70,$8D,$78,$06,$20,$18,$F8,$5D,$00,$06,$20,$1D,$F8,$C8,$A9,$69
	$E25F               .byte $8D,$78,$06,$20,$29,$F8,$7D,$00,$06,$20,$2F,$F8,$C8,$20,$3D,$F8
	$E26F               .byte $7D,$00,$06,$20,$43,$F8,$C8,$A9,$7F,$8D,$78,$06,$20,$51,$F8,$7D
	$E27F               .byte $00,$06,$20,$56,$F8,$C8,$A9,$80,$8D,$78,$06,$20,$64,$F8,$7D,$00
	$E28F               .byte $06,$20,$6A,$F8,$C8,$20,$78,$F8,$7D,$00,$06,$20,$7D,$F8,$C8,$A9
	$E29F               .byte $40,$8D,$78,$06,$20,$89,$F8,$DD,$00,$06,$20,$8E,$F8,$C8,$48,$A9
	$E2AF               .byte $3F,$8D,$78,$06,$68,$20,$9A,$F8,$DD,$00,$06,$20,$9C,$F8,$C8,$48
	$E2BF               .byte $A9,$41,$8D,$78,$06,$68,$DD,$00,$06,$20,$A8,$F8,$C8,$48,$A9,$00
	$E2CF               .byte $8D,$78,$06,$68,$20,$B2,$F8,$DD,$00,$06,$20,$B5,$F8,$C8,$48,$A9
	$E2DF               .byte $80,$8D,$78,$06,$68,$DD,$00,$06,$20,$BF,$F8,$C8,$48,$A9,$81,$8D
	$E2EF               .byte $78,$06,$68,$DD,$00,$06,$20,$C9,$F8,$C8,$48,$A9,$7F,$8D,$78,$06
	$E2FF               .byte $68,$DD,$00,$06,$20,$D3,$F8,$C8,$A9,$40,$8D,$78,$06,$20,$31,$F9
	$E30F               .byte $FD,$00,$06,$20,$37,$F9,$C8,$A9,$3F,$8D,$78,$06,$20,$47,$F9,$FD
	$E31F               .byte $00,$06,$20,$4C,$F9,$C8,$A9,$41,$8D,$78,$06,$20,$5C,$F9,$FD,$00
	$E32F               .byte $06,$20,$62,$F9,$C8,$A9,$00,$8D,$78,$06,$20,$72,$F9,$FD,$00,$06
	$E33F               .byte $20,$76,$F9,$C8,$A9,$7F,$8D,$78,$06,$20,$80,$F9,$FD,$00,$06,$20
	$E34F               .byte $84,$F9,$A9,$AA,$8D,$33,$06,$A9,$BB,$8D,$89,$06,$A2,$00,$A0,$66
	$E35F               .byte $24,$01,$38,$A9,$00,$BD,$33,$06,$10,$12,$F0,$10,$50,$0E,$90,$0C
	$E36F               .byte $C0,$66,$D0,$08,$E0,$00,$D0,$04,$C9,$AA,$F0,$04,$A9,$6A,$85,$00
	$E37F               .byte $A2,$8A,$A0,$66,$B8,$18,$A9,$00,$BD,$FF,$05,$10,$12,$F0,$10,$70
	$E38F               .byte $0E,$B0,$0C,$C9,$BB,$D0,$08,$C0,$66,$D0,$04,$E0,$8A,$F0,$04,$A9
	$E39F               .byte $6B,$85,$00,$24,$01,$38,$A9,$44,$A2,$00,$9D,$33,$06,$AD,$33,$06
	$E3AF               .byte $90,$1A,$C9,$44,$D0,$16,$50,$14,$18,$B8,$A9,$99,$A2,$80,$9D,$85
	$E3BF               .byte $05,$AD,$05,$06,$B0,$06,$C9,$99,$D0,$02,$50,$04,$A9,$6C,$85,$00
	$E3CF               .byte $A0,$6D,$A2,$6D,$20,$90,$F9,$9D,$00,$06,$5E,$00,$06,$BD,$00,$06
	$E3DF               .byte $20,$9D,$F9,$C8,$9D,$00,$06,$5E,$00,$06,$BD,$00,$06,$20,$AD,$F9
	$E3EF               .byte $C8,$20,$BD,$F9,$9D,$00,$06,$1E,$00,$06,$BD,$00,$06,$20,$C3,$F9
	$E3FF               .byte $C8,$9D,$00,$06,$1E,$00,$06,$BD,$00,$06,$20,$D4,$F9,$C8,$20,$E4
	$E40F               .byte $F9,$9D,$00,$06,$7E,$00,$06,$BD,$00,$06,$20,$EA,$F9,$C8,$9D,$00
	$E41F               .byte $06,$7E,$00,$06,$BD,$00,$06,$20,$FB,$F9,$C8,$20,$0A,$FA,$9D,$00
	$E42F               .byte $06,$3E,$00,$06,$BD,$00,$06,$20,$10,$FA,$C8,$9D,$00,$06,$3E,$00
	$E43F               .byte $06,$BD,$00,$06,$20,$21,$FA,$A9,$FF,$9D,$00,$06,$85,$01,$24,$01
	$E44F               .byte $38,$FE,$00,$06,$D0,$0D,$30,$0B,$50,$09,$90,$07,$BD,$00,$06,$C9
	$E45F               .byte $00,$F0,$04,$A9,$75,$85,$00,$A9,$7F,$9D,$00,$06,$B8,$18,$FE,$00
	$E46F               .byte $06,$F0,$0D,$10,$0B,$70,$09,$B0,$07,$BD,$00,$06,$C9,$80,$F0,$04
	$E47F               .byte $A9,$76,$85,$00,$A9,$00,$9D,$00,$06,$24,$01,$38,$DE,$00,$06,$F0
	$E48F               .byte $0D,$10,$0B,$50,$09,$90,$07,$BD,$00,$06,$C9,$FF,$F0,$04,$A9,$77
	$E49F               .byte $85,$00,$A9,$80,$9D,$00,$06,$B8,$18,$DE,$00,$06,$F0,$0D,$30,$0B
	$E4AF               .byte $70,$09,$B0,$07,$BD,$00,$06,$C9,$7F,$F0,$04,$A9,$78,$85,$00,$A9
	$E4BF               .byte $01,$9D,$00,$06,$DE,$00,$06,$F0,$04,$A9,$79,$85,$00,$A9,$33,$8D
	$E4CF               .byte $78,$06,$A9,$44,$A0,$78,$A2,$00,$38,$24,$01,$BE,$00,$06,$90,$12
	$E4DF               .byte $50,$10,$30,$0E,$F0,$0C,$E0,$33,$D0,$08,$C0,$78,$D0,$04,$C9,$44
	$E4EF               .byte $F0,$04,$A9,$7A,$85,$00,$A9,$97,$8D,$7F,$06,$A9,$47,$A0,$FF,$A2
	$E4FF               .byte $00,$18,$B8,$BE,$80,$05,$B0,$12,$70,$10,$10,$0E,$F0,$0C,$E0,$97
	$E50F               .byte $D0,$08,$C0,$FF,$D0,$04,$C9,$47,$F0,$04,$A9,$7B,$85,$00,$60,$A9
	$E51F               .byte $55,$8D,$80,$05,$A9,$AA,$8D,$32,$04,$A9,$80,$85,$43,$A9,$05,$85
	$E52F               .byte $44,$A9,$32,$85,$45,$A9,$04,$85,$46,$A2,$03,$A0,$77,$A9,$FF,$85
	$E53F               .byte $01,$24,$01,$38,$A9,$00,$A3,$40,$EA,$EA,$EA,$EA,$F0,$12,$30,$10
	$E54F               .byte $50,$0E,$90,$0C,$C9,$55,$D0,$08,$E0,$55,$D0,$04,$C0,$77,$F0,$04
	$E55F               .byte $A9,$7C,$85,$00,$A2,$05,$A0,$33,$B8,$18,$A9,$00,$A3,$40,$EA,$EA
	$E56F               .byte $EA,$EA,$F0,$12,$10,$10,$70,$0E,$B0,$0C,$C9,$AA,$D0,$08,$E0,$AA
	$E57F               .byte $D0,$04,$C0,$33,$F0,$04,$A9,$7D,$85,$00,$A9,$87,$85,$67,$A9,$32
	$E58F               .byte $85,$68,$A0,$57,$24,$01,$38,$A9,$00,$A7,$67,$EA,$EA,$EA,$EA,$F0
	$E59F               .byte $12,$10,$10,$50,$0E,$90,$0C,$C9,$87,$D0,$08,$E0,$87,$D0,$04,$C0
	$E5AF               .byte $57,$F0,$04,$A9,$7E,$85,$00,$A0,$53,$B8,$18,$A9,$00,$A7,$68,$EA
	$E5BF               .byte $EA,$EA,$EA,$F0,$12,$30,$10,$70,$0E,$B0,$0C,$C9,$32,$D0,$08,$E0
	$E5CF               .byte $32,$D0,$04,$C0,$53,$F0,$04,$A9,$7F,$85,$00,$A9,$87,$8D,$77,$05
	$E5DF               .byte $A9,$32,$8D,$78,$05,$A0,$57,$24,$01,$38,$A9,$00,$AF,$77,$05,$EA
	$E5EF               .byte $EA,$EA,$EA,$F0,$12,$10,$10,$50,$0E,$90,$0C,$C9,$87,$D0,$08,$E0
	$E5FF               .byte $87,$D0,$04,$C0,$57,$F0,$04,$A9,$80,$85,$00,$A0,$53,$B8,$18,$A9
	$E60F               .byte $00,$AF,$78,$05,$EA,$EA,$EA,$EA,$F0,$12,$30,$10,$70,$0E,$B0,$0C
	$E61F               .byte $C9,$32,$D0,$08,$E0,$32,$D0,$04,$C0,$53,$F0,$04,$A9,$81,$85,$00
	$E62F               .byte $A9,$FF,$85,$43,$A9,$04,$85,$44,$A9,$32,$85,$45,$A9,$04,$85,$46
	$E63F               .byte $A9,$55,$8D,$80,$05,$A9,$AA,$8D,$32,$04,$A2,$03,$A0,$81,$24,$01
	$E64F               .byte $38,$A9,$00,$B3,$43,$EA,$EA,$EA,$EA,$F0,$12,$30,$10,$50,$0E,$90
	$E65F               .byte $0C,$C9,$55,$D0,$08,$E0,$55,$D0,$04,$C0,$81,$F0,$04,$A9,$82,$85
	$E66F               .byte $00,$A2,$05,$A0,$00,$B8,$18,$A9,$00,$B3,$45,$EA,$EA,$EA,$EA,$F0
	$E67F               .byte $12,$10,$10,$70,$0E,$B0,$0C,$C9,$AA,$D0,$08,$E0,$AA,$D0,$04,$C0
	$E68F               .byte $00,$F0,$04,$A9,$83,$85,$00,$A9,$87,$85,$67,$A9,$32,$85,$68,$A0
	$E69F               .byte $57,$24,$01,$38,$A9,$00,$B7,$10,$EA,$EA,$EA,$EA,$F0,$12,$10,$10
	$E6AF               .byte $50,$0E,$90,$0C,$C9,$87,$D0,$08,$E0,$87,$D0,$04,$C0,$57,$F0,$04
	$E6BF               .byte $A9,$84,$85,$00,$A0,$FF,$B8,$18,$A9,$00,$B7,$69,$EA,$EA,$EA,$EA
	$E6CF               .byte $F0,$12,$30,$10,$70,$0E,$B0,$0C,$C9,$32,$D0,$08,$E0,$32,$D0,$04
	$E6DF               .byte $C0,$FF,$F0,$04,$A9,$85,$85,$00,$A9,$87,$8D,$87,$05,$A9,$32,$8D
	$E6EF               .byte $88,$05,$A0,$30,$24,$01,$38,$A9,$00,$BF,$57,$05,$EA,$EA,$EA,$EA
	$E6FF               .byte $F0,$12,$10,$10,$50,$0E,$90,$0C,$C9,$87,$D0,$08,$E0,$87,$D0,$04
	$E70F               .byte $C0,$30,$F0,$04,$A9,$86,$85,$00,$A0,$40,$B8,$18,$A9,$00,$BF,$48
	$E71F               .byte $05,$EA,$EA,$EA,$EA,$F0,$12,$30,$10,$70,$0E,$B0,$0C,$C9,$32,$D0
	$E72F               .byte $08,$E0,$32,$D0,$04,$C0,$40,$F0,$04,$A9,$87,$85,$00,$60,$A9,$C0
	$E73F               .byte $85,$01,$A9,$00,$8D,$89,$04,$A9,$89,$85,$60,$A9,$04,$85,$61,$A0
	$E74F               .byte $44,$A2,$17,$A9,$3E,$24,$01,$18,$83,$49,$EA,$EA,$EA,$EA,$D0,$19
	$E75F               .byte $B0,$17,$50,$15,$10,$13,$C9,$3E,$D0,$0F,$C0,$44,$D0,$0B,$E0,$17
	$E76F               .byte $D0,$07,$AD,$89,$04,$C9,$16,$F0,$04,$A9,$88,$85,$00,$A0,$44,$A2
	$E77F               .byte $7A,$A9,$66,$38,$B8,$83,$E6,$EA,$EA,$EA,$EA,$F0,$19,$90,$17,$70
	$E78F               .byte $15,$30,$13,$C9,$66,$D0,$0F,$C0,$44,$D0,$0B,$E0,$7A,$D0,$07,$AD
	$E79F               .byte $89,$04,$C9,$62,$F0,$04,$A9,$89,$85,$00,$A9,$FF,$85,$49,$A0,$44
	$E7AF               .byte $A2,$AA,$A9,$55,$24,$01,$18,$87,$49,$EA,$EA,$EA,$EA,$F0,$18,$B0
	$E7BF               .byte $16,$50,$14,$10,$12,$C9,$55,$D0,$0E,$C0,$44,$D0,$0A,$E0,$AA,$D0
	$E7CF               .byte $06,$A5,$49,$C9,$00,$F0,$04,$A9,$8A,$85,$00,$A9,$00,$85,$56,$A0
	$E7DF               .byte $58,$A2,$EF,$A9,$66,$38,$B8,$87,$56,$EA,$EA,$EA,$EA,$F0,$18,$90
	$E7EF               .byte $16,$70,$14,$30,$12,$C9,$66,$D0,$0E,$C0,$58,$D0,$0A,$E0,$EF,$D0
	$E7FF               .byte $06,$A5,$56,$C9,$66,$F0,$04,$A9,$8B,$85,$00,$A9,$FF,$8D,$49,$05
	$E80F               .byte $A0,$E5,$A2,$AF,$A9,$F5,$24,$01,$18,$8F,$49,$05,$EA,$EA,$EA,$EA
	$E81F               .byte $F0,$19,$B0,$17,$50,$15,$10,$13,$C9,$F5,$D0,$0F,$C0,$E5,$D0,$0B
	$E82F               .byte $E0,$AF,$D0,$07,$AD,$49,$05,$C9,$A5,$F0,$04,$A9,$8C,$85,$00,$A9
	$E83F               .byte $00,$8D,$56,$05,$A0,$58,$A2,$B3,$A9,$97,$38,$B8,$8F,$56,$05,$EA
	$E84F               .byte $EA,$EA,$EA,$F0,$19,$90,$17,$70,$15,$10,$13,$C9,$97,$D0,$0F,$C0
	$E85F               .byte $58,$D0,$0B,$E0,$B3,$D0,$07,$AD,$56,$05,$C9,$93,$F0,$04,$A9,$8D
	$E86F               .byte $85,$00,$A9,$FF,$85,$49,$A0,$FF,$A2,$AA,$A9,$55,$24,$01,$18,$97
	$E87F               .byte $4A,$EA,$EA,$EA,$EA,$F0,$18,$B0,$16,$50,$14,$10,$12,$C9,$55,$D0
	$E88F               .byte $0E,$C0,$FF,$D0,$0A,$E0,$AA,$D0,$06,$A5,$49,$C9,$00,$F0,$04,$A9
	$E89F               .byte $8E,$85,$00,$A9,$00,$85,$56,$A0,$06,$A2,$EF,$A9,$66,$38,$B8,$97
	$E8AF               .byte $50,$EA,$EA,$EA,$EA,$F0,$18,$90,$16,$70,$14,$30,$12,$C9,$66,$D0
	$E8BF               .byte $0E,$C0,$06,$D0,$0A,$E0,$EF,$D0,$06,$A5,$56,$C9,$66,$F0,$04,$A9
	$E8CF               .byte $8F,$85,$00,$60,$A0,$90,$20,$31,$F9,$EB,$40,$EA,$EA,$EA,$EA,$20
	$E8DF               .byte $37,$F9,$C8,$20,$47,$F9,$EB,$3F,$EA,$EA,$EA,$EA,$20,$4C,$F9,$C8
	$E8EF               .byte $20,$5C,$F9,$EB,$41,$EA,$EA,$EA,$EA,$20,$62,$F9,$C8,$20,$72,$F9
	$E8FF               .byte $EB,$00,$EA,$EA,$EA,$EA,$20,$76,$F9,$C8,$20,$80,$F9,$EB,$7F,$EA
	$E90F               .byte $EA,$EA,$EA,$20,$84,$F9,$60,$A9,$FF,$85,$01,$A0,$95,$A2,$02,$A9
	$E91F               .byte $47,$85,$47,$A9,$06,$85,$48,$A9,$EB,$8D,$47,$06,$20,$31,$FA,$C3
	$E92F               .byte $45,$EA,$EA,$EA,$EA,$20,$37,$FA,$AD,$47,$06,$C9,$EA,$F0,$02,$84
	$E93F               .byte $00,$C8,$A9,$00,$8D,$47,$06,$20,$42,$FA,$C3,$45,$EA,$EA,$EA,$EA
	$E94F               .byte $20,$47,$FA,$AD,$47,$06,$C9,$FF,$F0,$02,$84,$00,$C8,$A9,$37,$8D
	$E95F               .byte $47,$06,$20,$54,$FA,$C3,$45,$EA,$EA,$EA,$EA,$20,$59,$FA,$AD,$47
	$E96F               .byte $06,$C9,$36,$F0,$02,$84,$00,$C8,$A9,$EB,$85,$47,$20,$31,$FA,$C7
	$E97F               .byte $47,$EA,$EA,$EA,$EA,$20,$37,$FA,$A5,$47,$C9,$EA,$F0,$02,$84,$00
	$E98F               .byte $C8,$A9,$00,$85,$47,$20,$42,$FA,$C7,$47,$EA,$EA,$EA,$EA,$20,$47
	$E99F               .byte $FA,$A5,$47,$C9,$FF,$F0,$02,$84,$00,$C8,$A9,$37,$85,$47,$20,$54
	$E9AF               .byte $FA,$C7,$47,$EA,$EA,$EA,$EA,$20,$59,$FA,$A5,$47,$C9,$36,$F0,$02
	$E9BF               .byte $84,$00,$C8,$A9,$EB,$8D,$47,$06,$20,$31,$FA,$CF,$47,$06,$EA,$EA
	$E9CF               .byte $EA,$EA,$20,$37,$FA,$AD,$47,$06,$C9,$EA,$F0,$02,$84,$00,$C8,$A9
	$E9DF               .byte $00,$8D,$47,$06,$20,$42,$FA,$CF,$47,$06,$EA,$EA,$EA,$EA,$20,$47
	$E9EF               .byte $FA,$AD,$47,$06,$C9,$FF,$F0,$02,$84,$00,$C8,$A9,$37,$8D,$47,$06
	$E9FF               .byte $20,$54,$FA,$CF,$47,$06,$EA,$EA,$EA,$EA,$20,$59,$FA,$AD,$47,$06
	$EA0F               .byte $C9,$36,$F0,$02,$84,$00,$A9,$EB,$8D,$47,$06,$A9,$48,$85,$45,$A9
	$EA1F               .byte $05,$85,$46,$A0,$FF,$20,$31,$FA,$D3,$45,$EA,$EA,$08,$48,$A0,$9E
	$EA2F               .byte $68,$28,$20,$37,$FA,$AD,$47,$06,$C9,$EA,$F0,$02,$84,$00,$A0,$FF
	$EA3F               .byte $A9,$00,$8D,$47,$06,$20,$42,$FA,$D3,$45,$EA,$EA,$08,$48,$A0,$9F
	$EA4F               .byte $68,$28,$20,$47,$FA,$AD,$47,$06,$C9,$FF,$F0,$02,$84,$00,$A0,$FF
	$EA5F               .byte $A9,$37,$8D,$47,$06,$20,$54,$FA,$D3,$45,$EA,$EA,$08,$48,$A0,$A0
	$EA6F               .byte $68,$28,$20,$59,$FA,$AD,$47,$06,$C9,$36,$F0,$02,$84,$00,$A0,$A1
	$EA7F               .byte $A2,$FF,$A9,$EB,$85,$47,$20,$31,$FA,$D7,$48,$EA,$EA,$EA,$EA,$20
	$EA8F               .byte $37,$FA,$A5,$47,$C9,$EA,$F0,$02,$84,$00,$C8,$A9,$00,$85,$47,$20
	$EA9F               .byte $42,$FA,$D7,$48,$EA,$EA,$EA,$EA,$20,$47,$FA,$A5,$47,$C9,$FF,$F0
	$EAAF               .byte $02,$84,$00,$C8,$A9,$37,$85,$47,$20,$54,$FA,$D7,$48,$EA,$EA,$EA
	$EABF               .byte $EA,$20,$59,$FA,$A5,$47,$C9,$36,$F0,$02,$84,$00,$A9,$EB,$8D,$47
	$EACF               .byte $06,$A0,$FF,$20,$31,$FA,$DB,$48,$05,$EA,$EA,$08,$48,$A0,$A4,$68
	$EADF               .byte $28,$20,$37,$FA,$AD,$47,$06,$C9,$EA,$F0,$02,$84,$00,$A0,$FF,$A9
	$EAEF               .byte $00,$8D,$47,$06,$20,$42,$FA,$DB,$48,$05,$EA,$EA,$08,$48,$A0,$A5
	$EAFF               .byte $68,$28,$20,$47,$FA,$AD,$47,$06,$C9,$FF,$F0,$02,$84,$00,$A0,$FF
	$EB0F               .byte $A9,$37,$8D,$47,$06,$20,$54,$FA,$DB,$48,$05,$EA,$EA,$08,$48,$A0
	$EB1F               .byte $A6,$68,$28,$20,$59,$FA,$AD,$47,$06,$C9,$36,$F0,$02,$84,$00,$A0
	$EB2F               .byte $A7,$A2,$FF,$A9,$EB,$8D,$47,$06,$20,$31,$FA,$DF,$48,$05,$EA,$EA
	$EB3F               .byte $EA,$EA,$20,$37,$FA,$AD,$47,$06,$C9,$EA,$F0,$02,$84,$00,$C8,$A9
	$EB4F               .byte $00,$8D,$47,$06,$20,$42,$FA,$DF,$48,$05,$EA,$EA,$EA,$EA,$20,$47
	$EB5F               .byte $FA,$AD,$47,$06,$C9,$FF,$F0,$02,$84,$00,$C8,$A9,$37,$8D,$47,$06
	$EB6F               .byte $20,$54,$FA,$DF,$48,$05,$EA,$EA,$EA,$EA,$20,$59,$FA,$AD,$47,$06
	$EB7F               .byte $C9,$36,$F0,$02,$84,$00,$60,$A9,$FF,$85,$01,$A0,$AA,$A2,$02,$A9
	$EB8F               .byte $47,$85,$47,$A9,$06,$85,$48,$A9,$EB,$8D,$47,$06,$20,$B1,$FA,$E3
	$EB9F               .byte $45,$EA,$EA,$EA,$EA,$20,$B7,$FA,$AD,$47,$06,$C9,$EC,$F0,$02,$84
	$EBAF               .byte $00,$C8,$A9,$FF,$8D,$47,$06,$20,$C2,$FA,$E3,$45,$EA,$EA,$EA,$EA
	$EBBF               .byte $20,$C7,$FA,$AD,$47,$06,$C9,$00,$F0,$02,$84,$00,$C8,$A9,$37,$8D
	$EBCF               .byte $47,$06,$20,$D4,$FA,$E3,$45,$EA,$EA,$EA,$EA,$20,$DA,$FA,$AD,$47
	$EBDF               .byte $06,$C9,$38,$F0,$02,$84,$00,$C8,$A9,$EB,$85,$47,$20,$B1,$FA,$E7
	$EBEF               .byte $47,$EA,$EA,$EA,$EA,$20,$B7,$FA,$A5,$47,$C9,$EC,$F0,$02,$84,$00
	$EBFF               .byte $C8,$A9,$FF,$85,$47,$20,$C2,$FA,$E7,$47,$EA,$EA,$EA,$EA,$20,$C7
	$EC0F               .byte $FA,$A5,$47,$C9,$00,$F0,$02,$84,$00,$C8,$A9,$37,$85,$47,$20,$D4
	$EC1F               .byte $FA,$E7,$47,$EA,$EA,$EA,$EA,$20,$DA,$FA,$A5,$47,$C9,$38,$F0,$02
	$EC2F               .byte $84,$00,$C8,$A9,$EB,$8D,$47,$06,$20,$B1,$FA,$EF,$47,$06,$EA,$EA
	$EC3F               .byte $EA,$EA,$20,$B7,$FA,$AD,$47,$06,$C9,$EC,$F0,$02,$84,$00,$C8,$A9
	$EC4F               .byte $FF,$8D,$47,$06,$20,$C2,$FA,$EF,$47,$06,$EA,$EA,$EA,$EA,$20,$C7
	$EC5F               .byte $FA,$AD,$47,$06,$C9,$00,$F0,$02,$84,$00,$C8,$A9,$37,$8D,$47,$06
	$EC6F               .byte $20,$D4,$FA,$EF,$47,$06,$EA,$EA,$EA,$EA,$20,$DA,$FA,$AD,$47,$06
	$EC7F               .byte $C9,$38,$F0,$02,$84,$00,$A9,$EB,$8D,$47,$06,$A9,$48,$85,$45,$A9
	$EC8F               .byte $05,$85,$46,$A0,$FF,$20,$B1,$FA,$F3,$45,$EA,$EA,$08,$48,$A0,$B3
	$EC9F               .byte $68,$28,$20,$B7,$FA,$AD,$47,$06,$C9,$EC,$F0,$02,$84,$00,$A0,$FF
	$ECAF               .byte $A9,$FF,$8D,$47,$06,$20,$C2,$FA,$F3,$45,$EA,$EA,$08,$48,$A0,$B4
	$ECBF               .byte $68,$28,$20,$C7,$FA,$AD,$47,$06,$C9,$00,$F0,$02,$84,$00,$A0,$FF
	$ECCF               .byte $A9,$37,$8D,$47,$06,$20,$D4,$FA,$F3,$45,$EA,$EA,$08,$48,$A0,$B5
	$ECDF               .byte $68,$28,$20,$DA,$FA,$AD,$47,$06,$C9,$38,$F0,$02,$84,$00,$A0,$B6
	$ECEF               .byte $A2,$FF,$A9,$EB,$85,$47,$20,$B1,$FA,$F7,$48,$EA,$EA,$EA,$EA,$20
	$ECFF               .byte $B7,$FA,$A5,$47,$C9,$EC,$F0,$02,$84,$00,$C8,$A9,$FF,$85,$47,$20
	$ED0F               .byte $C2,$FA,$F7,$48,$EA,$EA,$EA,$EA,$20,$C7,$FA,$A5,$47,$C9,$00,$F0
	$ED1F               .byte $02,$84,$00,$C8,$A9,$37,$85,$47,$20,$D4,$FA,$F7,$48,$EA,$EA,$EA
	$ED2F               .byte $EA,$20,$DA,$FA,$A5,$47,$C9,$38,$F0,$02,$84,$00,$A9,$EB,$8D,$47
	$ED3F               .byte $06,$A0,$FF,$20,$B1,$FA,$FB,$48,$05,$EA,$EA,$08,$48,$A0,$B9,$68
	$ED4F               .byte $28,$20,$B7,$FA,$AD,$47,$06,$C9,$EC,$F0,$02,$84,$00,$A0,$FF,$A9
	$ED5F               .byte $FF,$8D,$47,$06,$20,$C2,$FA,$FB,$48,$05,$EA,$EA,$08,$48,$A0,$BA
	$ED6F               .byte $68,$28,$20,$C7,$FA,$AD,$47,$06,$C9,$00,$F0,$02,$84,$00,$A0,$FF
	$ED7F               .byte $A9,$37,$8D,$47,$06,$20,$D4,$FA,$FB,$48,$05,$EA,$EA,$08,$48,$A0
	$ED8F               .byte $BB,$68,$28,$20,$DA,$FA,$AD,$47,$06,$C9,$38,$F0,$02,$84,$00,$A0
	$ED9F               .byte $BC,$A2,$FF,$A9,$EB,$8D,$47,$06,$20,$B1,$FA,$FF,$48,$05,$EA,$EA
	$EDAF               .byte $EA,$EA,$20,$B7,$FA,$AD,$47,$06,$C9,$EC,$F0,$02,$84,$00,$C8,$A9
	$EDBF               .byte $FF,$8D,$47,$06,$20,$C2,$FA,$FF,$48,$05,$EA,$EA,$EA,$EA,$20,$C7
	$EDCF               .byte $FA,$AD,$47,$06,$C9,$00,$F0,$02,$84,$00,$C8,$A9,$37,$8D,$47,$06
	$EDDF               .byte $20,$D4,$FA,$FF,$48,$05,$EA,$EA,$EA,$EA,$20,$DA,$FA,$AD,$47,$06
	$EDEF               .byte $C9,$38,$F0,$02,$84,$00,$60,$A9,$FF,$85,$01,$A0,$BF,$A2,$02,$A9
	$EDFF               .byte $47,$85,$47,$A9,$06,$85,$48,$A9,$A5,$8D,$47,$06,$20,$7B,$FA,$03
	$EE0F               .byte $45,$EA,$EA,$EA,$EA,$20,$81,$FA,$AD,$47,$06,$C9,$4A,$F0,$02,$84
	$EE1F               .byte $00,$C8,$A9,$29,$8D,$47,$06,$20,$8C,$FA,$03,$45,$EA,$EA,$EA,$EA
	$EE2F               .byte $20,$91,$FA,$AD,$47,$06,$C9,$52,$F0,$02,$84,$00,$C8,$A9,$37,$8D
	$EE3F               .byte $47,$06,$20,$9E,$FA,$03,$45,$EA,$EA,$EA,$EA,$20,$A4,$FA,$AD,$47
	$EE4F               .byte $06,$C9,$6E,$F0,$02,$84,$00,$C8,$A9,$A5,$85,$47,$20,$7B,$FA,$07
	$EE5F               .byte $47,$EA,$EA,$EA,$EA,$20,$81,$FA,$A5,$47,$C9,$4A,$F0,$02,$84,$00
	$EE6F               .byte $C8,$A9,$29,$85,$47,$20,$8C,$FA,$07,$47,$EA,$EA,$EA,$EA,$20,$91
	$EE7F               .byte $FA,$A5,$47,$C9,$52,$F0,$02,$84,$00,$C8,$A9,$37,$85,$47,$20,$9E
	$EE8F               .byte $FA,$07,$47,$EA,$EA,$EA,$EA,$20,$A4,$FA,$A5,$47,$C9,$6E,$F0,$02
	$EE9F               .byte $84,$00,$C8,$A9,$A5,$8D,$47,$06,$20,$7B,$FA,$0F,$47,$06,$EA,$EA
	$EEAF               .byte $EA,$EA,$20,$81,$FA,$AD,$47,$06,$C9,$4A,$F0,$02,$84,$00,$C8,$A9
	$EEBF               .byte $29,$8D,$47,$06,$20,$8C,$FA,$0F,$47,$06,$EA,$EA,$EA,$EA,$20,$91
	$EECF               .byte $FA,$AD,$47,$06,$C9,$52,$F0,$02,$84,$00,$C8,$A9,$37,$8D,$47,$06
	$EEDF               .byte $20,$9E,$FA,$0F,$47,$06,$EA,$EA,$EA,$EA,$20,$A4,$FA,$AD,$47,$06
	$EEEF               .byte $C9,$6E,$F0,$02,$84,$00,$A9,$A5,$8D,$47,$06,$A9,$48,$85,$45,$A9
	$EEFF               .byte $05,$85,$46,$A0,$FF,$20,$7B,$FA,$13,$45,$EA,$EA,$08,$48,$A0,$C8
	$EF0F               .byte $68,$28,$20,$81,$FA,$AD,$47,$06,$C9,$4A,$F0,$02,$84,$00,$A0,$FF
	$EF1F               .byte $A9,$29,$8D,$47,$06,$20,$8C,$FA,$13,$45,$EA,$EA,$08,$48,$A0,$C9
	$EF2F               .byte $68,$28,$20,$91,$FA,$AD,$47,$06,$C9,$52,$F0,$02,$84,$00,$A0,$FF
	$EF3F               .byte $A9,$37,$8D,$47,$06,$20,$9E,$FA,$13,$45,$EA,$EA,$08,$48,$A0,$CA
	$EF4F               .byte $68,$28,$20,$A4,$FA,$AD,$47,$06,$C9,$6E,$F0,$02,$84,$00,$A0,$CB
	$EF5F               .byte $A2,$FF,$A9,$A5,$85,$47,$20,$7B,$FA,$17,$48,$EA,$EA,$EA,$EA,$20
	$EF6F               .byte $81,$FA,$A5,$47,$C9,$4A,$F0,$02,$84,$00,$C8,$A9,$29,$85,$47,$20
	$EF7F               .byte $8C,$FA,$17,$48,$EA,$EA,$EA,$EA,$20,$91,$FA,$A5,$47,$C9,$52,$F0
	$EF8F               .byte $02,$84,$00,$C8,$A9,$37,$85,$47,$20,$9E,$FA,$17,$48,$EA,$EA,$EA
	$EF9F               .byte $EA,$20,$A4,$FA,$A5,$47,$C9,$6E,$F0,$02,$84,$00,$A9,$A5,$8D,$47
	$EFAF               .byte $06,$A0,$FF,$20,$7B,$FA,$1B,$48,$05,$EA,$EA,$08,$48,$A0,$CE,$68
	$EFBF               .byte $28,$20,$81,$FA,$AD,$47,$06,$C9,$4A,$F0,$02,$84,$00,$A0,$FF,$A9
	$EFCF               .byte $29,$8D,$47,$06,$20,$8C,$FA,$1B,$48,$05,$EA,$EA,$08,$48,$A0,$CF
	$EFDF               .byte $68,$28,$20,$91,$FA,$AD,$47,$06,$C9,$52,$F0,$02,$84,$00,$A0,$FF
	$EFEF               .byte $A9,$37,$8D,$47,$06,$20,$9E,$FA,$1B,$48,$05,$EA,$EA,$08,$48,$A0
	$EFFF               .byte $D0,$68,$28,$20,$A4,$FA,$AD,$47,$06,$C9,$6E,$F0,$02,$84,$00,$A0
	$F00F               .byte $D1,$A2,$FF,$A9,$A5,$8D,$47,$06,$20,$7B,$FA,$1F,$48,$05,$EA,$EA
	$F01F               .byte $EA,$EA,$20,$81,$FA,$AD,$47,$06,$C9,$4A,$F0,$02,$84,$00,$C8,$A9
	$F02F               .byte $29,$8D,$47,$06,$20,$8C,$FA,$1F,$48,$05,$EA,$EA,$EA,$EA,$20,$91
	$F03F               .byte $FA,$AD,$47,$06,$C9,$52,$F0,$02,$84,$00,$C8,$A9,$37,$8D,$47,$06
	$F04F               .byte $20,$9E,$FA,$1F,$48,$05,$EA,$EA,$EA,$EA,$20,$A4,$FA,$AD,$47,$06
	$F05F               .byte $C9,$6E,$F0,$02,$84,$00,$60,$A9,$FF,$85,$01,$A0,$D4,$A2,$02,$A9
	$F06F               .byte $47,$85,$47,$A9,$06,$85,$48,$A9,$A5,$8D,$47,$06,$20,$53,$FB,$23
	$F07F               .byte $45,$EA,$EA,$EA,$EA,$20,$59,$FB,$AD,$47,$06,$C9,$4A,$F0,$02,$84
	$F08F               .byte $00,$C8,$A9,$29,$8D,$47,$06,$20,$64,$FB,$23,$45,$EA,$EA,$EA,$EA
	$F09F               .byte $20,$69,$FB,$AD,$47,$06,$C9,$52,$F0,$02,$84,$00,$C8,$A9,$37,$8D
	$F0AF               .byte $47,$06,$20,$68,$FA,$23,$45,$EA,$EA,$EA,$EA,$20,$6E,$FA,$AD,$47
	$F0BF               .byte $06,$C9,$6F,$F0,$02,$84,$00,$C8,$A9,$A5,$85,$47,$20,$53,$FB,$27
	$F0CF               .byte $47,$EA,$EA,$EA,$EA,$20,$59,$FB,$A5,$47,$C9,$4A,$F0,$02,$84,$00
	$F0DF               .byte $C8,$A9,$29,$85,$47,$20,$64,$FB,$27,$47,$EA,$EA,$EA,$EA,$20,$69
	$F0EF               .byte $FB,$A5,$47,$C9,$52,$F0,$02,$84,$00,$C8,$A9,$37,$85,$47,$20,$68
	$F0FF               .byte $FA,$27,$47,$EA,$EA,$EA,$EA,$20,$6E,$FA,$A5,$47,$C9,$6F,$F0,$02
	$F10F               .byte $84,$00,$C8,$A9,$A5,$8D,$47,$06,$20,$53,$FB,$2F,$47,$06,$EA,$EA
	$F11F               .byte $EA,$EA,$20,$59,$FB,$AD,$47,$06,$C9,$4A,$F0,$02,$84,$00,$C8,$A9
	$F12F               .byte $29,$8D,$47,$06,$20,$64,$FB,$2F,$47,$06,$EA,$EA,$EA,$EA,$20,$69
	$F13F               .byte $FB,$AD,$47,$06,$C9,$52,$F0,$02,$84,$00,$C8,$A9,$37,$8D,$47,$06
	$F14F               .byte $20,$68,$FA,$2F,$47,$06,$EA,$EA,$EA,$EA,$20,$6E,$FA,$AD,$47,$06
	$F15F               .byte $C9,$6F,$F0,$02,$84,$00,$A9,$A5,$8D,$47,$06,$A9,$48,$85,$45,$A9
	$F16F               .byte $05,$85,$46,$A0,$FF,$20,$53,$FB,$33,$45,$EA,$EA,$08,$48,$A0,$DD
	$F17F               .byte $68,$28,$20,$59,$FB,$AD,$47,$06,$C9,$4A,$F0,$02,$84,$00,$A0,$FF
	$F18F               .byte $A9,$29,$8D,$47,$06,$20,$64,$FB,$33,$45,$EA,$EA,$08,$48,$A0,$DE
	$F19F               .byte $68,$28,$20,$69,$FB,$AD,$47,$06,$C9,$52,$F0,$02,$84,$00,$A0,$FF
	$F1AF               .byte $A9,$37,$8D,$47,$06,$20,$68,$FA,$33,$45,$EA,$EA,$08,$48,$A0,$DF
	$F1BF               .byte $68,$28,$20,$6E,$FA,$AD,$47,$06,$C9,$6F,$F0,$02,$84,$00,$A0,$E0
	$F1CF               .byte $A2,$FF,$A9,$A5,$85,$47,$20,$53,$FB,$37,$48,$EA,$EA,$EA,$EA,$20
	$F1DF               .byte $59,$FB,$A5,$47,$C9,$4A,$F0,$02,$84,$00,$C8,$A9,$29,$85,$47,$20
	$F1EF               .byte $64,$FB,$37,$48,$EA,$EA,$EA,$EA,$20,$69,$FB,$A5,$47,$C9,$52,$F0
	$F1FF               .byte $02,$84,$00,$C8,$A9,$37,$85,$47,$20,$68,$FA,$37,$48,$EA,$EA,$EA
	$F20F               .byte $EA,$20,$6E,$FA,$A5,$47,$C9,$6F,$F0,$02,$84,$00,$A9,$A5,$8D,$47
	$F21F               .byte $06,$A0,$FF,$20,$53,$FB,$3B,$48,$05,$EA,$EA,$08,$48,$A0,$E3,$68
	$F22F               .byte $28,$20,$59,$FB,$AD,$47,$06,$C9,$4A,$F0,$02,$84,$00,$A0,$FF,$A9
	$F23F               .byte $29,$8D,$47,$06,$20,$64,$FB,$3B,$48,$05,$EA,$EA,$08,$48,$A0,$E4
	$F24F               .byte $68,$28,$20,$69,$FB,$AD,$47,$06,$C9,$52,$F0,$02,$84,$00,$A0,$FF
	$F25F               .byte $A9,$37,$8D,$47,$06,$20,$68,$FA,$3B,$48,$05,$EA,$EA,$08,$48,$A0
	$F26F               .byte $E5,$68,$28,$20,$6E,$FA,$AD,$47,$06,$C9,$6F,$F0,$02,$84,$00,$A0
	$F27F               .byte $E6,$A2,$FF,$A9,$A5,$8D,$47,$06,$20,$53,$FB,$3F,$48,$05,$EA,$EA
	$F28F               .byte $EA,$EA,$20,$59,$FB,$AD,$47,$06,$C9,$4A,$F0,$02,$84,$00,$C8,$A9
	$F29F               .byte $29,$8D,$47,$06,$20,$64,$FB,$3F,$48,$05,$EA,$EA,$EA,$EA,$20,$69
	$F2AF               .byte $FB,$AD,$47,$06,$C9,$52,$F0,$02,$84,$00,$C8,$A9,$37,$8D,$47,$06
	$F2BF               .byte $20,$68,$FA,$3F,$48,$05,$EA,$EA,$EA,$EA,$20,$6E,$FA,$AD,$47,$06
	$F2CF               .byte $C9,$6F,$F0,$02,$84,$00,$60,$A9,$FF,$85,$01,$A0,$E9,$A2,$02,$A9
	$F2DF               .byte $47,$85,$47,$A9,$06,$85,$48,$A9,$A5,$8D,$47,$06,$20,$1D,$FB,$43
	$F2EF               .byte $45,$EA,$EA,$EA,$EA,$20,$23,$FB,$AD,$47,$06,$C9,$52,$F0,$02,$84
	$F2FF               .byte $00,$C8,$A9,$29,$8D,$47,$06,$20,$2E,$FB,$43,$45,$EA,$EA,$EA,$EA
	$F30F               .byte $20,$33,$FB,$AD,$47,$06,$C9,$14,$F0,$02,$84,$00,$C8,$A9,$37,$8D
	$F31F               .byte $47,$06,$20,$40,$FB,$43,$45,$EA,$EA,$EA,$EA,$20,$46,$FB,$AD,$47
	$F32F               .byte $06,$C9,$1B,$F0,$02,$84,$00,$C8,$A9,$A5,$85,$47,$20,$1D,$FB,$47
	$F33F               .byte $47,$EA,$EA,$EA,$EA,$20,$23,$FB,$A5,$47,$C9,$52,$F0,$02,$84,$00
	$F34F               .byte $C8,$A9,$29,$85,$47,$20,$2E,$FB,$47,$47,$EA,$EA,$EA,$EA,$20,$33
	$F35F               .byte $FB,$A5,$47,$C9,$14,$F0,$02,$84,$00,$C8,$A9,$37,$85,$47,$20,$40
	$F36F               .byte $FB,$47,$47,$EA,$EA,$EA,$EA,$20,$46,$FB,$A5,$47,$C9,$1B,$F0,$02
	$F37F               .byte $84,$00,$C8,$A9,$A5,$8D,$47,$06,$20,$1D,$FB,$4F,$47,$06,$EA,$EA
	$F38F               .byte $EA,$EA,$20,$23,$FB,$AD,$47,$06,$C9,$52,$F0,$02,$84,$00,$C8,$A9
	$F39F               .byte $29,$8D,$47,$06,$20,$2E,$FB,$4F,$47,$06,$EA,$EA,$EA,$EA,$20,$33
	$F3AF               .byte $FB,$AD,$47,$06,$C9,$14,$F0,$02,$84,$00,$C8,$A9,$37,$8D,$47,$06
	$F3BF               .byte $20,$40,$FB,$4F,$47,$06,$EA,$EA,$EA,$EA,$20,$46,$FB,$AD,$47,$06
	$F3CF               .byte $C9,$1B,$F0,$02,$84,$00,$A9,$A5,$8D,$47,$06,$A9,$48,$85,$45,$A9
	$F3DF               .byte $05,$85,$46,$A0,$FF,$20,$1D,$FB,$53,$45,$EA,$EA,$08,$48,$A0,$F2
	$F3EF               .byte $68,$28,$20,$23,$FB,$AD,$47,$06,$C9,$52,$F0,$02,$84,$00,$A0,$FF
	$F3FF               .byte $A9,$29,$8D,$47,$06,$20,$2E,$FB,$53,$45,$EA,$EA,$08,$48,$A0,$F3
	$F40F               .byte $68,$28,$20,$33,$FB,$AD,$47,$06,$C9,$14,$F0,$02,$84,$00,$A0,$FF
	$F41F               .byte $A9,$37,$8D,$47,$06,$20,$40,$FB,$53,$45,$EA,$EA,$08,$48,$A0,$F4
	$F42F               .byte $68,$28,$20,$46,$FB,$AD,$47,$06,$C9,$1B,$F0,$02,$84,$00,$A0,$F5
	$F43F               .byte $A2,$FF,$A9,$A5,$85,$47,$20,$1D,$FB,$57,$48,$EA,$EA,$EA,$EA,$20
	$F44F               .byte $23,$FB,$A5,$47,$C9,$52,$F0,$02,$84,$00,$C8,$A9,$29,$85,$47,$20
	$F45F               .byte $2E,$FB,$57,$48,$EA,$EA,$EA,$EA,$20,$33,$FB,$A5,$47,$C9,$14,$F0
	$F46F               .byte $02,$84,$00,$C8,$A9,$37,$85,$47,$20,$40,$FB,$57,$48,$EA,$EA,$EA
	$F47F               .byte $EA,$20,$46,$FB,$A5,$47,$C9,$1B,$F0,$02,$84,$00,$A9,$A5,$8D,$47
	$F48F               .byte $06,$A0,$FF,$20,$1D,$FB,$5B,$48,$05,$EA,$EA,$08,$48,$A0,$F8,$68
	$F49F               .byte $28,$20,$23,$FB,$AD,$47,$06,$C9,$52,$F0,$02,$84,$00,$A0,$FF,$A9
	$F4AF               .byte $29,$8D,$47,$06,$20,$2E,$FB,$5B,$48,$05,$EA,$EA,$08,$48,$A0,$F9
	$F4BF               .byte $68,$28,$20,$33,$FB,$AD,$47,$06,$C9,$14,$F0,$02,$84,$00,$A0,$FF
	$F4CF               .byte $A9,$37,$8D,$47,$06,$20,$40,$FB,$5B,$48,$05,$EA,$EA,$08,$48,$A0
	$F4DF               .byte $FA,$68,$28,$20,$46,$FB,$AD,$47,$06,$C9,$1B,$F0,$02,$84,$00,$A0
	$F4EF               .byte $FB,$A2,$FF,$A9,$A5,$8D,$47,$06,$20,$1D,$FB,$5F,$48,$05,$EA,$EA
	$F4FF               .byte $EA,$EA,$20,$23,$FB,$AD,$47,$06,$C9,$52,$F0,$02,$84,$00,$C8,$A9
	$F50F               .byte $29,$8D,$47,$06,$20,$2E,$FB,$5F,$48,$05,$EA,$EA,$EA,$EA,$20,$33
	$F51F               .byte $FB,$AD,$47,$06,$C9,$14,$F0,$02,$84,$00,$C8,$A9,$37,$8D,$47,$06
	$F52F               .byte $20,$40,$FB,$5F,$48,$05,$EA,$EA,$EA,$EA,$20,$46,$FB,$AD,$47,$06
	$F53F               .byte $C9,$1B,$F0,$02,$84,$00,$60,$A9,$FF,$85,$01,$A0,$01,$A2,$02,$A9
	$F54F               .byte $47,$85,$47,$A9,$06,$85,$48,$A9,$A5,$8D,$47,$06,$20,$E9,$FA,$63
	$F55F               .byte $45,$EA,$EA,$EA,$EA,$20,$EF,$FA,$AD,$47,$06,$C9,$52,$F0,$02,$84
	$F56F               .byte $00,$C8,$A9,$29,$8D,$47,$06,$20,$FA,$FA,$63,$45,$EA,$EA,$EA,$EA
	$F57F               .byte $20,$FF,$FA,$AD,$47,$06,$C9,$14,$F0,$02,$84,$00,$C8,$A9,$37,$8D
	$F58F               .byte $47,$06,$20,$0A,$FB,$63,$45,$EA,$EA,$EA,$EA,$20,$10,$FB,$AD,$47
	$F59F               .byte $06,$C9,$9B,$F0,$02,$84,$00,$C8,$A9,$A5,$85,$47,$20,$E9,$FA,$67
	$F5AF               .byte $47,$EA,$EA,$EA,$EA,$20,$EF,$FA,$A5,$47,$C9,$52,$F0,$02,$84,$00
	$F5BF               .byte $C8,$A9,$29,$85,$47,$20,$FA,$FA,$67,$47,$EA,$EA,$EA,$EA,$20,$FF
	$F5CF               .byte $FA,$A5,$47,$C9,$14,$F0,$02,$84,$00,$C8,$A9,$37,$85,$47,$20,$0A
	$F5DF               .byte $FB,$67,$47,$EA,$EA,$EA,$EA,$20,$10,$FB,$A5,$47,$C9,$9B,$F0,$02
	$F5EF               .byte $84,$00,$C8,$A9,$A5,$8D,$47,$06,$20,$E9,$FA,$6F,$47,$06,$EA,$EA
	$F5FF               .byte $EA,$EA,$20,$EF,$FA,$AD,$47,$06,$C9,$52,$F0,$02,$84,$00,$C8,$A9
	$F60F               .byte $29,$8D,$47,$06,$20,$FA,$FA,$6F,$47,$06,$EA,$EA,$EA,$EA,$20,$FF
	$F61F               .byte $FA,$AD,$47,$06,$C9,$14,$F0,$02,$84,$00,$C8,$A9,$37,$8D,$47,$06
	$F62F               .byte $20,$0A,$FB,$6F,$47,$06,$EA,$EA,$EA,$EA,$20,$10,$FB,$AD,$47,$06
	$F63F               .byte $C9,$9B,$F0,$02,$84,$00,$A9,$A5,$8D,$47,$06,$A9,$48,$85,$45,$A9
	$F64F               .byte $05,$85,$46,$A0,$FF,$20,$E9,$FA,$73,$45,$EA,$EA,$08,$48,$A0,$0A
	$F65F               .byte $68,$28,$20,$EF,$FA,$AD,$47,$06,$C9,$52,$F0,$02,$84,$00,$A0,$FF
	$F66F               .byte $A9,$29,$8D,$47,$06,$20,$FA,$FA,$73,$45,$EA,$EA,$08,$48,$A0,$0B
	$F67F               .byte $68,$28,$20,$FF,$FA,$AD,$47,$06,$C9,$14,$F0,$02,$84,$00,$A0,$FF
	$F68F               .byte $A9,$37,$8D,$47,$06,$20,$0A,$FB,$73,$45,$EA,$EA,$08,$48,$A0,$0C
	$F69F               .byte $68,$28,$20,$10,$FB,$AD,$47,$06,$C9,$9B,$F0,$02,$84,$00,$A0,$0D
	$F6AF               .byte $A2,$FF,$A9,$A5,$85,$47,$20,$E9,$FA,$77,$48,$EA,$EA,$EA,$EA,$20
	$F6BF               .byte $EF,$FA,$A5,$47,$C9,$52,$F0,$02,$84,$00,$C8,$A9,$29,$85,$47,$20
	$F6CF               .byte $FA,$FA,$77,$48,$EA,$EA,$EA,$EA,$20,$FF,$FA,$A5,$47,$C9,$14,$F0
	$F6DF               .byte $02,$84,$00,$C8,$A9,$37,$85,$47,$20,$0A,$FB,$77,$48,$EA,$EA,$EA
	$F6EF               .byte $EA,$20,$10,$FB,$A5,$47,$C9,$9B,$F0,$02,$84,$00,$A9,$A5,$8D,$47
	$F6FF               .byte $06,$A0,$FF,$20,$E9,$FA,$7B,$48,$05,$EA,$EA,$08,$48,$A0,$10,$68
	$F70F               .byte $28,$20,$EF,$FA,$AD,$47,$06,$C9,$52,$F0,$02,$84,$00,$A0,$FF,$A9
	$F71F               .byte $29,$8D,$47,$06,$20,$FA,$FA,$7B,$48,$05,$EA,$EA,$08,$48,$A0,$11
	$F72F               .byte $68,$28,$20,$FF,$FA,$AD,$47,$06,$C9,$14,$F0,$02,$84,$00,$A0,$FF
	$F73F               .byte $A9,$37,$8D,$47,$06,$20,$0A,$FB,$7B,$48,$05,$EA,$EA,$08,$48,$A0
	$F74F               .byte $12,$68,$28,$20,$10,$FB,$AD,$47,$06,$C9,$9B,$F0,$02,$84,$00,$A0
	$F75F               .byte $13,$A2,$FF,$A9,$A5,$8D,$47,$06,$20,$E9,$FA,$7F,$48,$05,$EA,$EA
	$F76F               .byte $EA,$EA,$20,$EF,$FA,$AD,$47,$06,$C9,$52,$F0,$02,$84,$00,$C8,$A9
	$F77F               .byte $29,$8D,$47,$06,$20,$FA,$FA,$7F,$48,$05,$EA,$EA,$EA,$EA,$20,$FF
	$F78F               .byte $FA,$AD,$47,$06,$C9,$14,$F0,$02,$84,$00,$C8,$A9,$37,$8D,$47,$06
	$F79F               .byte $20,$0A,$FB,$7F,$48,$05,$EA,$EA,$EA,$EA,$20,$10,$FB,$AD,$47,$06
	$F7AF               .byte $C9,$9B,$F0,$02,$84,$00,$60,$18,$A9,$FF,$85,$01,$24,$01,$A9,$55
	$F7BF               .byte $60,$B0,$09,$10,$07,$C9,$FF,$D0,$03,$50,$01,$60,$84,$00,$60,$38
	$F7CF               .byte $B8,$A9,$00,$60,$D0,$07,$70,$05,$90,$03,$30,$01,$60,$84,$00,$60
	$F7DF               .byte $18,$24,$01,$A9,$55,$60,$D0,$07,$50,$05,$B0,$03,$30,$01,$60,$84
	$F7EF               .byte $00,$60,$38,$B8,$A9,$F8,$60,$90,$09,$10,$07,$C9,$E8,$D0,$03,$70
	$F7FF               .byte $01,$60,$84,$00,$60,$18,$24,$01,$A9,$5F,$60,$B0,$09,$10,$07,$C9
	$F80F               .byte $F5,$D0,$03,$50,$01,$60,$84,$00,$60,$38,$B8,$A9,$70,$60,$D0,$07
	$F81F               .byte $70,$05,$90,$03,$30,$01,$60,$84,$00,$60,$18,$24,$01,$A9,$00,$60
	$F82F               .byte $30,$09,$B0,$07,$C9,$69,$D0,$03,$70,$01,$60,$84,$00,$60,$38,$24
	$F83F               .byte $01,$A9,$00,$60,$30,$09,$B0,$07,$C9,$6A,$D0,$03,$70,$01,$60,$84
	$F84F               .byte $00,$60,$38,$B8,$A9,$7F,$60,$10,$09,$B0,$07,$C9,$FF,$D0,$03,$50
	$F85F               .byte $01,$60,$84,$00,$60,$18,$24,$01,$A9,$7F,$60,$10,$09,$B0,$07,$C9
	$F86F               .byte $FF,$D0,$03,$70,$01,$60,$84,$00,$60,$38,$B8,$A9,$7F,$60,$D0,$07
	$F87F               .byte $30,$05,$70,$03,$90,$01,$60,$84,$00,$60,$24,$01,$A9,$40,$60,$30
	$F88F               .byte $07,$90,$05,$D0,$03,$50,$01,$60,$84,$00,$60,$B8,$60,$F0,$07,$30
	$F89F               .byte $05,$90,$03,$70,$01,$60,$84,$00,$60,$F0,$05,$10,$03,$10,$01,$60
	$F8AF               .byte $84,$00,$60,$A9,$80,$60,$F0,$05,$10,$03,$90,$01,$60,$84,$00,$60
	$F8BF               .byte $D0,$05,$30,$03,$90,$01,$60,$84,$00,$60,$B0,$05,$F0,$03,$10,$01
	$F8CF               .byte $60,$84,$00,$60,$90,$05,$F0,$03,$30,$01,$60,$84,$00,$60,$24,$01
	$F8DF               .byte $A0,$40,$60,$30,$07,$90,$05,$D0,$03,$50,$01,$60,$86,$00,$60,$B8
	$F8EF               .byte $60,$F0,$07,$30,$05,$90,$03,$70,$01,$60,$86,$00,$60,$F0,$05,$10
	$F8FF               .byte $03,$10,$01,$60,$86,$00,$60,$A0,$80,$60,$F0,$05,$10,$03,$90,$01
	$F90F               .byte $60,$86,$00,$60,$D0,$05,$30,$03,$90,$01,$60,$86,$00,$60,$B0,$05
	$F91F               .byte $F0,$03,$10,$01,$60,$86,$00,$60,$90,$05,$F0,$03,$30,$01,$60,$86
	$F92F               .byte $00,$60,$24,$01,$A9,$40,$38,$60,$30,$0B,$90,$09,$D0,$07,$70,$05
	$F93F               .byte $C9,$00,$D0,$01,$60,$84,$00,$60,$B8,$38,$A9,$40,$60,$F0,$0B,$30
	$F94F               .byte $09,$90,$07,$70,$05,$C9,$01,$D0,$01,$60,$84,$00,$60,$A9,$40,$38
	$F95F               .byte $24,$01,$60,$B0,$0B,$F0,$09,$10,$07,$70,$05,$C9,$FF,$D0,$01,$60
	$F96F               .byte $84,$00,$60,$18,$A9,$80,$60,$90,$05,$C9,$7F,$D0,$01,$60,$84,$00
	$F97F               .byte $60,$38,$A9,$81,$60,$50,$07,$90,$05,$C9,$02,$D0,$01,$60,$84,$00
	$F98F               .byte $60,$A2,$55,$A9,$FF,$85,$01,$EA,$24,$01,$38,$A9,$01,$60,$90,$1B
	$F99F               .byte $D0,$19,$30,$17,$50,$15,$C9,$00,$D0,$11,$B8,$A9,$AA,$60,$B0,$0B
	$F9AF               .byte $F0,$09,$30,$07,$70,$05,$C9,$55,$D0,$01,$60,$84,$00,$60,$24,$01
	$F9BF               .byte $38,$A9,$80,$60,$90,$1C,$D0,$1A,$30,$18,$50,$16,$C9,$00,$D0,$12
	$F9CF               .byte $B8,$A9,$55,$38,$60,$B0,$0B,$F0,$09,$10,$07,$70,$05,$C9,$AA,$D0
	$F9DF               .byte $01,$60,$84,$00,$60,$24,$01,$38,$A9,$01,$60,$90,$1C,$F0,$1A,$10
	$F9EF               .byte $18,$50,$16,$C9,$80,$D0,$12,$B8,$18,$A9,$55,$60,$90,$0B,$F0,$09
	$F9FF               .byte $30,$07,$70,$05,$C9,$2A,$D0,$01,$60,$84,$00,$24,$01,$38,$A9,$80
	$FA0F               .byte $60,$90,$1C,$F0,$1A,$30,$18,$50,$16,$C9,$01,$D0,$12,$B8,$18,$A9
	$FA1F               .byte $55,$60,$B0,$0B,$F0,$09,$10,$07,$70,$05,$C9,$AA,$D0,$01,$60,$84
	$FA2F               .byte $00,$60,$24,$01,$18,$A9,$40,$60,$50,$2C,$B0,$2A,$30,$28,$C9,$40
	$FA3F               .byte $D0,$24,$60,$B8,$38,$A9,$FF,$60,$70,$1C,$D0,$1A,$30,$18,$90,$16
	$FA4F               .byte $C9,$FF,$D0,$12,$60,$24,$01,$A9,$F0,$60,$50,$0A,$F0,$08,$10,$06
	$FA5F               .byte $90,$04,$C9,$F0,$F0,$02,$84,$00,$60,$24,$01,$38,$A9,$75,$60,$50
	$FA6F               .byte $76,$F0,$74,$30,$72,$B0,$70,$C9,$65,$D0,$6C,$60,$24,$01,$18,$A9
	$FA7F               .byte $B3,$60,$50,$63,$90,$61,$10,$5F,$C9,$FB,$D0,$5B,$60,$B8,$18,$A9
	$FA8F               .byte $C3,$60,$70,$53,$F0,$51,$10,$4F,$B0,$4D,$C9,$D3,$D0,$49,$60,$24
	$FA9F               .byte $01,$38,$A9,$10,$60,$50,$40,$F0,$3E,$30,$3C,$B0,$3A,$C9,$7E,$D0
	$FAAF               .byte $36,$60,$24,$01,$18,$A9,$40,$60,$70,$2D,$B0,$2B,$30,$29,$C9,$53
	$FABF               .byte $D0,$25,$60,$B8,$38,$A9,$FF,$60,$70,$1D,$F0,$1B,$10,$19,$90,$17
	$FACF               .byte $C9,$FF,$D0,$13,$60,$24,$01,$38,$A9,$F0,$60,$70,$0A,$F0,$08,$10
	$FADF               .byte $06,$90,$04,$C9,$B8,$F0,$02,$84,$00,$60,$24,$01,$18,$A9,$B2,$60
	$FAEF               .byte $70,$2A,$90,$28,$30,$26,$C9,$05,$D0,$22,$60,$B8,$18,$A9,$42,$60
	$FAFF               .byte $70,$1A,$30,$18,$B0,$16,$C9,$57,$D0,$12,$60,$24,$01,$38,$A9,$75
	$FB0F               .byte $60,$70,$09,$30,$07,$90,$05,$C9,$11,$D0,$01,$60,$85,$00,$24,$01
	$FB1F               .byte $18,$A9,$B3,$60,$50,$50,$90,$4E,$10,$4C,$C9,$E1,$D0,$48,$60,$B8
	$FB2F               .byte $18,$A9,$42,$60,$70,$40,$F0,$3E,$30,$3C,$90,$3A,$C9,$56,$D0,$36
	$FB3F               .byte $60,$24,$01,$38,$A9,$75,$60,$50,$2D,$F0,$2B,$30,$29,$90,$27,$C9
	$FB4F               .byte $6E,$D0,$23,$60,$24,$01,$18,$A9,$B3,$60,$50,$1A,$90,$18,$30,$16
	$FB5F               .byte $C9,$02,$D0,$12,$60,$B8,$18,$A9,$42,$60,$70,$0A,$F0,$08,$30,$06
	$FB6F               .byte $B0,$04,$C9,$42,$F0,$02,$84,$00,$60
_data_3B78
	$FB78               .byte $00,$00,$00,$00,$00,$00,$00,$00,$00,$00,$00,$00,$00,$00,$00,$00
	$FB88               .byte $80,$80,$FF,$80,$80,$00,$00,$00,$00,$00,$FF,$00,$00,$00,$00,$00
	$FB98               .byte $01,$01,$FF,$01,$01,$00,$00,$00,$00,$00,$00,$00,$00,$00,$00,$00
	$FBA8               .byte $7C,$FE,$00,$C0,$C0,$FE,$7C,$00,$FE,$FE,$00,$F0,$C0,$FE,$FE,$00
	$FBB8               .byte $C6,$C6,$02,$FE,$C6,$C6,$C6,$00,$CC,$D8,$00,$F0,$D8,$CC,$C6,$00
	$FBC8               .byte $C6,$EE,$02,$D6,$C6,$C6,$C6,$00,$C6,$C6,$02,$D6,$CE,$C6,$C6,$00
	$FBD8               .byte $7C,$FE,$02,$C6,$C6,$FE,$7C,$00,$FC,$FE,$02,$FC,$C0,$C0,$C0,$00
	$FBE8               .byte $CC,$CC,$00,$78,$30,$30,$30,$00,$18,$18,$18,$18,$18,$18,$18,$00
	$FBF8               .byte $FC,$FE,$02,$06,$1C,$70,$FE,$00,$FC,$FE,$02,$3C,$3C,$02,$FE,$00
	$FC08               .byte $18,$18,$D8,$D8,$FE,$18,$18,$00,$FE,$FE,$00,$80,$FC,$06,$FE,$00
	$FC18               .byte $7C,$FE,$00,$C0,$FC,$C6,$FE,$00,$FE,$FE,$06,$0C,$18,$10,$30,$00
	$FC28               .byte $00,$00,$00,$00,$00,$00,$00,$00,$00,$00,$00,$00,$00,$00,$00,$00
	$FC38               .byte $00,$00,$00,$00,$00,$00,$00,$00,$00,$00,$00,$00,$00,$00,$00,$00
	$FC48               .byte $00,$00,$00,$00,$00,$00,$00,$00,$00,$00,$00,$00,$00,$00,$00,$00
	$FC58               .byte $00,$00,$00,$00,$00,$00,$00,$00,$00,$00,$00,$00,$00,$00,$00,$00
	$FC68               .byte $18,$18,$18,$FF,$FF,$18,$18,$18,$18,$18,$18,$FF,$FF,$00,$00,$00
	$FC78               .byte $00,$00,$00,$00,$00,$00,$00,$00,$18,$18,$18,$18,$00,$18,$18,$00
	$FC88               .byte $33,$33,$66,$00,$00,$00,$00,$00,$66,$66,$FF,$66,$FF,$66,$66,$00
	$FC98               .byte $18,$3E,$60,$3C,$06,$7C,$18,$00,$62,$66,$0C,$18,$30,$66,$46,$00
	$FCA8               .byte $3C,$66,$3C,$38,$67,$66,$3F,$00,$0C,$0C,$18,$00,$00,$00,$00,$00
	$FCB8               .byte $0C,$18,$30,$30,$30,$18,$0C,$00,$30,$18,$0C,$0C,$0C,$18,$30,$00
	$FCC8               .byte $00,$66,$3C,$FF,$3C,$66,$00,$00,$00,$18,$18,$7E,$18,$18,$00,$00
	$FCD8               .byte $00,$00,$00,$00,$00,$18,$18,$30,$00,$00,$00,$6E,$3B,$00,$00,$00
	$FCE8               .byte $00,$00,$00,$00,$00,$18,$18,$00,$00,$03,$06,$0C,$18,$30,$60,$00
	$FCF8               .byte $3E,$63,$67,$6B,$73,$63,$3E,$00,$0C,$1C,$0C,$0C,$0C,$0C,$3F,$00
	$FD08               .byte $3E,$63,$63,$0E,$38,$63,$7F,$00,$3E,$63,$63,$0E,$63,$63,$3E,$00
	$FD18               .byte $06,$0E,$1E,$26,$7F,$06,$06,$00,$7F,$63,$60,$7E,$03,$63,$3E,$00
	$FD28               .byte $3E,$63,$60,$7E,$63,$63,$3E,$00,$7F,$63,$06,$0C,$18,$18,$3C,$00
	$FD38               .byte $3E,$63,$63,$3E,$63,$63,$3E,$00,$3E,$63,$63,$3F,$03,$63,$3E,$00
	$FD48               .byte $00,$00,$18,$18,$00,$18,$18,$00,$00,$00,$18,$18,$00,$18,$18,$30
	$FD58               .byte $0E,$18,$30,$60,$30,$18,$0E,$00,$00,$00,$7E,$00,$7E,$00,$00,$00
	$FD68               .byte $70,$18,$0C,$06,$0C,$18,$70,$00,$7E,$63,$03,$06,$1C,$00,$18,$18
	$FD78               .byte $7C,$C6,$CE,$EE,$E0,$E6,$7C,$00,$1C,$36,$63,$7F,$63,$63,$63,$00
	$FD88               .byte $6E,$73,$63,$7E,$63,$63,$7E,$00,$1E,$33,$60,$60,$60,$33,$1E,$00
	$FD98               .byte $6C,$76,$63,$63,$63,$66,$7C,$00,$7F,$31,$30,$3C,$30,$31,$7F,$00
	$FDA8               .byte $7F,$31,$30,$3C,$30,$30,$78,$00,$1E,$33,$60,$67,$63,$37,$1D,$00
	$FDB8               .byte $63,$63,$63,$7F,$63,$63,$63,$00,$3C,$18,$18,$18,$18,$18,$3C,$00
	$FDC8               .byte $1F,$06,$06,$06,$06,$66,$3C,$00,$66,$66,$6C,$78,$6C,$67,$63,$00
	$FDD8               .byte $78,$30,$60,$60,$63,$63,$7E,$00,$63,$77,$7F,$6B,$63,$63,$63,$00
	$FDE8               .byte $63,$73,$7B,$6F,$67,$63,$63,$00,$1C,$36,$63,$63,$63,$36,$1C,$00
	$FDF8               .byte $6E,$73,$63,$7E,$60,$60,$60,$00,$1C,$36,$63,$6B,$67,$36,$1D,$00
	$FE08               .byte $6E,$73,$63,$7E,$6C,$67,$63,$00,$3E,$63,$60,$3E,$03,$63,$3E,$00
	$FE18               .byte $7E,$5A,$18,$18,$18,$18,$3C,$00,$73,$33,$63,$63,$63,$76,$3C,$00
	$FE28               .byte $73,$33,$63,$63,$66,$3C,$18,$00,$73,$33,$63,$6B,$7F,$77,$63,$00
	$FE38               .byte $63,$63,$36,$1C,$36,$63,$63,$00,$33,$63,$63,$36,$1C,$78,$70,$00
	$FE48               .byte $7F,$63,$06,$1C,$33,$63,$7E,$00,$3C,$30,$30,$30,$30,$30,$3C,$00
	$FE58               .byte $40,$60,$30,$18,$0C,$06,$02,$00,$3C,$0C,$0C,$0C,$0C,$0C,$3C,$00
	$FE68               .byte $00,$18,$3C,$7E,$18,$18,$18,$18,$00,$00,$00,$00,$00,$00,$FF,$FF
	$FE78               .byte $30,$30,$18,$00,$00,$00,$00,$00,$00,$00,$3F,$63,$63,$67,$3B,$00
	$FE88               .byte $60,$60,$6E,$73,$63,$63,$3E,$00,$00,$00,$3E,$63,$60,$63,$3E,$00
	$FE98               .byte $03,$03,$3B,$67,$63,$63,$3E,$00,$00,$00,$3E,$61,$7F,$60,$3E,$00
	$FEA8               .byte $0E,$18,$18,$3C,$18,$18,$3C,$00,$00,$00,$3E,$60,$63,$63,$3D,$00
	$FEB8               .byte $60,$60,$6E,$73,$63,$66,$67,$00,$00,$00,$1E,$0C,$0C,$0C,$1E,$00
	$FEC8               .byte $00,$00,$3F,$06,$06,$06,$66,$3C,$60,$60,$66,$6E,$7C,$67,$63,$00
	$FED8               .byte $1C,$0C,$0C,$0C,$0C,$0C,$1E,$00,$00,$00,$6E,$7F,$6B,$62,$67,$00
	$FEE8               .byte $00,$00,$6E,$73,$63,$66,$67,$00,$00,$00,$3E,$63,$63,$63,$3E,$00
	$FEF8               .byte $00,$00,$3E,$63,$73,$6E,$60,$60,$00,$00,$3E,$63,$67,$3B,$03,$03
	$FF08               .byte $00,$00,$6E,$73,$63,$7E,$63,$00,$00,$00,$3E,$71,$1C,$47,$3E,$00
	$FF18               .byte $06,$0C,$3F,$18,$18,$1B,$0E,$00,$00,$00,$73,$33,$63,$67,$3B,$00
	$FF28               .byte $00,$00,$73,$33,$63,$66,$3C,$00,$00,$00,$63,$6B,$7F,$77,$63,$00
	$FF38               .byte $00,$00,$63,$36,$1C,$36,$63,$00,$00,$00,$33,$63,$63,$3F,$03,$3E
	$FF48               .byte $00,$00,$7F,$0E,$1C,$38,$7F,$00,$3C,$42,$99,$A1,$A1,$99,$42,$3C
	$FF58               .byte $00,$00,$00,$00,$00,$00,$00,$00,$00,$00,$00,$00,$00,$00,$00,$00
	$FF68               .byte $00,$00,$00,$00,$00,$00,$00,$00,$00,$00,$00,$00,$00,$00,$00,$00
_data_3F78_indexed
	$FF78               .byte $0F,$06,$12,$33,$33,$06,$12,$33,$38,$06,$12,$33,$3A,$06,$12,$33
	$FF88               .byte $0F,$06,$12,$33,$33,$06,$12,$33,$38,$06,$12,$33,$3A,$06,$12,$33
	$FF98               .byte $00,$00,$00,$00,$00,$00,$00,$00,$00,$00,$00,$00,$00,$00,$00,$00
	$FFA8               .byte $00,$00,$00,$00,$00,$00,$00,$00,$00,$00,$00,$00,$00,$00,$00,$00
	$FFB8               .byte $00,$00,$00,$00,$00,$00,$00,$00,$00,$00,$00,$00,$00,$00,$00,$00
	$FFC8               .byte $00,$00,$00,$00,$00,$00,$00,$00,$00,$00,$00,$00,$00,$00,$00,$00
	$FFD8               .byte $00,$00,$00,$00,$00,$00,$00,$00,$00,$00,$00,$00,$00,$00,$00,$00
	$FFE8               .byte $00,$00,$00,$00,$00,$00,$00,$00,$00,$00,$00,$00,$00,$00,$00,$00
	$FFF8               .byte $00,$00,$AF,$C5,$04,$C0,$F4,$C5
